Archive member included to satisfy reference by file (symbol)

/usr/lib/gcc/arm-none-eabi/4.9.3/../../../arm-none-eabi/lib/armv7-m/libc_nano.a(lib_a-atoi.o)
                              obj/main/NAZE/../controller/io/ledstrip.o (symbol from plugin) (atoi)
/usr/lib/gcc/arm-none-eabi/4.9.3/../../../arm-none-eabi/lib/armv7-m/libc_nano.a(lib_a-ctype_.o)
                              obj/main/NAZE/../controller/flight/gps_conversion.o (symbol from plugin) (__ctype_ptr__)
/usr/lib/gcc/arm-none-eabi/4.9.3/../../../arm-none-eabi/lib/armv7-m/libc_nano.a(lib_a-strtok.o)
                              obj/main/NAZE/../controller/io/serial_cli.o (symbol from plugin) (strtok)
/usr/lib/gcc/arm-none-eabi/4.9.3/../../../arm-none-eabi/lib/armv7-m/libc_nano.a(lib_a-strtok_r.o)
                              /usr/lib/gcc/arm-none-eabi/4.9.3/../../../arm-none-eabi/lib/armv7-m/libc_nano.a(lib_a-strtok.o) (__strtok_r)
/usr/lib/gcc/arm-none-eabi/4.9.3/../../../arm-none-eabi/lib/armv7-m/libc_nano.a(lib_a-strtol.o)
                              /usr/lib/gcc/arm-none-eabi/4.9.3/../../../arm-none-eabi/lib/armv7-m/libc_nano.a(lib_a-atoi.o) (_strtol_r)
/usr/lib/gcc/arm-none-eabi/4.9.3/../../../arm-none-eabi/lib/armv7-m/libc_nano.a(lib_a-impure.o)
                              /usr/lib/gcc/arm-none-eabi/4.9.3/../../../arm-none-eabi/lib/armv7-m/libc_nano.a(lib_a-strtok.o) (_impure_ptr)
/usr/lib/gcc/arm-none-eabi/4.9.3/../../../arm-none-eabi/lib/armv7-m/libc_nano.a(lib_a-malloc.o)
                              /usr/lib/gcc/arm-none-eabi/4.9.3/../../../arm-none-eabi/lib/armv7-m/libc_nano.a(lib_a-strtok.o) (malloc)
/usr/lib/gcc/arm-none-eabi/4.9.3/../../../arm-none-eabi/lib/armv7-m/libc_nano.a(lib_a-nano-freer.o)
                              /usr/lib/gcc/arm-none-eabi/4.9.3/../../../arm-none-eabi/lib/armv7-m/libc_nano.a(lib_a-malloc.o) (_free_r)
/usr/lib/gcc/arm-none-eabi/4.9.3/../../../arm-none-eabi/lib/armv7-m/libc_nano.a(lib_a-nano-mallocr.o)
                              /usr/lib/gcc/arm-none-eabi/4.9.3/../../../arm-none-eabi/lib/armv7-m/libc_nano.a(lib_a-malloc.o) (_malloc_r)
/usr/lib/gcc/arm-none-eabi/4.9.3/../../../arm-none-eabi/lib/armv7-m/libc_nano.a(lib_a-sbrkr.o)
                              /usr/lib/gcc/arm-none-eabi/4.9.3/../../../arm-none-eabi/lib/armv7-m/libc_nano.a(lib_a-nano-mallocr.o) (_sbrk_r)
/usr/lib/gcc/arm-none-eabi/4.9.3/../../../arm-none-eabi/lib/armv7-m/libc_nano.a(lib_a-reent.o)
                              /usr/lib/gcc/arm-none-eabi/4.9.3/../../../arm-none-eabi/lib/armv7-m/libc_nano.a(lib_a-sbrkr.o) (errno)
/usr/lib/gcc/arm-none-eabi/4.9.3/../../../arm-none-eabi/lib/armv7-m/libnosys.a(sbrk.o)
                              /usr/lib/gcc/arm-none-eabi/4.9.3/../../../arm-none-eabi/lib/armv7-m/libc_nano.a(lib_a-sbrkr.o) (_sbrk)
/usr/lib/gcc/arm-none-eabi/4.9.3/../../../arm-none-eabi/lib/armv7-m/libm.a(lib_a-sf_lrint.o)
                              /tmp/cclQ5C5v.ltrans1.ltrans.o (lrintf)
/usr/lib/gcc/arm-none-eabi/4.9.3/../../../arm-none-eabi/lib/armv7-m/libm.a(lib_a-wf_pow.o)
                              /tmp/cclQ5C5v.ltrans22.ltrans.o (powf)
/usr/lib/gcc/arm-none-eabi/4.9.3/../../../arm-none-eabi/lib/armv7-m/libm.a(lib_a-wf_sqrt.o)
                              /tmp/cclQ5C5v.ltrans1.ltrans.o (sqrtf)
/usr/lib/gcc/arm-none-eabi/4.9.3/../../../arm-none-eabi/lib/armv7-m/libm.a(lib_a-ef_pow.o)
                              /usr/lib/gcc/arm-none-eabi/4.9.3/../../../arm-none-eabi/lib/armv7-m/libm.a(lib_a-wf_pow.o) (__ieee754_powf)
/usr/lib/gcc/arm-none-eabi/4.9.3/../../../arm-none-eabi/lib/armv7-m/libm.a(lib_a-ef_sqrt.o)
                              /usr/lib/gcc/arm-none-eabi/4.9.3/../../../arm-none-eabi/lib/armv7-m/libm.a(lib_a-wf_sqrt.o) (__ieee754_sqrtf)
/usr/lib/gcc/arm-none-eabi/4.9.3/../../../arm-none-eabi/lib/armv7-m/libm.a(lib_a-s_lib_ver.o)
                              /usr/lib/gcc/arm-none-eabi/4.9.3/../../../arm-none-eabi/lib/armv7-m/libm.a(lib_a-wf_pow.o) (__fdlib_version)
/usr/lib/gcc/arm-none-eabi/4.9.3/../../../arm-none-eabi/lib/armv7-m/libm.a(lib_a-s_matherr.o)
                              /usr/lib/gcc/arm-none-eabi/4.9.3/../../../arm-none-eabi/lib/armv7-m/libm.a(lib_a-wf_pow.o) (matherr)
/usr/lib/gcc/arm-none-eabi/4.9.3/../../../arm-none-eabi/lib/armv7-m/libm.a(lib_a-s_rint.o)
                              /usr/lib/gcc/arm-none-eabi/4.9.3/../../../arm-none-eabi/lib/armv7-m/libm.a(lib_a-wf_pow.o) (rint)
/usr/lib/gcc/arm-none-eabi/4.9.3/../../../arm-none-eabi/lib/armv7-m/libm.a(lib_a-sf_fabs.o)
                              /usr/lib/gcc/arm-none-eabi/4.9.3/../../../arm-none-eabi/lib/armv7-m/libm.a(lib_a-ef_pow.o) (fabsf)
/usr/lib/gcc/arm-none-eabi/4.9.3/../../../arm-none-eabi/lib/armv7-m/libm.a(lib_a-sf_finite.o)
                              /usr/lib/gcc/arm-none-eabi/4.9.3/../../../arm-none-eabi/lib/armv7-m/libm.a(lib_a-wf_pow.o) (finitef)
/usr/lib/gcc/arm-none-eabi/4.9.3/../../../arm-none-eabi/lib/armv7-m/libm.a(lib_a-sf_fpclassify.o)
                              /usr/lib/gcc/arm-none-eabi/4.9.3/../../../arm-none-eabi/lib/armv7-m/libm.a(lib_a-wf_pow.o) (__fpclassifyf)
/usr/lib/gcc/arm-none-eabi/4.9.3/../../../arm-none-eabi/lib/armv7-m/libm.a(lib_a-sf_nan.o)
                              /usr/lib/gcc/arm-none-eabi/4.9.3/../../../arm-none-eabi/lib/armv7-m/libm.a(lib_a-ef_pow.o) (nanf)
/usr/lib/gcc/arm-none-eabi/4.9.3/../../../arm-none-eabi/lib/armv7-m/libm.a(lib_a-sf_scalbn.o)
                              /usr/lib/gcc/arm-none-eabi/4.9.3/../../../arm-none-eabi/lib/armv7-m/libm.a(lib_a-ef_pow.o) (scalbnf)
/usr/lib/gcc/arm-none-eabi/4.9.3/../../../arm-none-eabi/lib/armv7-m/libm.a(lib_a-sf_copysign.o)
                              /usr/lib/gcc/arm-none-eabi/4.9.3/../../../arm-none-eabi/lib/armv7-m/libm.a(lib_a-sf_scalbn.o) (copysignf)
/usr/lib/gcc/arm-none-eabi/4.9.3/../../../arm-none-eabi/lib/armv7-m/libc_nano.a(lib_a-calloc.o)
                              /tmp/cclQ5C5v.ltrans0.ltrans.o (calloc)
/usr/lib/gcc/arm-none-eabi/4.9.3/../../../arm-none-eabi/lib/armv7-m/libc_nano.a(lib_a-errno.o)
                              /usr/lib/gcc/arm-none-eabi/4.9.3/../../../arm-none-eabi/lib/armv7-m/libm.a(lib_a-wf_pow.o) (__errno)
/usr/lib/gcc/arm-none-eabi/4.9.3/../../../arm-none-eabi/lib/armv7-m/libc_nano.a(lib_a-memcmp.o)
                              /tmp/cclQ5C5v.ltrans10.ltrans.o (memcmp)
/usr/lib/gcc/arm-none-eabi/4.9.3/../../../arm-none-eabi/lib/armv7-m/libc_nano.a(lib_a-memcpy.o)
                              /tmp/cclQ5C5v.ltrans6.ltrans.o (memcpy)
/usr/lib/gcc/arm-none-eabi/4.9.3/../../../arm-none-eabi/lib/armv7-m/libc_nano.a(lib_a-memset.o)
                              /tmp/cclQ5C5v.ltrans0.ltrans.o (memset)
/usr/lib/gcc/arm-none-eabi/4.9.3/../../../arm-none-eabi/lib/armv7-m/libc_nano.a(lib_a-nano-callocr.o)
                              /usr/lib/gcc/arm-none-eabi/4.9.3/../../../arm-none-eabi/lib/armv7-m/libc_nano.a(lib_a-calloc.o) (_calloc_r)
/usr/lib/gcc/arm-none-eabi/4.9.3/../../../arm-none-eabi/lib/armv7-m/libc_nano.a(lib_a-strcasecmp.o)
                              /tmp/cclQ5C5v.ltrans7.ltrans.o (strcasecmp)
/usr/lib/gcc/arm-none-eabi/4.9.3/../../../arm-none-eabi/lib/armv7-m/libc_nano.a(lib_a-strcat.o)
                              /tmp/cclQ5C5v.ltrans6.ltrans.o (strcat)
/usr/lib/gcc/arm-none-eabi/4.9.3/../../../arm-none-eabi/lib/armv7-m/libc_nano.a(lib_a-strchr.o)
                              /tmp/cclQ5C5v.ltrans2.ltrans.o (strchr)
/usr/lib/gcc/arm-none-eabi/4.9.3/../../../arm-none-eabi/lib/armv7-m/libc_nano.a(lib_a-strlen.o)
                              /tmp/cclQ5C5v.ltrans2.ltrans.o (strlen)
/usr/lib/gcc/arm-none-eabi/4.9.3/../../../arm-none-eabi/lib/armv7-m/libc_nano.a(lib_a-strncasecmp.o)
                              /tmp/cclQ5C5v.ltrans2.ltrans.o (strncasecmp)
/usr/lib/gcc/arm-none-eabi/4.9.3/../../../arm-none-eabi/lib/armv7-m/libc_nano.a(lib_a-strncpy.o)
                              /tmp/cclQ5C5v.ltrans6.ltrans.o (strncpy)
/usr/lib/gcc/arm-none-eabi/4.9.3/../../../arm-none-eabi/lib/armv7-m/libc_nano.a(lib_a-strstr.o)
                              /tmp/cclQ5C5v.ltrans24.ltrans.o (strstr)
/usr/lib/gcc/arm-none-eabi/4.9.3/armv7-m/libgcc.a(_arm_addsubdf3.o)
                              /usr/lib/gcc/arm-none-eabi/4.9.3/../../../arm-none-eabi/lib/armv7-m/libm.a(lib_a-s_rint.o) (__aeabi_dsub)
/usr/lib/gcc/arm-none-eabi/4.9.3/armv7-m/libgcc.a(_arm_muldivdf3.o)
                              /tmp/cclQ5C5v.ltrans26.ltrans.o (__aeabi_dmul)
/usr/lib/gcc/arm-none-eabi/4.9.3/armv7-m/libgcc.a(_arm_cmpdf2.o)
                              /usr/lib/gcc/arm-none-eabi/4.9.3/../../../arm-none-eabi/lib/armv7-m/libm.a(lib_a-wf_pow.o) (__aeabi_dcmpeq)
/usr/lib/gcc/arm-none-eabi/4.9.3/armv7-m/libgcc.a(_arm_truncdfsf2.o)
                              /tmp/cclQ5C5v.ltrans4.ltrans.o (__aeabi_d2f)
/usr/lib/gcc/arm-none-eabi/4.9.3/armv7-m/libgcc.a(_arm_addsubsf3.o)
                              /tmp/cclQ5C5v.ltrans0.ltrans.o (__aeabi_fsub)
/usr/lib/gcc/arm-none-eabi/4.9.3/armv7-m/libgcc.a(_arm_muldivsf3.o)
                              /tmp/cclQ5C5v.ltrans0.ltrans.o (__aeabi_fmul)
/usr/lib/gcc/arm-none-eabi/4.9.3/armv7-m/libgcc.a(_arm_cmpsf2.o)
                              /tmp/cclQ5C5v.ltrans0.ltrans.o (__aeabi_fcmpeq)
/usr/lib/gcc/arm-none-eabi/4.9.3/armv7-m/libgcc.a(_arm_fixsfsi.o)
                              /tmp/cclQ5C5v.ltrans1.ltrans.o (__aeabi_f2iz)
/usr/lib/gcc/arm-none-eabi/4.9.3/armv7-m/libgcc.a(_arm_fixunssfsi.o)
                              /tmp/cclQ5C5v.ltrans1.ltrans.o (__aeabi_f2uiz)
/usr/lib/gcc/arm-none-eabi/4.9.3/armv7-m/libgcc.a(_aeabi_ldivmod.o)
                              /tmp/cclQ5C5v.ltrans27.ltrans.o (__aeabi_ldivmod)
/usr/lib/gcc/arm-none-eabi/4.9.3/armv7-m/libgcc.a(bpabi.o)
                              /usr/lib/gcc/arm-none-eabi/4.9.3/armv7-m/libgcc.a(_aeabi_ldivmod.o) (__gnu_ldivmod_helper)
/usr/lib/gcc/arm-none-eabi/4.9.3/armv7-m/libgcc.a(_dvmd_tls.o)
                              /usr/lib/gcc/arm-none-eabi/4.9.3/armv7-m/libgcc.a(_aeabi_ldivmod.o) (__aeabi_ldiv0)
/usr/lib/gcc/arm-none-eabi/4.9.3/armv7-m/libgcc.a(_divdi3.o)
                              /usr/lib/gcc/arm-none-eabi/4.9.3/armv7-m/libgcc.a(bpabi.o) (__divdi3)
/usr/lib/gcc/arm-none-eabi/4.9.3/armv7-m/libgcc.a(_udivdi3.o)
                              /usr/lib/gcc/arm-none-eabi/4.9.3/armv7-m/libgcc.a(bpabi.o) (__udivdi3)

Allocating common symbols
Common symbol       size              file

mpuDetectionResult  0x2               obj/main/NAZE/drivers/accgyro_mpu.o (symbol from plugin)
timerChannelInfo    0xe               obj/main/NAZE/drivers/timer.o (symbol from plugin)
ledGridWidth        0x1               obj/main/NAZE/../controller/io/ledstrip.o (symbol from plugin)
baro_cf_alt         0x4               obj/main/NAZE/../controller/sensors/sonar.o (symbol from plugin)
ubx_nav_status_bits
                    0x1               obj/main/NAZE/../controller/io/gps.o (symbol from plugin)
softSerialPorts     0x4a0             obj/main/NAZE/drivers/serial_softserial.o (symbol from plugin)
filteredCycleTime   0x2               obj/main/NAZE/../controller/mw.o (symbol from plugin)
telemTemperature1   0x2               obj/main/NAZE/../controller/mw.o (symbol from plugin)
sonarMaxRangeCm     0x2               obj/main/NAZE/../controller/sensors/sonar.o (symbol from plugin)
errno               0x4               /usr/lib/gcc/arm-none-eabi/4.9.3/../../../arm-none-eabi/lib/armv7-m/libc_nano.a(lib_a-reent.o)
rcRaw               0x24              obj/main/NAZE/../controller/rx/rx.o (symbol from plugin)
escCount            0x1               obj/main/NAZE/../controller/io/serial_1wire.o (symbol from plugin)
ubx_protocol_bytes  0x1               obj/main/NAZE/../controller/io/gps.o (symbol from plugin)
inputSource_e       0x1               obj/main/NAZE/../controller/telemetry/frsky.o (symbol from plugin)
timerInfo           0x4               obj/main/NAZE/drivers/timer.o (symbol from plugin)
magADCRaw           0x6               obj/main/NAZE/../controller/sensors/compass.o (symbol from plugin)
ledsInRingCount     0x1               obj/main/NAZE/../controller/io/ledstrip.o (symbol from plugin)
axis                0x4               obj/main/NAZE/../controller/sensors/gyro.o (symbol from plugin)
dynI8               0x3               obj/main/NAZE/../controller/flight/pid.o (symbol from plugin)
sectionTimes        0x20              obj/main/NAZE/debug.o (symbol from plugin)
gyroADCRaw          0x6               obj/main/NAZE/../controller/sensors/gyro.o (symbol from plugin)
cachedRccCsrValue   0x4               obj/main/NAZE/drivers/system.o (symbol from plugin)
baro_cf_vel         0x4               obj/main/NAZE/../controller/sensors/sonar.o (symbol from plugin)
ubs_nav_fix_type    0x1               obj/main/NAZE/../controller/io/gps.o (symbol from plugin)
ledGridHeight       0x1               obj/main/NAZE/../controller/io/ledstrip.o (symbol from plugin)

Discarded input sections

 .text          0x00000000       0x14 obj/main/NAZE/startup_stm32f10x_md_gcc.o
 .data          0x00000000        0x0 obj/main/NAZE/startup_stm32f10x_md_gcc.o
 .bss           0x00000000        0x0 obj/main/NAZE/startup_stm32f10x_md_gcc.o
 .text          0x00000000        0x0 obj/main/NAZE/drivers/accgyro_adxl345.o (symbol from plugin)
 .data          0x00000000        0x0 /tmp/cclQ5C5v.ltrans0.ltrans.o
 .data          0x00000000        0x0 /tmp/cclQ5C5v.ltrans1.ltrans.o
 .data          0x00000000        0x0 /tmp/cclQ5C5v.ltrans2.ltrans.o
 .data          0x00000000        0x0 /tmp/cclQ5C5v.ltrans4.ltrans.o
 .data          0x00000000        0x0 /tmp/cclQ5C5v.ltrans6.ltrans.o
 .data          0x00000000        0x0 /tmp/cclQ5C5v.ltrans7.ltrans.o
 .data          0x00000000        0x0 /tmp/cclQ5C5v.ltrans10.ltrans.o
 .data          0x00000000        0x0 /tmp/cclQ5C5v.ltrans13.ltrans.o
 .data          0x00000000        0x0 /tmp/cclQ5C5v.ltrans15.ltrans.o
 .data          0x00000000        0x0 /tmp/cclQ5C5v.ltrans16.ltrans.o
 .data          0x00000000        0x0 /tmp/cclQ5C5v.ltrans17.ltrans.o
 .data          0x00000000        0x0 /tmp/cclQ5C5v.ltrans18.ltrans.o
 .data          0x00000000        0x0 /tmp/cclQ5C5v.ltrans19.ltrans.o
 .data          0x00000000        0x0 /tmp/cclQ5C5v.ltrans20.ltrans.o
 .data          0x00000000        0x0 /tmp/cclQ5C5v.ltrans22.ltrans.o
 .data          0x00000000        0x0 /tmp/cclQ5C5v.ltrans23.ltrans.o
 .data          0x00000000        0x0 /tmp/cclQ5C5v.ltrans24.ltrans.o
 .rodata.targetName
                0x00000000        0x4 /tmp/cclQ5C5v.ltrans24.ltrans.o
 .data          0x00000000        0x0 /tmp/cclQ5C5v.ltrans27.ltrans.o
 .data          0x00000000        0x0 /tmp/cclQ5C5v.ltrans28.ltrans.o
 .text          0x00000000        0x0 obj/main/NAZE/drivers/accgyro_bma280.o (symbol from plugin)
 .text          0x00000000        0x0 obj/main/NAZE/drivers/accgyro_l3g4200d.o (symbol from plugin)
 .text          0x00000000        0x0 obj/main/NAZE/drivers/accgyro_mma845x.o (symbol from plugin)
 .text          0x00000000        0x0 obj/main/NAZE/drivers/accgyro_mpu.o (symbol from plugin)
 .text          0x00000000        0x0 obj/main/NAZE/drivers/accgyro_mpu3050.o (symbol from plugin)
 .text          0x00000000        0x0 obj/main/NAZE/drivers/accgyro_mpu6050.o (symbol from plugin)
 .text          0x00000000        0x0 obj/main/NAZE/drivers/accgyro_mpu6500.o (symbol from plugin)
 .text          0x00000000        0x0 obj/main/NAZE/drivers/accgyro_spi_mpu6500.o (symbol from plugin)
 .text          0x00000000        0x0 obj/main/NAZE/drivers/adc.o (symbol from plugin)
 .text          0x00000000        0x0 obj/main/NAZE/drivers/adc_stm32f10x.o (symbol from plugin)
 .text          0x00000000        0x0 obj/main/NAZE/drivers/barometer_bmp085.o (symbol from plugin)
 .text          0x00000000        0x0 obj/main/NAZE/drivers/barometer_ms5611.o (symbol from plugin)
 .text          0x00000000        0x0 obj/main/NAZE/drivers/barometer_bmp280.o (symbol from plugin)
 .text          0x00000000        0x0 obj/main/NAZE/drivers/bus_spi.o (symbol from plugin)
 .text          0x00000000        0x0 obj/main/NAZE/drivers/bus_i2c_stm32f10x.o (symbol from plugin)
 .text          0x00000000        0x0 obj/main/NAZE/drivers/compass_hmc5883l.o (symbol from plugin)
 .text          0x00000000        0x0 obj/main/NAZE/drivers/compass_qmc5883l.o (symbol from plugin)
 .text          0x00000000        0x0 obj/main/NAZE/drivers/display_ug2864hsweg01.o (symbol from plugin)
 .text          0x00000000        0x0 obj/main/NAZE/drivers/flash_m25p16.o (symbol from plugin)
 .text          0x00000000        0x0 obj/main/NAZE/drivers/gpio_stm32f10x.o (symbol from plugin)
 .text          0x00000000        0x0 obj/main/NAZE/drivers/inverter.o (symbol from plugin)
 .text          0x00000000        0x0 obj/main/NAZE/drivers/light_led_stm32f10x.o (symbol from plugin)
 .text          0x00000000        0x0 obj/main/NAZE/drivers/light_ws2811strip.o (symbol from plugin)
 .text          0x00000000        0x0 obj/main/NAZE/drivers/light_ws2811strip_stm32f10x.o (symbol from plugin)
 .text          0x00000000        0x0 obj/main/NAZE/drivers/sonar_hcsr04.o (symbol from plugin)
 .text          0x00000000        0x0 obj/main/NAZE/drivers/pwm_mapping.o (symbol from plugin)
 .text          0x00000000        0x0 obj/main/NAZE/drivers/pwm_output.o (symbol from plugin)
 .text          0x00000000        0x0 obj/main/NAZE/drivers/pwm_rx.o (symbol from plugin)
 .text          0x00000000        0x0 obj/main/NAZE/drivers/serial_softserial.o (symbol from plugin)
 .text          0x00000000        0x0 obj/main/NAZE/drivers/serial_uart.o (symbol from plugin)
 .text          0x00000000        0x0 obj/main/NAZE/drivers/serial_uart_stm32f10x.o (symbol from plugin)
 .text          0x00000000        0x0 obj/main/NAZE/drivers/sound_beeper_stm32f10x.o (symbol from plugin)
 .text          0x00000000        0x0 obj/main/NAZE/drivers/system_stm32f10x.o (symbol from plugin)
 .text          0x00000000        0x0 obj/main/NAZE/drivers/timer.o (symbol from plugin)
 .text          0x00000000        0x0 obj/main/NAZE/drivers/timer_stm32f10x.o (symbol from plugin)
 .text          0x00000000        0x0 obj/main/NAZE/../controller/io/flashfs.o (symbol from plugin)
 .text          0x00000000        0x0 obj/main/NAZE/hardware_revision.o (symbol from plugin)
 .text          0x00000000        0x0 obj/main/NAZE/../controller/flight/gtune.o (symbol from plugin)
 .text          0x00000000        0x0 obj/main/NAZE/../controller/flight/navigation.o (symbol from plugin)
 .text          0x00000000        0x0 obj/main/NAZE/../controller/flight/gps_conversion.o (symbol from plugin)
 .text          0x00000000        0x0 obj/main/NAZE/../controller/common/colorconversion.o (symbol from plugin)
 .text          0x00000000        0x0 obj/main/NAZE/../controller/io/gps.o (symbol from plugin)
 .text          0x00000000        0x0 obj/main/NAZE/../controller/io/ledstrip.o (symbol from plugin)
 .text          0x00000000        0x0 obj/main/NAZE/../controller/io/display.o (symbol from plugin)
 .text          0x00000000        0x0 obj/main/NAZE/../controller/telemetry/telemetry.o (symbol from plugin)
 .text          0x00000000        0x0 obj/main/NAZE/../controller/telemetry/frsky.o (symbol from plugin)
 .text          0x00000000        0x0 obj/main/NAZE/../controller/telemetry/hott.o (symbol from plugin)
 .text          0x00000000        0x0 obj/main/NAZE/../controller/telemetry/smartport.o (symbol from plugin)
 .text          0x00000000        0x0 obj/main/NAZE/../controller/telemetry/ltm.o (symbol from plugin)
 .text          0x00000000        0x0 obj/main/NAZE/../controller/sensors/sonar.o (symbol from plugin)
 .text          0x00000000        0x0 obj/main/NAZE/../controller/sensors/barometer.o (symbol from plugin)
 .text          0x00000000        0x0 obj/main/NAZE/../controller/blackbox/blackbox.o (symbol from plugin)
 .text          0x00000000        0x0 obj/main/NAZE/../controller/blackbox/blackbox_io.o (symbol from plugin)
 .text          0x00000000        0x0 obj/main/NAZE/build_config.o (symbol from plugin)
 .text          0x00000000        0x0 obj/main/NAZE/debug.o (symbol from plugin)
 .text          0x00000000        0x0 obj/main/NAZE/../controller/version.o (symbol from plugin)
 .text          0x00000000        0x0 obj/main/NAZE/../controller/config/config.o (symbol from plugin)
 .text          0x00000000        0x0 obj/main/NAZE/../controller/config/runtime_config.o (symbol from plugin)
 .text          0x00000000        0x0 obj/main/NAZE/../controller/common/maths.o (symbol from plugin)
 .text          0x00000000        0x0 obj/main/NAZE/../controller/common/printf.o (symbol from plugin)
 .text          0x00000000        0x0 obj/main/NAZE/../controller/common/typeconversion.o (symbol from plugin)
 .text          0x00000000        0x0 obj/main/NAZE/../controller/common/encoding.o (symbol from plugin)
 .text          0x00000000        0x0 obj/main/NAZE/../controller/common/filter.o (symbol from plugin)
 .text          0x00000000        0x0 obj/main/NAZE/../controller/scheduler.o (symbol from plugin)
 .text          0x00000000        0x0 obj/main/NAZE/../controller/scheduler_tasks.o (symbol from plugin)
 .text          0x00000000        0x0 obj/main/NAZE/main.o (symbol from plugin)
 .text          0x00000000        0x0 obj/main/NAZE/../controller/mw.o (symbol from plugin)
 .text          0x00000000        0x0 obj/main/NAZE/../controller/flight/altitudehold.o (symbol from plugin)
 .text          0x00000000        0x0 obj/main/NAZE/../controller/flight/failsafe.o (symbol from plugin)
 .text          0x00000000        0x0 obj/main/NAZE/../controller/flight/pid.o (symbol from plugin)
 .text          0x00000000        0x0 obj/main/NAZE/../controller/flight/imu.o (symbol from plugin)
 .text          0x00000000        0x0 obj/main/NAZE/../controller/flight/mixer.o (symbol from plugin)
 .text          0x00000000        0x0 obj/main/NAZE/drivers/bus_i2c_soft.o (symbol from plugin)
 .text          0x00000000        0x0 obj/main/NAZE/drivers/serial.o (symbol from plugin)
 .text          0x00000000        0x0 obj/main/NAZE/drivers/sound_beeper.o (symbol from plugin)
 .text          0x00000000        0x0 obj/main/NAZE/drivers/system.o (symbol from plugin)
 .text          0x00000000        0x0 obj/main/NAZE/drivers/dma.o (symbol from plugin)
 .text          0x00000000        0x0 obj/main/NAZE/drivers/buf_writer.o (symbol from plugin)
 .text          0x00000000        0x0 obj/main/NAZE/drivers/gyro_sync.o (symbol from plugin)
 .text          0x00000000        0x0 obj/main/NAZE/../controller/io/beeper.o (symbol from plugin)
 .text          0x00000000        0x0 obj/main/NAZE/../controller/io/rc_controls.o (symbol from plugin)
 .text          0x00000000        0x0 obj/main/NAZE/../controller/io/rc_curves.o (symbol from plugin)
 .text          0x00000000        0x0 obj/main/NAZE/../controller/io/serial.o (symbol from plugin)
 .text          0x00000000        0x0 obj/main/NAZE/../controller/io/serial_1wire.o (symbol from plugin)
 .text          0x00000000        0x0 obj/main/NAZE/../controller/io/serial_cli.o (symbol from plugin)
 .text          0x00000000        0x0 obj/main/NAZE/../controller/io/serial_msp.o (symbol from plugin)
 .text          0x00000000        0x0 obj/main/NAZE/../controller/io/statusindicator.o (symbol from plugin)
 .text          0x00000000        0x0 obj/main/NAZE/../controller/rx/rx.o (symbol from plugin)
 .text          0x00000000        0x0 obj/main/NAZE/../controller/rx/pwm.o (symbol from plugin)
 .text          0x00000000        0x0 obj/main/NAZE/../controller/rx/msp.o (symbol from plugin)
 .text          0x00000000        0x0 obj/main/NAZE/../controller/rx/sbus.o (symbol from plugin)
 .text          0x00000000        0x0 obj/main/NAZE/../controller/rx/sumd.o (symbol from plugin)
 .text          0x00000000        0x0 obj/main/NAZE/../controller/rx/sumh.o (symbol from plugin)
 .text          0x00000000        0x0 obj/main/NAZE/../controller/rx/spektrum.o (symbol from plugin)
 .text          0x00000000        0x0 obj/main/NAZE/../controller/rx/xbus.o (symbol from plugin)
 .text          0x00000000        0x0 obj/main/NAZE/../controller/rx/ibus.o (symbol from plugin)
 .text          0x00000000        0x0 obj/main/NAZE/../controller/sensors/acceleration.o (symbol from plugin)
 .text          0x00000000        0x0 obj/main/NAZE/../controller/sensors/battery.o (symbol from plugin)
 .text          0x00000000        0x0 obj/main/NAZE/../controller/sensors/boardalignment.o (symbol from plugin)
 .text          0x00000000        0x0 obj/main/NAZE/../controller/sensors/compass.o (symbol from plugin)
 .text          0x00000000        0x0 obj/main/NAZE/../controller/sensors/gyro.o (symbol from plugin)
 .text          0x00000000        0x0 obj/main/NAZE/../controller/sensors/initialisation.o (symbol from plugin)
 .text          0x00000000        0x0 obj/main/NAZE/../controller/pif_linker.o (symbol from plugin)
 .text          0x00000000        0x0 obj/main/NAZE/core_cm3.o (symbol from plugin)
 .text          0x00000000        0x0 obj/main/NAZE/system_stm32f10x.o (symbol from plugin)
 .text          0x00000000        0x0 obj/main/NAZE/stm32f10x_dma.o (symbol from plugin)
 .text          0x00000000        0x0 obj/main/NAZE/stm32f10x_dbgmcu.o (symbol from plugin)
 .text          0x00000000        0x0 obj/main/NAZE/stm32f10x_dac.o (symbol from plugin)
 .text          0x00000000        0x0 obj/main/NAZE/stm32f10x_rtc.o (symbol from plugin)
 .text          0x00000000        0x0 obj/main/NAZE/stm32f10x_pwr.o (symbol from plugin)
 .text          0x00000000        0x0 obj/main/NAZE/stm32f10x_i2c.o (symbol from plugin)
 .text          0x00000000        0x0 obj/main/NAZE/stm32f10x_sdio.o (symbol from plugin)
 .text          0x00000000        0x0 obj/main/NAZE/stm32f10x_rcc.o (symbol from plugin)
 .text          0x00000000        0x0 obj/main/NAZE/stm32f10x_flash.o (symbol from plugin)
 .text          0x00000000        0x0 obj/main/NAZE/stm32f10x_usart.o (symbol from plugin)
 .text          0x00000000        0x0 obj/main/NAZE/stm32f10x_tim.o (symbol from plugin)
 .text          0x00000000        0x0 obj/main/NAZE/stm32f10x_wwdg.o (symbol from plugin)
 .text          0x00000000        0x0 obj/main/NAZE/misc.o (symbol from plugin)
 .text          0x00000000        0x0 obj/main/NAZE/stm32f10x_iwdg.o (symbol from plugin)
 .text          0x00000000        0x0 obj/main/NAZE/stm32f10x_adc.o (symbol from plugin)
 .text          0x00000000        0x0 obj/main/NAZE/stm32f10x_spi.o (symbol from plugin)
 .text          0x00000000        0x0 obj/main/NAZE/stm32f10x_bkp.o (symbol from plugin)
 .text          0x00000000        0x0 obj/main/NAZE/stm32f10x_exti.o (symbol from plugin)
 .text          0x00000000        0x0 obj/main/NAZE/stm32f10x_fsmc.o (symbol from plugin)
 .text          0x00000000        0x0 obj/main/NAZE/stm32f10x_gpio.o (symbol from plugin)
 .text          0x00000000        0x0 obj/main/NAZE/../../pif/source/communication/pif_i2c.o (symbol from plugin)
 .text          0x00000000        0x0 obj/main/NAZE/../../pif/source/core/pif.o (symbol from plugin)
 .text          0x00000000        0x0 obj/main/NAZE/../../pif/source/core/pif_obj_array.o (symbol from plugin)
 .text          0x00000000        0x0 obj/main/NAZE/../../pif/source/core/pif_task.o (symbol from plugin)
 .text          0x00000000        0x0 obj/main/NAZE/../../pif/source/core/pif_timer.o (symbol from plugin)
 .text          0x00000000        0x0 obj/main/NAZE/../../pif/source/rc/pif_rc.o (symbol from plugin)
 .text          0x00000000        0x0 obj/main/NAZE/../../pif/source/rc/pif_rc_ppm.o (symbol from plugin)
 .text          0x00000000        0x0 obj/main/NAZE/../../pif/source/sensor/pif_imu_sensor.o (symbol from plugin)
 .text          0x00000000        0x0 obj/main/NAZE/../../pif/source/sensor/pif_bmp280.o (symbol from plugin)
 .text          0x00000000        0x0 obj/main/NAZE/../../pif/source/sensor/pif_hc_sr04.o (symbol from plugin)
 .text          0x00000000        0x0 obj/main/NAZE/../../pif/source/sensor/pif_mpu6500.o (symbol from plugin)
 .text          0x00000000        0x0 obj/main/NAZE/../../pif/source/sensor/pif_qmc5883.o (symbol from plugin)
 .text          0x00000000        0x0 /usr/lib/gcc/arm-none-eabi/4.9.3/../../../arm-none-eabi/lib/armv7-m/libc_nano.a(lib_a-atoi.o)
 .data          0x00000000        0x0 /usr/lib/gcc/arm-none-eabi/4.9.3/../../../arm-none-eabi/lib/armv7-m/libc_nano.a(lib_a-atoi.o)
 .bss           0x00000000        0x0 /usr/lib/gcc/arm-none-eabi/4.9.3/../../../arm-none-eabi/lib/armv7-m/libc_nano.a(lib_a-atoi.o)
 .text._atoi_r  0x00000000        0x8 /usr/lib/gcc/arm-none-eabi/4.9.3/../../../arm-none-eabi/lib/armv7-m/libc_nano.a(lib_a-atoi.o)
 .text          0x00000000        0x0 /usr/lib/gcc/arm-none-eabi/4.9.3/../../../arm-none-eabi/lib/armv7-m/libc_nano.a(lib_a-ctype_.o)
 .data          0x00000000        0x0 /usr/lib/gcc/arm-none-eabi/4.9.3/../../../arm-none-eabi/lib/armv7-m/libc_nano.a(lib_a-ctype_.o)
 .bss           0x00000000        0x0 /usr/lib/gcc/arm-none-eabi/4.9.3/../../../arm-none-eabi/lib/armv7-m/libc_nano.a(lib_a-ctype_.o)
 .text          0x00000000        0x0 /usr/lib/gcc/arm-none-eabi/4.9.3/../../../arm-none-eabi/lib/armv7-m/libc_nano.a(lib_a-strtok.o)
 .data          0x00000000        0x0 /usr/lib/gcc/arm-none-eabi/4.9.3/../../../arm-none-eabi/lib/armv7-m/libc_nano.a(lib_a-strtok.o)
 .bss           0x00000000        0x0 /usr/lib/gcc/arm-none-eabi/4.9.3/../../../arm-none-eabi/lib/armv7-m/libc_nano.a(lib_a-strtok.o)
 .text          0x00000000        0x0 /usr/lib/gcc/arm-none-eabi/4.9.3/../../../arm-none-eabi/lib/armv7-m/libc_nano.a(lib_a-strtok_r.o)
 .data          0x00000000        0x0 /usr/lib/gcc/arm-none-eabi/4.9.3/../../../arm-none-eabi/lib/armv7-m/libc_nano.a(lib_a-strtok_r.o)
 .bss           0x00000000        0x0 /usr/lib/gcc/arm-none-eabi/4.9.3/../../../arm-none-eabi/lib/armv7-m/libc_nano.a(lib_a-strtok_r.o)
 .text          0x00000000        0x0 /usr/lib/gcc/arm-none-eabi/4.9.3/../../../arm-none-eabi/lib/armv7-m/libc_nano.a(lib_a-strtol.o)
 .data          0x00000000        0x0 /usr/lib/gcc/arm-none-eabi/4.9.3/../../../arm-none-eabi/lib/armv7-m/libc_nano.a(lib_a-strtol.o)
 .bss           0x00000000        0x0 /usr/lib/gcc/arm-none-eabi/4.9.3/../../../arm-none-eabi/lib/armv7-m/libc_nano.a(lib_a-strtol.o)
 .text          0x00000000        0x0 /usr/lib/gcc/arm-none-eabi/4.9.3/../../../arm-none-eabi/lib/armv7-m/libc_nano.a(lib_a-impure.o)
 .data          0x00000000        0x0 /usr/lib/gcc/arm-none-eabi/4.9.3/../../../arm-none-eabi/lib/armv7-m/libc_nano.a(lib_a-impure.o)
 .bss           0x00000000        0x0 /usr/lib/gcc/arm-none-eabi/4.9.3/../../../arm-none-eabi/lib/armv7-m/libc_nano.a(lib_a-impure.o)
 .rodata._global_impure_ptr
                0x00000000        0x4 /usr/lib/gcc/arm-none-eabi/4.9.3/../../../arm-none-eabi/lib/armv7-m/libc_nano.a(lib_a-impure.o)
 .text          0x00000000        0x0 /usr/lib/gcc/arm-none-eabi/4.9.3/../../../arm-none-eabi/lib/armv7-m/libc_nano.a(lib_a-malloc.o)
 .data          0x00000000        0x0 /usr/lib/gcc/arm-none-eabi/4.9.3/../../../arm-none-eabi/lib/armv7-m/libc_nano.a(lib_a-malloc.o)
 .bss           0x00000000        0x0 /usr/lib/gcc/arm-none-eabi/4.9.3/../../../arm-none-eabi/lib/armv7-m/libc_nano.a(lib_a-malloc.o)
 .text          0x00000000        0x0 /usr/lib/gcc/arm-none-eabi/4.9.3/../../../arm-none-eabi/lib/armv7-m/libc_nano.a(lib_a-nano-freer.o)
 .data          0x00000000        0x0 /usr/lib/gcc/arm-none-eabi/4.9.3/../../../arm-none-eabi/lib/armv7-m/libc_nano.a(lib_a-nano-freer.o)
 .bss           0x00000000        0x0 /usr/lib/gcc/arm-none-eabi/4.9.3/../../../arm-none-eabi/lib/armv7-m/libc_nano.a(lib_a-nano-freer.o)
 .text          0x00000000        0x0 /usr/lib/gcc/arm-none-eabi/4.9.3/../../../arm-none-eabi/lib/armv7-m/libc_nano.a(lib_a-nano-mallocr.o)
 .data          0x00000000        0x0 /usr/lib/gcc/arm-none-eabi/4.9.3/../../../arm-none-eabi/lib/armv7-m/libc_nano.a(lib_a-nano-mallocr.o)
 .bss           0x00000000        0x0 /usr/lib/gcc/arm-none-eabi/4.9.3/../../../arm-none-eabi/lib/armv7-m/libc_nano.a(lib_a-nano-mallocr.o)
 .text          0x00000000        0x0 /usr/lib/gcc/arm-none-eabi/4.9.3/../../../arm-none-eabi/lib/armv7-m/libc_nano.a(lib_a-sbrkr.o)
 .data          0x00000000        0x0 /usr/lib/gcc/arm-none-eabi/4.9.3/../../../arm-none-eabi/lib/armv7-m/libc_nano.a(lib_a-sbrkr.o)
 .bss           0x00000000        0x0 /usr/lib/gcc/arm-none-eabi/4.9.3/../../../arm-none-eabi/lib/armv7-m/libc_nano.a(lib_a-sbrkr.o)
 .text          0x00000000        0x0 /usr/lib/gcc/arm-none-eabi/4.9.3/../../../arm-none-eabi/lib/armv7-m/libc_nano.a(lib_a-reent.o)
 .data          0x00000000        0x0 /usr/lib/gcc/arm-none-eabi/4.9.3/../../../arm-none-eabi/lib/armv7-m/libc_nano.a(lib_a-reent.o)
 .bss           0x00000000        0x0 /usr/lib/gcc/arm-none-eabi/4.9.3/../../../arm-none-eabi/lib/armv7-m/libc_nano.a(lib_a-reent.o)
 .text.cleanup_glue
                0x00000000       0x1a /usr/lib/gcc/arm-none-eabi/4.9.3/../../../arm-none-eabi/lib/armv7-m/libc_nano.a(lib_a-reent.o)
 .text._reclaim_reent
                0x00000000       0xb4 /usr/lib/gcc/arm-none-eabi/4.9.3/../../../arm-none-eabi/lib/armv7-m/libc_nano.a(lib_a-reent.o)
 .text          0x00000000        0x0 /usr/lib/gcc/arm-none-eabi/4.9.3/../../../arm-none-eabi/lib/armv7-m/libnosys.a(sbrk.o)
 .data          0x00000000        0x0 /usr/lib/gcc/arm-none-eabi/4.9.3/../../../arm-none-eabi/lib/armv7-m/libnosys.a(sbrk.o)
 .bss           0x00000000        0x0 /usr/lib/gcc/arm-none-eabi/4.9.3/../../../arm-none-eabi/lib/armv7-m/libnosys.a(sbrk.o)
 .text          0x00000000        0x0 /usr/lib/gcc/arm-none-eabi/4.9.3/../../../arm-none-eabi/lib/armv7-m/libm.a(lib_a-sf_lrint.o)
 .data          0x00000000        0x0 /usr/lib/gcc/arm-none-eabi/4.9.3/../../../arm-none-eabi/lib/armv7-m/libm.a(lib_a-sf_lrint.o)
 .bss           0x00000000        0x0 /usr/lib/gcc/arm-none-eabi/4.9.3/../../../arm-none-eabi/lib/armv7-m/libm.a(lib_a-sf_lrint.o)
 .text          0x00000000        0x0 /usr/lib/gcc/arm-none-eabi/4.9.3/../../../arm-none-eabi/lib/armv7-m/libm.a(lib_a-wf_pow.o)
 .data          0x00000000        0x0 /usr/lib/gcc/arm-none-eabi/4.9.3/../../../arm-none-eabi/lib/armv7-m/libm.a(lib_a-wf_pow.o)
 .bss           0x00000000        0x0 /usr/lib/gcc/arm-none-eabi/4.9.3/../../../arm-none-eabi/lib/armv7-m/libm.a(lib_a-wf_pow.o)
 .text          0x00000000        0x0 /usr/lib/gcc/arm-none-eabi/4.9.3/../../../arm-none-eabi/lib/armv7-m/libm.a(lib_a-wf_sqrt.o)
 .data          0x00000000        0x0 /usr/lib/gcc/arm-none-eabi/4.9.3/../../../arm-none-eabi/lib/armv7-m/libm.a(lib_a-wf_sqrt.o)
 .bss           0x00000000        0x0 /usr/lib/gcc/arm-none-eabi/4.9.3/../../../arm-none-eabi/lib/armv7-m/libm.a(lib_a-wf_sqrt.o)
 .text          0x00000000        0x0 /usr/lib/gcc/arm-none-eabi/4.9.3/../../../arm-none-eabi/lib/armv7-m/libm.a(lib_a-ef_pow.o)
 .data          0x00000000        0x0 /usr/lib/gcc/arm-none-eabi/4.9.3/../../../arm-none-eabi/lib/armv7-m/libm.a(lib_a-ef_pow.o)
 .bss           0x00000000        0x0 /usr/lib/gcc/arm-none-eabi/4.9.3/../../../arm-none-eabi/lib/armv7-m/libm.a(lib_a-ef_pow.o)
 .text          0x00000000        0x0 /usr/lib/gcc/arm-none-eabi/4.9.3/../../../arm-none-eabi/lib/armv7-m/libm.a(lib_a-ef_sqrt.o)
 .data          0x00000000        0x0 /usr/lib/gcc/arm-none-eabi/4.9.3/../../../arm-none-eabi/lib/armv7-m/libm.a(lib_a-ef_sqrt.o)
 .bss           0x00000000        0x0 /usr/lib/gcc/arm-none-eabi/4.9.3/../../../arm-none-eabi/lib/armv7-m/libm.a(lib_a-ef_sqrt.o)
 .text          0x00000000        0x0 /usr/lib/gcc/arm-none-eabi/4.9.3/../../../arm-none-eabi/lib/armv7-m/libm.a(lib_a-s_lib_ver.o)
 .data          0x00000000        0x0 /usr/lib/gcc/arm-none-eabi/4.9.3/../../../arm-none-eabi/lib/armv7-m/libm.a(lib_a-s_lib_ver.o)
 .bss           0x00000000        0x0 /usr/lib/gcc/arm-none-eabi/4.9.3/../../../arm-none-eabi/lib/armv7-m/libm.a(lib_a-s_lib_ver.o)
 .text          0x00000000        0x0 /usr/lib/gcc/arm-none-eabi/4.9.3/../../../arm-none-eabi/lib/armv7-m/libm.a(lib_a-s_matherr.o)
 .data          0x00000000        0x0 /usr/lib/gcc/arm-none-eabi/4.9.3/../../../arm-none-eabi/lib/armv7-m/libm.a(lib_a-s_matherr.o)
 .bss           0x00000000        0x0 /usr/lib/gcc/arm-none-eabi/4.9.3/../../../arm-none-eabi/lib/armv7-m/libm.a(lib_a-s_matherr.o)
 .text          0x00000000        0x0 /usr/lib/gcc/arm-none-eabi/4.9.3/../../../arm-none-eabi/lib/armv7-m/libm.a(lib_a-s_rint.o)
 .data          0x00000000        0x0 /usr/lib/gcc/arm-none-eabi/4.9.3/../../../arm-none-eabi/lib/armv7-m/libm.a(lib_a-s_rint.o)
 .bss           0x00000000        0x0 /usr/lib/gcc/arm-none-eabi/4.9.3/../../../arm-none-eabi/lib/armv7-m/libm.a(lib_a-s_rint.o)
 .text          0x00000000        0x0 /usr/lib/gcc/arm-none-eabi/4.9.3/../../../arm-none-eabi/lib/armv7-m/libm.a(lib_a-sf_fabs.o)
 .data          0x00000000        0x0 /usr/lib/gcc/arm-none-eabi/4.9.3/../../../arm-none-eabi/lib/armv7-m/libm.a(lib_a-sf_fabs.o)
 .bss           0x00000000        0x0 /usr/lib/gcc/arm-none-eabi/4.9.3/../../../arm-none-eabi/lib/armv7-m/libm.a(lib_a-sf_fabs.o)
 .text          0x00000000        0x0 /usr/lib/gcc/arm-none-eabi/4.9.3/../../../arm-none-eabi/lib/armv7-m/libm.a(lib_a-sf_finite.o)
 .data          0x00000000        0x0 /usr/lib/gcc/arm-none-eabi/4.9.3/../../../arm-none-eabi/lib/armv7-m/libm.a(lib_a-sf_finite.o)
 .bss           0x00000000        0x0 /usr/lib/gcc/arm-none-eabi/4.9.3/../../../arm-none-eabi/lib/armv7-m/libm.a(lib_a-sf_finite.o)
 .text          0x00000000        0x0 /usr/lib/gcc/arm-none-eabi/4.9.3/../../../arm-none-eabi/lib/armv7-m/libm.a(lib_a-sf_fpclassify.o)
 .data          0x00000000        0x0 /usr/lib/gcc/arm-none-eabi/4.9.3/../../../arm-none-eabi/lib/armv7-m/libm.a(lib_a-sf_fpclassify.o)
 .bss           0x00000000        0x0 /usr/lib/gcc/arm-none-eabi/4.9.3/../../../arm-none-eabi/lib/armv7-m/libm.a(lib_a-sf_fpclassify.o)
 .text          0x00000000        0x0 /usr/lib/gcc/arm-none-eabi/4.9.3/../../../arm-none-eabi/lib/armv7-m/libm.a(lib_a-sf_nan.o)
 .data          0x00000000        0x0 /usr/lib/gcc/arm-none-eabi/4.9.3/../../../arm-none-eabi/lib/armv7-m/libm.a(lib_a-sf_nan.o)
 .bss           0x00000000        0x0 /usr/lib/gcc/arm-none-eabi/4.9.3/../../../arm-none-eabi/lib/armv7-m/libm.a(lib_a-sf_nan.o)
 .text          0x00000000        0x0 /usr/lib/gcc/arm-none-eabi/4.9.3/../../../arm-none-eabi/lib/armv7-m/libm.a(lib_a-sf_scalbn.o)
 .data          0x00000000        0x0 /usr/lib/gcc/arm-none-eabi/4.9.3/../../../arm-none-eabi/lib/armv7-m/libm.a(lib_a-sf_scalbn.o)
 .bss           0x00000000        0x0 /usr/lib/gcc/arm-none-eabi/4.9.3/../../../arm-none-eabi/lib/armv7-m/libm.a(lib_a-sf_scalbn.o)
 .text          0x00000000        0x0 /usr/lib/gcc/arm-none-eabi/4.9.3/../../../arm-none-eabi/lib/armv7-m/libm.a(lib_a-sf_copysign.o)
 .data          0x00000000        0x0 /usr/lib/gcc/arm-none-eabi/4.9.3/../../../arm-none-eabi/lib/armv7-m/libm.a(lib_a-sf_copysign.o)
 .bss           0x00000000        0x0 /usr/lib/gcc/arm-none-eabi/4.9.3/../../../arm-none-eabi/lib/armv7-m/libm.a(lib_a-sf_copysign.o)
 .text          0x00000000        0x0 /usr/lib/gcc/arm-none-eabi/4.9.3/../../../arm-none-eabi/lib/armv7-m/libc_nano.a(lib_a-calloc.o)
 .data          0x00000000        0x0 /usr/lib/gcc/arm-none-eabi/4.9.3/../../../arm-none-eabi/lib/armv7-m/libc_nano.a(lib_a-calloc.o)
 .bss           0x00000000        0x0 /usr/lib/gcc/arm-none-eabi/4.9.3/../../../arm-none-eabi/lib/armv7-m/libc_nano.a(lib_a-calloc.o)
 .text          0x00000000        0x0 /usr/lib/gcc/arm-none-eabi/4.9.3/../../../arm-none-eabi/lib/armv7-m/libc_nano.a(lib_a-errno.o)
 .data          0x00000000        0x0 /usr/lib/gcc/arm-none-eabi/4.9.3/../../../arm-none-eabi/lib/armv7-m/libc_nano.a(lib_a-errno.o)
 .bss           0x00000000        0x0 /usr/lib/gcc/arm-none-eabi/4.9.3/../../../arm-none-eabi/lib/armv7-m/libc_nano.a(lib_a-errno.o)
 .text          0x00000000        0x0 /usr/lib/gcc/arm-none-eabi/4.9.3/../../../arm-none-eabi/lib/armv7-m/libc_nano.a(lib_a-memcmp.o)
 .data          0x00000000        0x0 /usr/lib/gcc/arm-none-eabi/4.9.3/../../../arm-none-eabi/lib/armv7-m/libc_nano.a(lib_a-memcmp.o)
 .bss           0x00000000        0x0 /usr/lib/gcc/arm-none-eabi/4.9.3/../../../arm-none-eabi/lib/armv7-m/libc_nano.a(lib_a-memcmp.o)
 .text          0x00000000        0x0 /usr/lib/gcc/arm-none-eabi/4.9.3/../../../arm-none-eabi/lib/armv7-m/libc_nano.a(lib_a-memcpy.o)
 .data          0x00000000        0x0 /usr/lib/gcc/arm-none-eabi/4.9.3/../../../arm-none-eabi/lib/armv7-m/libc_nano.a(lib_a-memcpy.o)
 .bss           0x00000000        0x0 /usr/lib/gcc/arm-none-eabi/4.9.3/../../../arm-none-eabi/lib/armv7-m/libc_nano.a(lib_a-memcpy.o)
 .text          0x00000000        0x0 /usr/lib/gcc/arm-none-eabi/4.9.3/../../../arm-none-eabi/lib/armv7-m/libc_nano.a(lib_a-memset.o)
 .data          0x00000000        0x0 /usr/lib/gcc/arm-none-eabi/4.9.3/../../../arm-none-eabi/lib/armv7-m/libc_nano.a(lib_a-memset.o)
 .bss           0x00000000        0x0 /usr/lib/gcc/arm-none-eabi/4.9.3/../../../arm-none-eabi/lib/armv7-m/libc_nano.a(lib_a-memset.o)
 .text          0x00000000        0x0 /usr/lib/gcc/arm-none-eabi/4.9.3/../../../arm-none-eabi/lib/armv7-m/libc_nano.a(lib_a-nano-callocr.o)
 .data          0x00000000        0x0 /usr/lib/gcc/arm-none-eabi/4.9.3/../../../arm-none-eabi/lib/armv7-m/libc_nano.a(lib_a-nano-callocr.o)
 .bss           0x00000000        0x0 /usr/lib/gcc/arm-none-eabi/4.9.3/../../../arm-none-eabi/lib/armv7-m/libc_nano.a(lib_a-nano-callocr.o)
 .text          0x00000000        0x0 /usr/lib/gcc/arm-none-eabi/4.9.3/../../../arm-none-eabi/lib/armv7-m/libc_nano.a(lib_a-strcasecmp.o)
 .data          0x00000000        0x0 /usr/lib/gcc/arm-none-eabi/4.9.3/../../../arm-none-eabi/lib/armv7-m/libc_nano.a(lib_a-strcasecmp.o)
 .bss           0x00000000        0x0 /usr/lib/gcc/arm-none-eabi/4.9.3/../../../arm-none-eabi/lib/armv7-m/libc_nano.a(lib_a-strcasecmp.o)
 .text          0x00000000        0x0 /usr/lib/gcc/arm-none-eabi/4.9.3/../../../arm-none-eabi/lib/armv7-m/libc_nano.a(lib_a-strcat.o)
 .data          0x00000000        0x0 /usr/lib/gcc/arm-none-eabi/4.9.3/../../../arm-none-eabi/lib/armv7-m/libc_nano.a(lib_a-strcat.o)
 .bss           0x00000000        0x0 /usr/lib/gcc/arm-none-eabi/4.9.3/../../../arm-none-eabi/lib/armv7-m/libc_nano.a(lib_a-strcat.o)
 .text          0x00000000        0x0 /usr/lib/gcc/arm-none-eabi/4.9.3/../../../arm-none-eabi/lib/armv7-m/libc_nano.a(lib_a-strchr.o)
 .data          0x00000000        0x0 /usr/lib/gcc/arm-none-eabi/4.9.3/../../../arm-none-eabi/lib/armv7-m/libc_nano.a(lib_a-strchr.o)
 .bss           0x00000000        0x0 /usr/lib/gcc/arm-none-eabi/4.9.3/../../../arm-none-eabi/lib/armv7-m/libc_nano.a(lib_a-strchr.o)
 .text          0x00000000        0x0 /usr/lib/gcc/arm-none-eabi/4.9.3/../../../arm-none-eabi/lib/armv7-m/libc_nano.a(lib_a-strlen.o)
 .data          0x00000000        0x0 /usr/lib/gcc/arm-none-eabi/4.9.3/../../../arm-none-eabi/lib/armv7-m/libc_nano.a(lib_a-strlen.o)
 .bss           0x00000000        0x0 /usr/lib/gcc/arm-none-eabi/4.9.3/../../../arm-none-eabi/lib/armv7-m/libc_nano.a(lib_a-strlen.o)
 .text          0x00000000        0x0 /usr/lib/gcc/arm-none-eabi/4.9.3/../../../arm-none-eabi/lib/armv7-m/libc_nano.a(lib_a-strncasecmp.o)
 .data          0x00000000        0x0 /usr/lib/gcc/arm-none-eabi/4.9.3/../../../arm-none-eabi/lib/armv7-m/libc_nano.a(lib_a-strncasecmp.o)
 .bss           0x00000000        0x0 /usr/lib/gcc/arm-none-eabi/4.9.3/../../../arm-none-eabi/lib/armv7-m/libc_nano.a(lib_a-strncasecmp.o)
 .text          0x00000000        0x0 /usr/lib/gcc/arm-none-eabi/4.9.3/../../../arm-none-eabi/lib/armv7-m/libc_nano.a(lib_a-strncpy.o)
 .data          0x00000000        0x0 /usr/lib/gcc/arm-none-eabi/4.9.3/../../../arm-none-eabi/lib/armv7-m/libc_nano.a(lib_a-strncpy.o)
 .bss           0x00000000        0x0 /usr/lib/gcc/arm-none-eabi/4.9.3/../../../arm-none-eabi/lib/armv7-m/libc_nano.a(lib_a-strncpy.o)
 .text          0x00000000        0x0 /usr/lib/gcc/arm-none-eabi/4.9.3/../../../arm-none-eabi/lib/armv7-m/libc_nano.a(lib_a-strstr.o)
 .data          0x00000000        0x0 /usr/lib/gcc/arm-none-eabi/4.9.3/../../../arm-none-eabi/lib/armv7-m/libc_nano.a(lib_a-strstr.o)
 .bss           0x00000000        0x0 /usr/lib/gcc/arm-none-eabi/4.9.3/../../../arm-none-eabi/lib/armv7-m/libc_nano.a(lib_a-strstr.o)
 .data          0x00000000        0x0 /usr/lib/gcc/arm-none-eabi/4.9.3/armv7-m/libgcc.a(_arm_addsubdf3.o)
 .bss           0x00000000        0x0 /usr/lib/gcc/arm-none-eabi/4.9.3/armv7-m/libgcc.a(_arm_addsubdf3.o)
 .data          0x00000000        0x0 /usr/lib/gcc/arm-none-eabi/4.9.3/armv7-m/libgcc.a(_arm_muldivdf3.o)
 .bss           0x00000000        0x0 /usr/lib/gcc/arm-none-eabi/4.9.3/armv7-m/libgcc.a(_arm_muldivdf3.o)
 .data          0x00000000        0x0 /usr/lib/gcc/arm-none-eabi/4.9.3/armv7-m/libgcc.a(_arm_cmpdf2.o)
 .bss           0x00000000        0x0 /usr/lib/gcc/arm-none-eabi/4.9.3/armv7-m/libgcc.a(_arm_cmpdf2.o)
 .data          0x00000000        0x0 /usr/lib/gcc/arm-none-eabi/4.9.3/armv7-m/libgcc.a(_arm_truncdfsf2.o)
 .bss           0x00000000        0x0 /usr/lib/gcc/arm-none-eabi/4.9.3/armv7-m/libgcc.a(_arm_truncdfsf2.o)
 .data          0x00000000        0x0 /usr/lib/gcc/arm-none-eabi/4.9.3/armv7-m/libgcc.a(_arm_addsubsf3.o)
 .bss           0x00000000        0x0 /usr/lib/gcc/arm-none-eabi/4.9.3/armv7-m/libgcc.a(_arm_addsubsf3.o)
 .data          0x00000000        0x0 /usr/lib/gcc/arm-none-eabi/4.9.3/armv7-m/libgcc.a(_arm_muldivsf3.o)
 .bss           0x00000000        0x0 /usr/lib/gcc/arm-none-eabi/4.9.3/armv7-m/libgcc.a(_arm_muldivsf3.o)
 .data          0x00000000        0x0 /usr/lib/gcc/arm-none-eabi/4.9.3/armv7-m/libgcc.a(_arm_cmpsf2.o)
 .bss           0x00000000        0x0 /usr/lib/gcc/arm-none-eabi/4.9.3/armv7-m/libgcc.a(_arm_cmpsf2.o)
 .data          0x00000000        0x0 /usr/lib/gcc/arm-none-eabi/4.9.3/armv7-m/libgcc.a(_arm_fixsfsi.o)
 .bss           0x00000000        0x0 /usr/lib/gcc/arm-none-eabi/4.9.3/armv7-m/libgcc.a(_arm_fixsfsi.o)
 .data          0x00000000        0x0 /usr/lib/gcc/arm-none-eabi/4.9.3/armv7-m/libgcc.a(_arm_fixunssfsi.o)
 .bss           0x00000000        0x0 /usr/lib/gcc/arm-none-eabi/4.9.3/armv7-m/libgcc.a(_arm_fixunssfsi.o)
 .data          0x00000000        0x0 /usr/lib/gcc/arm-none-eabi/4.9.3/armv7-m/libgcc.a(_aeabi_ldivmod.o)
 .bss           0x00000000        0x0 /usr/lib/gcc/arm-none-eabi/4.9.3/armv7-m/libgcc.a(_aeabi_ldivmod.o)
 .data          0x00000000        0x0 /usr/lib/gcc/arm-none-eabi/4.9.3/armv7-m/libgcc.a(bpabi.o)
 .bss           0x00000000        0x0 /usr/lib/gcc/arm-none-eabi/4.9.3/armv7-m/libgcc.a(bpabi.o)
 .data          0x00000000        0x0 /usr/lib/gcc/arm-none-eabi/4.9.3/armv7-m/libgcc.a(_dvmd_tls.o)
 .bss           0x00000000        0x0 /usr/lib/gcc/arm-none-eabi/4.9.3/armv7-m/libgcc.a(_dvmd_tls.o)
 .data          0x00000000        0x0 /usr/lib/gcc/arm-none-eabi/4.9.3/armv7-m/libgcc.a(_divdi3.o)
 .bss           0x00000000        0x0 /usr/lib/gcc/arm-none-eabi/4.9.3/armv7-m/libgcc.a(_divdi3.o)
 .ARM.extab     0x00000000        0x0 /usr/lib/gcc/arm-none-eabi/4.9.3/armv7-m/libgcc.a(_divdi3.o)
 .data          0x00000000        0x0 /usr/lib/gcc/arm-none-eabi/4.9.3/armv7-m/libgcc.a(_udivdi3.o)
 .bss           0x00000000        0x0 /usr/lib/gcc/arm-none-eabi/4.9.3/armv7-m/libgcc.a(_udivdi3.o)
 .ARM.extab     0x00000000        0x0 /usr/lib/gcc/arm-none-eabi/4.9.3/armv7-m/libgcc.a(_udivdi3.o)

Memory Configuration

Name             Origin             Length             Attributes
FLASH            0x08000000         0x0001f000         xr
RAM              0x20000000         0x00005000         xrw
MEMORY_B1        0x60000000         0x00000000         xr
*default*        0x00000000         0xffffffff

Linker script and memory map

LOAD obj/main/NAZE/startup_stm32f10x_md_gcc.o
LOAD obj/main/NAZE/drivers/accgyro_adxl345.o
LOAD /tmp/cclQ5C5v.ltrans0.ltrans.o
LOAD /tmp/cclQ5C5v.ltrans1.ltrans.o
LOAD /tmp/cclQ5C5v.ltrans2.ltrans.o
LOAD /tmp/cclQ5C5v.ltrans3.ltrans.o
LOAD /tmp/cclQ5C5v.ltrans4.ltrans.o
LOAD /tmp/cclQ5C5v.ltrans5.ltrans.o
LOAD /tmp/cclQ5C5v.ltrans6.ltrans.o
LOAD /tmp/cclQ5C5v.ltrans7.ltrans.o
LOAD /tmp/cclQ5C5v.ltrans8.ltrans.o
LOAD /tmp/cclQ5C5v.ltrans9.ltrans.o
LOAD /tmp/cclQ5C5v.ltrans10.ltrans.o
LOAD /tmp/cclQ5C5v.ltrans11.ltrans.o
LOAD /tmp/cclQ5C5v.ltrans12.ltrans.o
LOAD /tmp/cclQ5C5v.ltrans13.ltrans.o
LOAD /tmp/cclQ5C5v.ltrans14.ltrans.o
LOAD /tmp/cclQ5C5v.ltrans15.ltrans.o
LOAD /tmp/cclQ5C5v.ltrans16.ltrans.o
LOAD /tmp/cclQ5C5v.ltrans17.ltrans.o
LOAD /tmp/cclQ5C5v.ltrans18.ltrans.o
LOAD /tmp/cclQ5C5v.ltrans19.ltrans.o
LOAD /tmp/cclQ5C5v.ltrans20.ltrans.o
LOAD /tmp/cclQ5C5v.ltrans21.ltrans.o
LOAD /tmp/cclQ5C5v.ltrans22.ltrans.o
LOAD /tmp/cclQ5C5v.ltrans23.ltrans.o
LOAD /tmp/cclQ5C5v.ltrans24.ltrans.o
LOAD /tmp/cclQ5C5v.ltrans25.ltrans.o
LOAD /tmp/cclQ5C5v.ltrans26.ltrans.o
LOAD /tmp/cclQ5C5v.ltrans27.ltrans.o
LOAD /tmp/cclQ5C5v.ltrans28.ltrans.o
LOAD obj/main/NAZE/drivers/accgyro_bma280.o
LOAD obj/main/NAZE/drivers/accgyro_l3g4200d.o
LOAD obj/main/NAZE/drivers/accgyro_mma845x.o
LOAD obj/main/NAZE/drivers/accgyro_mpu.o
LOAD obj/main/NAZE/drivers/accgyro_mpu3050.o
LOAD obj/main/NAZE/drivers/accgyro_mpu6050.o
LOAD obj/main/NAZE/drivers/accgyro_mpu6500.o
LOAD obj/main/NAZE/drivers/accgyro_spi_mpu6500.o
LOAD obj/main/NAZE/drivers/adc.o
LOAD obj/main/NAZE/drivers/adc_stm32f10x.o
LOAD obj/main/NAZE/drivers/barometer_bmp085.o
LOAD obj/main/NAZE/drivers/barometer_ms5611.o
LOAD obj/main/NAZE/drivers/barometer_bmp280.o
LOAD obj/main/NAZE/drivers/bus_spi.o
LOAD obj/main/NAZE/drivers/bus_i2c_stm32f10x.o
LOAD obj/main/NAZE/drivers/compass_hmc5883l.o
LOAD obj/main/NAZE/drivers/compass_qmc5883l.o
LOAD obj/main/NAZE/drivers/display_ug2864hsweg01.o
LOAD obj/main/NAZE/drivers/flash_m25p16.o
LOAD obj/main/NAZE/drivers/gpio_stm32f10x.o
LOAD obj/main/NAZE/drivers/inverter.o
LOAD obj/main/NAZE/drivers/light_led_stm32f10x.o
LOAD obj/main/NAZE/drivers/light_ws2811strip.o
LOAD obj/main/NAZE/drivers/light_ws2811strip_stm32f10x.o
LOAD obj/main/NAZE/drivers/sonar_hcsr04.o
LOAD obj/main/NAZE/drivers/pwm_mapping.o
LOAD obj/main/NAZE/drivers/pwm_output.o
LOAD obj/main/NAZE/drivers/pwm_rx.o
LOAD obj/main/NAZE/drivers/serial_softserial.o
LOAD obj/main/NAZE/drivers/serial_uart.o
LOAD obj/main/NAZE/drivers/serial_uart_stm32f10x.o
LOAD obj/main/NAZE/drivers/sound_beeper_stm32f10x.o
LOAD obj/main/NAZE/drivers/system_stm32f10x.o
LOAD obj/main/NAZE/drivers/timer.o
LOAD obj/main/NAZE/drivers/timer_stm32f10x.o
LOAD obj/main/NAZE/../controller/io/flashfs.o
LOAD obj/main/NAZE/hardware_revision.o
LOAD obj/main/NAZE/../controller/flight/gtune.o
LOAD obj/main/NAZE/../controller/flight/navigation.o
LOAD obj/main/NAZE/../controller/flight/gps_conversion.o
LOAD obj/main/NAZE/../controller/common/colorconversion.o
LOAD obj/main/NAZE/../controller/io/gps.o
LOAD obj/main/NAZE/../controller/io/ledstrip.o
LOAD obj/main/NAZE/../controller/io/display.o
LOAD obj/main/NAZE/../controller/telemetry/telemetry.o
LOAD obj/main/NAZE/../controller/telemetry/frsky.o
LOAD obj/main/NAZE/../controller/telemetry/hott.o
LOAD obj/main/NAZE/../controller/telemetry/smartport.o
LOAD obj/main/NAZE/../controller/telemetry/ltm.o
LOAD obj/main/NAZE/../controller/sensors/sonar.o
LOAD obj/main/NAZE/../controller/sensors/barometer.o
LOAD obj/main/NAZE/../controller/blackbox/blackbox.o
LOAD obj/main/NAZE/../controller/blackbox/blackbox_io.o
LOAD obj/main/NAZE/build_config.o
LOAD obj/main/NAZE/debug.o
LOAD obj/main/NAZE/../controller/version.o
LOAD obj/main/NAZE/../controller/config/config.o
LOAD obj/main/NAZE/../controller/config/runtime_config.o
LOAD obj/main/NAZE/../controller/common/maths.o
LOAD obj/main/NAZE/../controller/common/printf.o
LOAD obj/main/NAZE/../controller/common/typeconversion.o
LOAD obj/main/NAZE/../controller/common/encoding.o
LOAD obj/main/NAZE/../controller/common/filter.o
LOAD obj/main/NAZE/../controller/scheduler.o
LOAD obj/main/NAZE/../controller/scheduler_tasks.o
LOAD obj/main/NAZE/main.o
LOAD obj/main/NAZE/../controller/mw.o
LOAD obj/main/NAZE/../controller/flight/altitudehold.o
LOAD obj/main/NAZE/../controller/flight/failsafe.o
LOAD obj/main/NAZE/../controller/flight/pid.o
LOAD obj/main/NAZE/../controller/flight/imu.o
LOAD obj/main/NAZE/../controller/flight/mixer.o
LOAD obj/main/NAZE/drivers/bus_i2c_soft.o
LOAD obj/main/NAZE/drivers/serial.o
LOAD obj/main/NAZE/drivers/sound_beeper.o
LOAD obj/main/NAZE/drivers/system.o
LOAD obj/main/NAZE/drivers/dma.o
LOAD obj/main/NAZE/drivers/buf_writer.o
LOAD obj/main/NAZE/drivers/gyro_sync.o
LOAD obj/main/NAZE/../controller/io/beeper.o
LOAD obj/main/NAZE/../controller/io/rc_controls.o
LOAD obj/main/NAZE/../controller/io/rc_curves.o
LOAD obj/main/NAZE/../controller/io/serial.o
LOAD obj/main/NAZE/../controller/io/serial_1wire.o
LOAD obj/main/NAZE/../controller/io/serial_cli.o
LOAD obj/main/NAZE/../controller/io/serial_msp.o
LOAD obj/main/NAZE/../controller/io/statusindicator.o
LOAD obj/main/NAZE/../controller/rx/rx.o
LOAD obj/main/NAZE/../controller/rx/pwm.o
LOAD obj/main/NAZE/../controller/rx/msp.o
LOAD obj/main/NAZE/../controller/rx/sbus.o
LOAD obj/main/NAZE/../controller/rx/sumd.o
LOAD obj/main/NAZE/../controller/rx/sumh.o
LOAD obj/main/NAZE/../controller/rx/spektrum.o
LOAD obj/main/NAZE/../controller/rx/xbus.o
LOAD obj/main/NAZE/../controller/rx/ibus.o
LOAD obj/main/NAZE/../controller/sensors/acceleration.o
LOAD obj/main/NAZE/../controller/sensors/battery.o
LOAD obj/main/NAZE/../controller/sensors/boardalignment.o
LOAD obj/main/NAZE/../controller/sensors/compass.o
LOAD obj/main/NAZE/../controller/sensors/gyro.o
LOAD obj/main/NAZE/../controller/sensors/initialisation.o
LOAD obj/main/NAZE/../controller/pif_linker.o
LOAD obj/main/NAZE/core_cm3.o
LOAD obj/main/NAZE/system_stm32f10x.o
LOAD obj/main/NAZE/stm32f10x_dma.o
LOAD obj/main/NAZE/stm32f10x_dbgmcu.o
LOAD obj/main/NAZE/stm32f10x_dac.o
LOAD obj/main/NAZE/stm32f10x_rtc.o
LOAD obj/main/NAZE/stm32f10x_pwr.o
LOAD obj/main/NAZE/stm32f10x_i2c.o
LOAD obj/main/NAZE/stm32f10x_sdio.o
LOAD obj/main/NAZE/stm32f10x_rcc.o
LOAD obj/main/NAZE/stm32f10x_flash.o
LOAD obj/main/NAZE/stm32f10x_usart.o
LOAD obj/main/NAZE/stm32f10x_tim.o
LOAD obj/main/NAZE/stm32f10x_wwdg.o
LOAD obj/main/NAZE/misc.o
LOAD obj/main/NAZE/stm32f10x_iwdg.o
LOAD obj/main/NAZE/stm32f10x_adc.o
LOAD obj/main/NAZE/stm32f10x_spi.o
LOAD obj/main/NAZE/stm32f10x_bkp.o
LOAD obj/main/NAZE/stm32f10x_exti.o
LOAD obj/main/NAZE/stm32f10x_fsmc.o
LOAD obj/main/NAZE/stm32f10x_gpio.o
LOAD obj/main/NAZE/../../pif/source/communication/pif_i2c.o
LOAD obj/main/NAZE/../../pif/source/core/pif.o
LOAD obj/main/NAZE/../../pif/source/core/pif_obj_array.o
LOAD obj/main/NAZE/../../pif/source/core/pif_task.o
LOAD obj/main/NAZE/../../pif/source/core/pif_timer.o
LOAD obj/main/NAZE/../../pif/source/rc/pif_rc.o
LOAD obj/main/NAZE/../../pif/source/rc/pif_rc_ppm.o
LOAD obj/main/NAZE/../../pif/source/sensor/pif_imu_sensor.o
LOAD obj/main/NAZE/../../pif/source/sensor/pif_bmp280.o
LOAD obj/main/NAZE/../../pif/source/sensor/pif_hc_sr04.o
LOAD obj/main/NAZE/../../pif/source/sensor/pif_mpu6500.o
LOAD obj/main/NAZE/../../pif/source/sensor/pif_qmc5883.o
LOAD /usr/lib/gcc/arm-none-eabi/4.9.3/../../../arm-none-eabi/lib/armv7-m/libm.a
LOAD /usr/lib/gcc/arm-none-eabi/4.9.3/../../../arm-none-eabi/lib/armv7-m/libc_nano.a
LOAD /usr/lib/gcc/arm-none-eabi/4.9.3/../../../arm-none-eabi/lib/armv7-m/libnosys.a
START GROUP
LOAD /usr/lib/gcc/arm-none-eabi/4.9.3/armv7-m/libgcc.a
LOAD /usr/lib/gcc/arm-none-eabi/4.9.3/../../../arm-none-eabi/lib/armv7-m/libg_nano.a
LOAD /usr/lib/gcc/arm-none-eabi/4.9.3/../../../arm-none-eabi/lib/armv7-m/libc_nano.a
END GROUP
START GROUP
LOAD /usr/lib/gcc/arm-none-eabi/4.9.3/armv7-m/libgcc.a
LOAD /usr/lib/gcc/arm-none-eabi/4.9.3/../../../arm-none-eabi/lib/armv7-m/libc_nano.a
END GROUP
                0x20005000                _estack = (ORIGIN (RAM) + LENGTH (RAM))
                0x00000000                _Min_Heap_Size = 0x0
                0x00000400                _Min_Stack_Size = 0x400

.isr_vector     0x08000000      0x10c
                0x08000000                . = ALIGN (0x4)
                [!provide]                PROVIDE (isr_vector_table_base, .)
 *(.isr_vector)
 .isr_vector    0x08000000      0x10c obj/main/NAZE/startup_stm32f10x_md_gcc.o
                0x08000000                g_pfnVectors
                0x0800010c                . = ALIGN (0x4)

.text           0x08000110    0x1d5a0
                0x08000110                . = ALIGN (0x4)
 *(.text)
 .text          0x08000110     0x251c /tmp/cclQ5C5v.ltrans0.ltrans.o
                0x08000110                init
 .text          0x0800262c     0x22d0 /tmp/cclQ5C5v.ltrans1.ltrans.o
                0x0800262c                taskMainPidLoopChecker
 .text          0x080048fc     0x20f0 /tmp/cclQ5C5v.ltrans2.ltrans.o
                0x080048fc                taskHandleSerial
 .text          0x080069ec     0x172c /tmp/cclQ5C5v.ltrans3.ltrans.o
                0x080069ec                taskUpdateRxMain
 .text          0x08008118      0x8d0 /tmp/cclQ5C5v.ltrans4.ltrans.o
                0x08008368                mpuIsDataReady
                0x08008460                pifMpuGyroRead
                0x080084c8                pifMpuAccRead
                0x08008608                mpu6500GyroInit
                0x080087ec                mpu6500AccInit
                0x08008800                i2cRead
                0x08008880                mpuReadRegisterI2C.lto_priv.483
                0x08008894                i2cWriteBuffer
                0x08008914                mpuWriteRegisterI2C.lto_priv.484
                0x0800892e                I2C2_EV_IRQHandler
                0x08008932                I2C2_ER_IRQHandler
                0x08008934                I2C1_EV_IRQHandler
                0x08008938                I2C1_ER_IRQHandler
                0x0800893a                initSpi2
 .text          0x080089e8      0xcc0 /tmp/cclQ5C5v.ltrans5.ltrans.o
                0x080089e8                taskTelemetry
 .text          0x080096a8      0xed0 /tmp/cclQ5C5v.ltrans6.ltrans.o
                0x080097a2                _putc.lto_priv.503
                0x080097b0                setTaskEnabled
                0x08009800                applyBiQuadFilter
                0x08009866                BiQuadNewLpf
                0x08009938                fastA2F
                0x08009a64                ftoa
                0x08009b30                _i2a.lto_priv.224
                0x08009b58                tfp_format
                0x08009d2e                tfp_sprintf
                0x08009d58                applyDeadband
                0x08009d76                acosf
                0x08009df0                atan2f
                0x08009ef4                sinf
                0x08009fdc                cosf
                0x08009ff0                disableFlightMode
                0x0800a010                enableFlightMode
                0x0800a030                featureClear
                0x0800a040                handleOneshotFeatureChangeOnRestart
                0x0800a094                writeEEPROM
                0x0800a1e0                readEEPROM
                0x0800a564                saveConfigAndNotify
 .text          0x0800a578      0xcc8 /tmp/cclQ5C5v.ltrans7.ltrans.o
                0x0800a5ce                cliShowArgumentRangeError.lto_priv.255
                0x0800a5e8                cliAux.lto_priv.238
                0x0800a6d4                cliShowParseError.lto_priv.256
                0x0800a6e0                cliColor.lto_priv.239
                0x0800a7c0                cliLed.lto_priv.242
                0x0800a9d8                cliRxRange.lto_priv.246
                0x0800aab4                cliMotorMix.lto_priv.243
                0x0800acac                cliAdjustmentRange.lto_priv.237
                0x0800ae08                cliRxFail.lto_priv.247
                0x0800af40                cliPrompt.lto_priv.391
                0x0800af5c                waitForSerialPortToFinishTransmitting
                0x0800af72                serialRemovePort
                0x0800afa4                closeSerialPort
                0x0800afcc                openSerialPort
                0x0800b06c                serialFindPortConfiguration
                0x0800b094                cliSerial.lto_priv.249
                0x0800b1d8                doesConfigurationUsePort
                0x0800b1ee                determinePortSharing
                0x0800b202                findNextSerialPortConfig
                0x0800b234                findSerialPortConfig
 .text          0x0800b240      0xd7c /tmp/cclQ5C5v.ltrans8.ltrans.o
                0x0800b268                ibusReadRawRC.lto_priv.472
                0x0800b274                xBusReadRawRC.lto_priv.470
                0x0800b334                spektrumReadRawRC.lto_priv.220
                0x0800b360                sumhReadRawRC.lto_priv.463
                0x0800b378                sumdReadRawRC.lto_priv.461
                0x0800b38c                sbusReadRawRC.lto_priv.459
                0x0800b3bc                rxMspReadRawRC.lto_priv.474
                0x0800b3cc                ppmReadRawRC.lto_priv.476
                0x0800b3dc                pwmReadRawRC.lto_priv.475
                0x0800b3ec                nullReadRawRC.lto_priv.222
                0x0800b3f0                ibusDataReceive.lto_priv.473
                0x0800b43c                xBusDataReceive.lto_priv.471
                0x0800b518                spektrumDataReceive.lto_priv.221
                0x0800b568                sumhDataReceive.lto_priv.464
                0x0800b5b4                sumdDataReceive.lto_priv.462
                0x0800b660                sbusDataReceive.lto_priv.460
                0x0800b6b8                TIM_ICInit
                0x0800b8e0                FLASH_WaitForLastOperation
                0x0800b902                RCC_GetClocksFreq
                0x0800b994                DMA_StructInit
                0x0800b9ae                DMA_Init
                0x0800b9ea                DMA_DeInit
                0x0800badc                SystemInit
                0x0800bb28                alignSensors
                0x0800bca4                calculateBatteryCapacityRemainingPercentage
                0x0800bcec                batteryAdcToVoltage
                0x0800bd18                updateBatteryVoltage.lto_priv.353
                0x0800bd50                getRxfailValue.lto_priv.348
                0x0800bdb0                resumeRxSignal
                0x0800bdd8                suspendRxSignal
                0x0800be04                warningLedRefresh
                0x0800be4c                packFlightModeFlags.lto_priv.390
                0x0800bf7c                mspReleasePortIfAllocated
 .text          0x0800bfbc      0x634 /tmp/cclQ5C5v.ltrans9.ltrans.o
                0x0800bfbc                taskLedStrip
 .text          0x0800c5f0      0xa84 /tmp/cclQ5C5v.ltrans10.ltrans.o
                0x0800c738                blackboxWrite
                0x0800c8d0                blackboxAdvanceIterationTimers.lto_priv.410
                0x0800c90c                blackboxLogEvent
                0x0800c9bc                blackboxLogIteration.lto_priv.411
                0x0800cf18                sendFieldDefinition.lto_priv.412
 .text          0x0800d074      0xd7c /tmp/cclQ5C5v.ltrans11.ltrans.o
                0x0800d08c                gpsNewFrame
                0x0800d634                gpsSetState.lto_priv.311
                0x0800d650                GPS_distance_cm_bearing.isra.3.lto_priv.587
                0x0800d6d4                gpsNewData.part.2.lto_priv.258
 .text          0x0800ddf0      0xd0c /tmp/cclQ5C5v.ltrans12.ltrans.o
                0x0800ddf0                cliPlaySound.lto_priv.379
                0x0800de90                cliMotor.lto_priv.378
                0x0800df2c                cliServo.lto_priv.380
                0x0800e070                cliHelp.lto_priv.375
                0x0800e0b4                cliMixer.lto_priv.377
                0x0800e158                cliMap.lto_priv.376
                0x0800e1fc                cliGpsPassthrough.lto_priv.374
                0x0800e2b8                cliFeature.lto_priv.371
                0x0800e3b0                cliExit.lto_priv.370
                0x0800e430                cliDump.lto_priv.369
                0x0800e780                cliFlashErase.lto_priv.372
                0x0800e7ac                cliFlashInfo.lto_priv.373
                0x0800e7e4                cliServoMix.lto_priv.381
 .text          0x0800eafc      0xa30 /tmp/cclQ5C5v.ltrans13.ltrans.o
                0x0800eafc                _doTask.lto_priv.226
                0x0800ebc0                pifQmc5883_ReadMag
                0x0800ec1e                pifMpu6500_ReadAccel
                0x0800ec88                pifMpu6500_ReadGyro
                0x0800ecf2                _processingTask.part.1.lto_priv.434
                0x0800ee24                pifTask_SetTrigger
                0x0800ee40                pifTask_ChangePeriod
                0x0800ee68                pifObjArray_Remove
                0x0800eeaa                pifTaskManager_Remove
                0x0800ef18                pifObjArray_Add
                0x0800ef44                pifTaskManager_Add
                0x0800f148                pifObjArray_Clear
                0x0800f178                pif_Delay1us
                0x0800f198                _doTask.lto_priv.228
                0x0800f1cc                pifI2cDevice_WriteRegByte
                0x0800f264                _doTask.lto_priv.227
                0x0800f464                pifI2cDevice_ReadRegBit8
                0x0800f490                GPIO_Init
 .text          0x0800f52c      0xbbc /tmp/cclQ5C5v.ltrans14.ltrans.o
                0x0800f52c                dmaNoOpHandler
                0x0800f52e                micros
                0x0800f564                beepInverted.lto_priv.499
                0x0800f578                beepNormal.lto_priv.500
                0x0800f850                generateThrottleCurve
                0x0800f8e0                generatePitchRollCurve
                0x0800f914                isRangeActive.part.3.lto_priv.346
                0x0800f95c                isModeActivationConditionPresent
                0x0800f97e                calculateThrottleStatus
                0x0800f9b4                blackboxLogInflightAdjustmentEvent
                0x0800f9dc                bufWriterFlush
                0x0800f9f4                bufWriterAppend
                0x0800fa10                DMA1_Channel7_IRQHandler
                0x0800fa24                DMA1_Channel6_IRQHandler
                0x0800fa38                DMA1_Channel3_IRQHandler
                0x0800fa4c                DMA1_Channel2_IRQHandler
                0x0800fa60                delayMicroseconds
                0x0800fa76                delay
                0x0800fa8a                SysTick_Handler
                0x0800fc1c                EXTI15_10_IRQHandler
                0x0800fc3c                systemBeep
                0x0800fc48                beeperSilence
                0x0800fc78                beeper
                0x0800fcc4                beeperConfirmationBeeps
                0x0800fcf4                failureMode
                0x0800fd88                serialSetMode
                0x0800fd8e                isSerialTransmitBufferEmpty
                0x0800fd94                serialSetBaudRate
                0x0800fd9a                serialRead
                0x0800fda0                serialRxBytesWaiting
                0x0800fda6                serialWrite
                0x0800fdac                serialWriteBufShim
                0x0800fde8                writeMotors
                0x0800fe8c                stopMotors
                0x0800fed4                mixerResetDisarmedMotors
                0x0800ff0c                loadCustomServoMixer
                0x0800ff5c                determineServoMiddleOrForwardFromChannel
                0x0800ff90                imuComputeRotationMatrix.lto_priv.415
                0x080100c4                pidSetController
 .text          0x080100e8      0x880 /tmp/cclQ5C5v.ltrans15.ltrans.o
                0x080100e8                ws2811DMAHandler
                0x08010110                actI2cWrite.lto_priv.219
                0x08010120                qmc5883lRead
                0x0801018c                qmc5883lInit
                0x08010238                actI2cRead.lto_priv.218
                0x08010248                ECHO_EXTI_IRQHandler.lto_priv.598
                0x080102b8                ws2811UpdateStrip
                0x08010474                gpioExtiLineConfig
                0x0801049e                gpioInit
                0x08010502                m25p16_isReady
                0x0801054c                m25p16_waitForReady
                0x0801056c                m25p16_readBytes
                0x080105b8                i2c_OLED_send_byte.lto_priv.569
                0x080105d0                i2c_OLED_send_char
                0x08010604                i2c_OLED_send_string
                0x08010616                i2c_OLED_send_cmd.lto_priv.529
                0x0801062e                ug2864hsweg01InitI2C.part.0.lto_priv.528
                0x0801070c                i2c_OLED_set_line
                0x08010724                i2c_OLED_set_xy
                0x0801074e                i2cInit.lto_priv.223
 .text          0x08010968      0x718 /tmp/cclQ5C5v.ltrans16.ltrans.o
                0x080109f2                isSoftSerialTransmitBufferEmpty
                0x080109fe                softSerialSetMode
                0x08010a02                softSerialWriteByte
                0x08010a20                softSerialTxBytesFree
                0x08010a42                softSerialRxBytesWaiting
                0x08010a60                softSerialReadByte
                0x08010bbc                softSerialSetBaudRate
                0x08010bcc                onSerialRxPinChange
                0x08010c6a                usartIrqCallback
                0x08010cce                uartStartTxDMA
                0x08010d30                uartOpen
 .text          0x08011080      0x988 /tmp/cclQ5C5v.ltrans17.ltrans.o
                0x08011144                wrap_18000.lto_priv.414
                0x08011168                GPS_set_next_wp
                0x080111f4                gpsUsePIDs
                0x08011294                GPS_reset_home_position
                0x080112e8                calculate_Gtune
                0x080114a4                flashfsAdvanceTailInBuffer.lto_priv.545
                0x080114d4                flashfsGetDirtyDataBuffers.lto_priv.543
                0x0801150c                flashfsGetOffset
                0x0801152c                flashfsWriteBuffers.lto_priv.544
                0x08011680                flashfsFlushSync
                0x080116b8                flashfsFlushAsync
                0x080116fc                flashfsTransmitBufferUsed.lto_priv.413
                0x0801171c                flashfsEraseCompletely
                0x0801176c                TIM4_IRQHandler
                0x0801177c                TIM3_IRQHandler
                0x0801178c                TIM2_IRQHandler
                0x08011798                TIM1_UP_IRQHandler
                0x080117a8                TIM1_CC_IRQHandler
                0x080117b8                configTimeBase
                0x08011860                timerConfigure
                0x080118b4                lookupTimerIndex.lto_priv.285
                0x080118f0                timerChConfigCallbacks
                0x080119a8                USART3_IRQHandler
                0x080119b4                USART2_IRQHandler
                0x080119c0                USART1_IRQHandler
                0x080119cc                DMA1_Channel4_IRQHandler
 .text          0x08011a08      0x41c /tmp/cclQ5C5v.ltrans18.ltrans.o
                0x08011a08                mwArm
                0x08011da0                mwDisarm
                0x08011e08                HardFault_Handler
 .text          0x08011e24      0x974 /tmp/cclQ5C5v.ltrans19.ltrans.o
                0x08011e70                drawHorizonalPercentageBar
                0x08011ec2                updateDisplay
                0x080125f8                applyDirectionalModeColor
                0x080126d8                reevalulateLedConfig
 .text          0x08012798      0x800 /tmp/cclQ5C5v.ltrans20.ltrans.o
                0x080127b8                pwmOverflowCallback.lto_priv.494
                0x080127e0                ppmEdgeCallback.lto_priv.495
                0x080128e0                ppmOverflowCallback.lto_priv.496
                0x080128e2                _evtRcPpmReceive.lto_priv.497
                0x0801290c                pwmWriteStandard.lto_priv.491
                0x0801291c                pwmWriteBrushed.lto_priv.492
                0x08012940                _evtHcSr04Distance.lto_priv.454
                0x0801294c                _actHcSr04Trigger.lto_priv.453
                0x08012964                applyChangedBits
                0x0801298e                serialICConfig.lto_priv.591
                0x08012ac2                openSoftSerial
                0x08012c2c                pwmICConfig
                0x08012c68                pwmEdgeCallback.lto_priv.493
                0x08012cc0                pwmWriteServo
                0x08012cd8                pwmOutConfig.lto_priv.530
                0x08012f8c                EXTI9_5_IRQHandler
                0x08012f90                EXTI1_IRQHandler
                0x08012f94                EXTI0_IRQHandler
 .text          0x08012f98      0x7e0 /tmp/cclQ5C5v.ltrans21.ltrans.o
                0x08012f98                NVIC_Init.part.0.constprop.217
                0x08012fd4                EXTI_Init.part.0.constprop.212
                0x08013028                _alignSensors.constprop.207
                0x08013160                pifI2cPort_AddDevice.constprop.199
                0x08013180                pifI2cDevice_Read.constprop.198
                0x08013220                spiTransferByte.constprop.161
                0x08013240                spiTransfer.constprop.160
                0x08013280                pifObjArray_Init.part.0.constprop.157
                0x080132d8                initI2cDevice.constprop.153
                0x08013338                GPS_coord_to_degrees.constprop.113
                0x080133f8                grab_fields.constprop.112
                0x08013444                drawRxChannel.constprop.108
                0x08013490                blackboxWriteSigned16VBArray.constprop.81
                0x080134b0                blackboxWriteSignedVBArray.constprop.80
                0x080134ca                mspAllocateSerialPorts.constprop.78
                0x08013544                resetSerialConfig.constprop.74
                0x080135a0                parseRcChannels.constprop.64
                0x080135dc                itoa.constprop.59
                0x080135fe                spektrumInit.constprop.46
                0x08013680                findNextSharedSerialPort.constprop.20
                0x080136e4                setAdjustment.constprop.18
                0x08013770                headSerialError.constprop.12
 .text          0x08013778      0x890 /tmp/cclQ5C5v.ltrans22.ltrans.o
                0x08013778                taskUpdateDisplay
                0x08013790                taskCalculateAltitude
                0x08013c14                taskUpdateCompass
                0x08013d60                taskProcessGPS
 .text          0x08014008      0x884 /tmp/cclQ5C5v.ltrans23.ltrans.o
                0x0801400e                activateControlRateConfig
                0x08014054                isEEPROMContentValid.lto_priv.531
                0x08014098                resetConf.lto_priv.234
                0x0801454c                blackboxDeviceReserveBufferSpace
                0x080145ac                isBlackboxDeviceFull
                0x080145d8                blackboxDeviceFlushForce
                0x080145fc                blackboxWriteTag2_3S32
                0x0801471c                blackboxWriteUnsignedVB
                0x0801473c                blackboxWriteSignedVB
                0x08014744                blackboxPrint
                0x08014818                blackboxPrintfHeaderLine
                0x08014868                blackboxPrintf
 .text          0x0801488c      0x710 /tmp/cclQ5C5v.ltrans24.ltrans.o
                0x08014890                read8.lto_priv.385
                0x080148a4                read16.lto_priv.386
                0x080148b8                read32.lto_priv.387
                0x080148ca                serialize8.lto_priv.384
                0x080148e8                tailSerialReply.lto_priv.382
                0x08014908                headSerialResponse.lto_priv.225
                0x08014950                headSerialReply.lto_priv.383
                0x08014956                serialize16.lto_priv.388
                0x08014968                serialize32.lto_priv.389
                0x0801497a                cliWrite.lto_priv.260
                0x08014988                cliPrintf.lto_priv.254
                0x080149b0                cliVersion.lto_priv.253
                0x080149e4                cliTasks.lto_priv.252
                0x08014a34                cliPrintVar.lto_priv.261
                0x08014b20                cliRateProfile.lto_priv.245
                0x08014b64                cliProfile.lto_priv.244
                0x08014ba0                cliPrint.lto_priv.257
                0x08014bbc                cliStatus.lto_priv.251
                0x08014cd4                cliGet.lto_priv.241
                0x08014d2c                cliSet.lto_priv.250
                0x08014f30                cliReboot.lto_priv.259
                0x08014f68                cliDefaults.lto_priv.240
                0x08014f84                cliSave.lto_priv.248
 .text          0x08014f9c      0x61c /tmp/cclQ5C5v.ltrans25.ltrans.o
                0x08014f9c                evtBaroRead.lto_priv.504
                0x0801515c                sonarRead
                0x080151ec                ltm_finalise.lto_priv.301
                0x08015204                ltm_serialise_8.lto_priv.302
                0x08015228                ltm_serialise_32.lto_priv.303
                0x0801524a                ltm_serialise_16.lto_priv.305
                0x0801525c                ltm_initialise_packet.lto_priv.304
                0x08015290                smartPortSendPackage.lto_priv.300
                0x080152f8                workAroundForHottTelemetryOnUsart.isra.0.lto_priv.299
                0x08015324                flushHottRxBuffer.lto_priv.298
                0x08015340                serialize16.lto_priv.295
                0x08015354                sendTelemetryTail.lto_priv.294
                0x08015364                sendDataHead.lto_priv.296
                0x08015388                sendLatLong.lto_priv.297
                0x08015400                telemetryCheckState
 .text          0x080155b8      0x940 /tmp/cclQ5C5v.ltrans26.ltrans.o
                0x080155b8                filterIsSetCheck
                0x080155f8                scaleItermToRcInput
                0x080156cc                pidMultiWii23.lto_priv.270
                0x08015a74                pidLuxFloat.lto_priv.269
                0x08015ea0                pidResetErrorAngle
                0x08015eb8                failsafeActivate.lto_priv.347
 .text          0x08015ef8      0x338 /tmp/cclQ5C5v.ltrans27.ltrans.o
                0x08015ef8                taskUpdateBattery
                0x08016100                taskUpdateBeeper
 .text          0x08016230      0x200 /tmp/cclQ5C5v.ltrans28.ltrans.o
                0x08016230                taskUpdateAccelerometer
 .text          0x08016430      0x370 /usr/lib/gcc/arm-none-eabi/4.9.3/armv7-m/libgcc.a(_arm_addsubdf3.o)
                0x08016430                __aeabi_drsub
                0x08016438                __aeabi_dsub
                0x08016438                __subdf3
                0x0801643c                __adddf3
                0x0801643c                __aeabi_dadd
                0x080166b4                __aeabi_ui2d
                0x080166b4                __floatunsidf
                0x080166d4                __floatsidf
                0x080166d4                __aeabi_i2d
                0x080166f8                __extendsfdf2
                0x080166f8                __aeabi_f2d
                0x08016734                __aeabi_ul2d
                0x08016734                __floatundidf
                0x08016744                __floatdidf
                0x08016744                __aeabi_l2d
 .text          0x080167a0      0x424 /usr/lib/gcc/arm-none-eabi/4.9.3/armv7-m/libgcc.a(_arm_muldivdf3.o)
                0x080167a0                __aeabi_dmul
                0x080167a0                __muldf3
                0x080169f4                __aeabi_ddiv
                0x080169f4                __divdf3
 .text          0x08016bc4      0x110 /usr/lib/gcc/arm-none-eabi/4.9.3/armv7-m/libgcc.a(_arm_cmpdf2.o)
                0x08016bc4                __gtdf2
                0x08016bc4                __gedf2
                0x08016bcc                __ltdf2
                0x08016bcc                __ledf2
                0x08016bd4                __cmpdf2
                0x08016bd4                __eqdf2
                0x08016bd4                __nedf2
                0x08016c50                __aeabi_cdrcmple
                0x08016c60                __aeabi_cdcmple
                0x08016c60                __aeabi_cdcmpeq
                0x08016c70                __aeabi_dcmpeq
                0x08016c84                __aeabi_dcmplt
                0x08016c98                __aeabi_dcmple
                0x08016cac                __aeabi_dcmpge
                0x08016cc0                __aeabi_dcmpgt
 .text          0x08016cd4       0xa0 /usr/lib/gcc/arm-none-eabi/4.9.3/armv7-m/libgcc.a(_arm_truncdfsf2.o)
                0x08016cd4                __aeabi_d2f
                0x08016cd4                __truncdfsf2
 .text          0x08016d74      0x21c /usr/lib/gcc/arm-none-eabi/4.9.3/armv7-m/libgcc.a(_arm_addsubsf3.o)
                0x08016d74                __aeabi_frsub
                0x08016d7c                __subsf3
                0x08016d7c                __aeabi_fsub
                0x08016d80                __aeabi_fadd
                0x08016d80                __addsf3
                0x08016ee0                __aeabi_ui2f
                0x08016ee0                __floatunsisf
                0x08016ee8                __aeabi_i2f
                0x08016ee8                __floatsisf
                0x08016f04                __floatundisf
                0x08016f04                __aeabi_ul2f
                0x08016f14                __floatdisf
                0x08016f14                __aeabi_l2f
 .text          0x08016f90      0x2a0 /usr/lib/gcc/arm-none-eabi/4.9.3/armv7-m/libgcc.a(_arm_muldivsf3.o)
                0x08016f90                __mulsf3
                0x08016f90                __aeabi_fmul
                0x080170f8                __divsf3
                0x080170f8                __aeabi_fdiv
 .text          0x08017230       0xec /usr/lib/gcc/arm-none-eabi/4.9.3/armv7-m/libgcc.a(_arm_cmpsf2.o)
                0x08017230                __gtsf2
                0x08017230                __gesf2
                0x08017238                __lesf2
                0x08017238                __ltsf2
                0x08017240                __nesf2
                0x08017240                __eqsf2
                0x08017240                __cmpsf2
                0x080172a0                __aeabi_cfrcmple
                0x080172a8                __aeabi_cfcmple
                0x080172a8                __aeabi_cfcmpeq
                0x080172b8                __aeabi_fcmpeq
                0x080172cc                __aeabi_fcmplt
                0x080172e0                __aeabi_fcmple
                0x080172f4                __aeabi_fcmpge
                0x08017308                __aeabi_fcmpgt
 .text          0x0801731c       0x4c /usr/lib/gcc/arm-none-eabi/4.9.3/armv7-m/libgcc.a(_arm_fixsfsi.o)
                0x0801731c                __fixsfsi
                0x0801731c                __aeabi_f2iz
 .text          0x08017368       0x40 /usr/lib/gcc/arm-none-eabi/4.9.3/armv7-m/libgcc.a(_arm_fixunssfsi.o)
                0x08017368                __aeabi_f2uiz
                0x08017368                __fixunssfsi
 .text          0x080173a8       0x38 /usr/lib/gcc/arm-none-eabi/4.9.3/armv7-m/libgcc.a(_aeabi_ldivmod.o)
                0x080173a8                __aeabi_ldivmod
 .text          0x080173e0       0x60 /usr/lib/gcc/arm-none-eabi/4.9.3/armv7-m/libgcc.a(bpabi.o)
                0x080173e0                __gnu_ldivmod_helper
                0x08017410                __gnu_uldivmod_helper
 .text          0x08017440        0x4 /usr/lib/gcc/arm-none-eabi/4.9.3/armv7-m/libgcc.a(_dvmd_tls.o)
                0x08017440                __aeabi_ldiv0
                0x08017440                __aeabi_idiv0
 .text          0x08017444      0x2ac /usr/lib/gcc/arm-none-eabi/4.9.3/armv7-m/libgcc.a(_divdi3.o)
                0x08017444                __divdi3
 .text          0x080176f0      0x270 /usr/lib/gcc/arm-none-eabi/4.9.3/armv7-m/libgcc.a(_udivdi3.o)
                0x080176f0                __udivdi3
 *(.text*)
 .text.Reset_Handler
                0x08017960       0x9c obj/main/NAZE/startup_stm32f10x_md_gcc.o
                0x08017960                Reset_Handler
 .text.Default_Handler
                0x080179fc        0x2 obj/main/NAZE/startup_stm32f10x_md_gcc.o
                0x080179fc                EXTI2_IRQHandler
                0x080179fc                DebugMon_Handler
                0x080179fc                PVD_IRQHandler
                0x080179fc                PendSV_Handler
                0x080179fc                NMI_Handler
                0x080179fc                EXTI3_IRQHandler
                0x080179fc                UsageFault_Handler
                0x080179fc                ADC1_2_IRQHandler
                0x080179fc                SPI1_IRQHandler
                0x080179fc                TAMPER_IRQHandler
                0x080179fc                RTC_IRQHandler
                0x080179fc                CAN1_RX1_IRQHandler
                0x080179fc                RCC_IRQHandler
                0x080179fc                TIM1_TRG_COM_IRQHandler
                0x080179fc                DMA1_Channel1_IRQHandler
                0x080179fc                Default_Handler
                0x080179fc                SPI2_IRQHandler
                0x080179fc                MemManage_Handler
                0x080179fc                SVC_Handler
                0x080179fc                DMA1_Channel5_IRQHandler
                0x080179fc                EXTI4_IRQHandler
                0x080179fc                USB_LP_CAN1_RX0_IRQHandler
                0x080179fc                USB_HP_CAN1_TX_IRQHandler
                0x080179fc                WWDG_IRQHandler
                0x080179fc                TIM1_BRK_IRQHandler
                0x080179fc                RTCAlarm_IRQHandler
                0x080179fc                CAN1_SCE_IRQHandler
                0x080179fc                FLASH_IRQHandler
                0x080179fc                BusFault_Handler
                0x080179fc                USBWakeUp_IRQHandler
 *fill*         0x080179fe        0x2 
 .text.startup  0x08017a00      0x320 /tmp/cclQ5C5v.ltrans18.ltrans.o
                0x08017a00                main
 .text.unlikely
                0x08017d20       0x28 /tmp/cclQ5C5v.ltrans21.ltrans.o
                0x08017d20                rescheduleTask.part.0.constprop.58
 .text.atoi     0x08017d48        0x8 /usr/lib/gcc/arm-none-eabi/4.9.3/../../../arm-none-eabi/lib/armv7-m/libc_nano.a(lib_a-atoi.o)
                0x08017d48                atoi
 .text.strtok   0x08017d50       0x64 /usr/lib/gcc/arm-none-eabi/4.9.3/../../../arm-none-eabi/lib/armv7-m/libc_nano.a(lib_a-strtok.o)
                0x08017d50                strtok
 .text.__strtok_r
                0x08017db4       0x56 /usr/lib/gcc/arm-none-eabi/4.9.3/../../../arm-none-eabi/lib/armv7-m/libc_nano.a(lib_a-strtok_r.o)
                0x08017db4                __strtok_r
 .text.strtok_r
                0x08017e0a        0x6 /usr/lib/gcc/arm-none-eabi/4.9.3/../../../arm-none-eabi/lib/armv7-m/libc_nano.a(lib_a-strtok_r.o)
                0x08017e0a                strtok_r
 .text._strtol_r
                0x08017e10      0x10c /usr/lib/gcc/arm-none-eabi/4.9.3/../../../arm-none-eabi/lib/armv7-m/libc_nano.a(lib_a-strtol.o)
                0x08017e10                _strtol_r
 .text.strtol   0x08017f1c       0x1c /usr/lib/gcc/arm-none-eabi/4.9.3/../../../arm-none-eabi/lib/armv7-m/libc_nano.a(lib_a-strtol.o)
                0x08017f1c                strtol
 .text.malloc   0x08017f38       0x10 /usr/lib/gcc/arm-none-eabi/4.9.3/../../../arm-none-eabi/lib/armv7-m/libc_nano.a(lib_a-malloc.o)
                0x08017f38                malloc
 .text.free     0x08017f48       0x10 /usr/lib/gcc/arm-none-eabi/4.9.3/../../../arm-none-eabi/lib/armv7-m/libc_nano.a(lib_a-malloc.o)
                0x08017f48                free
 .text._free_r  0x08017f58       0x88 /usr/lib/gcc/arm-none-eabi/4.9.3/../../../arm-none-eabi/lib/armv7-m/libc_nano.a(lib_a-nano-freer.o)
                0x08017f58                _free_r
 .text._malloc_r
                0x08017fe0       0xac /usr/lib/gcc/arm-none-eabi/4.9.3/../../../arm-none-eabi/lib/armv7-m/libc_nano.a(lib_a-nano-mallocr.o)
                0x08017fe0                _malloc_r
 .text._sbrk_r  0x0801808c       0x20 /usr/lib/gcc/arm-none-eabi/4.9.3/../../../arm-none-eabi/lib/armv7-m/libc_nano.a(lib_a-sbrkr.o)
                0x0801808c                _sbrk_r
 .text._sbrk    0x080180ac       0x1c /usr/lib/gcc/arm-none-eabi/4.9.3/../../../arm-none-eabi/lib/armv7-m/libnosys.a(sbrk.o)
                0x080180ac                _sbrk
 .text.lrintf   0x080180c8       0x78 /usr/lib/gcc/arm-none-eabi/4.9.3/../../../arm-none-eabi/lib/armv7-m/libm.a(lib_a-sf_lrint.o)
                0x080180c8                lrintf
 .text.powf     0x08018140      0x314 /usr/lib/gcc/arm-none-eabi/4.9.3/../../../arm-none-eabi/lib/armv7-m/libm.a(lib_a-wf_pow.o)
                0x08018140                powf
 .text.sqrtf    0x08018454       0x9c /usr/lib/gcc/arm-none-eabi/4.9.3/../../../arm-none-eabi/lib/armv7-m/libm.a(lib_a-wf_sqrt.o)
                0x08018454                sqrtf
 .text.__ieee754_powf
                0x080184f0      0x6ec /usr/lib/gcc/arm-none-eabi/4.9.3/../../../arm-none-eabi/lib/armv7-m/libm.a(lib_a-ef_pow.o)
                0x080184f0                __ieee754_powf
 .text.__ieee754_sqrtf
                0x08018bdc       0xa8 /usr/lib/gcc/arm-none-eabi/4.9.3/../../../arm-none-eabi/lib/armv7-m/libm.a(lib_a-ef_sqrt.o)
                0x08018bdc                __ieee754_sqrtf
 .text.matherr  0x08018c84        0x4 /usr/lib/gcc/arm-none-eabi/4.9.3/../../../arm-none-eabi/lib/armv7-m/libm.a(lib_a-s_matherr.o)
                0x08018c84                matherr
 .text.rint     0x08018c88      0x11c /usr/lib/gcc/arm-none-eabi/4.9.3/../../../arm-none-eabi/lib/armv7-m/libm.a(lib_a-s_rint.o)
                0x08018c88                rint
 .text.fabsf    0x08018da4        0x8 /usr/lib/gcc/arm-none-eabi/4.9.3/../../../arm-none-eabi/lib/armv7-m/libm.a(lib_a-sf_fabs.o)
                0x08018da4                fabsf
 .text.finitef  0x08018dac       0x10 /usr/lib/gcc/arm-none-eabi/4.9.3/../../../arm-none-eabi/lib/armv7-m/libm.a(lib_a-sf_finite.o)
                0x08018dac                finitef
 .text.__fpclassifyf
                0x08018dbc       0x34 /usr/lib/gcc/arm-none-eabi/4.9.3/../../../arm-none-eabi/lib/armv7-m/libm.a(lib_a-sf_fpclassify.o)
                0x08018dbc                __fpclassifyf
 .text.nanf     0x08018df0        0x8 /usr/lib/gcc/arm-none-eabi/4.9.3/../../../arm-none-eabi/lib/armv7-m/libm.a(lib_a-sf_nan.o)
                0x08018df0                nanf
 .text.scalbnf  0x08018df8       0xb0 /usr/lib/gcc/arm-none-eabi/4.9.3/../../../arm-none-eabi/lib/armv7-m/libm.a(lib_a-sf_scalbn.o)
                0x08018df8                scalbnf
 .text.copysignf
                0x08018ea8        0xc /usr/lib/gcc/arm-none-eabi/4.9.3/../../../arm-none-eabi/lib/armv7-m/libm.a(lib_a-sf_copysign.o)
                0x08018ea8                copysignf
 .text.calloc   0x08018eb4       0x14 /usr/lib/gcc/arm-none-eabi/4.9.3/../../../arm-none-eabi/lib/armv7-m/libc_nano.a(lib_a-calloc.o)
                0x08018eb4                calloc
 .text.__errno  0x08018ec8        0xc /usr/lib/gcc/arm-none-eabi/4.9.3/../../../arm-none-eabi/lib/armv7-m/libc_nano.a(lib_a-errno.o)
                0x08018ec8                __errno
 .text.memcmp   0x08018ed4       0x20 /usr/lib/gcc/arm-none-eabi/4.9.3/../../../arm-none-eabi/lib/armv7-m/libc_nano.a(lib_a-memcmp.o)
                0x08018ed4                memcmp
 .text.memcpy   0x08018ef4       0x16 /usr/lib/gcc/arm-none-eabi/4.9.3/../../../arm-none-eabi/lib/armv7-m/libc_nano.a(lib_a-memcpy.o)
                0x08018ef4                memcpy
 .text.memset   0x08018f0a       0x10 /usr/lib/gcc/arm-none-eabi/4.9.3/../../../arm-none-eabi/lib/armv7-m/libc_nano.a(lib_a-memset.o)
                0x08018f0a                memset
 .text._calloc_r
                0x08018f1a       0x1c /usr/lib/gcc/arm-none-eabi/4.9.3/../../../arm-none-eabi/lib/armv7-m/libc_nano.a(lib_a-nano-callocr.o)
                0x08018f1a                _calloc_r
 *fill*         0x08018f36        0x2 
 .text.strcasecmp
                0x08018f38       0x3c /usr/lib/gcc/arm-none-eabi/4.9.3/../../../arm-none-eabi/lib/armv7-m/libc_nano.a(lib_a-strcasecmp.o)
                0x08018f38                strcasecmp
 .text.strcat   0x08018f74       0x1e /usr/lib/gcc/arm-none-eabi/4.9.3/../../../arm-none-eabi/lib/armv7-m/libc_nano.a(lib_a-strcat.o)
                0x08018f74                strcat
 .text.strchr   0x08018f92       0x1c /usr/lib/gcc/arm-none-eabi/4.9.3/../../../arm-none-eabi/lib/armv7-m/libc_nano.a(lib_a-strchr.o)
                0x08018f92                strchr
 .text.strlen   0x08018fae       0x10 /usr/lib/gcc/arm-none-eabi/4.9.3/../../../arm-none-eabi/lib/armv7-m/libc_nano.a(lib_a-strlen.o)
                0x08018fae                strlen
 *fill*         0x08018fbe        0x2 
 .text.strncasecmp
                0x08018fc0       0x44 /usr/lib/gcc/arm-none-eabi/4.9.3/../../../arm-none-eabi/lib/armv7-m/libc_nano.a(lib_a-strncasecmp.o)
                0x08018fc0                strncasecmp
 .text.strncpy  0x08019004       0x24 /usr/lib/gcc/arm-none-eabi/4.9.3/../../../arm-none-eabi/lib/armv7-m/libc_nano.a(lib_a-strncpy.o)
                0x08019004                strncpy
 .text.strstr   0x08019028       0x30 /usr/lib/gcc/arm-none-eabi/4.9.3/../../../arm-none-eabi/lib/armv7-m/libc_nano.a(lib_a-strstr.o)
                0x08019028                strstr
 *(.rodata)
 .rodata        0x08019058      0x10c /tmp/cclQ5C5v.ltrans0.ltrans.o
                0x080190f0                hsv_white
 .rodata        0x08019164      0x2b4 /tmp/cclQ5C5v.ltrans1.ltrans.o
 .rodata        0x08019418      0x18c /tmp/cclQ5C5v.ltrans2.ltrans.o
 .rodata        0x080195a4        0x8 /tmp/cclQ5C5v.ltrans5.ltrans.o
 .rodata        0x080195ac      0x4f0 /tmp/cclQ5C5v.ltrans7.ltrans.o
                0x080195dc                mixerAtail4.lto_priv.520
                0x0801961c                mixerDualcopter.lto_priv.519
                0x0801963c                mixerHex6H.lto_priv.518
                0x0801969c                mixerVtail4.lto_priv.517
                0x080196dc                mixerOctoFlatX.lto_priv.516
                0x0801975c                mixerOctoFlatP.lto_priv.515
                0x080197dc                mixerOctoX8.lto_priv.514
                0x0801985c                mixerHex6X.lto_priv.513
                0x080198bc                mixerY4.lto_priv.512
                0x080198fc                mixerSingleProp.lto_priv.511
                0x0801990c                mixerHex6P.lto_priv.510
                0x0801996c                mixerY6.lto_priv.509
                0x080199cc                mixerBicopter.lto_priv.508
                0x080199ec                mixerQuadX.lto_priv.507
                0x08019a2c                mixerQuadP.lto_priv.506
                0x08019a6c                mixerTricopter.lto_priv.505
 .rodata        0x08019a9c       0x14 /tmp/cclQ5C5v.ltrans8.ltrans.o
 .rodata        0x08019ab0       0x38 /tmp/cclQ5C5v.ltrans9.ltrans.o
                0x08019ab0                hsv_green
                0x08019ab4                hsv_red
                0x08019ab8                hsv_yellow
                0x08019abc                hsv_blue
                0x08019ae4                hsv_orange
 .rodata        0x08019ae8       0x18 /tmp/cclQ5C5v.ltrans10.ltrans.o
 .rodata        0x08019b00      0x54c /tmp/cclQ5C5v.ltrans12.ltrans.o
                0x08019b00                beeperTable.lto_priv.267
                0x08019bc0                cmdTable
                0x08019da0                mixerNames.lto_priv.262
                0x08019e64                servoMixers
                0x08019f34                servoMixerSingle.lto_priv.527
                0x08019f6c                servoMixerDual.lto_priv.526
                0x08019f7a                servoMixerAirplane.lto_priv.525
                0x08019f9d                servoMixerFlyingWing.lto_priv.524
                0x08019fc0                servoMixerGimbal.lto_priv.523
                0x08019fce                servoMixerBI.lto_priv.522
                0x08019fea                servoMixerTri.lto_priv.521
                0x08019ff1                beep_armedBeep.lto_priv.284
                0x08019ff6                beep_disarmRepeatBeep.lto_priv.283
                0x08019ffa                beep_readyBeep.lto_priv.282
                0x0801a009                beep_2longerBeeps.lto_priv.281
                0x0801a00e                beep_2shortBeeps.lto_priv.280
                0x0801a013                beep_shortBeep.lto_priv.279
                0x0801a016                beep_lowBatteryBeep.lto_priv.278
                0x0801a019                beep_critBatteryBeep.lto_priv.277
                0x0801a01c                beep_armedGpsFix.lto_priv.276
                0x0801a025                beep_armingBeep.lto_priv.275
                0x0801a02a                beep_disarmBeep.lto_priv.274
                0x0801a02f                beep_txLostBeep.lto_priv.273
                0x0801a032                beep_sos.lto_priv.272
                0x0801a045                beep_gyroCalibrated.lto_priv.271
 .rodata        0x0801a04c        0xc /tmp/cclQ5C5v.ltrans14.ltrans.o
 .rodata        0x0801a058      0x2cc /tmp/cclQ5C5v.ltrans15.ltrans.o
 .rodata        0x0801a324       0x28 /tmp/cclQ5C5v.ltrans16.ltrans.o
 .rodata        0x0801a34c       0x22 /tmp/cclQ5C5v.ltrans19.ltrans.o
 *fill*         0x0801a36e        0x2 
 .rodata        0x0801a370       0x28 /tmp/cclQ5C5v.ltrans20.ltrans.o
 .rodata        0x0801a398       0x20 /tmp/cclQ5C5v.ltrans21.ltrans.o
                0x0801a398                baudRates
 .rodata        0x0801a3b8      0x144 /tmp/cclQ5C5v.ltrans22.ltrans.o
                0x0801a3b8                gpsInitData.lto_priv.456
 .rodata        0x0801a4fc       0xc4 /tmp/cclQ5C5v.ltrans23.ltrans.o
 .rodata        0x0801a5c0      0xff4 /tmp/cclQ5C5v.ltrans24.ltrans.o
                0x0801a708                valueTable
                0x0801b5a8                shortGitRevision
                0x0801b5ac                buildTime
                0x0801b5b0                buildDate
 *(.rodata*)
 .rodata.timerHardware
                0x0801b5b4       0xe0 /tmp/cclQ5C5v.ltrans0.ltrans.o
                0x0801b5b4                timerHardware
 .rodata.str1.1
                0x0801b694        0xf /tmp/cclQ5C5v.ltrans0.ltrans.o
 .rodata.str1.1
                0x0801b6a3      0x215 /tmp/cclQ5C5v.ltrans1.ltrans.o
                                0x226 (size before relaxing)
 .rodata.str1.1
                0x0801b8b8      0x154 /tmp/cclQ5C5v.ltrans2.ltrans.o
                                0x174 (size before relaxing)
 .rodata.frSkyDataIdTable
                0x0801ba0c       0x20 /tmp/cclQ5C5v.ltrans5.ltrans.o
 .rodata.str1.1
                0x0801ba2c       0x27 /tmp/cclQ5C5v.ltrans6.ltrans.o
 *fill*         0x0801ba53        0x1 
 .rodata.mixers
                0x0801ba54       0xd0 /tmp/cclQ5C5v.ltrans7.ltrans.o
                0x0801ba54                mixers
 .rodata.str1.1
                0x0801bb24      0x13a /tmp/cclQ5C5v.ltrans7.ltrans.o
                                0x148 (size before relaxing)
 .rodata.hsv_black
                0x0801bc5e        0x4 /tmp/cclQ5C5v.ltrans9.ltrans.o
                0x0801bc5e                hsv_black
 .rodata.str1.1
                0x0801bc62       0x3e /tmp/cclQ5C5v.ltrans10.ltrans.o
                                 0x41 (size before relaxing)
 .rodata.str1.1
                0x0801bca0      0x919 /tmp/cclQ5C5v.ltrans12.ltrans.o
                                0x9c4 (size before relaxing)
 .rodata.str1.1
                0x0801c5b9        0x6 /tmp/cclQ5C5v.ltrans18.ltrans.o
 .rodata.cyclePageIds
                0x0801c5bf        0x5 /tmp/cclQ5C5v.ltrans19.ltrans.o
 .rodata.str1.1
                0x0801c5c4      0x14a /tmp/cclQ5C5v.ltrans19.ltrans.o
                                0x160 (size before relaxing)
 .rodata.serialPortIdentifiers
                0x0801c70e        0x5 /tmp/cclQ5C5v.ltrans21.ltrans.o
                0x0801c70e                serialPortIdentifiers
 .rodata.rcChannelLetters
                0x0801c713       0x15 /tmp/cclQ5C5v.ltrans21.ltrans.o
                0x0801c713                rcChannelLetters
 .rodata.str1.1
                0x0801c728       0x30 /tmp/cclQ5C5v.ltrans21.ltrans.o
                                 0x58 (size before relaxing)
 .rodata.str1.1
                0x0801c758       0xfb /tmp/cclQ5C5v.ltrans22.ltrans.o
                                 0xfc (size before relaxing)
 .rodata.str1.1
                0x0801c853        0x9 /tmp/cclQ5C5v.ltrans23.ltrans.o
 .rodata.str1.1
                0x0801c85c      0xd11 /tmp/cclQ5C5v.ltrans24.ltrans.o
                                0xdc0 (size before relaxing)
 .rodata._ctype_
                0x0801d56d      0x101 /usr/lib/gcc/arm-none-eabi/4.9.3/../../../arm-none-eabi/lib/armv7-m/libc_nano.a(lib_a-ctype_.o)
                0x0801d56d                _ctype_
 .rodata.str1.1
                0x0801d66e        0x0 /usr/lib/gcc/arm-none-eabi/4.9.3/../../../arm-none-eabi/lib/armv7-m/libc_nano.a(lib_a-impure.o)
                                  0x2 (size before relaxing)
 *fill*         0x0801d66e        0x2 
 .rodata.TWO23  0x0801d670        0x8 /usr/lib/gcc/arm-none-eabi/4.9.3/../../../arm-none-eabi/lib/armv7-m/libm.a(lib_a-sf_lrint.o)
 .rodata.str1.4
                0x0801d678        0x5 /usr/lib/gcc/arm-none-eabi/4.9.3/../../../arm-none-eabi/lib/armv7-m/libm.a(lib_a-wf_pow.o)
                                  0x8 (size before relaxing)
 *fill*         0x0801d67d        0x3 
 .rodata.str1.4
                0x0801d680        0x6 /usr/lib/gcc/arm-none-eabi/4.9.3/../../../arm-none-eabi/lib/armv7-m/libm.a(lib_a-wf_sqrt.o)
                                  0x8 (size before relaxing)
 *fill*         0x0801d686        0x2 
 .rodata.dp_h   0x0801d688        0x8 /usr/lib/gcc/arm-none-eabi/4.9.3/../../../arm-none-eabi/lib/armv7-m/libm.a(lib_a-ef_pow.o)
 .rodata.dp_l   0x0801d690        0x8 /usr/lib/gcc/arm-none-eabi/4.9.3/../../../arm-none-eabi/lib/armv7-m/libm.a(lib_a-ef_pow.o)
 .rodata.bp     0x0801d698        0x8 /usr/lib/gcc/arm-none-eabi/4.9.3/../../../arm-none-eabi/lib/armv7-m/libm.a(lib_a-ef_pow.o)
 .rodata.str1.4
                0x0801d6a0        0x8 /usr/lib/gcc/arm-none-eabi/4.9.3/../../../arm-none-eabi/lib/armv7-m/libm.a(lib_a-ef_pow.o)
                                  0x4 (size before relaxing)
 .rodata.TWO52  0x0801d6a0       0x10 /usr/lib/gcc/arm-none-eabi/4.9.3/../../../arm-none-eabi/lib/armv7-m/libm.a(lib_a-s_rint.o)
 *(.glue_7)
 .glue_7        0x0801d6b0        0x0 linker stubs
 *(.glue_7t)
 .glue_7t       0x0801d6b0        0x0 linker stubs
 *(.eh_frame)
 *(.init)
 *(.fini)
                0x0801d6b0                . = ALIGN (0x4)
                0x0801d6b0                _etext = .

.vfp11_veneer   0x0801d6b0        0x0
 .vfp11_veneer  0x0801d6b0        0x0 linker stubs

.v4_bx          0x0801d6b0        0x0
 .v4_bx         0x0801d6b0        0x0 linker stubs

.iplt           0x0801d6b0        0x0
 .iplt          0x0801d6b0        0x0 obj/main/NAZE/startup_stm32f10x_md_gcc.o

.ARM.extab
 *(.ARM.extab* .gnu.linkonce.armextab.*)

.ARM            0x0801d6b0        0x8
                0x0801d6b0                __exidx_start = .
 *(.ARM.exidx*)
 .ARM.exidx     0x0801d6b0        0x8 /usr/lib/gcc/arm-none-eabi/4.9.3/armv7-m/libgcc.a(_divdi3.o)
 .ARM.exidx     0x0801d6b8        0x0 /usr/lib/gcc/arm-none-eabi/4.9.3/armv7-m/libgcc.a(_udivdi3.o)
                                  0x8 (size before relaxing)
                0x0801d6b8                __exidx_end = .

.rel.dyn        0x0801d6b8        0x0
 .rel.iplt      0x0801d6b8        0x0 obj/main/NAZE/startup_stm32f10x_md_gcc.o

.preinit_array  0x0801d6b8        0x0
                [!provide]                PROVIDE (__preinit_array_start, .)
 *(.preinit_array*)
                [!provide]                PROVIDE (__preinit_array_end, .)

.init_array     0x0801d6b8        0x0
                [!provide]                PROVIDE (__init_array_start, .)
 *(SORT(.init_array.*))
 *(.init_array*)
                [!provide]                PROVIDE (__init_array_end, .)

.fini_array     0x0801d6b8        0x0
                [!provide]                PROVIDE (__fini_array_start, .)
 *(.fini_array*)
 *(SORT(.fini_array.*))
                [!provide]                PROVIDE (__fini_array_end, .)
                0x0801d6b8                _sidata = .

.data           0x20000000      0x1d0 load address 0x0801d6b8
                0x20000000                . = ALIGN (0x4)
                0x20000000                _sdata = .
 *(.data)
 .data          0x20000000        0x3 /tmp/cclQ5C5v.ltrans3.ltrans.o
                0x20000002                isUsingSticksToArm.lto_priv.358
 *fill*         0x20000003        0x1 
 .data          0x20000004        0x3 /tmp/cclQ5C5v.ltrans5.ltrans.o
                0x20000004                acc_1G
 *fill*         0x20000007        0x1 
 .data          0x20000008        0x5 /tmp/cclQ5C5v.ltrans8.ltrans.o
                0x20000008                hse_value
                0x2000000c                standardBoardAlignment.lto_priv.485
 .data          0x2000000d        0x3 /tmp/cclQ5C5v.ltrans9.ltrans.o
 .data          0x20000010        0x4 /tmp/cclQ5C5v.ltrans11.ltrans.o
                0x20000010                GPS_scaleLonDown.lto_priv.579
 .data          0x20000014       0x14 /tmp/cclQ5C5v.ltrans12.ltrans.o
                0x20000018                geometry.lto_priv.363
 .data          0x20000028        0x4 /tmp/cclQ5C5v.ltrans14.ltrans.o
                0x20000028                q0.lto_priv.406
 .data          0x2000002c        0x8 /tmp/cclQ5C5v.ltrans21.ltrans.o
                0x2000002c                pif_id
                0x20000030                rcReadRawFunc.lto_priv.323
 .data          0x20000034        0x4 /tmp/cclQ5C5v.ltrans25.ltrans.o
                0x20000034                measurement.lto_priv.596
 .data          0x20000038        0xc /tmp/cclQ5C5v.ltrans26.ltrans.o
 *(.data*)
 .data.baro     0x20000044       0x1c /tmp/cclQ5C5v.ltrans0.ltrans.o
 .data.GPS_hdop
                0x20000060        0x2 /tmp/cclQ5C5v.ltrans5.ltrans.o
                0x20000060                GPS_hdop
 *fill*         0x20000062        0x2 
 .data.pid_controller
                0x20000064        0x4 /tmp/cclQ5C5v.ltrans14.ltrans.o
                0x20000064                pid_controller
 .data.cfTasks  0x20000068       0xf0 /tmp/cclQ5C5v.ltrans21.ltrans.o
                0x20000068                cfTasks
 .data.detectedSensors
                0x20000158        0x4 /tmp/cclQ5C5v.ltrans24.ltrans.o
                0x20000158                detectedSensors
 .data.batteryCellCount
                0x2000015c        0x1 /tmp/cclQ5C5v.ltrans24.ltrans.o
                0x2000015c                batteryCellCount
 *fill*         0x2000015d        0x3 
 .data.SystemCoreClock
                0x20000160        0x4 /tmp/cclQ5C5v.ltrans24.ltrans.o
                0x20000160                SystemCoreClock
 .data.__ctype_ptr__
                0x20000164        0x4 /usr/lib/gcc/arm-none-eabi/4.9.3/../../../arm-none-eabi/lib/armv7-m/libc_nano.a(lib_a-ctype_.o)
                0x20000164                __ctype_ptr__
 .data.impure_data
                0x20000168       0x60 /usr/lib/gcc/arm-none-eabi/4.9.3/../../../arm-none-eabi/lib/armv7-m/libc_nano.a(lib_a-impure.o)
 .data._impure_ptr
                0x200001c8        0x4 /usr/lib/gcc/arm-none-eabi/4.9.3/../../../arm-none-eabi/lib/armv7-m/libc_nano.a(lib_a-impure.o)
                0x200001c8                _impure_ptr
 .data.__fdlib_version
                0x200001cc        0x1 /usr/lib/gcc/arm-none-eabi/4.9.3/../../../arm-none-eabi/lib/armv7-m/libm.a(lib_a-s_lib_ver.o)
                0x200001cc                __fdlib_version
                0x200001d0                . = ALIGN (0x4)
 *fill*         0x200001cd        0x3 
                0x200001d0                _edata = .

.igot.plt       0x200001d0        0x0 load address 0x0801d888
 .igot.plt      0x200001d0        0x0 obj/main/NAZE/startup_stm32f10x_md_gcc.o
                0x200001d0                . = ALIGN (0x4)

.bss            0x200001d0     0x3430 load address 0x0801d888
                0x200001d0                _sbss = .
                0x200001d0                __bss_start__ = _sbss
 *(.bss)
 .bss           0x200001d0      0x594 /tmp/cclQ5C5v.ltrans0.ltrans.o
                0x200001d8                i2cOverClock.lto_priv.600
                0x200001fc                inputFilteringMode.lto_priv.592
                0x20000200                s_rc_ppm.lto_priv.593
                0x20000334                servos.lto_priv.595
                0x20000355                displayPresent.lto_priv.568
                0x20000360                mpuConfiguration
                0x2000036c                mpuIntExtiConfig.lto_priv.603
                0x200003c0                mpuDividerDrops
                0x200003cc                gpsPacketLog
                0x200003e4                sonarHardware.lto_priv.597
                0x200003e8                s_hcsr04.lto_priv.599
                0x20000410                ledStripDMABuffer
                0x2000073c                telemetryConfig.lto_priv.441
                0x20000740                portConfig.lto_priv.444
                0x20000744                frskyPortSharing.lto_priv.566
                0x20000745                hottPortSharing.lto_priv.564
                0x20000748                telemetryConfig.lto_priv.442
                0x2000074c                portConfig.lto_priv.446
                0x20000750                smartPortPortSharing.lto_priv.561
                0x20000758                portConfig.lto_priv.447
                0x2000075c                ltmPortSharing.lto_priv.559
                0x2000075d                couldBeBusy.lto_priv.586
                0x20000760                tailAddress.lto_priv.542
 .bss           0x20000764      0x3b7 /tmp/cclQ5C5v.ltrans1.ltrans.o
                0x2000077c                gyroAlign
                0x20000780                gyroLpfCutFreq.lto_priv.541
                0x200007f4                gyroConfig.lto_priv.540
                0x20000850                imuRuntimeConfig.lto_priv.478
                0x20000878                gyroScale.lto_priv.479
                0x20000888                magneticDeclination
                0x2000088c                smallAngleCosZ
                0x20000898                fc_acc
                0x2000089c                accDeadband.lto_priv.536
                0x200008a0                lookupYawRC
                0x200008b4                rxRefreshRate.lto_priv.458
                0x200008cc                rcControlsConfig.lto_priv.535
                0x200008d4                escAndServoConfig.lto_priv.395
                0x200008d8                throttleAngleScale
                0x200008dc                mixerConfig.lto_priv.481
                0x200008e0                currentMixer.lto_priv.488
                0x200009a4                rxConfig.lto_priv.538
                0x200009a8                currentMixerMode.lto_priv.487
                0x200009cc                gimbalConfig.lto_priv.537
                0x200009d0                servoFilterState.lto_priv.482
                0x20000af0                motorControlEnable
                0x20000af4                blackboxPort.lto_priv.428
                0x20000af8                blackboxHeaderBudget
                0x20000afc                blackboxMaxHeaderBytesPerIteration.lto_priv.426
                0x20000b00                xmitState.lto_priv.424
                0x20000b08                blackboxConditionCache.lto_priv.421
                0x20000b0c                vbatReference.lto_priv.417
                0x20000b0e                blackboxSlowFrameIterationTimer.lto_priv.425
                0x20000b10                blackboxPFrameIndex.lto_priv.420
                0x20000b14                blackboxIteration.lto_priv.419
                0x20000b18                blackboxModeActivationConditionPresent.lto_priv.418
                0x20000b19                blackboxPortSharing.lto_priv.427
                0x20000b1a                blackboxLoggedAnyFrames.lto_priv.423
 *fill*         0x20000b1b        0x1 
 .bss           0x20000b1c      0x164 /tmp/cclQ5C5v.ltrans2.ltrans.o
                0x20000b1c                printfSerialPort.lto_priv.532
                0x20000b3c                servo
                0x20000b4c                GPS_ground_course
                0x20000b4e                GPS_update
                0x20000b4f                GPS_numCh
                0x20000b50                GPS_svinfo_chn
                0x20000b60                GPS_svinfo_svid
                0x20000b70                GPS_svinfo_quality
                0x20000b80                GPS_svinfo_cno
                0x20000b90                debug
                0x20000b98                blackboxState.lto_priv.393
                0x20000bfc                pwmIOConfiguration.lto_priv.489
 .bss           0x20000c80      0x1cc /tmp/cclQ5C5v.ltrans3.ltrans.o
                0x20000c86                rxMspFrameDone.lto_priv.360
                0x20000c87                ppmComplete.lto_priv.594
                0x20000cb1                rcSampleIndex.lto_priv.457
                0x20000cfc                rcInvalidPulsPeriod
                0x20000d45                rxFlightChannelsValid.lto_priv.553
                0x20000d60                rxConfig.lto_priv.318
                0x20000d64                deadband3dThrottle.lto_priv.477
                0x20000d68                disarmAt.lto_priv.416
                0x20000d6f                AccInflightCalibrationMeasurementDone
                0x20000d70                AccInflightCalibrationSavetoEEProm
                0x20000d72                calibratingA
                0x20000d74                InflightcalibratingA
                0x20000d76                AccInflightCalibrationActive
                0x20000d78                adjustmentStates
                0x20000dac                escAndServoConfig.lto_priv.357
                0x20000db0                magHold
                0x20000db2                headFreeModeHold
                0x20000db4                nav_mode
                0x20000db8                gpsProfile.lto_priv.399
                0x20000dbc                GPS_hold
                0x20000dc6                nav_rated.lto_priv.401
                0x20000dca                nav.lto_priv.400
                0x20000df8                poshold_ratePID.lto_priv.570
                0x20000e20                navPID.lto_priv.571
                0x20000e48                isRXDataNew.lto_priv.403
                0x20000e49                haveProcessedAnnexCodeOnce.lto_priv.392
                0x20000e4a                initialThrottleHold.lto_priv.402
 .bss           0x20000e4c       0x28 /tmp/cclQ5C5v.ltrans4.ltrans.o
 .bss           0x20000e74       0xf0 /tmp/cclQ5C5v.ltrans5.ltrans.o
                0x20000e74                frskyTelemetryEnabled.lto_priv.567
                0x20000e7e                accSmooth
                0x20000e84                vario
                0x20000e88                BaroAlt
                0x20000e8c                baroTemperature
                0x20000e94                telemetryConfig.lto_priv.291
                0x20000e98                amperage
                0x20000e9c                GPS_speed
                0x20000e9e                GPS_altitude
                0x20000ea0                GPS_numSat
                0x20000ea4                GPS_coord
                0x20000eac                hottTelemetryEnabled.lto_priv.565
                0x20000eb4                hottEAMMessage.lto_priv.448
                0x20000ee4                telemetryConfig.lto_priv.292
                0x20000ee8                hottGPSMessage.lto_priv.449
                0x20000f14                GPS_distanceToHome
                0x20000f16                GPS_directionToHome
                0x20000f20                hottPort.lto_priv.558
                0x20000f30                portConfig.lto_priv.445
                0x20000f36                smartPortTelemetryEnabled.lto_priv.562
                0x20000f38                smartPortSerialPort.lto_priv.557
                0x20000f3c                smartPortState
                0x20000f40                smartPortLastRequestTime.lto_priv.563
                0x20000f46                ltmEnabled.lto_priv.560
                0x20000f48                ltmPort.lto_priv.556
                0x20000f54                EstAlt.lto_priv.308
                0x20000f58                rssi
                0x20000f5c                GPS_home
 .bss           0x20000f64       0x18 /tmp/cclQ5C5v.ltrans6.ltrans.o
 .bss           0x20000f7c        0xa /tmp/cclQ5C5v.ltrans7.ltrans.o
                0x20000f7c                colors
                0x20000f80                ledConfigs
                0x20000f84                serialPortCount.lto_priv.364
 *fill*         0x20000f86        0x2 
 .bss           0x20000f88      0x2f1 /tmp/cclQ5C5v.ltrans8.ltrans.o
                0x20000f88                ibusChannelData.lto_priv.327
                0x20000fe9                xBusChannelCount.lto_priv.468
                0x20000fea                xBusFrameReceived.lto_priv.328
                0x20000fec                spekChannelData.lto_priv.345
                0x2000101c                sumhChannels.lto_priv.331
                0x2000103c                sumdChannels.lto_priv.336
                0x2000105c                sbusChannelData.lto_priv.339
                0x200010a4                mspFrame.lto_priv.359
                0x200010c8                captures.lto_priv.324
                0x200010e5                ibus.lto_priv.326
                0x20001105                ibusFrameDone.lto_priv.325
                0x20001110                xBusFramePosition.lto_priv.466
                0x20001111                xBusDataIncoming.lto_priv.465
                0x20001112                xBusFrameLength.lto_priv.467
                0x20001113                xBusProvider.lto_priv.469
                0x20001119                spekFrame.lto_priv.341
                0x20001129                rcFrameComplete.lto_priv.340
                0x20001135                sumhFrame.lto_priv.330
                0x2000114a                sumhFrameDone.lto_priv.329
                0x20001151                sumdFrameDone.lto_priv.332
                0x20001152                crc.lto_priv.333
                0x20001154                sumdChannelCount.lto_priv.334
                0x20001155                sumd.lto_priv.335
                0x20001181                sbusFrame.lto_priv.338
                0x2000119a                sbusFrameDone.lto_priv.337
                0x200011a8                boardRotation.lto_priv.486
                0x200011cc                batteryConfig
                0x200011d0                mAhDrawn
                0x200011d4                adcConfig
                0x200011e4                adcValues
                0x200011ec                vbatLatestADC
                0x200011f0                vbatFilterState.lto_priv.440
                0x20001214                vbat
                0x20001218                rxConfig.lto_priv.319
                0x2000121c                suspendRxSignalUntil.lto_priv.322
                0x20001220                skipRxSamples.lto_priv.321
                0x20001224                sysTickUptime.lto_priv.233
                0x20001228                failsafeState.lto_priv.289
                0x2000124c                warningLedState.lto_priv.266
                0x20001250                warningLedTimer.lto_priv.404
                0x20001254                flightModeFlags
                0x20001258                rcModeActivationMask
                0x2000125c                activeBoxIdCount.lto_priv.361
                0x2000125d                activeBoxIds.lto_priv.362
 *fill*         0x20001279        0x3 
 .bss           0x2000127c       0xa0 /tmp/cclQ5C5v.ltrans9.ltrans.o
                0x2000127c                ledStripInitialised.lto_priv.450
                0x2000127e                ledColorBuffer.lto_priv.451
                0x2000130c                ledCount
                0x20001310                rxSignalReceived.lto_priv.313
                0x20001318                highestYValueForNorth
                0x20001319                lowestXValueForEast
                0x2000131a                lowestYValueForSouth
                0x2000131b                highestXValueForWest
 .bss           0x2000131c        0x7 /tmp/cclQ5C5v.ltrans10.ltrans.o
 *fill*         0x20001323        0x1 
 .bss           0x20001324      0x242 /tmp/cclQ5C5v.ltrans11.ltrans.o
                0x20001508                GPS_WP.lto_priv.573
                0x20001510                wp_distance.lto_priv.574
                0x20001514                target_bearing.lto_priv.575
                0x20001518                error.lto_priv.580
                0x20001520                posholdPID_PARAM.lto_priv.581
                0x20001530                poshold_ratePID_PARAM.lto_priv.582
                0x20001544                waypoint_speed_gov.lto_priv.578
                0x20001548                original_target_bearing.lto_priv.577
                0x20001550                nav_bearing.lto_priv.576
                0x20001554                navPID_PARAM.lto_priv.583
                0x20001564                nav_takeoff_bearing.lto_priv.584
 *fill*         0x20001566        0x2 
 .bss           0x20001568       0x82 /tmp/cclQ5C5v.ltrans12.ltrans.o
                0x20001568                motor_disarmed
                0x20001580                currentProfile
                0x20001584                gpsPort.lto_priv.310
                0x20001588                pageState.lto_priv.316
                0x2000159c                cliBuffer.lto_priv.368
                0x200015cc                bufferIndex.lto_priv.367
                0x200015d0                servoConf.lto_priv.268
                0x200015d4                beep_multiBeeps.lto_priv.265
 *fill*         0x200015ea        0x2 
 .bss           0x200015ec       0xcc /tmp/cclQ5C5v.ltrans13.ltrans.o
                0x200015ec                pif_act_timer1us
                0x200015f0                s_table.lto_priv.433
                0x20001674                s_task_stack_ptr.lto_priv.431
                0x2000168c                s_it_current.lto_priv.429
                0x20001690                s_table_number.lto_priv.432
                0x20001694                s_tasks.lto_priv.232
                0x200016b0                s_task_cutin.lto_priv.430
 .bss           0x200016b8      0x30c /tmp/cclQ5C5v.ltrans14.ltrans.o
                0x200016b8                usTicks.lto_priv.502
                0x200016bc                rcCommand
                0x200016c4                attitude
                0x200016cc                gyroADC
                0x200016d8                PIDweight
                0x200016dc                errorGyroI.lto_priv.286
                0x200016e8                targetLooptime
                0x200016ec                stateFlags
                0x200016ed                motorLimitReached
                0x200016f0                errorGyroILimit.lto_priv.287
                0x20001720                axisPID
                0x20001728                axisPID_P
                0x20001734                axisPID_I
                0x20001740                axisPID_D
                0x2000174c                deltaFilterState.lto_priv.288
                0x200017b8                lookupThrottleRC
                0x200017d0                lookupPitchRollRC
                0x200017e0                dmaHandlers.lto_priv.452
                0x200017f8                pif_datetime
                0x20001800                extiHandlerConfigs.lto_priv.501
                0x20001818                beeperIsOn.lto_priv.351
                0x2000181c                beeperNextToggleTime.lto_priv.350
                0x20001820                beeperPos.lto_priv.352
                0x20001824                currentBeeperEntry.lto_priv.349
                0x20001828                motor
                0x20001840                motors.lto_priv.490
                0x20001870                motorCount
                0x20001874                timerConfig
                0x20001914                flight3DConfig.lto_priv.394
                0x20001918                escAndServoConfig.lto_priv.396
                0x2000191c                servoRuleCount.lto_priv.398
                0x2000191d                currentServoMixer.lto_priv.397
                0x20001990                customServoMixers.lto_priv.498
                0x20001994                q1.lto_priv.407
                0x20001998                q2.lto_priv.408
                0x2000199c                q3.lto_priv.409
                0x200019a0                rMat.lto_priv.309
 .bss           0x200019c4       0x21 /tmp/cclQ5C5v.ltrans15.ltrans.o
                0x200019e0                I2Cx.lto_priv.601
                0x200019e4                I2Cx_index.lto_priv.602
 .bss           0x200019e5      0x600 /tmp/cclQ5C5v.ltrans16.ltrans.o
 *fill*         0x20001fe5        0x3 
 .bss           0x20001fe8      0x120 /tmp/cclQ5C5v.ltrans17.ltrans.o
                0x2000200c                uartPort3.lto_priv.588
                0x20002060                uartPort2.lto_priv.589
                0x200020b4                uartPort1.lto_priv.590
 .bss           0x20002108      0x1ac /tmp/cclQ5C5v.ltrans18.ltrans.o
                0x20002108                gpsHistory.lto_priv.548
                0x2000211c                blackboxHistory.lto_priv.550
                0x20002128                blackboxHistoryRing.lto_priv.551
                0x2000229c                blackboxIFrameIndex.lto_priv.549
                0x200022a0                blackboxLastArmingBeep.lto_priv.552
                0x200022a4                systemState.lto_priv.435
 .bss           0x200022b4       0x40 /tmp/cclQ5C5v.ltrans19.ltrans.o
                0x200022d8                GPS_packetCount
                0x200022e0                GPS_svInfoReceivedCount
                0x200022ec                GPS_garbageByteCount
 .bss           0x200022f4      0x564 /tmp/cclQ5C5v.ltrans20.ltrans.o
 .bss           0x20002858      0x9e4 /tmp/cclQ5C5v.ltrans21.ltrans.o
                0x20002858                g_imu_sensor
                0x200028cc                g_i2c_port
                0x20002900                pif_cumulative_timer1ms
                0x20002904                string.9033.lto_priv.572
                0x20002914                rcData
                0x20002938                mspPorts.lto_priv.231
                0x200029d0                masterConfig
                0x200031e8                rxRuntimeConfigPtr.lto_priv.343
                0x200031ec                rxRuntimeConfig
                0x200031ed                spek_chan_shift.lto_priv.342
                0x200031ee                spek_chan_mask.lto_priv.344
                0x200031ef                spekHiRes.lto_priv.229
                0x200031f0                serialConfig.lto_priv.264
                0x200031f4                findSharedSerialPortState.lto_priv.312
                0x200031f8                serialPortUsageList.lto_priv.263
                0x20003234                pidProfile.lto_priv.314
                0x20003238                activeFeaturesLatch.lto_priv.230
 .bss           0x2000323c       0xc8 /tmp/cclQ5C5v.ltrans22.ltrans.o
                0x2000323c                baroReady.lto_priv.555
                0x20003240                pif_timer1us
                0x20003248                calibratingB
                0x20003250                baroPressureSum.lto_priv.554
                0x20003254                barometerConfig.lto_priv.306
                0x20003264                sonarMaxTiltCos
                0x20003268                calculatedAltitude.lto_priv.365
                0x2000326c                sonarCfAltCm
                0x20003274                sonarMaxAltWithTiltCm
                0x20003278                accSumCount
                0x2000327c                accSum
                0x20003288                accVelScale
                0x2000328c                barometerConfig.lto_priv.307
                0x20003298                AltHold
                0x2000329c                pidProfile.lto_priv.533
                0x200032a0                errorVelocityI
                0x200032a4                altHoldThrottleAdjustment
                0x200032a8                velocityControl
                0x200032ac                mag
                0x200032bc                magADC
                0x200032d8                magInit.lto_priv.480
                0x200032dc                gpsData
                0x200032fc                gpsConfig.lto_priv.455
 .bss           0x20003304       0x82 /tmp/cclQ5C5v.ltrans23.ltrans.o
                0x20003304                bufferHead.lto_priv.546
                0x20003305                bufferTail.lto_priv.585
                0x20003306                flashWriteBuffer.lto_priv.547
 *fill*         0x20003386        0x2 
 .bss           0x20003388       0x64 /tmp/cclQ5C5v.ltrans24.ltrans.o
                0x20003388                currentPort.lto_priv.354
                0x2000338c                writer.lto_priv.355
                0x20003390                mspSerialPort.lto_priv.356
                0x20003394                cliWriter.lto_priv.236
                0x20003398                currentControlRateProfileIndex.lto_priv.315
                0x2000339c                currentControlRateProfile
                0x200033a0                pif_performance
                0x200033a8                batteryState.lto_priv.290
                0x200033ac                enabledSensors.lto_priv.293
                0x200033b0                acc
                0x200033bc                i2cErrorCount.lto_priv.366
                0x200033c0                g_timer_1ms
                0x200033e8                cliPort.lto_priv.235
 .bss           0x200033ec       0xfd /tmp/cclQ5C5v.ltrans25.ltrans.o
 *fill*         0x200034e9        0x3 
 .bss           0x200034ec       0x8c /tmp/cclQ5C5v.ltrans26.ltrans.o
                0x200034fc                dynP8
                0x20003514                dynD8
                0x20003518                errorGyroIf.lto_priv.317
                0x20003524                gyro
                0x20003538                dT
                0x20003574                failsafeConfig.lto_priv.320
 .bss           0x20003578       0x24 /tmp/cclQ5C5v.ltrans27.ltrans.o
                0x2000357c                batteryWarningVoltage
                0x2000357e                batteryCriticalVoltage
                0x20003588                amperageLatestADC
                0x20003598                armingBeepTimeMicros.lto_priv.422
 .bss           0x2000359c       0x35 /tmp/cclQ5C5v.ltrans28.ltrans.o
                0x2000359c                accADC
                0x200035a8                accelerationTrims.lto_priv.539
                0x200035d0                isAccelUpdatedAtLeastOnce.lto_priv.405
 *(SORT(.bss*))
 *fill*         0x200035d1        0x3 
 .bss.systemBeepPtr
                0x200035d4        0x4 /tmp/cclQ5C5v.ltrans14.ltrans.o
                0x200035d4                systemBeepPtr
 .bss.accTimeSum
                0x200035d8        0x4 /tmp/cclQ5C5v.ltrans22.ltrans.o
                0x200035d8                accTimeSum
 .bss.setVelocity
                0x200035dc        0x4 /tmp/cclQ5C5v.ltrans22.ltrans.o
                0x200035dc                setVelocity
 .bss.__malloc_sbrk_start
                0x200035e0        0x4 /usr/lib/gcc/arm-none-eabi/4.9.3/../../../arm-none-eabi/lib/armv7-m/libc_nano.a(lib_a-nano-mallocr.o)
                0x200035e0                __malloc_sbrk_start
 .bss.__malloc_free_list
                0x200035e4        0x4 /usr/lib/gcc/arm-none-eabi/4.9.3/../../../arm-none-eabi/lib/armv7-m/libc_nano.a(lib_a-nano-mallocr.o)
                0x200035e4                __malloc_free_list
 .bss.heap_end.4079
                0x200035e8        0x4 /usr/lib/gcc/arm-none-eabi/4.9.3/../../../arm-none-eabi/lib/armv7-m/libnosys.a(sbrk.o)
 .bss.calibratingG
                0x200035ec        0x2 /tmp/cclQ5C5v.ltrans3.ltrans.o
                0x200035ec                calibratingG
 .bss.GPS_angle
                0x200035ee        0x4 /tmp/cclQ5C5v.ltrans14.ltrans.o
                0x200035ee                GPS_angle
 .bss.cycleTime
                0x200035f2        0x2 /tmp/cclQ5C5v.ltrans24.ltrans.o
                0x200035f2                cycleTime
 .bss.hardwareRevision
                0x200035f4        0x1 /tmp/cclQ5C5v.ltrans2.ltrans.o
                0x200035f4                hardwareRevision
 .bss.armingFlags
                0x200035f5        0x1 /tmp/cclQ5C5v.ltrans8.ltrans.o
                0x200035f5                armingFlags
 .bss.ws2811LedDataTransferInProgress
                0x200035f6        0x1 /tmp/cclQ5C5v.ltrans9.ltrans.o
                0x200035f6                ws2811LedDataTransferInProgress
 .bss.cliMode   0x200035f7        0x1 /tmp/cclQ5C5v.ltrans12.ltrans.o
                0x200035f7                cliMode
 .bss.CHAR_FORMAT
                0x200035f8        0x1 /tmp/cclQ5C5v.ltrans15.ltrans.o
 .bss.pif_error
                0x200035f9        0x1 /tmp/cclQ5C5v.ltrans21.ltrans.o
                0x200035f9                pif_error
 .bss.magAlign  0x200035fa        0x1 /tmp/cclQ5C5v.ltrans22.ltrans.o
                0x200035fa                magAlign
 .bss.accAlign  0x200035fb        0x1 /tmp/cclQ5C5v.ltrans28.ltrans.o
                0x200035fb                accAlign
 *(COMMON)
 COMMON         0x200035fc        0x4 /usr/lib/gcc/arm-none-eabi/4.9.3/../../../arm-none-eabi/lib/armv7-m/libc_nano.a(lib_a-reent.o)
                0x200035fc                errno
                0x20003600                . = ALIGN (0x4)
                0x20003600                _ebss = .
                0x20003600                __bss_end__ = _ebss

._user_heap_stack
                0x20003600      0x400 load address 0x0801d888
                0x20003600                . = ALIGN (0x4)
                0x20003600                PROVIDE (end, .)
                [!provide]                PROVIDE (_end, .)
                0x20003600                . = (. + _Min_Heap_Size)
                0x20003a00                . = (. + _Min_Stack_Size)
 *fill*         0x20003600      0x400 
                0x20003a00                . = ALIGN (0x4)

.memory_b1_text
 *(.mb1text)
 *(.mb1text*)
 *(.mb1rodata)
 *(.mb1rodata*)

/DISCARD/
 libc.a(*)
 libm.a(*)
 libgcc.a(*)

.ARM.attributes
                0x00000000       0x2f
 *(.ARM.attributes)
 .ARM.attributes
                0x00000000       0x21 obj/main/NAZE/startup_stm32f10x_md_gcc.o
 .ARM.attributes
                0x00000021       0x31 /tmp/cclQ5C5v.ltrans0.ltrans.o
 .ARM.attributes
                0x00000052       0x31 /tmp/cclQ5C5v.ltrans1.ltrans.o
 .ARM.attributes
                0x00000083       0x31 /tmp/cclQ5C5v.ltrans2.ltrans.o
 .ARM.attributes
                0x000000b4       0x31 /tmp/cclQ5C5v.ltrans3.ltrans.o
 .ARM.attributes
                0x000000e5       0x31 /tmp/cclQ5C5v.ltrans4.ltrans.o
 .ARM.attributes
                0x00000116       0x31 /tmp/cclQ5C5v.ltrans5.ltrans.o
 .ARM.attributes
                0x00000147       0x31 /tmp/cclQ5C5v.ltrans6.ltrans.o
 .ARM.attributes
                0x00000178       0x31 /tmp/cclQ5C5v.ltrans7.ltrans.o
 .ARM.attributes
                0x000001a9       0x31 /tmp/cclQ5C5v.ltrans8.ltrans.o
 .ARM.attributes
                0x000001da       0x31 /tmp/cclQ5C5v.ltrans9.ltrans.o
 .ARM.attributes
                0x0000020b       0x31 /tmp/cclQ5C5v.ltrans10.ltrans.o
 .ARM.attributes
                0x0000023c       0x31 /tmp/cclQ5C5v.ltrans11.ltrans.o
 .ARM.attributes
                0x0000026d       0x31 /tmp/cclQ5C5v.ltrans12.ltrans.o
 .ARM.attributes
                0x0000029e       0x31 /tmp/cclQ5C5v.ltrans13.ltrans.o
 .ARM.attributes
                0x000002cf       0x31 /tmp/cclQ5C5v.ltrans14.ltrans.o
 .ARM.attributes
                0x00000300       0x31 /tmp/cclQ5C5v.ltrans15.ltrans.o
 .ARM.attributes
                0x00000331       0x31 /tmp/cclQ5C5v.ltrans16.ltrans.o
 .ARM.attributes
                0x00000362       0x31 /tmp/cclQ5C5v.ltrans17.ltrans.o
 .ARM.attributes
                0x00000393       0x31 /tmp/cclQ5C5v.ltrans18.ltrans.o
 .ARM.attributes
                0x000003c4       0x31 /tmp/cclQ5C5v.ltrans19.ltrans.o
 .ARM.attributes
                0x000003f5       0x31 /tmp/cclQ5C5v.ltrans20.ltrans.o
 .ARM.attributes
                0x00000426       0x31 /tmp/cclQ5C5v.ltrans21.ltrans.o
 .ARM.attributes
                0x00000457       0x31 /tmp/cclQ5C5v.ltrans22.ltrans.o
 .ARM.attributes
                0x00000488       0x31 /tmp/cclQ5C5v.ltrans23.ltrans.o
 .ARM.attributes
                0x000004b9       0x31 /tmp/cclQ5C5v.ltrans24.ltrans.o
 .ARM.attributes
                0x000004ea       0x31 /tmp/cclQ5C5v.ltrans25.ltrans.o
 .ARM.attributes
                0x0000051b       0x31 /tmp/cclQ5C5v.ltrans26.ltrans.o
 .ARM.attributes
                0x0000054c       0x31 /tmp/cclQ5C5v.ltrans27.ltrans.o
 .ARM.attributes
                0x0000057d       0x31 /tmp/cclQ5C5v.ltrans28.ltrans.o
 .ARM.attributes
                0x000005ae       0x2d /usr/lib/gcc/arm-none-eabi/4.9.3/../../../arm-none-eabi/lib/armv7-m/libc_nano.a(lib_a-atoi.o)
 .ARM.attributes
                0x000005db       0x2d /usr/lib/gcc/arm-none-eabi/4.9.3/../../../arm-none-eabi/lib/armv7-m/libc_nano.a(lib_a-ctype_.o)
 .ARM.attributes
                0x00000608       0x2d /usr/lib/gcc/arm-none-eabi/4.9.3/../../../arm-none-eabi/lib/armv7-m/libc_nano.a(lib_a-strtok.o)
 .ARM.attributes
                0x00000635       0x2d /usr/lib/gcc/arm-none-eabi/4.9.3/../../../arm-none-eabi/lib/armv7-m/libc_nano.a(lib_a-strtok_r.o)
 .ARM.attributes
                0x00000662       0x2d /usr/lib/gcc/arm-none-eabi/4.9.3/../../../arm-none-eabi/lib/armv7-m/libc_nano.a(lib_a-strtol.o)
 .ARM.attributes
                0x0000068f       0x2d /usr/lib/gcc/arm-none-eabi/4.9.3/../../../arm-none-eabi/lib/armv7-m/libc_nano.a(lib_a-impure.o)
 .ARM.attributes
                0x000006bc       0x2d /usr/lib/gcc/arm-none-eabi/4.9.3/../../../arm-none-eabi/lib/armv7-m/libc_nano.a(lib_a-malloc.o)
 .ARM.attributes
                0x000006e9       0x2d /usr/lib/gcc/arm-none-eabi/4.9.3/../../../arm-none-eabi/lib/armv7-m/libc_nano.a(lib_a-nano-freer.o)
 .ARM.attributes
                0x00000716       0x2d /usr/lib/gcc/arm-none-eabi/4.9.3/../../../arm-none-eabi/lib/armv7-m/libc_nano.a(lib_a-nano-mallocr.o)
 .ARM.attributes
                0x00000743       0x2d /usr/lib/gcc/arm-none-eabi/4.9.3/../../../arm-none-eabi/lib/armv7-m/libc_nano.a(lib_a-sbrkr.o)
 .ARM.attributes
                0x00000770       0x2d /usr/lib/gcc/arm-none-eabi/4.9.3/../../../arm-none-eabi/lib/armv7-m/libc_nano.a(lib_a-reent.o)
 .ARM.attributes
                0x0000079d       0x2d /usr/lib/gcc/arm-none-eabi/4.9.3/../../../arm-none-eabi/lib/armv7-m/libnosys.a(sbrk.o)
 .ARM.attributes
                0x000007ca       0x2d /usr/lib/gcc/arm-none-eabi/4.9.3/../../../arm-none-eabi/lib/armv7-m/libm.a(lib_a-sf_lrint.o)
 .ARM.attributes
                0x000007f7       0x2d /usr/lib/gcc/arm-none-eabi/4.9.3/../../../arm-none-eabi/lib/armv7-m/libm.a(lib_a-wf_pow.o)
 .ARM.attributes
                0x00000824       0x2d /usr/lib/gcc/arm-none-eabi/4.9.3/../../../arm-none-eabi/lib/armv7-m/libm.a(lib_a-wf_sqrt.o)
 .ARM.attributes
                0x00000851       0x2d /usr/lib/gcc/arm-none-eabi/4.9.3/../../../arm-none-eabi/lib/armv7-m/libm.a(lib_a-ef_pow.o)
 .ARM.attributes
                0x0000087e       0x2d /usr/lib/gcc/arm-none-eabi/4.9.3/../../../arm-none-eabi/lib/armv7-m/libm.a(lib_a-ef_sqrt.o)
 .ARM.attributes
                0x000008ab       0x2d /usr/lib/gcc/arm-none-eabi/4.9.3/../../../arm-none-eabi/lib/armv7-m/libm.a(lib_a-s_lib_ver.o)
 .ARM.attributes
                0x000008d8       0x2d /usr/lib/gcc/arm-none-eabi/4.9.3/../../../arm-none-eabi/lib/armv7-m/libm.a(lib_a-s_matherr.o)
 .ARM.attributes
                0x00000905       0x2d /usr/lib/gcc/arm-none-eabi/4.9.3/../../../arm-none-eabi/lib/armv7-m/libm.a(lib_a-s_rint.o)
 .ARM.attributes
                0x00000932       0x2d /usr/lib/gcc/arm-none-eabi/4.9.3/../../../arm-none-eabi/lib/armv7-m/libm.a(lib_a-sf_fabs.o)
 .ARM.attributes
                0x0000095f       0x2d /usr/lib/gcc/arm-none-eabi/4.9.3/../../../arm-none-eabi/lib/armv7-m/libm.a(lib_a-sf_finite.o)
 .ARM.attributes
                0x0000098c       0x2d /usr/lib/gcc/arm-none-eabi/4.9.3/../../../arm-none-eabi/lib/armv7-m/libm.a(lib_a-sf_fpclassify.o)
 .ARM.attributes
                0x000009b9       0x2d /usr/lib/gcc/arm-none-eabi/4.9.3/../../../arm-none-eabi/lib/armv7-m/libm.a(lib_a-sf_nan.o)
 .ARM.attributes
                0x000009e6       0x2d /usr/lib/gcc/arm-none-eabi/4.9.3/../../../arm-none-eabi/lib/armv7-m/libm.a(lib_a-sf_scalbn.o)
 .ARM.attributes
                0x00000a13       0x2d /usr/lib/gcc/arm-none-eabi/4.9.3/../../../arm-none-eabi/lib/armv7-m/libm.a(lib_a-sf_copysign.o)
 .ARM.attributes
                0x00000a40       0x2d /usr/lib/gcc/arm-none-eabi/4.9.3/../../../arm-none-eabi/lib/armv7-m/libc_nano.a(lib_a-calloc.o)
 .ARM.attributes
                0x00000a6d       0x2d /usr/lib/gcc/arm-none-eabi/4.9.3/../../../arm-none-eabi/lib/armv7-m/libc_nano.a(lib_a-errno.o)
 .ARM.attributes
                0x00000a9a       0x2d /usr/lib/gcc/arm-none-eabi/4.9.3/../../../arm-none-eabi/lib/armv7-m/libc_nano.a(lib_a-memcmp.o)
 .ARM.attributes
                0x00000ac7       0x2d /usr/lib/gcc/arm-none-eabi/4.9.3/../../../arm-none-eabi/lib/armv7-m/libc_nano.a(lib_a-memcpy.o)
 .ARM.attributes
                0x00000af4       0x2d /usr/lib/gcc/arm-none-eabi/4.9.3/../../../arm-none-eabi/lib/armv7-m/libc_nano.a(lib_a-memset.o)
 .ARM.attributes
                0x00000b21       0x2d /usr/lib/gcc/arm-none-eabi/4.9.3/../../../arm-none-eabi/lib/armv7-m/libc_nano.a(lib_a-nano-callocr.o)
 .ARM.attributes
                0x00000b4e       0x2d /usr/lib/gcc/arm-none-eabi/4.9.3/../../../arm-none-eabi/lib/armv7-m/libc_nano.a(lib_a-strcasecmp.o)
 .ARM.attributes
                0x00000b7b       0x2d /usr/lib/gcc/arm-none-eabi/4.9.3/../../../arm-none-eabi/lib/armv7-m/libc_nano.a(lib_a-strcat.o)
 .ARM.attributes
                0x00000ba8       0x2d /usr/lib/gcc/arm-none-eabi/4.9.3/../../../arm-none-eabi/lib/armv7-m/libc_nano.a(lib_a-strchr.o)
 .ARM.attributes
                0x00000bd5       0x2d /usr/lib/gcc/arm-none-eabi/4.9.3/../../../arm-none-eabi/lib/armv7-m/libc_nano.a(lib_a-strlen.o)
 .ARM.attributes
                0x00000c02       0x2d /usr/lib/gcc/arm-none-eabi/4.9.3/../../../arm-none-eabi/lib/armv7-m/libc_nano.a(lib_a-strncasecmp.o)
 .ARM.attributes
                0x00000c2f       0x2d /usr/lib/gcc/arm-none-eabi/4.9.3/../../../arm-none-eabi/lib/armv7-m/libc_nano.a(lib_a-strncpy.o)
 .ARM.attributes
                0x00000c5c       0x2d /usr/lib/gcc/arm-none-eabi/4.9.3/../../../arm-none-eabi/lib/armv7-m/libc_nano.a(lib_a-strstr.o)
 .ARM.attributes
                0x00000c89       0x1d /usr/lib/gcc/arm-none-eabi/4.9.3/armv7-m/libgcc.a(_arm_addsubdf3.o)
 .ARM.attributes
                0x00000ca6       0x1d /usr/lib/gcc/arm-none-eabi/4.9.3/armv7-m/libgcc.a(_arm_muldivdf3.o)
 .ARM.attributes
                0x00000cc3       0x1d /usr/lib/gcc/arm-none-eabi/4.9.3/armv7-m/libgcc.a(_arm_cmpdf2.o)
 .ARM.attributes
                0x00000ce0       0x1d /usr/lib/gcc/arm-none-eabi/4.9.3/armv7-m/libgcc.a(_arm_truncdfsf2.o)
 .ARM.attributes
                0x00000cfd       0x1d /usr/lib/gcc/arm-none-eabi/4.9.3/armv7-m/libgcc.a(_arm_addsubsf3.o)
 .ARM.attributes
                0x00000d1a       0x1d /usr/lib/gcc/arm-none-eabi/4.9.3/armv7-m/libgcc.a(_arm_muldivsf3.o)
 .ARM.attributes
                0x00000d37       0x1d /usr/lib/gcc/arm-none-eabi/4.9.3/armv7-m/libgcc.a(_arm_cmpsf2.o)
 .ARM.attributes
                0x00000d54       0x1d /usr/lib/gcc/arm-none-eabi/4.9.3/armv7-m/libgcc.a(_arm_fixsfsi.o)
 .ARM.attributes
                0x00000d71       0x1d /usr/lib/gcc/arm-none-eabi/4.9.3/armv7-m/libgcc.a(_arm_fixunssfsi.o)
 .ARM.attributes
                0x00000d8e       0x1d /usr/lib/gcc/arm-none-eabi/4.9.3/armv7-m/libgcc.a(_aeabi_ldivmod.o)
 .ARM.attributes
                0x00000dab       0x2d /usr/lib/gcc/arm-none-eabi/4.9.3/armv7-m/libgcc.a(bpabi.o)
 .ARM.attributes
                0x00000dd8       0x1d /usr/lib/gcc/arm-none-eabi/4.9.3/armv7-m/libgcc.a(_dvmd_tls.o)
 .ARM.attributes
                0x00000df5       0x2d /usr/lib/gcc/arm-none-eabi/4.9.3/armv7-m/libgcc.a(_divdi3.o)
 .ARM.attributes
                0x00000e22       0x2d /usr/lib/gcc/arm-none-eabi/4.9.3/armv7-m/libgcc.a(_udivdi3.o)
OUTPUT(obj/main/cleanflight_NAZE.elf elf32-littlearm)

.debug_info     0x00000000    0x52538
 .debug_info    0x00000000     0x95a4 /tmp/cclQ5C5v.ltrans0.ltrans.o
 .debug_info    0x000095a4     0x3b9b /tmp/cclQ5C5v.ltrans1.ltrans.o
 .debug_info    0x0000d13f     0x43d1 /tmp/cclQ5C5v.ltrans2.ltrans.o
 .debug_info    0x00011510     0x344c /tmp/cclQ5C5v.ltrans3.ltrans.o
 .debug_info    0x0001495c     0x2946 /tmp/cclQ5C5v.ltrans4.ltrans.o
 .debug_info    0x000172a2     0x290c /tmp/cclQ5C5v.ltrans5.ltrans.o
 .debug_info    0x00019bae     0x2d49 /tmp/cclQ5C5v.ltrans6.ltrans.o
 .debug_info    0x0001c8f7     0x2acf /tmp/cclQ5C5v.ltrans7.ltrans.o
 .debug_info    0x0001f3c6     0x290a /tmp/cclQ5C5v.ltrans8.ltrans.o
 .debug_info    0x00021cd0     0x1296 /tmp/cclQ5C5v.ltrans9.ltrans.o
 .debug_info    0x00022f66     0x19fc /tmp/cclQ5C5v.ltrans10.ltrans.o
 .debug_info    0x00024962     0x15bd /tmp/cclQ5C5v.ltrans11.ltrans.o
 .debug_info    0x00025f1f     0x2dd3 /tmp/cclQ5C5v.ltrans12.ltrans.o
 .debug_info    0x00028cf2     0x2021 /tmp/cclQ5C5v.ltrans13.ltrans.o
 .debug_info    0x0002ad13     0x35ca /tmp/cclQ5C5v.ltrans14.ltrans.o
 .debug_info    0x0002e2dd     0x2c93 /tmp/cclQ5C5v.ltrans15.ltrans.o
 .debug_info    0x00030f70     0x22d7 /tmp/cclQ5C5v.ltrans16.ltrans.o
 .debug_info    0x00033247     0x2339 /tmp/cclQ5C5v.ltrans17.ltrans.o
 .debug_info    0x00035580     0x1f9e /tmp/cclQ5C5v.ltrans18.ltrans.o
 .debug_info    0x0003751e     0x1873 /tmp/cclQ5C5v.ltrans19.ltrans.o
 .debug_info    0x00038d91     0x21e1 /tmp/cclQ5C5v.ltrans20.ltrans.o
 .debug_info    0x0003af72     0x3d9d /tmp/cclQ5C5v.ltrans21.ltrans.o
 .debug_info    0x0003ed0f     0x1a14 /tmp/cclQ5C5v.ltrans22.ltrans.o
 .debug_info    0x00040723     0x2700 /tmp/cclQ5C5v.ltrans23.ltrans.o
 .debug_info    0x00042e23     0x2352 /tmp/cclQ5C5v.ltrans24.ltrans.o
 .debug_info    0x00045175     0x13fc /tmp/cclQ5C5v.ltrans25.ltrans.o
 .debug_info    0x00046571     0x1096 /tmp/cclQ5C5v.ltrans26.ltrans.o
 .debug_info    0x00047607      0xb59 /tmp/cclQ5C5v.ltrans27.ltrans.o
 .debug_info    0x00048160      0x901 /tmp/cclQ5C5v.ltrans28.ltrans.o
 .debug_info    0x00048a61      0x7ed /usr/lib/gcc/arm-none-eabi/4.9.3/../../../arm-none-eabi/lib/armv7-m/libc_nano.a(lib_a-atoi.o)
 .debug_info    0x0004924e       0x6f /usr/lib/gcc/arm-none-eabi/4.9.3/../../../arm-none-eabi/lib/armv7-m/libc_nano.a(lib_a-ctype_.o)
 .debug_info    0x000492bd      0x816 /usr/lib/gcc/arm-none-eabi/4.9.3/../../../arm-none-eabi/lib/armv7-m/libc_nano.a(lib_a-strtok.o)
 .debug_info    0x00049ad3      0x184 /usr/lib/gcc/arm-none-eabi/4.9.3/../../../arm-none-eabi/lib/armv7-m/libc_nano.a(lib_a-strtok_r.o)
 .debug_info    0x00049c57      0x853 /usr/lib/gcc/arm-none-eabi/4.9.3/../../../arm-none-eabi/lib/armv7-m/libc_nano.a(lib_a-strtol.o)
 .debug_info    0x0004a4aa      0x7d3 /usr/lib/gcc/arm-none-eabi/4.9.3/../../../arm-none-eabi/lib/armv7-m/libc_nano.a(lib_a-impure.o)
 .debug_info    0x0004ac7d      0x7c1 /usr/lib/gcc/arm-none-eabi/4.9.3/../../../arm-none-eabi/lib/armv7-m/libc_nano.a(lib_a-malloc.o)
 .debug_info    0x0004b43e      0x81a /usr/lib/gcc/arm-none-eabi/4.9.3/../../../arm-none-eabi/lib/armv7-m/libc_nano.a(lib_a-nano-freer.o)
 .debug_info    0x0004bc58      0x8fb /usr/lib/gcc/arm-none-eabi/4.9.3/../../../arm-none-eabi/lib/armv7-m/libc_nano.a(lib_a-nano-mallocr.o)
 .debug_info    0x0004c553      0x7a0 /usr/lib/gcc/arm-none-eabi/4.9.3/../../../arm-none-eabi/lib/armv7-m/libc_nano.a(lib_a-sbrkr.o)
 .debug_info    0x0004ccf3      0x8fb /usr/lib/gcc/arm-none-eabi/4.9.3/../../../arm-none-eabi/lib/armv7-m/libc_nano.a(lib_a-reent.o)
 .debug_info    0x0004d5ee       0x99 /usr/lib/gcc/arm-none-eabi/4.9.3/../../../arm-none-eabi/lib/armv7-m/libnosys.a(sbrk.o)
 .debug_info    0x0004d687      0x14a /usr/lib/gcc/arm-none-eabi/4.9.3/../../../arm-none-eabi/lib/armv7-m/libm.a(lib_a-sf_lrint.o)
 .debug_info    0x0004d7d1      0x342 /usr/lib/gcc/arm-none-eabi/4.9.3/../../../arm-none-eabi/lib/armv7-m/libm.a(lib_a-wf_pow.o)
 .debug_info    0x0004db13      0x20d /usr/lib/gcc/arm-none-eabi/4.9.3/../../../arm-none-eabi/lib/armv7-m/libm.a(lib_a-wf_sqrt.o)
 .debug_info    0x0004dd20      0x6dc /usr/lib/gcc/arm-none-eabi/4.9.3/../../../arm-none-eabi/lib/armv7-m/libm.a(lib_a-ef_pow.o)
 .debug_info    0x0004e3fc      0x1cc /usr/lib/gcc/arm-none-eabi/4.9.3/../../../arm-none-eabi/lib/armv7-m/libm.a(lib_a-ef_sqrt.o)
 .debug_info    0x0004e5c8       0xbe /usr/lib/gcc/arm-none-eabi/4.9.3/../../../arm-none-eabi/lib/armv7-m/libm.a(lib_a-s_lib_ver.o)
 .debug_info    0x0004e686      0x129 /usr/lib/gcc/arm-none-eabi/4.9.3/../../../arm-none-eabi/lib/armv7-m/libm.a(lib_a-s_matherr.o)
 .debug_info    0x0004e7af      0x20a /usr/lib/gcc/arm-none-eabi/4.9.3/../../../arm-none-eabi/lib/armv7-m/libm.a(lib_a-s_rint.o)
 .debug_info    0x0004e9b9       0xcc /usr/lib/gcc/arm-none-eabi/4.9.3/../../../arm-none-eabi/lib/armv7-m/libm.a(lib_a-sf_fabs.o)
 .debug_info    0x0004ea85       0xcc /usr/lib/gcc/arm-none-eabi/4.9.3/../../../arm-none-eabi/lib/armv7-m/libm.a(lib_a-sf_finite.o)
 .debug_info    0x0004eb51       0xca /usr/lib/gcc/arm-none-eabi/4.9.3/../../../arm-none-eabi/lib/armv7-m/libm.a(lib_a-sf_fpclassify.o)
 .debug_info    0x0004ec1b       0xce /usr/lib/gcc/arm-none-eabi/4.9.3/../../../arm-none-eabi/lib/armv7-m/libm.a(lib_a-sf_nan.o)
 .debug_info    0x0004ece9      0x21c /usr/lib/gcc/arm-none-eabi/4.9.3/../../../arm-none-eabi/lib/armv7-m/libm.a(lib_a-sf_scalbn.o)
 .debug_info    0x0004ef05      0x12e /usr/lib/gcc/arm-none-eabi/4.9.3/../../../arm-none-eabi/lib/armv7-m/libm.a(lib_a-sf_copysign.o)
 .debug_info    0x0004f033      0x78e /usr/lib/gcc/arm-none-eabi/4.9.3/../../../arm-none-eabi/lib/armv7-m/libc_nano.a(lib_a-calloc.o)
 .debug_info    0x0004f7c1      0x735 /usr/lib/gcc/arm-none-eabi/4.9.3/../../../arm-none-eabi/lib/armv7-m/libc_nano.a(lib_a-errno.o)
 .debug_info    0x0004fef6       0xef /usr/lib/gcc/arm-none-eabi/4.9.3/../../../arm-none-eabi/lib/armv7-m/libc_nano.a(lib_a-memcmp.o)
 .debug_info    0x0004ffe5      0x104 /usr/lib/gcc/arm-none-eabi/4.9.3/../../../arm-none-eabi/lib/armv7-m/libc_nano.a(lib_a-memcpy.o)
 .debug_info    0x000500e9       0xd3 /usr/lib/gcc/arm-none-eabi/4.9.3/../../../arm-none-eabi/lib/armv7-m/libc_nano.a(lib_a-memset.o)
 .debug_info    0x000501bc      0x7e8 /usr/lib/gcc/arm-none-eabi/4.9.3/../../../arm-none-eabi/lib/armv7-m/libc_nano.a(lib_a-nano-callocr.o)
 .debug_info    0x000509a4      0x14f /usr/lib/gcc/arm-none-eabi/4.9.3/../../../arm-none-eabi/lib/armv7-m/libc_nano.a(lib_a-strcasecmp.o)
 .debug_info    0x00050af3       0xc8 /usr/lib/gcc/arm-none-eabi/4.9.3/../../../arm-none-eabi/lib/armv7-m/libc_nano.a(lib_a-strcat.o)
 .debug_info    0x00050bbb       0xe3 /usr/lib/gcc/arm-none-eabi/4.9.3/../../../arm-none-eabi/lib/armv7-m/libc_nano.a(lib_a-strchr.o)
 .debug_info    0x00050c9e       0xcd /usr/lib/gcc/arm-none-eabi/4.9.3/../../../arm-none-eabi/lib/armv7-m/libc_nano.a(lib_a-strlen.o)
 .debug_info    0x00050d6b      0x169 /usr/lib/gcc/arm-none-eabi/4.9.3/../../../arm-none-eabi/lib/armv7-m/libc_nano.a(lib_a-strncasecmp.o)
 .debug_info    0x00050ed4       0xf5 /usr/lib/gcc/arm-none-eabi/4.9.3/../../../arm-none-eabi/lib/armv7-m/libc_nano.a(lib_a-strncpy.o)
 .debug_info    0x00050fc9       0xdb /usr/lib/gcc/arm-none-eabi/4.9.3/../../../arm-none-eabi/lib/armv7-m/libc_nano.a(lib_a-strstr.o)
 .debug_info    0x000510a4       0xba /usr/lib/gcc/arm-none-eabi/4.9.3/armv7-m/libgcc.a(_arm_addsubdf3.o)
 .debug_info    0x0005115e       0xba /usr/lib/gcc/arm-none-eabi/4.9.3/armv7-m/libgcc.a(_arm_muldivdf3.o)
 .debug_info    0x00051218       0xba /usr/lib/gcc/arm-none-eabi/4.9.3/armv7-m/libgcc.a(_arm_cmpdf2.o)
 .debug_info    0x000512d2       0xba /usr/lib/gcc/arm-none-eabi/4.9.3/armv7-m/libgcc.a(_arm_truncdfsf2.o)
 .debug_info    0x0005138c       0xba /usr/lib/gcc/arm-none-eabi/4.9.3/armv7-m/libgcc.a(_arm_addsubsf3.o)
 .debug_info    0x00051446       0xba /usr/lib/gcc/arm-none-eabi/4.9.3/armv7-m/libgcc.a(_arm_muldivsf3.o)
 .debug_info    0x00051500       0xba /usr/lib/gcc/arm-none-eabi/4.9.3/armv7-m/libgcc.a(_arm_cmpsf2.o)
 .debug_info    0x000515ba       0xba /usr/lib/gcc/arm-none-eabi/4.9.3/armv7-m/libgcc.a(_arm_fixsfsi.o)
 .debug_info    0x00051674       0xba /usr/lib/gcc/arm-none-eabi/4.9.3/armv7-m/libgcc.a(_arm_fixunssfsi.o)
 .debug_info    0x0005172e       0xb5 /usr/lib/gcc/arm-none-eabi/4.9.3/armv7-m/libgcc.a(_aeabi_ldivmod.o)
 .debug_info    0x000517e3      0x164 /usr/lib/gcc/arm-none-eabi/4.9.3/armv7-m/libgcc.a(bpabi.o)
 .debug_info    0x00051947       0xb9 /usr/lib/gcc/arm-none-eabi/4.9.3/armv7-m/libgcc.a(_dvmd_tls.o)
 .debug_info    0x00051a00      0x5bc /usr/lib/gcc/arm-none-eabi/4.9.3/armv7-m/libgcc.a(_divdi3.o)
 .debug_info    0x00051fbc      0x57c /usr/lib/gcc/arm-none-eabi/4.9.3/armv7-m/libgcc.a(_udivdi3.o)

.debug_abbrev   0x00000000     0xc521
 .debug_abbrev  0x00000000      0x716 /tmp/cclQ5C5v.ltrans0.ltrans.o
 .debug_abbrev  0x00000716      0x5a2 /tmp/cclQ5C5v.ltrans1.ltrans.o
 .debug_abbrev  0x00000cb8      0x5bb /tmp/cclQ5C5v.ltrans2.ltrans.o
 .debug_abbrev  0x00001273      0x531 /tmp/cclQ5C5v.ltrans3.ltrans.o
 .debug_abbrev  0x000017a4      0x649 /tmp/cclQ5C5v.ltrans4.ltrans.o
 .debug_abbrev  0x00001ded      0x47e /tmp/cclQ5C5v.ltrans5.ltrans.o
 .debug_abbrev  0x0000226b      0x694 /tmp/cclQ5C5v.ltrans6.ltrans.o
 .debug_abbrev  0x000028ff      0x4df /tmp/cclQ5C5v.ltrans7.ltrans.o
 .debug_abbrev  0x00002dde      0x661 /tmp/cclQ5C5v.ltrans8.ltrans.o
 .debug_abbrev  0x0000343f      0x377 /tmp/cclQ5C5v.ltrans9.ltrans.o
 .debug_abbrev  0x000037b6      0x4f1 /tmp/cclQ5C5v.ltrans10.ltrans.o
 .debug_abbrev  0x00003ca7      0x469 /tmp/cclQ5C5v.ltrans11.ltrans.o
 .debug_abbrev  0x00004110      0x58c /tmp/cclQ5C5v.ltrans12.ltrans.o
 .debug_abbrev  0x0000469c      0x5b7 /tmp/cclQ5C5v.ltrans13.ltrans.o
 .debug_abbrev  0x00004c53      0x6db /tmp/cclQ5C5v.ltrans14.ltrans.o
 .debug_abbrev  0x0000532e      0x6c1 /tmp/cclQ5C5v.ltrans15.ltrans.o
 .debug_abbrev  0x000059ef      0x56b /tmp/cclQ5C5v.ltrans16.ltrans.o
 .debug_abbrev  0x00005f5a      0x72a /tmp/cclQ5C5v.ltrans17.ltrans.o
 .debug_abbrev  0x00006684      0x50c /tmp/cclQ5C5v.ltrans18.ltrans.o
 .debug_abbrev  0x00006b90      0x47c /tmp/cclQ5C5v.ltrans19.ltrans.o
 .debug_abbrev  0x0000700c      0x515 /tmp/cclQ5C5v.ltrans20.ltrans.o
 .debug_abbrev  0x00007521      0x4ef /tmp/cclQ5C5v.ltrans21.ltrans.o
 .debug_abbrev  0x00007a10      0x4ab /tmp/cclQ5C5v.ltrans22.ltrans.o
 .debug_abbrev  0x00007ebb      0x60a /tmp/cclQ5C5v.ltrans23.ltrans.o
 .debug_abbrev  0x000084c5      0x5f2 /tmp/cclQ5C5v.ltrans24.ltrans.o
 .debug_abbrev  0x00008ab7      0x494 /tmp/cclQ5C5v.ltrans25.ltrans.o
 .debug_abbrev  0x00008f4b      0x424 /tmp/cclQ5C5v.ltrans26.ltrans.o
 .debug_abbrev  0x0000936f      0x3c0 /tmp/cclQ5C5v.ltrans27.ltrans.o
 .debug_abbrev  0x0000972f      0x2f7 /tmp/cclQ5C5v.ltrans28.ltrans.o
 .debug_abbrev  0x00009a26      0x176 /usr/lib/gcc/arm-none-eabi/4.9.3/../../../arm-none-eabi/lib/armv7-m/libc_nano.a(lib_a-atoi.o)
 .debug_abbrev  0x00009b9c       0x4e /usr/lib/gcc/arm-none-eabi/4.9.3/../../../arm-none-eabi/lib/armv7-m/libc_nano.a(lib_a-ctype_.o)
 .debug_abbrev  0x00009bea      0x1e1 /usr/lib/gcc/arm-none-eabi/4.9.3/../../../arm-none-eabi/lib/armv7-m/libc_nano.a(lib_a-strtok.o)
 .debug_abbrev  0x00009dcb       0xed /usr/lib/gcc/arm-none-eabi/4.9.3/../../../arm-none-eabi/lib/armv7-m/libc_nano.a(lib_a-strtok_r.o)
 .debug_abbrev  0x00009eb8      0x1ac /usr/lib/gcc/arm-none-eabi/4.9.3/../../../arm-none-eabi/lib/armv7-m/libc_nano.a(lib_a-strtol.o)
 .debug_abbrev  0x0000a064      0x136 /usr/lib/gcc/arm-none-eabi/4.9.3/../../../arm-none-eabi/lib/armv7-m/libc_nano.a(lib_a-impure.o)
 .debug_abbrev  0x0000a19a      0x19f /usr/lib/gcc/arm-none-eabi/4.9.3/../../../arm-none-eabi/lib/armv7-m/libc_nano.a(lib_a-malloc.o)
 .debug_abbrev  0x0000a339      0x1b6 /usr/lib/gcc/arm-none-eabi/4.9.3/../../../arm-none-eabi/lib/armv7-m/libc_nano.a(lib_a-nano-freer.o)
 .debug_abbrev  0x0000a4ef      0x250 /usr/lib/gcc/arm-none-eabi/4.9.3/../../../arm-none-eabi/lib/armv7-m/libc_nano.a(lib_a-nano-mallocr.o)
 .debug_abbrev  0x0000a73f      0x1a2 /usr/lib/gcc/arm-none-eabi/4.9.3/../../../arm-none-eabi/lib/armv7-m/libc_nano.a(lib_a-sbrkr.o)
 .debug_abbrev  0x0000a8e1      0x1f2 /usr/lib/gcc/arm-none-eabi/4.9.3/../../../arm-none-eabi/lib/armv7-m/libc_nano.a(lib_a-reent.o)
 .debug_abbrev  0x0000aad3       0x83 /usr/lib/gcc/arm-none-eabi/4.9.3/../../../arm-none-eabi/lib/armv7-m/libnosys.a(sbrk.o)
 .debug_abbrev  0x0000ab56       0xbe /usr/lib/gcc/arm-none-eabi/4.9.3/../../../arm-none-eabi/lib/armv7-m/libm.a(lib_a-sf_lrint.o)
 .debug_abbrev  0x0000ac14      0x14d /usr/lib/gcc/arm-none-eabi/4.9.3/../../../arm-none-eabi/lib/armv7-m/libm.a(lib_a-wf_pow.o)
 .debug_abbrev  0x0000ad61      0x13a /usr/lib/gcc/arm-none-eabi/4.9.3/../../../arm-none-eabi/lib/armv7-m/libm.a(lib_a-wf_sqrt.o)
 .debug_abbrev  0x0000ae9b      0x1cd /usr/lib/gcc/arm-none-eabi/4.9.3/../../../arm-none-eabi/lib/armv7-m/libm.a(lib_a-ef_pow.o)
 .debug_abbrev  0x0000b068       0xe0 /usr/lib/gcc/arm-none-eabi/4.9.3/../../../arm-none-eabi/lib/armv7-m/libm.a(lib_a-ef_sqrt.o)
 .debug_abbrev  0x0000b148       0x4f /usr/lib/gcc/arm-none-eabi/4.9.3/../../../arm-none-eabi/lib/armv7-m/libm.a(lib_a-s_lib_ver.o)
 .debug_abbrev  0x0000b197       0x9a /usr/lib/gcc/arm-none-eabi/4.9.3/../../../arm-none-eabi/lib/armv7-m/libm.a(lib_a-s_matherr.o)
 .debug_abbrev  0x0000b231      0x12b /usr/lib/gcc/arm-none-eabi/4.9.3/../../../arm-none-eabi/lib/armv7-m/libm.a(lib_a-s_rint.o)
 .debug_abbrev  0x0000b35c       0x6f /usr/lib/gcc/arm-none-eabi/4.9.3/../../../arm-none-eabi/lib/armv7-m/libm.a(lib_a-sf_fabs.o)
 .debug_abbrev  0x0000b3cb       0x6f /usr/lib/gcc/arm-none-eabi/4.9.3/../../../arm-none-eabi/lib/armv7-m/libm.a(lib_a-sf_finite.o)
 .debug_abbrev  0x0000b43a       0x6f /usr/lib/gcc/arm-none-eabi/4.9.3/../../../arm-none-eabi/lib/armv7-m/libm.a(lib_a-sf_fpclassify.o)
 .debug_abbrev  0x0000b4a9       0x72 /usr/lib/gcc/arm-none-eabi/4.9.3/../../../arm-none-eabi/lib/armv7-m/libm.a(lib_a-sf_nan.o)
 .debug_abbrev  0x0000b51b       0xed /usr/lib/gcc/arm-none-eabi/4.9.3/../../../arm-none-eabi/lib/armv7-m/libm.a(lib_a-sf_scalbn.o)
 .debug_abbrev  0x0000b608       0xae /usr/lib/gcc/arm-none-eabi/4.9.3/../../../arm-none-eabi/lib/armv7-m/libm.a(lib_a-sf_copysign.o)
 .debug_abbrev  0x0000b6b6      0x181 /usr/lib/gcc/arm-none-eabi/4.9.3/../../../arm-none-eabi/lib/armv7-m/libc_nano.a(lib_a-calloc.o)
 .debug_abbrev  0x0000b837      0x134 /usr/lib/gcc/arm-none-eabi/4.9.3/../../../arm-none-eabi/lib/armv7-m/libc_nano.a(lib_a-errno.o)
 .debug_abbrev  0x0000b96b       0x8e /usr/lib/gcc/arm-none-eabi/4.9.3/../../../arm-none-eabi/lib/armv7-m/libc_nano.a(lib_a-memcmp.o)
 .debug_abbrev  0x0000b9f9       0xa4 /usr/lib/gcc/arm-none-eabi/4.9.3/../../../arm-none-eabi/lib/armv7-m/libc_nano.a(lib_a-memcpy.o)
 .debug_abbrev  0x0000ba9d       0x8e /usr/lib/gcc/arm-none-eabi/4.9.3/../../../arm-none-eabi/lib/armv7-m/libc_nano.a(lib_a-memset.o)
 .debug_abbrev  0x0000bb2b      0x19e /usr/lib/gcc/arm-none-eabi/4.9.3/../../../arm-none-eabi/lib/armv7-m/libc_nano.a(lib_a-nano-callocr.o)
 .debug_abbrev  0x0000bcc9       0xb3 /usr/lib/gcc/arm-none-eabi/4.9.3/../../../arm-none-eabi/lib/armv7-m/libc_nano.a(lib_a-strcasecmp.o)
 .debug_abbrev  0x0000bd7c       0x72 /usr/lib/gcc/arm-none-eabi/4.9.3/../../../arm-none-eabi/lib/armv7-m/libc_nano.a(lib_a-strcat.o)
 .debug_abbrev  0x0000bdee       0x83 /usr/lib/gcc/arm-none-eabi/4.9.3/../../../arm-none-eabi/lib/armv7-m/libc_nano.a(lib_a-strchr.o)
 .debug_abbrev  0x0000be71       0x8c /usr/lib/gcc/arm-none-eabi/4.9.3/../../../arm-none-eabi/lib/armv7-m/libc_nano.a(lib_a-strlen.o)
 .debug_abbrev  0x0000befd       0xb1 /usr/lib/gcc/arm-none-eabi/4.9.3/../../../arm-none-eabi/lib/armv7-m/libc_nano.a(lib_a-strncasecmp.o)
 .debug_abbrev  0x0000bfae       0x8e /usr/lib/gcc/arm-none-eabi/4.9.3/../../../arm-none-eabi/lib/armv7-m/libc_nano.a(lib_a-strncpy.o)
 .debug_abbrev  0x0000c03c       0x95 /usr/lib/gcc/arm-none-eabi/4.9.3/../../../arm-none-eabi/lib/armv7-m/libc_nano.a(lib_a-strstr.o)
 .debug_abbrev  0x0000c0d1       0x14 /usr/lib/gcc/arm-none-eabi/4.9.3/armv7-m/libgcc.a(_arm_addsubdf3.o)
 .debug_abbrev  0x0000c0e5       0x14 /usr/lib/gcc/arm-none-eabi/4.9.3/armv7-m/libgcc.a(_arm_muldivdf3.o)
 .debug_abbrev  0x0000c0f9       0x14 /usr/lib/gcc/arm-none-eabi/4.9.3/armv7-m/libgcc.a(_arm_cmpdf2.o)
 .debug_abbrev  0x0000c10d       0x14 /usr/lib/gcc/arm-none-eabi/4.9.3/armv7-m/libgcc.a(_arm_truncdfsf2.o)
 .debug_abbrev  0x0000c121       0x14 /usr/lib/gcc/arm-none-eabi/4.9.3/armv7-m/libgcc.a(_arm_addsubsf3.o)
 .debug_abbrev  0x0000c135       0x14 /usr/lib/gcc/arm-none-eabi/4.9.3/armv7-m/libgcc.a(_arm_muldivsf3.o)
 .debug_abbrev  0x0000c149       0x14 /usr/lib/gcc/arm-none-eabi/4.9.3/armv7-m/libgcc.a(_arm_cmpsf2.o)
 .debug_abbrev  0x0000c15d       0x14 /usr/lib/gcc/arm-none-eabi/4.9.3/armv7-m/libgcc.a(_arm_fixsfsi.o)
 .debug_abbrev  0x0000c171       0x14 /usr/lib/gcc/arm-none-eabi/4.9.3/armv7-m/libgcc.a(_arm_fixunssfsi.o)
 .debug_abbrev  0x0000c185       0x14 /usr/lib/gcc/arm-none-eabi/4.9.3/armv7-m/libgcc.a(_aeabi_ldivmod.o)
 .debug_abbrev  0x0000c199       0xb7 /usr/lib/gcc/arm-none-eabi/4.9.3/armv7-m/libgcc.a(bpabi.o)
 .debug_abbrev  0x0000c250       0x14 /usr/lib/gcc/arm-none-eabi/4.9.3/armv7-m/libgcc.a(_dvmd_tls.o)
 .debug_abbrev  0x0000c264      0x169 /usr/lib/gcc/arm-none-eabi/4.9.3/armv7-m/libgcc.a(_divdi3.o)
 .debug_abbrev  0x0000c3cd      0x154 /usr/lib/gcc/arm-none-eabi/4.9.3/armv7-m/libgcc.a(_udivdi3.o)

.debug_loc      0x00000000    0x1fed0
 .debug_loc     0x00000000     0x3189 /tmp/cclQ5C5v.ltrans0.ltrans.o
 .debug_loc     0x00003189     0x1f79 /tmp/cclQ5C5v.ltrans1.ltrans.o
 .debug_loc     0x00005102     0x1c11 /tmp/cclQ5C5v.ltrans2.ltrans.o
 .debug_loc     0x00006d13     0x1377 /tmp/cclQ5C5v.ltrans3.ltrans.o
 .debug_loc     0x0000808a      0xd34 /tmp/cclQ5C5v.ltrans4.ltrans.o
 .debug_loc     0x00008dbe      0x90b /tmp/cclQ5C5v.ltrans5.ltrans.o
 .debug_loc     0x000096c9     0x16ae /tmp/cclQ5C5v.ltrans6.ltrans.o
 .debug_loc     0x0000ad77     0x18fb /tmp/cclQ5C5v.ltrans7.ltrans.o
 .debug_loc     0x0000c672     0x11e9 /tmp/cclQ5C5v.ltrans8.ltrans.o
 .debug_loc     0x0000d85b      0xb49 /tmp/cclQ5C5v.ltrans9.ltrans.o
 .debug_loc     0x0000e3a4      0xcf4 /tmp/cclQ5C5v.ltrans10.ltrans.o
 .debug_loc     0x0000f098      0x7d8 /tmp/cclQ5C5v.ltrans11.ltrans.o
 .debug_loc     0x0000f870      0xc67 /tmp/cclQ5C5v.ltrans12.ltrans.o
 .debug_loc     0x000104d7     0x13e1 /tmp/cclQ5C5v.ltrans13.ltrans.o
 .debug_loc     0x000118b8     0x1157 /tmp/cclQ5C5v.ltrans14.ltrans.o
 .debug_loc     0x00012a0f      0xdb3 /tmp/cclQ5C5v.ltrans15.ltrans.o
 .debug_loc     0x000137c2      0xfb5 /tmp/cclQ5C5v.ltrans16.ltrans.o
 .debug_loc     0x00014777      0xaff /tmp/cclQ5C5v.ltrans17.ltrans.o
 .debug_loc     0x00015276      0x621 /tmp/cclQ5C5v.ltrans18.ltrans.o
 .debug_loc     0x00015897      0x7c2 /tmp/cclQ5C5v.ltrans19.ltrans.o
 .debug_loc     0x00016059     0x1051 /tmp/cclQ5C5v.ltrans20.ltrans.o
 .debug_loc     0x000170aa      0xf33 /tmp/cclQ5C5v.ltrans21.ltrans.o
 .debug_loc     0x00017fdd      0x541 /tmp/cclQ5C5v.ltrans22.ltrans.o
 .debug_loc     0x0001851e      0x5ac /tmp/cclQ5C5v.ltrans23.ltrans.o
 .debug_loc     0x00018aca      0xae2 /tmp/cclQ5C5v.ltrans24.ltrans.o
 .debug_loc     0x000195ac      0x871 /tmp/cclQ5C5v.ltrans25.ltrans.o
 .debug_loc     0x00019e1d      0xc45 /tmp/cclQ5C5v.ltrans26.ltrans.o
 .debug_loc     0x0001aa62      0x23c /tmp/cclQ5C5v.ltrans27.ltrans.o
 .debug_loc     0x0001ac9e      0x15f /tmp/cclQ5C5v.ltrans28.ltrans.o
 .debug_loc     0x0001adfd       0x63 /usr/lib/gcc/arm-none-eabi/4.9.3/../../../arm-none-eabi/lib/armv7-m/libc_nano.a(lib_a-atoi.o)
 .debug_loc     0x0001ae60       0x94 /usr/lib/gcc/arm-none-eabi/4.9.3/../../../arm-none-eabi/lib/armv7-m/libc_nano.a(lib_a-strtok.o)
 .debug_loc     0x0001aef4      0x1a3 /usr/lib/gcc/arm-none-eabi/4.9.3/../../../arm-none-eabi/lib/armv7-m/libc_nano.a(lib_a-strtok_r.o)
 .debug_loc     0x0001b097      0x354 /usr/lib/gcc/arm-none-eabi/4.9.3/../../../arm-none-eabi/lib/armv7-m/libc_nano.a(lib_a-strtol.o)
 .debug_loc     0x0001b3eb       0x58 /usr/lib/gcc/arm-none-eabi/4.9.3/../../../arm-none-eabi/lib/armv7-m/libc_nano.a(lib_a-malloc.o)
 .debug_loc     0x0001b443      0x172 /usr/lib/gcc/arm-none-eabi/4.9.3/../../../arm-none-eabi/lib/armv7-m/libc_nano.a(lib_a-nano-freer.o)
 .debug_loc     0x0001b5b5      0x304 /usr/lib/gcc/arm-none-eabi/4.9.3/../../../arm-none-eabi/lib/armv7-m/libc_nano.a(lib_a-nano-mallocr.o)
 .debug_loc     0x0001b8b9       0x4d /usr/lib/gcc/arm-none-eabi/4.9.3/../../../arm-none-eabi/lib/armv7-m/libc_nano.a(lib_a-sbrkr.o)
 .debug_loc     0x0001b906       0xfa /usr/lib/gcc/arm-none-eabi/4.9.3/../../../arm-none-eabi/lib/armv7-m/libc_nano.a(lib_a-reent.o)
 .debug_loc     0x0001ba00       0x21 /usr/lib/gcc/arm-none-eabi/4.9.3/../../../arm-none-eabi/lib/armv7-m/libnosys.a(sbrk.o)
 .debug_loc     0x0001ba21      0x15e /usr/lib/gcc/arm-none-eabi/4.9.3/../../../arm-none-eabi/lib/armv7-m/libm.a(lib_a-sf_lrint.o)
 .debug_loc     0x0001bb7f      0x221 /usr/lib/gcc/arm-none-eabi/4.9.3/../../../arm-none-eabi/lib/armv7-m/libm.a(lib_a-wf_pow.o)
 .debug_loc     0x0001bda0       0x3c /usr/lib/gcc/arm-none-eabi/4.9.3/../../../arm-none-eabi/lib/armv7-m/libm.a(lib_a-wf_sqrt.o)
 .debug_loc     0x0001bddc     0x1356 /usr/lib/gcc/arm-none-eabi/4.9.3/../../../arm-none-eabi/lib/armv7-m/libm.a(lib_a-ef_pow.o)
 .debug_loc     0x0001d132      0x2c6 /usr/lib/gcc/arm-none-eabi/4.9.3/../../../arm-none-eabi/lib/armv7-m/libm.a(lib_a-ef_sqrt.o)
 .debug_loc     0x0001d3f8       0x21 /usr/lib/gcc/arm-none-eabi/4.9.3/../../../arm-none-eabi/lib/armv7-m/libm.a(lib_a-s_matherr.o)
 .debug_loc     0x0001d419      0x2bd /usr/lib/gcc/arm-none-eabi/4.9.3/../../../arm-none-eabi/lib/armv7-m/libm.a(lib_a-s_rint.o)
 .debug_loc     0x0001d6d6       0x3b /usr/lib/gcc/arm-none-eabi/4.9.3/../../../arm-none-eabi/lib/armv7-m/libm.a(lib_a-sf_fabs.o)
 .debug_loc     0x0001d711       0x56 /usr/lib/gcc/arm-none-eabi/4.9.3/../../../arm-none-eabi/lib/armv7-m/libm.a(lib_a-sf_finite.o)
 .debug_loc     0x0001d767       0x36 /usr/lib/gcc/arm-none-eabi/4.9.3/../../../arm-none-eabi/lib/armv7-m/libm.a(lib_a-sf_fpclassify.o)
 .debug_loc     0x0001d79d       0x21 /usr/lib/gcc/arm-none-eabi/4.9.3/../../../arm-none-eabi/lib/armv7-m/libm.a(lib_a-sf_nan.o)
 .debug_loc     0x0001d7be      0x367 /usr/lib/gcc/arm-none-eabi/4.9.3/../../../arm-none-eabi/lib/armv7-m/libm.a(lib_a-sf_scalbn.o)
 .debug_loc     0x0001db25       0xa0 /usr/lib/gcc/arm-none-eabi/4.9.3/../../../arm-none-eabi/lib/armv7-m/libm.a(lib_a-sf_copysign.o)
 .debug_loc     0x0001dbc5       0x58 /usr/lib/gcc/arm-none-eabi/4.9.3/../../../arm-none-eabi/lib/armv7-m/libc_nano.a(lib_a-calloc.o)
 .debug_loc     0x0001dc1d       0xe1 /usr/lib/gcc/arm-none-eabi/4.9.3/../../../arm-none-eabi/lib/armv7-m/libc_nano.a(lib_a-memcmp.o)
 .debug_loc     0x0001dcfe       0x87 /usr/lib/gcc/arm-none-eabi/4.9.3/../../../arm-none-eabi/lib/armv7-m/libc_nano.a(lib_a-memcpy.o)
 .debug_loc     0x0001dd85       0x49 /usr/lib/gcc/arm-none-eabi/4.9.3/../../../arm-none-eabi/lib/armv7-m/libc_nano.a(lib_a-memset.o)
 .debug_loc     0x0001ddce       0x81 /usr/lib/gcc/arm-none-eabi/4.9.3/../../../arm-none-eabi/lib/armv7-m/libc_nano.a(lib_a-nano-callocr.o)
 .debug_loc     0x0001de4f      0x137 /usr/lib/gcc/arm-none-eabi/4.9.3/../../../arm-none-eabi/lib/armv7-m/libc_nano.a(lib_a-strcasecmp.o)
 .debug_loc     0x0001df86       0x54 /usr/lib/gcc/arm-none-eabi/4.9.3/../../../arm-none-eabi/lib/armv7-m/libc_nano.a(lib_a-strcat.o)
 .debug_loc     0x0001dfda       0x6b /usr/lib/gcc/arm-none-eabi/4.9.3/../../../arm-none-eabi/lib/armv7-m/libc_nano.a(lib_a-strchr.o)
 .debug_loc     0x0001e045       0x21 /usr/lib/gcc/arm-none-eabi/4.9.3/../../../arm-none-eabi/lib/armv7-m/libc_nano.a(lib_a-strlen.o)
 .debug_loc     0x0001e066      0x198 /usr/lib/gcc/arm-none-eabi/4.9.3/../../../arm-none-eabi/lib/armv7-m/libc_nano.a(lib_a-strncasecmp.o)
 .debug_loc     0x0001e1fe       0xc5 /usr/lib/gcc/arm-none-eabi/4.9.3/../../../arm-none-eabi/lib/armv7-m/libc_nano.a(lib_a-strncpy.o)
 .debug_loc     0x0001e2c3       0x55 /usr/lib/gcc/arm-none-eabi/4.9.3/../../../arm-none-eabi/lib/armv7-m/libc_nano.a(lib_a-strstr.o)
 .debug_loc     0x0001e318       0xa0 /usr/lib/gcc/arm-none-eabi/4.9.3/armv7-m/libgcc.a(bpabi.o)
 .debug_loc     0x0001e3b8      0xdbd /usr/lib/gcc/arm-none-eabi/4.9.3/armv7-m/libgcc.a(_divdi3.o)
 .debug_loc     0x0001f175      0xd5b /usr/lib/gcc/arm-none-eabi/4.9.3/armv7-m/libgcc.a(_udivdi3.o)

.debug_aranges  0x00000000      0xa60
 .debug_aranges
                0x00000000       0x20 /tmp/cclQ5C5v.ltrans0.ltrans.o
 .debug_aranges
                0x00000020       0x20 /tmp/cclQ5C5v.ltrans1.ltrans.o
 .debug_aranges
                0x00000040       0x20 /tmp/cclQ5C5v.ltrans2.ltrans.o
 .debug_aranges
                0x00000060       0x20 /tmp/cclQ5C5v.ltrans3.ltrans.o
 .debug_aranges
                0x00000080       0x20 /tmp/cclQ5C5v.ltrans4.ltrans.o
 .debug_aranges
                0x000000a0       0x20 /tmp/cclQ5C5v.ltrans5.ltrans.o
 .debug_aranges
                0x000000c0       0x20 /tmp/cclQ5C5v.ltrans6.ltrans.o
 .debug_aranges
                0x000000e0       0x20 /tmp/cclQ5C5v.ltrans7.ltrans.o
 .debug_aranges
                0x00000100       0x20 /tmp/cclQ5C5v.ltrans8.ltrans.o
 .debug_aranges
                0x00000120       0x20 /tmp/cclQ5C5v.ltrans9.ltrans.o
 .debug_aranges
                0x00000140       0x20 /tmp/cclQ5C5v.ltrans10.ltrans.o
 .debug_aranges
                0x00000160       0x20 /tmp/cclQ5C5v.ltrans11.ltrans.o
 .debug_aranges
                0x00000180       0x20 /tmp/cclQ5C5v.ltrans12.ltrans.o
 .debug_aranges
                0x000001a0       0x20 /tmp/cclQ5C5v.ltrans13.ltrans.o
 .debug_aranges
                0x000001c0       0x20 /tmp/cclQ5C5v.ltrans14.ltrans.o
 .debug_aranges
                0x000001e0       0x20 /tmp/cclQ5C5v.ltrans15.ltrans.o
 .debug_aranges
                0x00000200       0x20 /tmp/cclQ5C5v.ltrans16.ltrans.o
 .debug_aranges
                0x00000220       0x20 /tmp/cclQ5C5v.ltrans17.ltrans.o
 .debug_aranges
                0x00000240       0x28 /tmp/cclQ5C5v.ltrans18.ltrans.o
 .debug_aranges
                0x00000268       0x20 /tmp/cclQ5C5v.ltrans19.ltrans.o
 .debug_aranges
                0x00000288       0x20 /tmp/cclQ5C5v.ltrans20.ltrans.o
 .debug_aranges
                0x000002a8       0x28 /tmp/cclQ5C5v.ltrans21.ltrans.o
 .debug_aranges
                0x000002d0       0x20 /tmp/cclQ5C5v.ltrans22.ltrans.o
 .debug_aranges
                0x000002f0       0x20 /tmp/cclQ5C5v.ltrans23.ltrans.o
 .debug_aranges
                0x00000310       0x20 /tmp/cclQ5C5v.ltrans24.ltrans.o
 .debug_aranges
                0x00000330       0x20 /tmp/cclQ5C5v.ltrans25.ltrans.o
 .debug_aranges
                0x00000350       0x20 /tmp/cclQ5C5v.ltrans26.ltrans.o
 .debug_aranges
                0x00000370       0x20 /tmp/cclQ5C5v.ltrans27.ltrans.o
 .debug_aranges
                0x00000390       0x20 /tmp/cclQ5C5v.ltrans28.ltrans.o
 .debug_aranges
                0x000003b0       0x28 /usr/lib/gcc/arm-none-eabi/4.9.3/../../../arm-none-eabi/lib/armv7-m/libc_nano.a(lib_a-atoi.o)
 .debug_aranges
                0x000003d8       0x18 /usr/lib/gcc/arm-none-eabi/4.9.3/../../../arm-none-eabi/lib/armv7-m/libc_nano.a(lib_a-ctype_.o)
 .debug_aranges
                0x000003f0       0x20 /usr/lib/gcc/arm-none-eabi/4.9.3/../../../arm-none-eabi/lib/armv7-m/libc_nano.a(lib_a-strtok.o)
 .debug_aranges
                0x00000410       0x28 /usr/lib/gcc/arm-none-eabi/4.9.3/../../../arm-none-eabi/lib/armv7-m/libc_nano.a(lib_a-strtok_r.o)
 .debug_aranges
                0x00000438       0x28 /usr/lib/gcc/arm-none-eabi/4.9.3/../../../arm-none-eabi/lib/armv7-m/libc_nano.a(lib_a-strtol.o)
 .debug_aranges
                0x00000460       0x18 /usr/lib/gcc/arm-none-eabi/4.9.3/../../../arm-none-eabi/lib/armv7-m/libc_nano.a(lib_a-impure.o)
 .debug_aranges
                0x00000478       0x28 /usr/lib/gcc/arm-none-eabi/4.9.3/../../../arm-none-eabi/lib/armv7-m/libc_nano.a(lib_a-malloc.o)
 .debug_aranges
                0x000004a0       0x20 /usr/lib/gcc/arm-none-eabi/4.9.3/../../../arm-none-eabi/lib/armv7-m/libc_nano.a(lib_a-nano-freer.o)
 .debug_aranges
                0x000004c0       0x20 /usr/lib/gcc/arm-none-eabi/4.9.3/../../../arm-none-eabi/lib/armv7-m/libc_nano.a(lib_a-nano-mallocr.o)
 .debug_aranges
                0x000004e0       0x20 /usr/lib/gcc/arm-none-eabi/4.9.3/../../../arm-none-eabi/lib/armv7-m/libc_nano.a(lib_a-sbrkr.o)
 .debug_aranges
                0x00000500       0x28 /usr/lib/gcc/arm-none-eabi/4.9.3/../../../arm-none-eabi/lib/armv7-m/libc_nano.a(lib_a-reent.o)
 .debug_aranges
                0x00000528       0x20 /usr/lib/gcc/arm-none-eabi/4.9.3/../../../arm-none-eabi/lib/armv7-m/libnosys.a(sbrk.o)
 .debug_aranges
                0x00000548       0x20 /usr/lib/gcc/arm-none-eabi/4.9.3/../../../arm-none-eabi/lib/armv7-m/libm.a(lib_a-sf_lrint.o)
 .debug_aranges
                0x00000568       0x20 /usr/lib/gcc/arm-none-eabi/4.9.3/../../../arm-none-eabi/lib/armv7-m/libm.a(lib_a-wf_pow.o)
 .debug_aranges
                0x00000588       0x20 /usr/lib/gcc/arm-none-eabi/4.9.3/../../../arm-none-eabi/lib/armv7-m/libm.a(lib_a-wf_sqrt.o)
 .debug_aranges
                0x000005a8       0x20 /usr/lib/gcc/arm-none-eabi/4.9.3/../../../arm-none-eabi/lib/armv7-m/libm.a(lib_a-ef_pow.o)
 .debug_aranges
                0x000005c8       0x20 /usr/lib/gcc/arm-none-eabi/4.9.3/../../../arm-none-eabi/lib/armv7-m/libm.a(lib_a-ef_sqrt.o)
 .debug_aranges
                0x000005e8       0x18 /usr/lib/gcc/arm-none-eabi/4.9.3/../../../arm-none-eabi/lib/armv7-m/libm.a(lib_a-s_lib_ver.o)
 .debug_aranges
                0x00000600       0x20 /usr/lib/gcc/arm-none-eabi/4.9.3/../../../arm-none-eabi/lib/armv7-m/libm.a(lib_a-s_matherr.o)
 .debug_aranges
                0x00000620       0x20 /usr/lib/gcc/arm-none-eabi/4.9.3/../../../arm-none-eabi/lib/armv7-m/libm.a(lib_a-s_rint.o)
 .debug_aranges
                0x00000640       0x20 /usr/lib/gcc/arm-none-eabi/4.9.3/../../../arm-none-eabi/lib/armv7-m/libm.a(lib_a-sf_fabs.o)
 .debug_aranges
                0x00000660       0x20 /usr/lib/gcc/arm-none-eabi/4.9.3/../../../arm-none-eabi/lib/armv7-m/libm.a(lib_a-sf_finite.o)
 .debug_aranges
                0x00000680       0x20 /usr/lib/gcc/arm-none-eabi/4.9.3/../../../arm-none-eabi/lib/armv7-m/libm.a(lib_a-sf_fpclassify.o)
 .debug_aranges
                0x000006a0       0x20 /usr/lib/gcc/arm-none-eabi/4.9.3/../../../arm-none-eabi/lib/armv7-m/libm.a(lib_a-sf_nan.o)
 .debug_aranges
                0x000006c0       0x20 /usr/lib/gcc/arm-none-eabi/4.9.3/../../../arm-none-eabi/lib/armv7-m/libm.a(lib_a-sf_scalbn.o)
 .debug_aranges
                0x000006e0       0x20 /usr/lib/gcc/arm-none-eabi/4.9.3/../../../arm-none-eabi/lib/armv7-m/libm.a(lib_a-sf_copysign.o)
 .debug_aranges
                0x00000700       0x20 /usr/lib/gcc/arm-none-eabi/4.9.3/../../../arm-none-eabi/lib/armv7-m/libc_nano.a(lib_a-calloc.o)
 .debug_aranges
                0x00000720       0x20 /usr/lib/gcc/arm-none-eabi/4.9.3/../../../arm-none-eabi/lib/armv7-m/libc_nano.a(lib_a-errno.o)
 .debug_aranges
                0x00000740       0x20 /usr/lib/gcc/arm-none-eabi/4.9.3/../../../arm-none-eabi/lib/armv7-m/libc_nano.a(lib_a-memcmp.o)
 .debug_aranges
                0x00000760       0x20 /usr/lib/gcc/arm-none-eabi/4.9.3/../../../arm-none-eabi/lib/armv7-m/libc_nano.a(lib_a-memcpy.o)
 .debug_aranges
                0x00000780       0x20 /usr/lib/gcc/arm-none-eabi/4.9.3/../../../arm-none-eabi/lib/armv7-m/libc_nano.a(lib_a-memset.o)
 .debug_aranges
                0x000007a0       0x20 /usr/lib/gcc/arm-none-eabi/4.9.3/../../../arm-none-eabi/lib/armv7-m/libc_nano.a(lib_a-nano-callocr.o)
 .debug_aranges
                0x000007c0       0x20 /usr/lib/gcc/arm-none-eabi/4.9.3/../../../arm-none-eabi/lib/armv7-m/libc_nano.a(lib_a-strcasecmp.o)
 .debug_aranges
                0x000007e0       0x20 /usr/lib/gcc/arm-none-eabi/4.9.3/../../../arm-none-eabi/lib/armv7-m/libc_nano.a(lib_a-strcat.o)
 .debug_aranges
                0x00000800       0x20 /usr/lib/gcc/arm-none-eabi/4.9.3/../../../arm-none-eabi/lib/armv7-m/libc_nano.a(lib_a-strchr.o)
 .debug_aranges
                0x00000820       0x20 /usr/lib/gcc/arm-none-eabi/4.9.3/../../../arm-none-eabi/lib/armv7-m/libc_nano.a(lib_a-strlen.o)
 .debug_aranges
                0x00000840       0x20 /usr/lib/gcc/arm-none-eabi/4.9.3/../../../arm-none-eabi/lib/armv7-m/libc_nano.a(lib_a-strncasecmp.o)
 .debug_aranges
                0x00000860       0x20 /usr/lib/gcc/arm-none-eabi/4.9.3/../../../arm-none-eabi/lib/armv7-m/libc_nano.a(lib_a-strncpy.o)
 .debug_aranges
                0x00000880       0x20 /usr/lib/gcc/arm-none-eabi/4.9.3/../../../arm-none-eabi/lib/armv7-m/libc_nano.a(lib_a-strstr.o)
 .debug_aranges
                0x000008a0       0x20 /usr/lib/gcc/arm-none-eabi/4.9.3/armv7-m/libgcc.a(_arm_addsubdf3.o)
 .debug_aranges
                0x000008c0       0x20 /usr/lib/gcc/arm-none-eabi/4.9.3/armv7-m/libgcc.a(_arm_muldivdf3.o)
 .debug_aranges
                0x000008e0       0x20 /usr/lib/gcc/arm-none-eabi/4.9.3/armv7-m/libgcc.a(_arm_cmpdf2.o)
 .debug_aranges
                0x00000900       0x20 /usr/lib/gcc/arm-none-eabi/4.9.3/armv7-m/libgcc.a(_arm_truncdfsf2.o)
 .debug_aranges
                0x00000920       0x20 /usr/lib/gcc/arm-none-eabi/4.9.3/armv7-m/libgcc.a(_arm_addsubsf3.o)
 .debug_aranges
                0x00000940       0x20 /usr/lib/gcc/arm-none-eabi/4.9.3/armv7-m/libgcc.a(_arm_muldivsf3.o)
 .debug_aranges
                0x00000960       0x20 /usr/lib/gcc/arm-none-eabi/4.9.3/armv7-m/libgcc.a(_arm_cmpsf2.o)
 .debug_aranges
                0x00000980       0x20 /usr/lib/gcc/arm-none-eabi/4.9.3/armv7-m/libgcc.a(_arm_fixsfsi.o)
 .debug_aranges
                0x000009a0       0x20 /usr/lib/gcc/arm-none-eabi/4.9.3/armv7-m/libgcc.a(_arm_fixunssfsi.o)
 .debug_aranges
                0x000009c0       0x20 /usr/lib/gcc/arm-none-eabi/4.9.3/armv7-m/libgcc.a(_aeabi_ldivmod.o)
 .debug_aranges
                0x000009e0       0x20 /usr/lib/gcc/arm-none-eabi/4.9.3/armv7-m/libgcc.a(bpabi.o)
 .debug_aranges
                0x00000a00       0x20 /usr/lib/gcc/arm-none-eabi/4.9.3/armv7-m/libgcc.a(_dvmd_tls.o)
 .debug_aranges
                0x00000a20       0x20 /usr/lib/gcc/arm-none-eabi/4.9.3/armv7-m/libgcc.a(_divdi3.o)
 .debug_aranges
                0x00000a40       0x20 /usr/lib/gcc/arm-none-eabi/4.9.3/armv7-m/libgcc.a(_udivdi3.o)

.debug_ranges   0x00000000     0x6070
 .debug_ranges  0x00000000     0x1058 /tmp/cclQ5C5v.ltrans0.ltrans.o
 .debug_ranges  0x00001058      0x6f8 /tmp/cclQ5C5v.ltrans1.ltrans.o
 .debug_ranges  0x00001750      0xaf0 /tmp/cclQ5C5v.ltrans2.ltrans.o
 .debug_ranges  0x00002240      0x780 /tmp/cclQ5C5v.ltrans3.ltrans.o
 .debug_ranges  0x000029c0      0x198 /tmp/cclQ5C5v.ltrans4.ltrans.o
 .debug_ranges  0x00002b58      0x4c0 /tmp/cclQ5C5v.ltrans5.ltrans.o
 .debug_ranges  0x00003018      0x318 /tmp/cclQ5C5v.ltrans6.ltrans.o
 .debug_ranges  0x00003330      0x1f8 /tmp/cclQ5C5v.ltrans7.ltrans.o
 .debug_ranges  0x00003528       0x70 /tmp/cclQ5C5v.ltrans8.ltrans.o
 .debug_ranges  0x00003598      0x328 /tmp/cclQ5C5v.ltrans9.ltrans.o
 .debug_ranges  0x000038c0      0x208 /tmp/cclQ5C5v.ltrans10.ltrans.o
 .debug_ranges  0x00003ac8      0x248 /tmp/cclQ5C5v.ltrans11.ltrans.o
 .debug_ranges  0x00003d10      0x138 /tmp/cclQ5C5v.ltrans12.ltrans.o
 .debug_ranges  0x00003e48      0x170 /tmp/cclQ5C5v.ltrans13.ltrans.o
 .debug_ranges  0x00003fb8      0x1e8 /tmp/cclQ5C5v.ltrans14.ltrans.o
 .debug_ranges  0x000041a0      0x330 /tmp/cclQ5C5v.ltrans15.ltrans.o
 .debug_ranges  0x000044d0      0x190 /tmp/cclQ5C5v.ltrans16.ltrans.o
 .debug_ranges  0x00004660      0x2a0 /tmp/cclQ5C5v.ltrans17.ltrans.o
 .debug_ranges  0x00004900      0x2f0 /tmp/cclQ5C5v.ltrans18.ltrans.o
 .debug_ranges  0x00004bf0      0x230 /tmp/cclQ5C5v.ltrans19.ltrans.o
 .debug_ranges  0x00004e20      0x1c8 /tmp/cclQ5C5v.ltrans20.ltrans.o
 .debug_ranges  0x00004fe8      0x180 /tmp/cclQ5C5v.ltrans21.ltrans.o
 .debug_ranges  0x00005168      0x1d8 /tmp/cclQ5C5v.ltrans22.ltrans.o
 .debug_ranges  0x00005340      0x198 /tmp/cclQ5C5v.ltrans23.ltrans.o
 .debug_ranges  0x000054d8      0x180 /tmp/cclQ5C5v.ltrans24.ltrans.o
 .debug_ranges  0x00005658      0x1a0 /tmp/cclQ5C5v.ltrans25.ltrans.o
 .debug_ranges  0x000057f8      0x198 /tmp/cclQ5C5v.ltrans26.ltrans.o
 .debug_ranges  0x00005990       0xd0 /tmp/cclQ5C5v.ltrans27.ltrans.o
 .debug_ranges  0x00005a60       0x28 /tmp/cclQ5C5v.ltrans28.ltrans.o
 .debug_ranges  0x00005a88       0x18 /usr/lib/gcc/arm-none-eabi/4.9.3/../../../arm-none-eabi/lib/armv7-m/libc_nano.a(lib_a-atoi.o)
 .debug_ranges  0x00005aa0       0x28 /usr/lib/gcc/arm-none-eabi/4.9.3/../../../arm-none-eabi/lib/armv7-m/libc_nano.a(lib_a-strtok.o)
 .debug_ranges  0x00005ac8       0x18 /usr/lib/gcc/arm-none-eabi/4.9.3/../../../arm-none-eabi/lib/armv7-m/libc_nano.a(lib_a-strtok_r.o)
 .debug_ranges  0x00005ae0       0x18 /usr/lib/gcc/arm-none-eabi/4.9.3/../../../arm-none-eabi/lib/armv7-m/libc_nano.a(lib_a-strtol.o)
 .debug_ranges  0x00005af8       0x18 /usr/lib/gcc/arm-none-eabi/4.9.3/../../../arm-none-eabi/lib/armv7-m/libc_nano.a(lib_a-malloc.o)
 .debug_ranges  0x00005b10       0x28 /usr/lib/gcc/arm-none-eabi/4.9.3/../../../arm-none-eabi/lib/armv7-m/libc_nano.a(lib_a-nano-freer.o)
 .debug_ranges  0x00005b38       0x28 /usr/lib/gcc/arm-none-eabi/4.9.3/../../../arm-none-eabi/lib/armv7-m/libc_nano.a(lib_a-nano-mallocr.o)
 .debug_ranges  0x00005b60       0x10 /usr/lib/gcc/arm-none-eabi/4.9.3/../../../arm-none-eabi/lib/armv7-m/libc_nano.a(lib_a-sbrkr.o)
 .debug_ranges  0x00005b70       0x18 /usr/lib/gcc/arm-none-eabi/4.9.3/../../../arm-none-eabi/lib/armv7-m/libc_nano.a(lib_a-reent.o)
 .debug_ranges  0x00005b88       0x10 /usr/lib/gcc/arm-none-eabi/4.9.3/../../../arm-none-eabi/lib/armv7-m/libnosys.a(sbrk.o)
 .debug_ranges  0x00005b98       0x10 /usr/lib/gcc/arm-none-eabi/4.9.3/../../../arm-none-eabi/lib/armv7-m/libm.a(lib_a-sf_lrint.o)
 .debug_ranges  0x00005ba8       0x10 /usr/lib/gcc/arm-none-eabi/4.9.3/../../../arm-none-eabi/lib/armv7-m/libm.a(lib_a-wf_pow.o)
 .debug_ranges  0x00005bb8       0x10 /usr/lib/gcc/arm-none-eabi/4.9.3/../../../arm-none-eabi/lib/armv7-m/libm.a(lib_a-wf_sqrt.o)
 .debug_ranges  0x00005bc8       0x70 /usr/lib/gcc/arm-none-eabi/4.9.3/../../../arm-none-eabi/lib/armv7-m/libm.a(lib_a-ef_pow.o)
 .debug_ranges  0x00005c38       0x10 /usr/lib/gcc/arm-none-eabi/4.9.3/../../../arm-none-eabi/lib/armv7-m/libm.a(lib_a-ef_sqrt.o)
 .debug_ranges  0x00005c48       0x10 /usr/lib/gcc/arm-none-eabi/4.9.3/../../../arm-none-eabi/lib/armv7-m/libm.a(lib_a-s_matherr.o)
 .debug_ranges  0x00005c58       0x40 /usr/lib/gcc/arm-none-eabi/4.9.3/../../../arm-none-eabi/lib/armv7-m/libm.a(lib_a-s_rint.o)
 .debug_ranges  0x00005c98       0x10 /usr/lib/gcc/arm-none-eabi/4.9.3/../../../arm-none-eabi/lib/armv7-m/libm.a(lib_a-sf_fabs.o)
 .debug_ranges  0x00005ca8       0x10 /usr/lib/gcc/arm-none-eabi/4.9.3/../../../arm-none-eabi/lib/armv7-m/libm.a(lib_a-sf_finite.o)
 .debug_ranges  0x00005cb8       0x10 /usr/lib/gcc/arm-none-eabi/4.9.3/../../../arm-none-eabi/lib/armv7-m/libm.a(lib_a-sf_fpclassify.o)
 .debug_ranges  0x00005cc8       0x10 /usr/lib/gcc/arm-none-eabi/4.9.3/../../../arm-none-eabi/lib/armv7-m/libm.a(lib_a-sf_nan.o)
 .debug_ranges  0x00005cd8       0x10 /usr/lib/gcc/arm-none-eabi/4.9.3/../../../arm-none-eabi/lib/armv7-m/libm.a(lib_a-sf_scalbn.o)
 .debug_ranges  0x00005ce8       0x10 /usr/lib/gcc/arm-none-eabi/4.9.3/../../../arm-none-eabi/lib/armv7-m/libm.a(lib_a-sf_copysign.o)
 .debug_ranges  0x00005cf8       0x10 /usr/lib/gcc/arm-none-eabi/4.9.3/../../../arm-none-eabi/lib/armv7-m/libc_nano.a(lib_a-calloc.o)
 .debug_ranges  0x00005d08       0x10 /usr/lib/gcc/arm-none-eabi/4.9.3/../../../arm-none-eabi/lib/armv7-m/libc_nano.a(lib_a-errno.o)
 .debug_ranges  0x00005d18       0x10 /usr/lib/gcc/arm-none-eabi/4.9.3/../../../arm-none-eabi/lib/armv7-m/libc_nano.a(lib_a-memcmp.o)
 .debug_ranges  0x00005d28       0x10 /usr/lib/gcc/arm-none-eabi/4.9.3/../../../arm-none-eabi/lib/armv7-m/libc_nano.a(lib_a-memcpy.o)
 .debug_ranges  0x00005d38       0x10 /usr/lib/gcc/arm-none-eabi/4.9.3/../../../arm-none-eabi/lib/armv7-m/libc_nano.a(lib_a-memset.o)
 .debug_ranges  0x00005d48       0x10 /usr/lib/gcc/arm-none-eabi/4.9.3/../../../arm-none-eabi/lib/armv7-m/libc_nano.a(lib_a-nano-callocr.o)
 .debug_ranges  0x00005d58       0x60 /usr/lib/gcc/arm-none-eabi/4.9.3/../../../arm-none-eabi/lib/armv7-m/libc_nano.a(lib_a-strcasecmp.o)
 .debug_ranges  0x00005db8       0x10 /usr/lib/gcc/arm-none-eabi/4.9.3/../../../arm-none-eabi/lib/armv7-m/libc_nano.a(lib_a-strcat.o)
 .debug_ranges  0x00005dc8       0x10 /usr/lib/gcc/arm-none-eabi/4.9.3/../../../arm-none-eabi/lib/armv7-m/libc_nano.a(lib_a-strchr.o)
 .debug_ranges  0x00005dd8       0x10 /usr/lib/gcc/arm-none-eabi/4.9.3/../../../arm-none-eabi/lib/armv7-m/libc_nano.a(lib_a-strlen.o)
 .debug_ranges  0x00005de8       0x70 /usr/lib/gcc/arm-none-eabi/4.9.3/../../../arm-none-eabi/lib/armv7-m/libc_nano.a(lib_a-strncasecmp.o)
 .debug_ranges  0x00005e58       0x10 /usr/lib/gcc/arm-none-eabi/4.9.3/../../../arm-none-eabi/lib/armv7-m/libc_nano.a(lib_a-strncpy.o)
 .debug_ranges  0x00005e68       0x28 /usr/lib/gcc/arm-none-eabi/4.9.3/../../../arm-none-eabi/lib/armv7-m/libc_nano.a(lib_a-strstr.o)
 .debug_ranges  0x00005e90       0xf0 /usr/lib/gcc/arm-none-eabi/4.9.3/armv7-m/libgcc.a(_divdi3.o)
 .debug_ranges  0x00005f80       0xf0 /usr/lib/gcc/arm-none-eabi/4.9.3/armv7-m/libgcc.a(_udivdi3.o)

.debug_line     0x00000000    0x111ed
 .debug_line    0x00000000     0x1c9e /tmp/cclQ5C5v.ltrans0.ltrans.o
 .debug_line    0x00001c9e      0xc5f /tmp/cclQ5C5v.ltrans1.ltrans.o
 .debug_line    0x000028fd      0xe1a /tmp/cclQ5C5v.ltrans2.ltrans.o
 .debug_line    0x00003717      0xaa4 /tmp/cclQ5C5v.ltrans3.ltrans.o
 .debug_line    0x000041bb      0x7f4 /tmp/cclQ5C5v.ltrans4.ltrans.o
 .debug_line    0x000049af      0x6e2 /tmp/cclQ5C5v.ltrans5.ltrans.o
 .debug_line    0x00005091      0x9a6 /tmp/cclQ5C5v.ltrans6.ltrans.o
 .debug_line    0x00005a37      0x616 /tmp/cclQ5C5v.ltrans7.ltrans.o
 .debug_line    0x0000604d      0x774 /tmp/cclQ5C5v.ltrans8.ltrans.o
 .debug_line    0x000067c1      0x41a /tmp/cclQ5C5v.ltrans9.ltrans.o
 .debug_line    0x00006bdb      0x522 /tmp/cclQ5C5v.ltrans10.ltrans.o
 .debug_line    0x000070fd      0x47b /tmp/cclQ5C5v.ltrans11.ltrans.o
 .debug_line    0x00007578      0x64f /tmp/cclQ5C5v.ltrans12.ltrans.o
 .debug_line    0x00007bc7      0x6e9 /tmp/cclQ5C5v.ltrans13.ltrans.o
 .debug_line    0x000082b0      0x858 /tmp/cclQ5C5v.ltrans14.ltrans.o
 .debug_line    0x00008b08      0x86b /tmp/cclQ5C5v.ltrans15.ltrans.o
 .debug_line    0x00009373      0x596 /tmp/cclQ5C5v.ltrans16.ltrans.o
 .debug_line    0x00009909      0x6b5 /tmp/cclQ5C5v.ltrans17.ltrans.o
 .debug_line    0x00009fbe      0x5ed /tmp/cclQ5C5v.ltrans18.ltrans.o
 .debug_line    0x0000a5ab      0x555 /tmp/cclQ5C5v.ltrans19.ltrans.o
 .debug_line    0x0000ab00      0x57d /tmp/cclQ5C5v.ltrans20.ltrans.o
 .debug_line    0x0000b07d      0x941 /tmp/cclQ5C5v.ltrans21.ltrans.o
 .debug_line    0x0000b9be      0x50c /tmp/cclQ5C5v.ltrans22.ltrans.o
 .debug_line    0x0000beca      0x6e4 /tmp/cclQ5C5v.ltrans23.ltrans.o
 .debug_line    0x0000c5ae      0x615 /tmp/cclQ5C5v.ltrans24.ltrans.o
 .debug_line    0x0000cbc3      0x3ac /tmp/cclQ5C5v.ltrans25.ltrans.o
 .debug_line    0x0000cf6f      0x44d /tmp/cclQ5C5v.ltrans26.ltrans.o
 .debug_line    0x0000d3bc      0x320 /tmp/cclQ5C5v.ltrans27.ltrans.o
 .debug_line    0x0000d6dc      0x240 /tmp/cclQ5C5v.ltrans28.ltrans.o
 .debug_line    0x0000d91c      0x168 /usr/lib/gcc/arm-none-eabi/4.9.3/../../../arm-none-eabi/lib/armv7-m/libc_nano.a(lib_a-atoi.o)
 .debug_line    0x0000da84       0x72 /usr/lib/gcc/arm-none-eabi/4.9.3/../../../arm-none-eabi/lib/armv7-m/libc_nano.a(lib_a-ctype_.o)
 .debug_line    0x0000daf6      0x16a /usr/lib/gcc/arm-none-eabi/4.9.3/../../../arm-none-eabi/lib/armv7-m/libc_nano.a(lib_a-strtok.o)
 .debug_line    0x0000dc60       0xed /usr/lib/gcc/arm-none-eabi/4.9.3/../../../arm-none-eabi/lib/armv7-m/libc_nano.a(lib_a-strtok_r.o)
 .debug_line    0x0000dd4d      0x1de /usr/lib/gcc/arm-none-eabi/4.9.3/../../../arm-none-eabi/lib/armv7-m/libc_nano.a(lib_a-strtol.o)
 .debug_line    0x0000df2b       0xf1 /usr/lib/gcc/arm-none-eabi/4.9.3/../../../arm-none-eabi/lib/armv7-m/libc_nano.a(lib_a-impure.o)
 .debug_line    0x0000e01c      0x16e /usr/lib/gcc/arm-none-eabi/4.9.3/../../../arm-none-eabi/lib/armv7-m/libc_nano.a(lib_a-malloc.o)
 .debug_line    0x0000e18a      0x145 /usr/lib/gcc/arm-none-eabi/4.9.3/../../../arm-none-eabi/lib/armv7-m/libc_nano.a(lib_a-nano-freer.o)
 .debug_line    0x0000e2cf      0x199 /usr/lib/gcc/arm-none-eabi/4.9.3/../../../arm-none-eabi/lib/armv7-m/libc_nano.a(lib_a-nano-mallocr.o)
 .debug_line    0x0000e468      0x162 /usr/lib/gcc/arm-none-eabi/4.9.3/../../../arm-none-eabi/lib/armv7-m/libc_nano.a(lib_a-sbrkr.o)
 .debug_line    0x0000e5ca      0x19e /usr/lib/gcc/arm-none-eabi/4.9.3/../../../arm-none-eabi/lib/armv7-m/libc_nano.a(lib_a-reent.o)
 .debug_line    0x0000e768       0x58 /usr/lib/gcc/arm-none-eabi/4.9.3/../../../arm-none-eabi/lib/armv7-m/libnosys.a(sbrk.o)
 .debug_line    0x0000e7c0      0x143 /usr/lib/gcc/arm-none-eabi/4.9.3/../../../arm-none-eabi/lib/armv7-m/libm.a(lib_a-sf_lrint.o)
 .debug_line    0x0000e903      0x22b /usr/lib/gcc/arm-none-eabi/4.9.3/../../../arm-none-eabi/lib/armv7-m/libm.a(lib_a-wf_pow.o)
 .debug_line    0x0000eb2e      0x16d /usr/lib/gcc/arm-none-eabi/4.9.3/../../../arm-none-eabi/lib/armv7-m/libm.a(lib_a-wf_sqrt.o)
 .debug_line    0x0000ec9b      0x2ba /usr/lib/gcc/arm-none-eabi/4.9.3/../../../arm-none-eabi/lib/armv7-m/libm.a(lib_a-ef_pow.o)
 .debug_line    0x0000ef55      0x145 /usr/lib/gcc/arm-none-eabi/4.9.3/../../../arm-none-eabi/lib/armv7-m/libm.a(lib_a-ef_sqrt.o)
 .debug_line    0x0000f09a       0xa5 /usr/lib/gcc/arm-none-eabi/4.9.3/../../../arm-none-eabi/lib/armv7-m/libm.a(lib_a-s_lib_ver.o)
 .debug_line    0x0000f13f       0xb6 /usr/lib/gcc/arm-none-eabi/4.9.3/../../../arm-none-eabi/lib/armv7-m/libm.a(lib_a-s_matherr.o)
 .debug_line    0x0000f1f5      0x184 /usr/lib/gcc/arm-none-eabi/4.9.3/../../../arm-none-eabi/lib/armv7-m/libm.a(lib_a-s_rint.o)
 .debug_line    0x0000f379      0x118 /usr/lib/gcc/arm-none-eabi/4.9.3/../../../arm-none-eabi/lib/armv7-m/libm.a(lib_a-sf_fabs.o)
 .debug_line    0x0000f491      0x11c /usr/lib/gcc/arm-none-eabi/4.9.3/../../../arm-none-eabi/lib/armv7-m/libm.a(lib_a-sf_finite.o)
 .debug_line    0x0000f5ad      0x126 /usr/lib/gcc/arm-none-eabi/4.9.3/../../../arm-none-eabi/lib/armv7-m/libm.a(lib_a-sf_fpclassify.o)
 .debug_line    0x0000f6d3       0xb2 /usr/lib/gcc/arm-none-eabi/4.9.3/../../../arm-none-eabi/lib/armv7-m/libm.a(lib_a-sf_nan.o)
 .debug_line    0x0000f785      0x155 /usr/lib/gcc/arm-none-eabi/4.9.3/../../../arm-none-eabi/lib/armv7-m/libm.a(lib_a-sf_scalbn.o)
 .debug_line    0x0000f8da      0x12b /usr/lib/gcc/arm-none-eabi/4.9.3/../../../arm-none-eabi/lib/armv7-m/libm.a(lib_a-sf_copysign.o)
 .debug_line    0x0000fa05      0x159 /usr/lib/gcc/arm-none-eabi/4.9.3/../../../arm-none-eabi/lib/armv7-m/libc_nano.a(lib_a-calloc.o)
 .debug_line    0x0000fb5e      0x10b /usr/lib/gcc/arm-none-eabi/4.9.3/../../../arm-none-eabi/lib/armv7-m/libc_nano.a(lib_a-errno.o)
 .debug_line    0x0000fc69       0xf0 /usr/lib/gcc/arm-none-eabi/4.9.3/../../../arm-none-eabi/lib/armv7-m/libc_nano.a(lib_a-memcmp.o)
 .debug_line    0x0000fd59       0xed /usr/lib/gcc/arm-none-eabi/4.9.3/../../../arm-none-eabi/lib/armv7-m/libc_nano.a(lib_a-memcpy.o)
 .debug_line    0x0000fe46       0xee /usr/lib/gcc/arm-none-eabi/4.9.3/../../../arm-none-eabi/lib/armv7-m/libc_nano.a(lib_a-memset.o)
 .debug_line    0x0000ff34      0x168 /usr/lib/gcc/arm-none-eabi/4.9.3/../../../arm-none-eabi/lib/armv7-m/libc_nano.a(lib_a-nano-callocr.o)
 .debug_line    0x0001009c       0xd4 /usr/lib/gcc/arm-none-eabi/4.9.3/../../../arm-none-eabi/lib/armv7-m/libc_nano.a(lib_a-strcasecmp.o)
 .debug_line    0x00010170       0xbd /usr/lib/gcc/arm-none-eabi/4.9.3/../../../arm-none-eabi/lib/armv7-m/libc_nano.a(lib_a-strcat.o)
 .debug_line    0x0001022d       0xc0 /usr/lib/gcc/arm-none-eabi/4.9.3/../../../arm-none-eabi/lib/armv7-m/libc_nano.a(lib_a-strchr.o)
 .debug_line    0x000102ed       0xf5 /usr/lib/gcc/arm-none-eabi/4.9.3/../../../arm-none-eabi/lib/armv7-m/libc_nano.a(lib_a-strlen.o)
 .debug_line    0x000103e2      0x110 /usr/lib/gcc/arm-none-eabi/4.9.3/../../../arm-none-eabi/lib/armv7-m/libc_nano.a(lib_a-strncasecmp.o)
 .debug_line    0x000104f2       0xf5 /usr/lib/gcc/arm-none-eabi/4.9.3/../../../arm-none-eabi/lib/armv7-m/libc_nano.a(lib_a-strncpy.o)
 .debug_line    0x000105e7       0xf5 /usr/lib/gcc/arm-none-eabi/4.9.3/../../../arm-none-eabi/lib/armv7-m/libc_nano.a(lib_a-strstr.o)
 .debug_line    0x000106dc      0x176 /usr/lib/gcc/arm-none-eabi/4.9.3/armv7-m/libgcc.a(_arm_addsubdf3.o)
 .debug_line    0x00010852      0x19a /usr/lib/gcc/arm-none-eabi/4.9.3/armv7-m/libgcc.a(_arm_muldivdf3.o)
 .debug_line    0x000109ec       0xb7 /usr/lib/gcc/arm-none-eabi/4.9.3/armv7-m/libgcc.a(_arm_cmpdf2.o)
 .debug_line    0x00010aa3       0x8b /usr/lib/gcc/arm-none-eabi/4.9.3/armv7-m/libgcc.a(_arm_truncdfsf2.o)
 .debug_line    0x00010b2e      0x117 /usr/lib/gcc/arm-none-eabi/4.9.3/armv7-m/libgcc.a(_arm_addsubsf3.o)
 .debug_line    0x00010c45      0x13a /usr/lib/gcc/arm-none-eabi/4.9.3/armv7-m/libgcc.a(_arm_muldivsf3.o)
 .debug_line    0x00010d7f       0xab /usr/lib/gcc/arm-none-eabi/4.9.3/armv7-m/libgcc.a(_arm_cmpsf2.o)
 .debug_line    0x00010e2a       0x77 /usr/lib/gcc/arm-none-eabi/4.9.3/armv7-m/libgcc.a(_arm_fixsfsi.o)
 .debug_line    0x00010ea1       0x73 /usr/lib/gcc/arm-none-eabi/4.9.3/armv7-m/libgcc.a(_arm_fixunssfsi.o)
 .debug_line    0x00010f14       0x63 /usr/lib/gcc/arm-none-eabi/4.9.3/armv7-m/libgcc.a(_aeabi_ldivmod.o)
 .debug_line    0x00010f77       0x64 /usr/lib/gcc/arm-none-eabi/4.9.3/armv7-m/libgcc.a(bpabi.o)
 .debug_line    0x00010fdb       0x5e /usr/lib/gcc/arm-none-eabi/4.9.3/armv7-m/libgcc.a(_dvmd_tls.o)
 .debug_line    0x00011039       0xe1 /usr/lib/gcc/arm-none-eabi/4.9.3/armv7-m/libgcc.a(_divdi3.o)
 .debug_line    0x0001111a       0xd3 /usr/lib/gcc/arm-none-eabi/4.9.3/armv7-m/libgcc.a(_udivdi3.o)

.debug_str      0x00000000    0x15162
 .debug_str     0x00000000     0x550e /tmp/cclQ5C5v.ltrans0.ltrans.o
                               0x59b9 (size before relaxing)
 .debug_str     0x0000550e     0x1dc4 /tmp/cclQ5C5v.ltrans1.ltrans.o
                               0x2b20 (size before relaxing)
 .debug_str     0x000072d2      0xbae /tmp/cclQ5C5v.ltrans2.ltrans.o
                               0x1dd7 (size before relaxing)
 .debug_str     0x00007e80     0x1617 /tmp/cclQ5C5v.ltrans3.ltrans.o
                               0x261a (size before relaxing)
 .debug_str     0x00009497      0xa7e /tmp/cclQ5C5v.ltrans4.ltrans.o
                               0x1a22 (size before relaxing)
 .debug_str     0x00009f15      0xc47 /tmp/cclQ5C5v.ltrans5.ltrans.o
                               0x1b93 (size before relaxing)
 .debug_str     0x0000ab5c      0x94d /tmp/cclQ5C5v.ltrans6.ltrans.o
                               0x1e5e (size before relaxing)
 .debug_str     0x0000b4a9      0x9a2 /tmp/cclQ5C5v.ltrans7.ltrans.o
                               0x154e (size before relaxing)
 .debug_str     0x0000be4b      0xff3 /tmp/cclQ5C5v.ltrans8.ltrans.o
                               0x1cdb (size before relaxing)
 .debug_str     0x0000ce3e      0x4c3 /tmp/cclQ5C5v.ltrans9.ltrans.o
                                0xa1d (size before relaxing)
 .debug_str     0x0000d301      0x62c /tmp/cclQ5C5v.ltrans10.ltrans.o
                               0x1386 (size before relaxing)
 .debug_str     0x0000d92d      0x8a0 /tmp/cclQ5C5v.ltrans11.ltrans.o
                                0xc58 (size before relaxing)
 .debug_str     0x0000e1cd      0xbaa /tmp/cclQ5C5v.ltrans12.ltrans.o
                               0x1bf1 (size before relaxing)
 .debug_str     0x0000ed77      0x506 /tmp/cclQ5C5v.ltrans13.ltrans.o
                               0x1431 (size before relaxing)
 .debug_str     0x0000f27d      0x934 /tmp/cclQ5C5v.ltrans14.ltrans.o
                               0x2ac4 (size before relaxing)
 .debug_str     0x0000fbb1      0x623 /tmp/cclQ5C5v.ltrans15.ltrans.o
                               0x179d (size before relaxing)
 .debug_str     0x000101d4      0x623 /tmp/cclQ5C5v.ltrans16.ltrans.o
                                0xfff (size before relaxing)
 .debug_str     0x000107f7      0x45b /tmp/cclQ5C5v.ltrans17.ltrans.o
                               0x150b (size before relaxing)
 .debug_str     0x00010c52      0x3fa /tmp/cclQ5C5v.ltrans18.ltrans.o
                               0x1d7b (size before relaxing)
 .debug_str     0x0001104c      0x3ed /tmp/cclQ5C5v.ltrans19.ltrans.o
                                0x9cd (size before relaxing)
 .debug_str     0x00011439      0x4d3 /tmp/cclQ5C5v.ltrans20.ltrans.o
                               0x1212 (size before relaxing)
 .debug_str     0x0001190c      0x900 /tmp/cclQ5C5v.ltrans21.ltrans.o
                               0x3677 (size before relaxing)
 .debug_str     0x0001220c      0x657 /tmp/cclQ5C5v.ltrans22.ltrans.o
                               0x1269 (size before relaxing)
 .debug_str     0x00012863      0x308 /tmp/cclQ5C5v.ltrans23.ltrans.o
                               0x2119 (size before relaxing)
 .debug_str     0x00012b6b      0x699 /tmp/cclQ5C5v.ltrans24.ltrans.o
                               0x16dc (size before relaxing)
 .debug_str     0x00013204      0x400 /tmp/cclQ5C5v.ltrans25.ltrans.o
                                0xcfb (size before relaxing)
 .debug_str     0x00013604      0x147 /tmp/cclQ5C5v.ltrans26.ltrans.o
                                0x94e (size before relaxing)
 .debug_str     0x0001374b      0x1e3 /tmp/cclQ5C5v.ltrans27.ltrans.o
                                0x9d9 (size before relaxing)
 .debug_str     0x0001392e      0x17b /tmp/cclQ5C5v.ltrans28.ltrans.o
                                0x8b5 (size before relaxing)
 .debug_str     0x00013aa9      0x4a3 /usr/lib/gcc/arm-none-eabi/4.9.3/../../../arm-none-eabi/lib/armv7-m/libc_nano.a(lib_a-atoi.o)
                                0x52e (size before relaxing)
 .debug_str     0x00013f4c       0xac /usr/lib/gcc/arm-none-eabi/4.9.3/../../../arm-none-eabi/lib/armv7-m/libc_nano.a(lib_a-ctype_.o)
                                0x154 (size before relaxing)
 .debug_str     0x00013ff8       0xb1 /usr/lib/gcc/arm-none-eabi/4.9.3/../../../arm-none-eabi/lib/armv7-m/libc_nano.a(lib_a-strtok.o)
                                0x543 (size before relaxing)
 .debug_str     0x000140a9       0x54 /usr/lib/gcc/arm-none-eabi/4.9.3/../../../arm-none-eabi/lib/armv7-m/libc_nano.a(lib_a-strtok_r.o)
                                0x204 (size before relaxing)
 .debug_str     0x000140fd       0x46 /usr/lib/gcc/arm-none-eabi/4.9.3/../../../arm-none-eabi/lib/armv7-m/libc_nano.a(lib_a-strtol.o)
                                0x561 (size before relaxing)
 .debug_str     0x00014143       0xf4 /usr/lib/gcc/arm-none-eabi/4.9.3/../../../arm-none-eabi/lib/armv7-m/libc_nano.a(lib_a-impure.o)
                                0x57a (size before relaxing)
 .debug_str     0x00014237       0x4c /usr/lib/gcc/arm-none-eabi/4.9.3/../../../arm-none-eabi/lib/armv7-m/libc_nano.a(lib_a-malloc.o)
                                0x54f (size before relaxing)
 .debug_str     0x00014283       0x90 /usr/lib/gcc/arm-none-eabi/4.9.3/../../../arm-none-eabi/lib/armv7-m/libc_nano.a(lib_a-nano-freer.o)
                                0x593 (size before relaxing)
 .debug_str     0x00014313       0x50 /usr/lib/gcc/arm-none-eabi/4.9.3/../../../arm-none-eabi/lib/armv7-m/libc_nano.a(lib_a-nano-mallocr.o)
                                0x5c8 (size before relaxing)
 .debug_str     0x00014363       0x37 /usr/lib/gcc/arm-none-eabi/4.9.3/../../../arm-none-eabi/lib/armv7-m/libc_nano.a(lib_a-sbrkr.o)
                                0x532 (size before relaxing)
 .debug_str     0x0001439a       0x58 /usr/lib/gcc/arm-none-eabi/4.9.3/../../../arm-none-eabi/lib/armv7-m/libc_nano.a(lib_a-reent.o)
                                0x55a (size before relaxing)
 .debug_str     0x000143f2      0x109 /usr/lib/gcc/arm-none-eabi/4.9.3/../../../arm-none-eabi/lib/armv7-m/libnosys.a(sbrk.o)
                                0x122 (size before relaxing)
 .debug_str     0x000144fb      0x12f /usr/lib/gcc/arm-none-eabi/4.9.3/../../../arm-none-eabi/lib/armv7-m/libm.a(lib_a-sf_lrint.o)
                                0x1f1 (size before relaxing)
 .debug_str     0x0001462a      0x13a /usr/lib/gcc/arm-none-eabi/4.9.3/../../../arm-none-eabi/lib/armv7-m/libm.a(lib_a-wf_pow.o)
                                0x281 (size before relaxing)
 .debug_str     0x00014764       0x3d /usr/lib/gcc/arm-none-eabi/4.9.3/../../../arm-none-eabi/lib/armv7-m/libm.a(lib_a-wf_sqrt.o)
                                0x277 (size before relaxing)
 .debug_str     0x000147a1       0xb6 /usr/lib/gcc/arm-none-eabi/4.9.3/../../../arm-none-eabi/lib/armv7-m/libm.a(lib_a-ef_pow.o)
                                0x286 (size before relaxing)
 .debug_str     0x00014857       0x2d /usr/lib/gcc/arm-none-eabi/4.9.3/../../../arm-none-eabi/lib/armv7-m/libm.a(lib_a-ef_sqrt.o)
                                0x218 (size before relaxing)
 .debug_str     0x00014884       0x31 /usr/lib/gcc/arm-none-eabi/4.9.3/../../../arm-none-eabi/lib/armv7-m/libm.a(lib_a-s_lib_ver.o)
                                0x224 (size before relaxing)
 .debug_str     0x000148b5       0x31 /usr/lib/gcc/arm-none-eabi/4.9.3/../../../arm-none-eabi/lib/armv7-m/libm.a(lib_a-s_matherr.o)
                                0x1f6 (size before relaxing)
 .debug_str     0x000148e6       0xd2 /usr/lib/gcc/arm-none-eabi/4.9.3/../../../arm-none-eabi/lib/armv7-m/libm.a(lib_a-s_rint.o)
                                0x225 (size before relaxing)
 .debug_str     0x000149b8       0x2d /usr/lib/gcc/arm-none-eabi/4.9.3/../../../arm-none-eabi/lib/armv7-m/libm.a(lib_a-sf_fabs.o)
                                0x1d4 (size before relaxing)
 .debug_str     0x000149e5       0x31 /usr/lib/gcc/arm-none-eabi/4.9.3/../../../arm-none-eabi/lib/armv7-m/libm.a(lib_a-sf_finite.o)
                                0x1db (size before relaxing)
 .debug_str     0x00014a16       0x35 /usr/lib/gcc/arm-none-eabi/4.9.3/../../../arm-none-eabi/lib/armv7-m/libm.a(lib_a-sf_fpclassify.o)
                                0x1e6 (size before relaxing)
 .debug_str     0x00014a4b       0x35 /usr/lib/gcc/arm-none-eabi/4.9.3/../../../arm-none-eabi/lib/armv7-m/libm.a(lib_a-sf_nan.o)
                                0x1d2 (size before relaxing)
 .debug_str     0x00014a80       0x48 /usr/lib/gcc/arm-none-eabi/4.9.3/../../../arm-none-eabi/lib/armv7-m/libm.a(lib_a-sf_scalbn.o)
                                0x232 (size before relaxing)
 .debug_str     0x00014ac8       0x33 /usr/lib/gcc/arm-none-eabi/4.9.3/../../../arm-none-eabi/lib/armv7-m/libm.a(lib_a-sf_copysign.o)
                                0x206 (size before relaxing)
 .debug_str     0x00014afb       0x38 /usr/lib/gcc/arm-none-eabi/4.9.3/../../../arm-none-eabi/lib/armv7-m/libc_nano.a(lib_a-calloc.o)
                                0x53b (size before relaxing)
 .debug_str     0x00014b33       0x95 /usr/lib/gcc/arm-none-eabi/4.9.3/../../../arm-none-eabi/lib/armv7-m/libc_nano.a(lib_a-errno.o)
                                0x523 (size before relaxing)
 .debug_str     0x00014bc8       0x2e /usr/lib/gcc/arm-none-eabi/4.9.3/../../../arm-none-eabi/lib/armv7-m/libc_nano.a(lib_a-memcmp.o)
                                0x1d2 (size before relaxing)
 .debug_str     0x00014bf6       0x3d /usr/lib/gcc/arm-none-eabi/4.9.3/../../../arm-none-eabi/lib/armv7-m/libc_nano.a(lib_a-memcpy.o)
                                0x1e6 (size before relaxing)
 .debug_str     0x00014c33       0x2e /usr/lib/gcc/arm-none-eabi/4.9.3/../../../arm-none-eabi/lib/armv7-m/libc_nano.a(lib_a-memset.o)
                                0x1d2 (size before relaxing)
 .debug_str     0x00014c61        0x5 /usr/lib/gcc/arm-none-eabi/4.9.3/../../../arm-none-eabi/lib/armv7-m/libc_nano.a(lib_a-nano-callocr.o)
                                0x557 (size before relaxing)
 .debug_str     0x00014c66       0x3c /usr/lib/gcc/arm-none-eabi/4.9.3/../../../arm-none-eabi/lib/armv7-m/libc_nano.a(lib_a-strcasecmp.o)
                                0x1eb (size before relaxing)
 .debug_str     0x00014ca2       0x2e /usr/lib/gcc/arm-none-eabi/4.9.3/../../../arm-none-eabi/lib/armv7-m/libc_nano.a(lib_a-strcat.o)
                                0x1cb (size before relaxing)
 .debug_str     0x00014cd0       0x2e /usr/lib/gcc/arm-none-eabi/4.9.3/../../../arm-none-eabi/lib/armv7-m/libc_nano.a(lib_a-strchr.o)
                                0x1cb (size before relaxing)
 .debug_str     0x00014cfe       0xad /usr/lib/gcc/arm-none-eabi/4.9.3/../../../arm-none-eabi/lib/armv7-m/libc_nano.a(lib_a-strlen.o)
                                0x1e7 (size before relaxing)
 .debug_str     0x00014dab       0x33 /usr/lib/gcc/arm-none-eabi/4.9.3/../../../arm-none-eabi/lib/armv7-m/libc_nano.a(lib_a-strncasecmp.o)
                                0x1f4 (size before relaxing)
 .debug_str     0x00014dde       0x3b /usr/lib/gcc/arm-none-eabi/4.9.3/../../../arm-none-eabi/lib/armv7-m/libc_nano.a(lib_a-strncpy.o)
                                0x1f0 (size before relaxing)
 .debug_str     0x00014e19       0x3f /usr/lib/gcc/arm-none-eabi/4.9.3/../../../arm-none-eabi/lib/armv7-m/libc_nano.a(lib_a-strstr.o)
                                0x1e3 (size before relaxing)
 .debug_str     0x00014e58      0x1a7 /usr/lib/gcc/arm-none-eabi/4.9.3/armv7-m/libgcc.a(bpabi.o)
                                0x1cc (size before relaxing)
 .debug_str     0x00014fff      0x163 /usr/lib/gcc/arm-none-eabi/4.9.3/armv7-m/libgcc.a(_divdi3.o)
                                0x27a (size before relaxing)
 .debug_str     0x00015162      0x27b /usr/lib/gcc/arm-none-eabi/4.9.3/armv7-m/libgcc.a(_udivdi3.o)

.comment        0x00000000       0x70
 .comment       0x00000000       0x38 /tmp/cclQ5C5v.ltrans0.ltrans.o
                                 0x39 (size before relaxing)
 .comment       0x00000038       0x39 /tmp/cclQ5C5v.ltrans1.ltrans.o
 .comment       0x00000038       0x39 /tmp/cclQ5C5v.ltrans2.ltrans.o
 .comment       0x00000038       0x39 /tmp/cclQ5C5v.ltrans3.ltrans.o
 .comment       0x00000038       0x39 /tmp/cclQ5C5v.ltrans4.ltrans.o
 .comment       0x00000038       0x39 /tmp/cclQ5C5v.ltrans5.ltrans.o
 .comment       0x00000038       0x39 /tmp/cclQ5C5v.ltrans6.ltrans.o
 .comment       0x00000038       0x39 /tmp/cclQ5C5v.ltrans7.ltrans.o
 .comment       0x00000038       0x39 /tmp/cclQ5C5v.ltrans8.ltrans.o
 .comment       0x00000038       0x39 /tmp/cclQ5C5v.ltrans9.ltrans.o
 .comment       0x00000038       0x39 /tmp/cclQ5C5v.ltrans10.ltrans.o
 .comment       0x00000038       0x39 /tmp/cclQ5C5v.ltrans11.ltrans.o
 .comment       0x00000038       0x39 /tmp/cclQ5C5v.ltrans12.ltrans.o
 .comment       0x00000038       0x39 /tmp/cclQ5C5v.ltrans13.ltrans.o
 .comment       0x00000038       0x39 /tmp/cclQ5C5v.ltrans14.ltrans.o
 .comment       0x00000038       0x39 /tmp/cclQ5C5v.ltrans15.ltrans.o
 .comment       0x00000038       0x39 /tmp/cclQ5C5v.ltrans16.ltrans.o
 .comment       0x00000038       0x39 /tmp/cclQ5C5v.ltrans17.ltrans.o
 .comment       0x00000038       0x39 /tmp/cclQ5C5v.ltrans18.ltrans.o
 .comment       0x00000038       0x39 /tmp/cclQ5C5v.ltrans19.ltrans.o
 .comment       0x00000038       0x39 /tmp/cclQ5C5v.ltrans20.ltrans.o
 .comment       0x00000038       0x39 /tmp/cclQ5C5v.ltrans21.ltrans.o
 .comment       0x00000038       0x39 /tmp/cclQ5C5v.ltrans22.ltrans.o
 .comment       0x00000038       0x39 /tmp/cclQ5C5v.ltrans23.ltrans.o
 .comment       0x00000038       0x39 /tmp/cclQ5C5v.ltrans24.ltrans.o
 .comment       0x00000038       0x39 /tmp/cclQ5C5v.ltrans25.ltrans.o
 .comment       0x00000038       0x39 /tmp/cclQ5C5v.ltrans26.ltrans.o
 .comment       0x00000038       0x39 /tmp/cclQ5C5v.ltrans27.ltrans.o
 .comment       0x00000038       0x39 /tmp/cclQ5C5v.ltrans28.ltrans.o
 .comment       0x00000038       0x38 /usr/lib/gcc/arm-none-eabi/4.9.3/../../../arm-none-eabi/lib/armv7-m/libc_nano.a(lib_a-atoi.o)
                                 0x39 (size before relaxing)
 .comment       0x00000070       0x39 /usr/lib/gcc/arm-none-eabi/4.9.3/../../../arm-none-eabi/lib/armv7-m/libc_nano.a(lib_a-ctype_.o)
 .comment       0x00000070       0x39 /usr/lib/gcc/arm-none-eabi/4.9.3/../../../arm-none-eabi/lib/armv7-m/libc_nano.a(lib_a-strtok.o)
 .comment       0x00000070       0x39 /usr/lib/gcc/arm-none-eabi/4.9.3/../../../arm-none-eabi/lib/armv7-m/libc_nano.a(lib_a-strtok_r.o)
 .comment       0x00000070       0x39 /usr/lib/gcc/arm-none-eabi/4.9.3/../../../arm-none-eabi/lib/armv7-m/libc_nano.a(lib_a-strtol.o)
 .comment       0x00000070       0x39 /usr/lib/gcc/arm-none-eabi/4.9.3/../../../arm-none-eabi/lib/armv7-m/libc_nano.a(lib_a-impure.o)
 .comment       0x00000070       0x39 /usr/lib/gcc/arm-none-eabi/4.9.3/../../../arm-none-eabi/lib/armv7-m/libc_nano.a(lib_a-malloc.o)
 .comment       0x00000070       0x39 /usr/lib/gcc/arm-none-eabi/4.9.3/../../../arm-none-eabi/lib/armv7-m/libc_nano.a(lib_a-nano-freer.o)
 .comment       0x00000070       0x39 /usr/lib/gcc/arm-none-eabi/4.9.3/../../../arm-none-eabi/lib/armv7-m/libc_nano.a(lib_a-nano-mallocr.o)
 .comment       0x00000070       0x39 /usr/lib/gcc/arm-none-eabi/4.9.3/../../../arm-none-eabi/lib/armv7-m/libc_nano.a(lib_a-sbrkr.o)
 .comment       0x00000070       0x39 /usr/lib/gcc/arm-none-eabi/4.9.3/../../../arm-none-eabi/lib/armv7-m/libc_nano.a(lib_a-reent.o)
 .comment       0x00000070       0x39 /usr/lib/gcc/arm-none-eabi/4.9.3/../../../arm-none-eabi/lib/armv7-m/libnosys.a(sbrk.o)
 .comment       0x00000070       0x39 /usr/lib/gcc/arm-none-eabi/4.9.3/../../../arm-none-eabi/lib/armv7-m/libm.a(lib_a-sf_lrint.o)
 .comment       0x00000070       0x39 /usr/lib/gcc/arm-none-eabi/4.9.3/../../../arm-none-eabi/lib/armv7-m/libm.a(lib_a-wf_pow.o)
 .comment       0x00000070       0x39 /usr/lib/gcc/arm-none-eabi/4.9.3/../../../arm-none-eabi/lib/armv7-m/libm.a(lib_a-wf_sqrt.o)
 .comment       0x00000070       0x39 /usr/lib/gcc/arm-none-eabi/4.9.3/../../../arm-none-eabi/lib/armv7-m/libm.a(lib_a-ef_pow.o)
 .comment       0x00000070       0x39 /usr/lib/gcc/arm-none-eabi/4.9.3/../../../arm-none-eabi/lib/armv7-m/libm.a(lib_a-ef_sqrt.o)
 .comment       0x00000070       0x39 /usr/lib/gcc/arm-none-eabi/4.9.3/../../../arm-none-eabi/lib/armv7-m/libm.a(lib_a-s_lib_ver.o)
 .comment       0x00000070       0x39 /usr/lib/gcc/arm-none-eabi/4.9.3/../../../arm-none-eabi/lib/armv7-m/libm.a(lib_a-s_matherr.o)
 .comment       0x00000070       0x39 /usr/lib/gcc/arm-none-eabi/4.9.3/../../../arm-none-eabi/lib/armv7-m/libm.a(lib_a-s_rint.o)
 .comment       0x00000070       0x39 /usr/lib/gcc/arm-none-eabi/4.9.3/../../../arm-none-eabi/lib/armv7-m/libm.a(lib_a-sf_fabs.o)
 .comment       0x00000070       0x39 /usr/lib/gcc/arm-none-eabi/4.9.3/../../../arm-none-eabi/lib/armv7-m/libm.a(lib_a-sf_finite.o)
 .comment       0x00000070       0x39 /usr/lib/gcc/arm-none-eabi/4.9.3/../../../arm-none-eabi/lib/armv7-m/libm.a(lib_a-sf_fpclassify.o)
 .comment       0x00000070       0x39 /usr/lib/gcc/arm-none-eabi/4.9.3/../../../arm-none-eabi/lib/armv7-m/libm.a(lib_a-sf_nan.o)
 .comment       0x00000070       0x39 /usr/lib/gcc/arm-none-eabi/4.9.3/../../../arm-none-eabi/lib/armv7-m/libm.a(lib_a-sf_scalbn.o)
 .comment       0x00000070       0x39 /usr/lib/gcc/arm-none-eabi/4.9.3/../../../arm-none-eabi/lib/armv7-m/libm.a(lib_a-sf_copysign.o)
 .comment       0x00000070       0x39 /usr/lib/gcc/arm-none-eabi/4.9.3/../../../arm-none-eabi/lib/armv7-m/libc_nano.a(lib_a-calloc.o)
 .comment       0x00000070       0x39 /usr/lib/gcc/arm-none-eabi/4.9.3/../../../arm-none-eabi/lib/armv7-m/libc_nano.a(lib_a-errno.o)
 .comment       0x00000070       0x39 /usr/lib/gcc/arm-none-eabi/4.9.3/../../../arm-none-eabi/lib/armv7-m/libc_nano.a(lib_a-memcmp.o)
 .comment       0x00000070       0x39 /usr/lib/gcc/arm-none-eabi/4.9.3/../../../arm-none-eabi/lib/armv7-m/libc_nano.a(lib_a-memcpy.o)
 .comment       0x00000070       0x39 /usr/lib/gcc/arm-none-eabi/4.9.3/../../../arm-none-eabi/lib/armv7-m/libc_nano.a(lib_a-memset.o)
 .comment       0x00000070       0x39 /usr/lib/gcc/arm-none-eabi/4.9.3/../../../arm-none-eabi/lib/armv7-m/libc_nano.a(lib_a-nano-callocr.o)
 .comment       0x00000070       0x39 /usr/lib/gcc/arm-none-eabi/4.9.3/../../../arm-none-eabi/lib/armv7-m/libc_nano.a(lib_a-strcasecmp.o)
 .comment       0x00000070       0x39 /usr/lib/gcc/arm-none-eabi/4.9.3/../../../arm-none-eabi/lib/armv7-m/libc_nano.a(lib_a-strcat.o)
 .comment       0x00000070       0x39 /usr/lib/gcc/arm-none-eabi/4.9.3/../../../arm-none-eabi/lib/armv7-m/libc_nano.a(lib_a-strchr.o)
 .comment       0x00000070       0x39 /usr/lib/gcc/arm-none-eabi/4.9.3/../../../arm-none-eabi/lib/armv7-m/libc_nano.a(lib_a-strlen.o)
 .comment       0x00000070       0x39 /usr/lib/gcc/arm-none-eabi/4.9.3/../../../arm-none-eabi/lib/armv7-m/libc_nano.a(lib_a-strncasecmp.o)
 .comment       0x00000070       0x39 /usr/lib/gcc/arm-none-eabi/4.9.3/../../../arm-none-eabi/lib/armv7-m/libc_nano.a(lib_a-strncpy.o)
 .comment       0x00000070       0x39 /usr/lib/gcc/arm-none-eabi/4.9.3/../../../arm-none-eabi/lib/armv7-m/libc_nano.a(lib_a-strstr.o)
 .comment       0x00000070       0x39 /usr/lib/gcc/arm-none-eabi/4.9.3/armv7-m/libgcc.a(bpabi.o)
 .comment       0x00000070       0x39 /usr/lib/gcc/arm-none-eabi/4.9.3/armv7-m/libgcc.a(_divdi3.o)
 .comment       0x00000070       0x39 /usr/lib/gcc/arm-none-eabi/4.9.3/armv7-m/libgcc.a(_udivdi3.o)

.debug_frame    0x00000000     0x3380
 .debug_frame   0x00000000       0x44 /tmp/cclQ5C5v.ltrans0.ltrans.o
 .debug_frame   0x00000044       0x40 /tmp/cclQ5C5v.ltrans1.ltrans.o
 .debug_frame   0x00000084       0x40 /tmp/cclQ5C5v.ltrans2.ltrans.o
 .debug_frame   0x000000c4       0x40 /tmp/cclQ5C5v.ltrans3.ltrans.o
 .debug_frame   0x00000104      0x1f8 /tmp/cclQ5C5v.ltrans4.ltrans.o
 .debug_frame   0x000002fc       0x3c /tmp/cclQ5C5v.ltrans5.ltrans.o
 .debug_frame   0x00000338      0x300 /tmp/cclQ5C5v.ltrans6.ltrans.o
 .debug_frame   0x00000638      0x2c0 /tmp/cclQ5C5v.ltrans7.ltrans.o
 .debug_frame   0x000008f8      0x32c /tmp/cclQ5C5v.ltrans8.ltrans.o
 .debug_frame   0x00000c24       0x40 /tmp/cclQ5C5v.ltrans9.ltrans.o
 .debug_frame   0x00000c64      0x14c /tmp/cclQ5C5v.ltrans10.ltrans.o
 .debug_frame   0x00000db0       0xa0 /tmp/cclQ5C5v.ltrans11.ltrans.o
 .debug_frame   0x00000e50      0x250 /tmp/cclQ5C5v.ltrans12.ltrans.o
 .debug_frame   0x000010a0      0x26c /tmp/cclQ5C5v.ltrans13.ltrans.o
 .debug_frame   0x0000130c      0x3d4 /tmp/cclQ5C5v.ltrans14.ltrans.o
 .debug_frame   0x000016e0      0x24c /tmp/cclQ5C5v.ltrans15.ltrans.o
 .debug_frame   0x0000192c      0x1a4 /tmp/cclQ5C5v.ltrans16.ltrans.o
 .debug_frame   0x00001ad0      0x2a8 /tmp/cclQ5C5v.ltrans17.ltrans.o
 .debug_frame   0x00001d78       0xcc /tmp/cclQ5C5v.ltrans18.ltrans.o
 .debug_frame   0x00001e44       0xc0 /tmp/cclQ5C5v.ltrans19.ltrans.o
 .debug_frame   0x00001f04      0x1e0 /tmp/cclQ5C5v.ltrans20.ltrans.o
 .debug_frame   0x000020e4      0x290 /tmp/cclQ5C5v.ltrans21.ltrans.o
 .debug_frame   0x00002374       0x94 /tmp/cclQ5C5v.ltrans22.ltrans.o
 .debug_frame   0x00002408      0x19c /tmp/cclQ5C5v.ltrans23.ltrans.o
 .debug_frame   0x000025a4      0x2f8 /tmp/cclQ5C5v.ltrans24.ltrans.o
 .debug_frame   0x0000289c      0x218 /tmp/cclQ5C5v.ltrans25.ltrans.o
 .debug_frame   0x00002ab4       0xd4 /tmp/cclQ5C5v.ltrans26.ltrans.o
 .debug_frame   0x00002b88       0x50 /tmp/cclQ5C5v.ltrans27.ltrans.o
 .debug_frame   0x00002bd8       0x34 /tmp/cclQ5C5v.ltrans28.ltrans.o
 .debug_frame   0x00002c0c       0x30 /usr/lib/gcc/arm-none-eabi/4.9.3/../../../arm-none-eabi/lib/armv7-m/libc_nano.a(lib_a-atoi.o)
 .debug_frame   0x00002c3c       0x38 /usr/lib/gcc/arm-none-eabi/4.9.3/../../../arm-none-eabi/lib/armv7-m/libc_nano.a(lib_a-strtok.o)
 .debug_frame   0x00002c74       0x40 /usr/lib/gcc/arm-none-eabi/4.9.3/../../../arm-none-eabi/lib/armv7-m/libc_nano.a(lib_a-strtok_r.o)
 .debug_frame   0x00002cb4       0x54 /usr/lib/gcc/arm-none-eabi/4.9.3/../../../arm-none-eabi/lib/armv7-m/libc_nano.a(lib_a-strtol.o)
 .debug_frame   0x00002d08       0x30 /usr/lib/gcc/arm-none-eabi/4.9.3/../../../arm-none-eabi/lib/armv7-m/libc_nano.a(lib_a-malloc.o)
 .debug_frame   0x00002d38       0x2c /usr/lib/gcc/arm-none-eabi/4.9.3/../../../arm-none-eabi/lib/armv7-m/libc_nano.a(lib_a-nano-freer.o)
 .debug_frame   0x00002d64       0x2c /usr/lib/gcc/arm-none-eabi/4.9.3/../../../arm-none-eabi/lib/armv7-m/libc_nano.a(lib_a-nano-mallocr.o)
 .debug_frame   0x00002d90       0x2c /usr/lib/gcc/arm-none-eabi/4.9.3/../../../arm-none-eabi/lib/armv7-m/libc_nano.a(lib_a-sbrkr.o)
 .debug_frame   0x00002dbc       0x5c /usr/lib/gcc/arm-none-eabi/4.9.3/../../../arm-none-eabi/lib/armv7-m/libc_nano.a(lib_a-reent.o)
 .debug_frame   0x00002e18       0x20 /usr/lib/gcc/arm-none-eabi/4.9.3/../../../arm-none-eabi/lib/armv7-m/libnosys.a(sbrk.o)
 .debug_frame   0x00002e38       0x40 /usr/lib/gcc/arm-none-eabi/4.9.3/../../../arm-none-eabi/lib/armv7-m/libm.a(lib_a-sf_lrint.o)
 .debug_frame   0x00002e78       0x40 /usr/lib/gcc/arm-none-eabi/4.9.3/../../../arm-none-eabi/lib/armv7-m/libm.a(lib_a-wf_pow.o)
 .debug_frame   0x00002eb8       0x3c /usr/lib/gcc/arm-none-eabi/4.9.3/../../../arm-none-eabi/lib/armv7-m/libm.a(lib_a-wf_sqrt.o)
 .debug_frame   0x00002ef4       0x64 /usr/lib/gcc/arm-none-eabi/4.9.3/../../../arm-none-eabi/lib/armv7-m/libm.a(lib_a-ef_pow.o)
 .debug_frame   0x00002f58       0x2c /usr/lib/gcc/arm-none-eabi/4.9.3/../../../arm-none-eabi/lib/armv7-m/libm.a(lib_a-ef_sqrt.o)
 .debug_frame   0x00002f84       0x20 /usr/lib/gcc/arm-none-eabi/4.9.3/../../../arm-none-eabi/lib/armv7-m/libm.a(lib_a-s_matherr.o)
 .debug_frame   0x00002fa4       0x3c /usr/lib/gcc/arm-none-eabi/4.9.3/../../../arm-none-eabi/lib/armv7-m/libm.a(lib_a-s_rint.o)
 .debug_frame   0x00002fe0       0x20 /usr/lib/gcc/arm-none-eabi/4.9.3/../../../arm-none-eabi/lib/armv7-m/libm.a(lib_a-sf_fabs.o)
 .debug_frame   0x00003000       0x20 /usr/lib/gcc/arm-none-eabi/4.9.3/../../../arm-none-eabi/lib/armv7-m/libm.a(lib_a-sf_finite.o)
 .debug_frame   0x00003020       0x20 /usr/lib/gcc/arm-none-eabi/4.9.3/../../../arm-none-eabi/lib/armv7-m/libm.a(lib_a-sf_fpclassify.o)
 .debug_frame   0x00003040       0x20 /usr/lib/gcc/arm-none-eabi/4.9.3/../../../arm-none-eabi/lib/armv7-m/libm.a(lib_a-sf_nan.o)
 .debug_frame   0x00003060       0x2c /usr/lib/gcc/arm-none-eabi/4.9.3/../../../arm-none-eabi/lib/armv7-m/libm.a(lib_a-sf_scalbn.o)
 .debug_frame   0x0000308c       0x20 /usr/lib/gcc/arm-none-eabi/4.9.3/../../../arm-none-eabi/lib/armv7-m/libm.a(lib_a-sf_copysign.o)
 .debug_frame   0x000030ac       0x20 /usr/lib/gcc/arm-none-eabi/4.9.3/../../../arm-none-eabi/lib/armv7-m/libc_nano.a(lib_a-calloc.o)
 .debug_frame   0x000030cc       0x20 /usr/lib/gcc/arm-none-eabi/4.9.3/../../../arm-none-eabi/lib/armv7-m/libc_nano.a(lib_a-errno.o)
 .debug_frame   0x000030ec       0x28 /usr/lib/gcc/arm-none-eabi/4.9.3/../../../arm-none-eabi/lib/armv7-m/libc_nano.a(lib_a-memcmp.o)
 .debug_frame   0x00003114       0x28 /usr/lib/gcc/arm-none-eabi/4.9.3/../../../arm-none-eabi/lib/armv7-m/libc_nano.a(lib_a-memcpy.o)
 .debug_frame   0x0000313c       0x20 /usr/lib/gcc/arm-none-eabi/4.9.3/../../../arm-none-eabi/lib/armv7-m/libc_nano.a(lib_a-memset.o)
 .debug_frame   0x0000315c       0x2c /usr/lib/gcc/arm-none-eabi/4.9.3/../../../arm-none-eabi/lib/armv7-m/libc_nano.a(lib_a-nano-callocr.o)
 .debug_frame   0x00003188       0x2c /usr/lib/gcc/arm-none-eabi/4.9.3/../../../arm-none-eabi/lib/armv7-m/libc_nano.a(lib_a-strcasecmp.o)
 .debug_frame   0x000031b4       0x28 /usr/lib/gcc/arm-none-eabi/4.9.3/../../../arm-none-eabi/lib/armv7-m/libc_nano.a(lib_a-strcat.o)
 .debug_frame   0x000031dc       0x20 /usr/lib/gcc/arm-none-eabi/4.9.3/../../../arm-none-eabi/lib/armv7-m/libc_nano.a(lib_a-strchr.o)
 .debug_frame   0x000031fc       0x20 /usr/lib/gcc/arm-none-eabi/4.9.3/../../../arm-none-eabi/lib/armv7-m/libc_nano.a(lib_a-strlen.o)
 .debug_frame   0x0000321c       0x2c /usr/lib/gcc/arm-none-eabi/4.9.3/../../../arm-none-eabi/lib/armv7-m/libc_nano.a(lib_a-strncasecmp.o)
 .debug_frame   0x00003248       0x28 /usr/lib/gcc/arm-none-eabi/4.9.3/../../../arm-none-eabi/lib/armv7-m/libc_nano.a(lib_a-strncpy.o)
 .debug_frame   0x00003270       0x2c /usr/lib/gcc/arm-none-eabi/4.9.3/../../../arm-none-eabi/lib/armv7-m/libc_nano.a(lib_a-strstr.o)
 .debug_frame   0x0000329c       0x28 /usr/lib/gcc/arm-none-eabi/4.9.3/armv7-m/libgcc.a(_aeabi_ldivmod.o)
 .debug_frame   0x000032c4       0x54 /usr/lib/gcc/arm-none-eabi/4.9.3/armv7-m/libgcc.a(bpabi.o)
 .debug_frame   0x00003318       0x34 /usr/lib/gcc/arm-none-eabi/4.9.3/armv7-m/libgcc.a(_divdi3.o)
 .debug_frame   0x0000334c       0x34 /usr/lib/gcc/arm-none-eabi/4.9.3/armv7-m/libgcc.a(_udivdi3.o)

Cross Reference Table

Symbol                                            File
ADC1_2_IRQHandler                                 obj/main/NAZE/startup_stm32f10x_md_gcc.o
ADC_AnalogWatchdogCmd                             obj/main/NAZE/stm32f10x_adc.o (symbol from plugin)
ADC_AnalogWatchdogSingleChannelConfig             obj/main/NAZE/stm32f10x_adc.o (symbol from plugin)
ADC_AnalogWatchdogThresholdsConfig                obj/main/NAZE/stm32f10x_adc.o (symbol from plugin)
ADC_AutoInjectedConvCmd                           obj/main/NAZE/stm32f10x_adc.o (symbol from plugin)
ADC_ClearFlag                                     obj/main/NAZE/stm32f10x_adc.o (symbol from plugin)
ADC_ClearITPendingBit                             obj/main/NAZE/stm32f10x_adc.o (symbol from plugin)
ADC_Cmd                                           obj/main/NAZE/stm32f10x_adc.o (symbol from plugin)
                                                  obj/main/NAZE/drivers/adc_stm32f10x.o (symbol from plugin)
ADC_DMACmd                                        obj/main/NAZE/stm32f10x_adc.o (symbol from plugin)
                                                  obj/main/NAZE/drivers/adc_stm32f10x.o (symbol from plugin)
ADC_DeInit                                        obj/main/NAZE/stm32f10x_adc.o (symbol from plugin)
ADC_DiscModeChannelCountConfig                    obj/main/NAZE/stm32f10x_adc.o (symbol from plugin)
ADC_DiscModeCmd                                   obj/main/NAZE/stm32f10x_adc.o (symbol from plugin)
ADC_ExternalTrigConvCmd                           obj/main/NAZE/stm32f10x_adc.o (symbol from plugin)
ADC_ExternalTrigInjectedConvCmd                   obj/main/NAZE/stm32f10x_adc.o (symbol from plugin)
ADC_ExternalTrigInjectedConvConfig                obj/main/NAZE/stm32f10x_adc.o (symbol from plugin)
ADC_GetCalibrationStatus                          obj/main/NAZE/stm32f10x_adc.o (symbol from plugin)
                                                  obj/main/NAZE/drivers/adc_stm32f10x.o (symbol from plugin)
ADC_GetConversionValue                            obj/main/NAZE/stm32f10x_adc.o (symbol from plugin)
ADC_GetDualModeConversionValue                    obj/main/NAZE/stm32f10x_adc.o (symbol from plugin)
ADC_GetFlagStatus                                 obj/main/NAZE/stm32f10x_adc.o (symbol from plugin)
ADC_GetITStatus                                   obj/main/NAZE/stm32f10x_adc.o (symbol from plugin)
ADC_GetInjectedConversionValue                    obj/main/NAZE/stm32f10x_adc.o (symbol from plugin)
ADC_GetResetCalibrationStatus                     obj/main/NAZE/stm32f10x_adc.o (symbol from plugin)
                                                  obj/main/NAZE/drivers/adc_stm32f10x.o (symbol from plugin)
ADC_GetSoftwareStartConvStatus                    obj/main/NAZE/stm32f10x_adc.o (symbol from plugin)
ADC_GetSoftwareStartInjectedConvCmdStatus         obj/main/NAZE/stm32f10x_adc.o (symbol from plugin)
ADC_ITConfig                                      obj/main/NAZE/stm32f10x_adc.o (symbol from plugin)
ADC_Init                                          obj/main/NAZE/stm32f10x_adc.o (symbol from plugin)
                                                  obj/main/NAZE/drivers/adc_stm32f10x.o (symbol from plugin)
ADC_InjectedChannelConfig                         obj/main/NAZE/stm32f10x_adc.o (symbol from plugin)
ADC_InjectedDiscModeCmd                           obj/main/NAZE/stm32f10x_adc.o (symbol from plugin)
ADC_InjectedSequencerLengthConfig                 obj/main/NAZE/stm32f10x_adc.o (symbol from plugin)
ADC_RegularChannelConfig                          obj/main/NAZE/stm32f10x_adc.o (symbol from plugin)
                                                  obj/main/NAZE/drivers/adc_stm32f10x.o (symbol from plugin)
ADC_ResetCalibration                              obj/main/NAZE/stm32f10x_adc.o (symbol from plugin)
                                                  obj/main/NAZE/drivers/adc_stm32f10x.o (symbol from plugin)
ADC_SetInjectedOffset                             obj/main/NAZE/stm32f10x_adc.o (symbol from plugin)
ADC_SoftwareStartConvCmd                          obj/main/NAZE/stm32f10x_adc.o (symbol from plugin)
                                                  obj/main/NAZE/drivers/adc_stm32f10x.o (symbol from plugin)
ADC_SoftwareStartInjectedConvCmd                  obj/main/NAZE/stm32f10x_adc.o (symbol from plugin)
ADC_StartCalibration                              obj/main/NAZE/stm32f10x_adc.o (symbol from plugin)
                                                  obj/main/NAZE/drivers/adc_stm32f10x.o (symbol from plugin)
ADC_StructInit                                    obj/main/NAZE/stm32f10x_adc.o (symbol from plugin)
                                                  obj/main/NAZE/drivers/adc_stm32f10x.o (symbol from plugin)
ADC_TempSensorVrefintCmd                          obj/main/NAZE/stm32f10x_adc.o (symbol from plugin)
AccInflightCalibrationActive                      /tmp/cclQ5C5v.ltrans3.ltrans.o
                                                  obj/main/NAZE/../controller/mw.o (symbol from plugin)
                                                  /tmp/cclQ5C5v.ltrans28.ltrans.o
                                                  obj/main/NAZE/../controller/sensors/acceleration.o (symbol from plugin)
AccInflightCalibrationArmed                       obj/main/NAZE/../controller/mw.o (symbol from plugin)
AccInflightCalibrationMeasurementDone             /tmp/cclQ5C5v.ltrans3.ltrans.o
                                                  obj/main/NAZE/../controller/mw.o (symbol from plugin)
                                                  /tmp/cclQ5C5v.ltrans28.ltrans.o
                                                  obj/main/NAZE/../controller/sensors/acceleration.o (symbol from plugin)
AccInflightCalibrationSavetoEEProm                /tmp/cclQ5C5v.ltrans3.ltrans.o
                                                  obj/main/NAZE/../controller/mw.o (symbol from plugin)
                                                  /tmp/cclQ5C5v.ltrans28.ltrans.o
                                                  obj/main/NAZE/../controller/sensors/acceleration.o (symbol from plugin)
AltHold                                           /tmp/cclQ5C5v.ltrans22.ltrans.o
                                                  obj/main/NAZE/../controller/flight/altitudehold.o (symbol from plugin)
                                                  /tmp/cclQ5C5v.ltrans3.ltrans.o
                                                  /tmp/cclQ5C5v.ltrans2.ltrans.o
                                                  /tmp/cclQ5C5v.ltrans1.ltrans.o
                                                  obj/main/NAZE/../controller/io/serial_msp.o (symbol from plugin)
BKP_ClearFlag                                     obj/main/NAZE/stm32f10x_bkp.o (symbol from plugin)
BKP_ClearITPendingBit                             obj/main/NAZE/stm32f10x_bkp.o (symbol from plugin)
BKP_DeInit                                        obj/main/NAZE/stm32f10x_bkp.o (symbol from plugin)
BKP_GetFlagStatus                                 obj/main/NAZE/stm32f10x_bkp.o (symbol from plugin)
BKP_GetITStatus                                   obj/main/NAZE/stm32f10x_bkp.o (symbol from plugin)
BKP_ITConfig                                      obj/main/NAZE/stm32f10x_bkp.o (symbol from plugin)
BKP_RTCOutputConfig                               obj/main/NAZE/stm32f10x_bkp.o (symbol from plugin)
BKP_ReadBackupRegister                            obj/main/NAZE/stm32f10x_bkp.o (symbol from plugin)
BKP_SetRTCCalibrationValue                        obj/main/NAZE/stm32f10x_bkp.o (symbol from plugin)
BKP_TamperPinCmd                                  obj/main/NAZE/stm32f10x_bkp.o (symbol from plugin)
BKP_TamperPinLevelConfig                          obj/main/NAZE/stm32f10x_bkp.o (symbol from plugin)
BKP_WriteBackupRegister                           obj/main/NAZE/stm32f10x_bkp.o (symbol from plugin)
BMP085_EOC_EXTI_Handler                           obj/main/NAZE/drivers/barometer_bmp085.o (symbol from plugin)
BaroAlt                                           /tmp/cclQ5C5v.ltrans5.ltrans.o
                                                  obj/main/NAZE/../controller/sensors/barometer.o (symbol from plugin)
                                                  /tmp/cclQ5C5v.ltrans22.ltrans.o
                                                  /tmp/cclQ5C5v.ltrans10.ltrans.o
                                                  obj/main/NAZE/../controller/flight/altitudehold.o (symbol from plugin)
                                                  obj/main/NAZE/../controller/blackbox/blackbox.o (symbol from plugin)
                                                  obj/main/NAZE/../controller/telemetry/smartport.o (symbol from plugin)
                                                  obj/main/NAZE/../controller/telemetry/frsky.o (symbol from plugin)
BiQuadNewLpf                                      /tmp/cclQ5C5v.ltrans6.ltrans.o
                                                  obj/main/NAZE/../controller/common/filter.o (symbol from plugin)
                                                  /tmp/cclQ5C5v.ltrans26.ltrans.o
                                                  /tmp/cclQ5C5v.ltrans1.ltrans.o
                                                  /tmp/cclQ5C5v.ltrans0.ltrans.o
                                                  obj/main/NAZE/../controller/sensors/gyro.o (symbol from plugin)
                                                  obj/main/NAZE/../controller/sensors/battery.o (symbol from plugin)
                                                  obj/main/NAZE/../controller/flight/mixer.o (symbol from plugin)
                                                  obj/main/NAZE/../controller/flight/pid.o (symbol from plugin)
BusFault_Handler                                  obj/main/NAZE/startup_stm32f10x_md_gcc.o
CAN1_RX1_IRQHandler                               obj/main/NAZE/startup_stm32f10x_md_gcc.o
CAN1_SCE_IRQHandler                               obj/main/NAZE/startup_stm32f10x_md_gcc.o
CHAR_FORMAT                                       obj/main/NAZE/drivers/display_ug2864hsweg01.o (symbol from plugin)
DAC_Cmd                                           obj/main/NAZE/stm32f10x_dac.o (symbol from plugin)
DAC_DMACmd                                        obj/main/NAZE/stm32f10x_dac.o (symbol from plugin)
DAC_DeInit                                        obj/main/NAZE/stm32f10x_dac.o (symbol from plugin)
DAC_DualSoftwareTriggerCmd                        obj/main/NAZE/stm32f10x_dac.o (symbol from plugin)
DAC_GetDataOutputValue                            obj/main/NAZE/stm32f10x_dac.o (symbol from plugin)
DAC_Init                                          obj/main/NAZE/stm32f10x_dac.o (symbol from plugin)
DAC_SetChannel1Data                               obj/main/NAZE/stm32f10x_dac.o (symbol from plugin)
DAC_SetChannel2Data                               obj/main/NAZE/stm32f10x_dac.o (symbol from plugin)
DAC_SetDualChannelData                            obj/main/NAZE/stm32f10x_dac.o (symbol from plugin)
DAC_SoftwareTriggerCmd                            obj/main/NAZE/stm32f10x_dac.o (symbol from plugin)
DAC_StructInit                                    obj/main/NAZE/stm32f10x_dac.o (symbol from plugin)
DAC_WaveGenerationCmd                             obj/main/NAZE/stm32f10x_dac.o (symbol from plugin)
DBGMCU_Config                                     obj/main/NAZE/stm32f10x_dbgmcu.o (symbol from plugin)
DBGMCU_GetDEVID                                   obj/main/NAZE/stm32f10x_dbgmcu.o (symbol from plugin)
DBGMCU_GetREVID                                   obj/main/NAZE/stm32f10x_dbgmcu.o (symbol from plugin)
DMA1_Channel1_IRQHandler                          obj/main/NAZE/startup_stm32f10x_md_gcc.o
DMA1_Channel2_IRQHandler                          /tmp/cclQ5C5v.ltrans14.ltrans.o
                                                  obj/main/NAZE/drivers/dma.o (symbol from plugin)
                                                  obj/main/NAZE/startup_stm32f10x_md_gcc.o
DMA1_Channel3_IRQHandler                          /tmp/cclQ5C5v.ltrans14.ltrans.o
                                                  obj/main/NAZE/drivers/dma.o (symbol from plugin)
                                                  obj/main/NAZE/startup_stm32f10x_md_gcc.o
DMA1_Channel4_IRQHandler                          /tmp/cclQ5C5v.ltrans17.ltrans.o
                                                  obj/main/NAZE/drivers/serial_uart_stm32f10x.o (symbol from plugin)
                                                  obj/main/NAZE/startup_stm32f10x_md_gcc.o
DMA1_Channel5_IRQHandler                          obj/main/NAZE/startup_stm32f10x_md_gcc.o
DMA1_Channel6_IRQHandler                          /tmp/cclQ5C5v.ltrans14.ltrans.o
                                                  obj/main/NAZE/drivers/dma.o (symbol from plugin)
                                                  obj/main/NAZE/startup_stm32f10x_md_gcc.o
DMA1_Channel7_IRQHandler                          /tmp/cclQ5C5v.ltrans14.ltrans.o
                                                  obj/main/NAZE/drivers/dma.o (symbol from plugin)
                                                  obj/main/NAZE/startup_stm32f10x_md_gcc.o
DMA_ClearFlag                                     obj/main/NAZE/stm32f10x_dma.o (symbol from plugin)
                                                  obj/main/NAZE/drivers/light_ws2811strip.o (symbol from plugin)
DMA_ClearITPendingBit                             obj/main/NAZE/stm32f10x_dma.o (symbol from plugin)
                                                  obj/main/NAZE/drivers/serial_uart_stm32f10x.o (symbol from plugin)
DMA_Cmd                                           obj/main/NAZE/stm32f10x_dma.o (symbol from plugin)
                                                  obj/main/NAZE/drivers/serial_uart_stm32f10x.o (symbol from plugin)
                                                  obj/main/NAZE/drivers/serial_uart.o (symbol from plugin)
                                                  obj/main/NAZE/drivers/light_ws2811strip_stm32f10x.o (symbol from plugin)
                                                  obj/main/NAZE/drivers/light_ws2811strip.o (symbol from plugin)
                                                  obj/main/NAZE/drivers/adc_stm32f10x.o (symbol from plugin)
DMA_DeInit                                        /tmp/cclQ5C5v.ltrans8.ltrans.o
                                                  obj/main/NAZE/stm32f10x_dma.o (symbol from plugin)
                                                  /tmp/cclQ5C5v.ltrans16.ltrans.o
                                                  /tmp/cclQ5C5v.ltrans0.ltrans.o
                                                  obj/main/NAZE/drivers/serial_uart.o (symbol from plugin)
                                                  obj/main/NAZE/drivers/light_ws2811strip_stm32f10x.o (symbol from plugin)
                                                  obj/main/NAZE/drivers/adc_stm32f10x.o (symbol from plugin)
DMA_GetCurrDataCounter                            obj/main/NAZE/stm32f10x_dma.o (symbol from plugin)
                                                  obj/main/NAZE/drivers/serial_uart.o (symbol from plugin)
DMA_GetFlagStatus                                 obj/main/NAZE/stm32f10x_dma.o (symbol from plugin)
                                                  obj/main/NAZE/drivers/light_ws2811strip.o (symbol from plugin)
DMA_GetITStatus                                   obj/main/NAZE/stm32f10x_dma.o (symbol from plugin)
DMA_ITConfig                                      obj/main/NAZE/stm32f10x_dma.o (symbol from plugin)
                                                  obj/main/NAZE/drivers/serial_uart.o (symbol from plugin)
                                                  obj/main/NAZE/drivers/light_ws2811strip_stm32f10x.o (symbol from plugin)
DMA_Init                                          /tmp/cclQ5C5v.ltrans8.ltrans.o
                                                  obj/main/NAZE/stm32f10x_dma.o (symbol from plugin)
                                                  /tmp/cclQ5C5v.ltrans16.ltrans.o
                                                  /tmp/cclQ5C5v.ltrans0.ltrans.o
                                                  obj/main/NAZE/drivers/serial_uart.o (symbol from plugin)
                                                  obj/main/NAZE/drivers/light_ws2811strip_stm32f10x.o (symbol from plugin)
                                                  obj/main/NAZE/drivers/adc_stm32f10x.o (symbol from plugin)
DMA_SetCurrDataCounter                            obj/main/NAZE/stm32f10x_dma.o (symbol from plugin)
                                                  obj/main/NAZE/drivers/serial_uart.o (symbol from plugin)
                                                  obj/main/NAZE/drivers/light_ws2811strip_stm32f10x.o (symbol from plugin)
DMA_StructInit                                    /tmp/cclQ5C5v.ltrans8.ltrans.o
                                                  obj/main/NAZE/stm32f10x_dma.o (symbol from plugin)
                                                  /tmp/cclQ5C5v.ltrans16.ltrans.o
                                                  /tmp/cclQ5C5v.ltrans0.ltrans.o
                                                  obj/main/NAZE/drivers/serial_uart.o (symbol from plugin)
                                                  obj/main/NAZE/drivers/light_ws2811strip_stm32f10x.o (symbol from plugin)
                                                  obj/main/NAZE/drivers/adc_stm32f10x.o (symbol from plugin)
DebugMon_Handler                                  obj/main/NAZE/startup_stm32f10x_md_gcc.o
Default_Handler                                   obj/main/NAZE/startup_stm32f10x_md_gcc.o
ECHO_EXTI_IRQHandler.lto_priv.598                 /tmp/cclQ5C5v.ltrans15.ltrans.o
                                                  /tmp/cclQ5C5v.ltrans20.ltrans.o
EXTI0_IRQHandler                                  /tmp/cclQ5C5v.ltrans20.ltrans.o
                                                  obj/main/NAZE/drivers/sonar_hcsr04.o (symbol from plugin)
                                                  obj/main/NAZE/startup_stm32f10x_md_gcc.o
EXTI15_10_IRQHandler                              /tmp/cclQ5C5v.ltrans14.ltrans.o
                                                  obj/main/NAZE/drivers/system.o (symbol from plugin)
                                                  obj/main/NAZE/startup_stm32f10x_md_gcc.o
EXTI1_IRQHandler                                  /tmp/cclQ5C5v.ltrans20.ltrans.o
                                                  obj/main/NAZE/drivers/sonar_hcsr04.o (symbol from plugin)
                                                  obj/main/NAZE/startup_stm32f10x_md_gcc.o
EXTI2_IRQHandler                                  obj/main/NAZE/startup_stm32f10x_md_gcc.o
EXTI3_IRQHandler                                  obj/main/NAZE/startup_stm32f10x_md_gcc.o
EXTI4_IRQHandler                                  obj/main/NAZE/startup_stm32f10x_md_gcc.o
EXTI9_5_IRQHandler                                /tmp/cclQ5C5v.ltrans20.ltrans.o
                                                  obj/main/NAZE/drivers/sonar_hcsr04.o (symbol from plugin)
                                                  obj/main/NAZE/startup_stm32f10x_md_gcc.o
EXTI_ClearFlag                                    obj/main/NAZE/stm32f10x_exti.o (symbol from plugin)
EXTI_ClearITPendingBit                            obj/main/NAZE/stm32f10x_exti.o (symbol from plugin)
                                                  obj/main/NAZE/drivers/sonar_hcsr04.o (symbol from plugin)
                                                  obj/main/NAZE/drivers/compass_hmc5883l.o (symbol from plugin)
                                                  obj/main/NAZE/drivers/barometer_bmp085.o (symbol from plugin)
                                                  obj/main/NAZE/drivers/accgyro_mpu.o (symbol from plugin)
EXTI_DeInit                                       obj/main/NAZE/stm32f10x_exti.o (symbol from plugin)
EXTI_GenerateSWInterrupt                          obj/main/NAZE/stm32f10x_exti.o (symbol from plugin)
EXTI_GetFlagStatus                                obj/main/NAZE/stm32f10x_exti.o (symbol from plugin)
EXTI_GetITStatus                                  obj/main/NAZE/stm32f10x_exti.o (symbol from plugin)
                                                  obj/main/NAZE/drivers/compass_hmc5883l.o (symbol from plugin)
                                                  obj/main/NAZE/drivers/barometer_bmp085.o (symbol from plugin)
                                                  obj/main/NAZE/drivers/accgyro_mpu.o (symbol from plugin)
EXTI_Init                                         obj/main/NAZE/stm32f10x_exti.o (symbol from plugin)
                                                  obj/main/NAZE/drivers/sonar_hcsr04.o (symbol from plugin)
                                                  obj/main/NAZE/drivers/compass_hmc5883l.o (symbol from plugin)
                                                  obj/main/NAZE/drivers/barometer_bmp085.o (symbol from plugin)
                                                  obj/main/NAZE/drivers/accgyro_mpu.o (symbol from plugin)
EXTI_Init.part.0.constprop.212                    /tmp/cclQ5C5v.ltrans21.ltrans.o
                                                  /tmp/cclQ5C5v.ltrans4.ltrans.o
                                                  /tmp/cclQ5C5v.ltrans0.ltrans.o
EXTI_StructInit                                   obj/main/NAZE/stm32f10x_exti.o (symbol from plugin)
                                                  obj/main/NAZE/drivers/barometer_bmp085.o (symbol from plugin)
EstAlt.lto_priv.308                               /tmp/cclQ5C5v.ltrans5.ltrans.o
                                                  /tmp/cclQ5C5v.ltrans22.ltrans.o
                                                  /tmp/cclQ5C5v.ltrans3.ltrans.o
                                                  /tmp/cclQ5C5v.ltrans2.ltrans.o
                                                  /tmp/cclQ5C5v.ltrans1.ltrans.o
FLASH_ClearFlag                                   obj/main/NAZE/stm32f10x_flash.o (symbol from plugin)
                                                  obj/main/NAZE/../controller/config/config.o (symbol from plugin)
FLASH_EnableWriteProtection                       obj/main/NAZE/stm32f10x_flash.o (symbol from plugin)
FLASH_EraseAllBank1Pages                          obj/main/NAZE/stm32f10x_flash.o (symbol from plugin)
FLASH_EraseAllPages                               obj/main/NAZE/stm32f10x_flash.o (symbol from plugin)
FLASH_EraseOptionBytes                            obj/main/NAZE/stm32f10x_flash.o (symbol from plugin)
FLASH_ErasePage                                   obj/main/NAZE/stm32f10x_flash.o (symbol from plugin)
                                                  obj/main/NAZE/../controller/config/config.o (symbol from plugin)
FLASH_GetBank1Status                              obj/main/NAZE/stm32f10x_flash.o (symbol from plugin)
FLASH_GetFlagStatus                               obj/main/NAZE/stm32f10x_flash.o (symbol from plugin)
FLASH_GetPrefetchBufferStatus                     obj/main/NAZE/stm32f10x_flash.o (symbol from plugin)
FLASH_GetReadOutProtectionStatus                  obj/main/NAZE/stm32f10x_flash.o (symbol from plugin)
FLASH_GetStatus                                   obj/main/NAZE/stm32f10x_flash.o (symbol from plugin)
FLASH_GetUserOptionByte                           obj/main/NAZE/stm32f10x_flash.o (symbol from plugin)
FLASH_GetWriteProtectionOptionByte                obj/main/NAZE/stm32f10x_flash.o (symbol from plugin)
FLASH_HalfCycleAccessCmd                          obj/main/NAZE/stm32f10x_flash.o (symbol from plugin)
FLASH_IRQHandler                                  obj/main/NAZE/startup_stm32f10x_md_gcc.o
FLASH_ITConfig                                    obj/main/NAZE/stm32f10x_flash.o (symbol from plugin)
FLASH_Lock                                        obj/main/NAZE/stm32f10x_flash.o (symbol from plugin)
                                                  obj/main/NAZE/../controller/config/config.o (symbol from plugin)
FLASH_LockBank1                                   obj/main/NAZE/stm32f10x_flash.o (symbol from plugin)
FLASH_PrefetchBufferCmd                           obj/main/NAZE/stm32f10x_flash.o (symbol from plugin)
FLASH_ProgramHalfWord                             obj/main/NAZE/stm32f10x_flash.o (symbol from plugin)
FLASH_ProgramOptionByteData                       obj/main/NAZE/stm32f10x_flash.o (symbol from plugin)
FLASH_ProgramWord                                 obj/main/NAZE/stm32f10x_flash.o (symbol from plugin)
                                                  obj/main/NAZE/../controller/config/config.o (symbol from plugin)
FLASH_ReadOutProtection                           obj/main/NAZE/stm32f10x_flash.o (symbol from plugin)
FLASH_SetLatency                                  obj/main/NAZE/stm32f10x_flash.o (symbol from plugin)
FLASH_Unlock                                      obj/main/NAZE/stm32f10x_flash.o (symbol from plugin)
                                                  obj/main/NAZE/../controller/config/config.o (symbol from plugin)
FLASH_UnlockBank1                                 obj/main/NAZE/stm32f10x_flash.o (symbol from plugin)
FLASH_UserOptionByteConfig                        obj/main/NAZE/stm32f10x_flash.o (symbol from plugin)
FLASH_WaitForLastBank1Operation                   obj/main/NAZE/stm32f10x_flash.o (symbol from plugin)
FLASH_WaitForLastOperation                        /tmp/cclQ5C5v.ltrans8.ltrans.o
                                                  obj/main/NAZE/stm32f10x_flash.o (symbol from plugin)
                                                  /tmp/cclQ5C5v.ltrans6.ltrans.o
FSMC_ClearFlag                                    obj/main/NAZE/stm32f10x_fsmc.o (symbol from plugin)
FSMC_ClearITPendingBit                            obj/main/NAZE/stm32f10x_fsmc.o (symbol from plugin)
FSMC_GetECC                                       obj/main/NAZE/stm32f10x_fsmc.o (symbol from plugin)
FSMC_GetFlagStatus                                obj/main/NAZE/stm32f10x_fsmc.o (symbol from plugin)
FSMC_GetITStatus                                  obj/main/NAZE/stm32f10x_fsmc.o (symbol from plugin)
FSMC_ITConfig                                     obj/main/NAZE/stm32f10x_fsmc.o (symbol from plugin)
FSMC_NANDCmd                                      obj/main/NAZE/stm32f10x_fsmc.o (symbol from plugin)
FSMC_NANDDeInit                                   obj/main/NAZE/stm32f10x_fsmc.o (symbol from plugin)
FSMC_NANDECCCmd                                   obj/main/NAZE/stm32f10x_fsmc.o (symbol from plugin)
FSMC_NANDInit                                     obj/main/NAZE/stm32f10x_fsmc.o (symbol from plugin)
FSMC_NANDStructInit                               obj/main/NAZE/stm32f10x_fsmc.o (symbol from plugin)
FSMC_NORSRAMCmd                                   obj/main/NAZE/stm32f10x_fsmc.o (symbol from plugin)
FSMC_NORSRAMDeInit                                obj/main/NAZE/stm32f10x_fsmc.o (symbol from plugin)
FSMC_NORSRAMInit                                  obj/main/NAZE/stm32f10x_fsmc.o (symbol from plugin)
FSMC_NORSRAMStructInit                            obj/main/NAZE/stm32f10x_fsmc.o (symbol from plugin)
FSMC_PCCARDCmd                                    obj/main/NAZE/stm32f10x_fsmc.o (symbol from plugin)
FSMC_PCCARDDeInit                                 obj/main/NAZE/stm32f10x_fsmc.o (symbol from plugin)
FSMC_PCCARDInit                                   obj/main/NAZE/stm32f10x_fsmc.o (symbol from plugin)
FSMC_PCCARDStructInit                             obj/main/NAZE/stm32f10x_fsmc.o (symbol from plugin)
GPIO_AFIODeInit                                   obj/main/NAZE/stm32f10x_gpio.o (symbol from plugin)
GPIO_DeInit                                       obj/main/NAZE/stm32f10x_gpio.o (symbol from plugin)
GPIO_ETH_MediaInterfaceConfig                     obj/main/NAZE/stm32f10x_gpio.o (symbol from plugin)
GPIO_EXTILineConfig                               obj/main/NAZE/stm32f10x_gpio.o (symbol from plugin)
GPIO_EventOutputCmd                               obj/main/NAZE/stm32f10x_gpio.o (symbol from plugin)
GPIO_EventOutputConfig                            obj/main/NAZE/stm32f10x_gpio.o (symbol from plugin)
GPIO_Init                                         /tmp/cclQ5C5v.ltrans13.ltrans.o
                                                  obj/main/NAZE/stm32f10x_gpio.o (symbol from plugin)
                                                  /tmp/cclQ5C5v.ltrans0.ltrans.o
                                                  obj/main/NAZE/drivers/light_ws2811strip_stm32f10x.o (symbol from plugin)
                                                  obj/main/NAZE/drivers/adc_stm32f10x.o (symbol from plugin)
GPIO_PinLockConfig                                obj/main/NAZE/stm32f10x_gpio.o (symbol from plugin)
GPIO_PinRemapConfig                               obj/main/NAZE/stm32f10x_gpio.o (symbol from plugin)
GPIO_ReadInputData                                obj/main/NAZE/stm32f10x_gpio.o (symbol from plugin)
GPIO_ReadInputDataBit                             obj/main/NAZE/stm32f10x_gpio.o (symbol from plugin)
                                                  obj/main/NAZE/drivers/barometer_bmp085.o (symbol from plugin)
GPIO_ReadOutputData                               obj/main/NAZE/stm32f10x_gpio.o (symbol from plugin)
GPIO_ReadOutputDataBit                            obj/main/NAZE/stm32f10x_gpio.o (symbol from plugin)
GPIO_ResetBits                                    obj/main/NAZE/stm32f10x_gpio.o (symbol from plugin)
                                                  obj/main/NAZE/../controller/io/serial_1wire.o (symbol from plugin)
                                                  obj/main/NAZE/hardware_revision.o (symbol from plugin)
                                                  obj/main/NAZE/drivers/flash_m25p16.o (symbol from plugin)
                                                  obj/main/NAZE/drivers/accgyro_spi_mpu6500.o (symbol from plugin)
GPIO_SetBits                                      obj/main/NAZE/stm32f10x_gpio.o (symbol from plugin)
                                                  obj/main/NAZE/hardware_revision.o (symbol from plugin)
                                                  obj/main/NAZE/drivers/flash_m25p16.o (symbol from plugin)
                                                  obj/main/NAZE/drivers/bus_spi.o (symbol from plugin)
                                                  obj/main/NAZE/drivers/accgyro_spi_mpu6500.o (symbol from plugin)
GPIO_StructInit                                   obj/main/NAZE/stm32f10x_gpio.o (symbol from plugin)
                                                  obj/main/NAZE/drivers/light_ws2811strip_stm32f10x.o (symbol from plugin)
                                                  obj/main/NAZE/drivers/adc_stm32f10x.o (symbol from plugin)
GPIO_Write                                        obj/main/NAZE/stm32f10x_gpio.o (symbol from plugin)
GPIO_WriteBit                                     obj/main/NAZE/stm32f10x_gpio.o (symbol from plugin)
GPS_WP.lto_priv.573                               /tmp/cclQ5C5v.ltrans11.ltrans.o
                                                  /tmp/cclQ5C5v.ltrans17.ltrans.o
GPS_altitude                                      /tmp/cclQ5C5v.ltrans5.ltrans.o
                                                  obj/main/NAZE/../controller/io/gps.o (symbol from plugin)
                                                  /tmp/cclQ5C5v.ltrans11.ltrans.o
                                                  /tmp/cclQ5C5v.ltrans10.ltrans.o
                                                  /tmp/cclQ5C5v.ltrans2.ltrans.o
                                                  obj/main/NAZE/../controller/io/serial_msp.o (symbol from plugin)
                                                  obj/main/NAZE/../controller/blackbox/blackbox.o (symbol from plugin)
                                                  obj/main/NAZE/../controller/telemetry/ltm.o (symbol from plugin)
                                                  obj/main/NAZE/../controller/telemetry/smartport.o (symbol from plugin)
                                                  obj/main/NAZE/../controller/telemetry/hott.o (symbol from plugin)
                                                  obj/main/NAZE/../controller/telemetry/frsky.o (symbol from plugin)
GPS_angle                                         /tmp/cclQ5C5v.ltrans14.ltrans.o
                                                  obj/main/NAZE/../controller/flight/navigation.o (symbol from plugin)
                                                  /tmp/cclQ5C5v.ltrans26.ltrans.o
                                                  /tmp/cclQ5C5v.ltrans3.ltrans.o
                                                  /tmp/cclQ5C5v.ltrans1.ltrans.o
                                                  obj/main/NAZE/../controller/flight/pid.o (symbol from plugin)
GPS_calculateDistanceAndDirectionToHome           obj/main/NAZE/../controller/flight/navigation.o (symbol from plugin)
GPS_coord                                         /tmp/cclQ5C5v.ltrans5.ltrans.o
                                                  obj/main/NAZE/../controller/io/gps.o (symbol from plugin)
                                                  /tmp/cclQ5C5v.ltrans19.ltrans.o
                                                  /tmp/cclQ5C5v.ltrans17.ltrans.o
                                                  /tmp/cclQ5C5v.ltrans11.ltrans.o
                                                  /tmp/cclQ5C5v.ltrans10.ltrans.o
                                                  /tmp/cclQ5C5v.ltrans3.ltrans.o
                                                  /tmp/cclQ5C5v.ltrans2.ltrans.o
                                                  obj/main/NAZE/../controller/io/serial_msp.o (symbol from plugin)
                                                  obj/main/NAZE/../controller/blackbox/blackbox.o (symbol from plugin)
                                                  obj/main/NAZE/../controller/telemetry/ltm.o (symbol from plugin)
                                                  obj/main/NAZE/../controller/telemetry/smartport.o (symbol from plugin)
                                                  obj/main/NAZE/../controller/telemetry/hott.o (symbol from plugin)
                                                  obj/main/NAZE/../controller/telemetry/frsky.o (symbol from plugin)
                                                  obj/main/NAZE/../controller/io/display.o (symbol from plugin)
                                                  obj/main/NAZE/../controller/flight/navigation.o (symbol from plugin)
GPS_coord_to_degrees                              obj/main/NAZE/../controller/flight/gps_conversion.o (symbol from plugin)
                                                  obj/main/NAZE/../controller/io/gps.o (symbol from plugin)
GPS_coord_to_degrees.constprop.113                /tmp/cclQ5C5v.ltrans21.ltrans.o
                                                  /tmp/cclQ5C5v.ltrans11.ltrans.o
GPS_directionToHome                               /tmp/cclQ5C5v.ltrans5.ltrans.o
                                                  obj/main/NAZE/../controller/flight/navigation.o (symbol from plugin)
                                                  /tmp/cclQ5C5v.ltrans11.ltrans.o
                                                  /tmp/cclQ5C5v.ltrans2.ltrans.o
                                                  obj/main/NAZE/../controller/io/serial_msp.o (symbol from plugin)
                                                  obj/main/NAZE/../controller/telemetry/hott.o (symbol from plugin)
GPS_distanceToHome                                /tmp/cclQ5C5v.ltrans5.ltrans.o
                                                  obj/main/NAZE/../controller/flight/navigation.o (symbol from plugin)
                                                  /tmp/cclQ5C5v.ltrans11.ltrans.o
                                                  /tmp/cclQ5C5v.ltrans2.ltrans.o
                                                  obj/main/NAZE/../controller/io/serial_msp.o (symbol from plugin)
                                                  obj/main/NAZE/../controller/telemetry/hott.o (symbol from plugin)
GPS_distance_cm_bearing.isra.3.lto_priv.587       /tmp/cclQ5C5v.ltrans11.ltrans.o
                                                  /tmp/cclQ5C5v.ltrans17.ltrans.o
GPS_garbageByteCount                              /tmp/cclQ5C5v.ltrans19.ltrans.o
                                                  obj/main/NAZE/../controller/io/gps.o (symbol from plugin)
                                                  /tmp/cclQ5C5v.ltrans11.ltrans.o
                                                  obj/main/NAZE/../controller/io/display.o (symbol from plugin)
GPS_ground_course                                 /tmp/cclQ5C5v.ltrans2.ltrans.o
                                                  obj/main/NAZE/../controller/io/gps.o (symbol from plugin)
                                                  /tmp/cclQ5C5v.ltrans19.ltrans.o
                                                  /tmp/cclQ5C5v.ltrans11.ltrans.o
                                                  /tmp/cclQ5C5v.ltrans10.ltrans.o
                                                  /tmp/cclQ5C5v.ltrans1.ltrans.o
                                                  obj/main/NAZE/../controller/io/serial_msp.o (symbol from plugin)
                                                  obj/main/NAZE/../controller/flight/imu.o (symbol from plugin)
                                                  obj/main/NAZE/../controller/blackbox/blackbox.o (symbol from plugin)
                                                  obj/main/NAZE/../controller/io/display.o (symbol from plugin)
GPS_hdop                                          /tmp/cclQ5C5v.ltrans5.ltrans.o
                                                  obj/main/NAZE/../controller/io/gps.o (symbol from plugin)
                                                  /tmp/cclQ5C5v.ltrans11.ltrans.o
                                                  obj/main/NAZE/../controller/telemetry/frsky.o (symbol from plugin)
GPS_hold                                          /tmp/cclQ5C5v.ltrans3.ltrans.o
                                                  obj/main/NAZE/../controller/flight/navigation.o (symbol from plugin)
                                                  /tmp/cclQ5C5v.ltrans2.ltrans.o
                                                  obj/main/NAZE/../controller/io/serial_msp.o (symbol from plugin)
GPS_home                                          /tmp/cclQ5C5v.ltrans5.ltrans.o
                                                  obj/main/NAZE/../controller/flight/navigation.o (symbol from plugin)
                                                  /tmp/cclQ5C5v.ltrans17.ltrans.o
                                                  /tmp/cclQ5C5v.ltrans11.ltrans.o
                                                  /tmp/cclQ5C5v.ltrans10.ltrans.o
                                                  /tmp/cclQ5C5v.ltrans3.ltrans.o
                                                  /tmp/cclQ5C5v.ltrans2.ltrans.o
                                                  obj/main/NAZE/../controller/io/serial_msp.o (symbol from plugin)
                                                  obj/main/NAZE/../controller/blackbox/blackbox.o (symbol from plugin)
                                                  obj/main/NAZE/../controller/telemetry/ltm.o (symbol from plugin)
GPS_numCh                                         /tmp/cclQ5C5v.ltrans2.ltrans.o
                                                  obj/main/NAZE/../controller/io/gps.o (symbol from plugin)
                                                  /tmp/cclQ5C5v.ltrans11.ltrans.o
                                                  obj/main/NAZE/../controller/io/serial_msp.o (symbol from plugin)
GPS_numSat                                        /tmp/cclQ5C5v.ltrans5.ltrans.o
                                                  obj/main/NAZE/../controller/io/gps.o (symbol from plugin)
                                                  /tmp/cclQ5C5v.ltrans27.ltrans.o
                                                  /tmp/cclQ5C5v.ltrans22.ltrans.o
                                                  /tmp/cclQ5C5v.ltrans19.ltrans.o
                                                  /tmp/cclQ5C5v.ltrans18.ltrans.o
                                                  /tmp/cclQ5C5v.ltrans17.ltrans.o
                                                  /tmp/cclQ5C5v.ltrans11.ltrans.o
                                                  /tmp/cclQ5C5v.ltrans10.ltrans.o
                                                  /tmp/cclQ5C5v.ltrans3.ltrans.o
                                                  /tmp/cclQ5C5v.ltrans2.ltrans.o
                                                  /tmp/cclQ5C5v.ltrans1.ltrans.o
                                                  obj/main/NAZE/../controller/io/serial_msp.o (symbol from plugin)
                                                  obj/main/NAZE/../controller/io/beeper.o (symbol from plugin)
                                                  obj/main/NAZE/../controller/flight/imu.o (symbol from plugin)
                                                  obj/main/NAZE/../controller/mw.o (symbol from plugin)
                                                  obj/main/NAZE/../controller/blackbox/blackbox.o (symbol from plugin)
                                                  obj/main/NAZE/../controller/telemetry/ltm.o (symbol from plugin)
                                                  obj/main/NAZE/../controller/telemetry/smartport.o (symbol from plugin)
                                                  obj/main/NAZE/../controller/telemetry/hott.o (symbol from plugin)
                                                  obj/main/NAZE/../controller/telemetry/frsky.o (symbol from plugin)
                                                  obj/main/NAZE/../controller/io/display.o (symbol from plugin)
                                                  obj/main/NAZE/../controller/flight/navigation.o (symbol from plugin)
GPS_packetCount                                   /tmp/cclQ5C5v.ltrans19.ltrans.o
                                                  obj/main/NAZE/../controller/io/gps.o (symbol from plugin)
                                                  /tmp/cclQ5C5v.ltrans11.ltrans.o
                                                  obj/main/NAZE/../controller/io/display.o (symbol from plugin)
GPS_reset_home_position                           /tmp/cclQ5C5v.ltrans17.ltrans.o
                                                  obj/main/NAZE/../controller/flight/navigation.o (symbol from plugin)
                                                  /tmp/cclQ5C5v.ltrans11.ltrans.o
                                                  /tmp/cclQ5C5v.ltrans3.ltrans.o
                                                  obj/main/NAZE/../controller/io/rc_controls.o (symbol from plugin)
GPS_reset_nav                                     obj/main/NAZE/../controller/flight/navigation.o (symbol from plugin)
GPS_scaleLonDown.lto_priv.579                     /tmp/cclQ5C5v.ltrans11.ltrans.o
                                                  /tmp/cclQ5C5v.ltrans17.ltrans.o
GPS_set_next_wp                                   /tmp/cclQ5C5v.ltrans17.ltrans.o
                                                  obj/main/NAZE/../controller/flight/navigation.o (symbol from plugin)
                                                  /tmp/cclQ5C5v.ltrans3.ltrans.o
                                                  /tmp/cclQ5C5v.ltrans2.ltrans.o
                                                  obj/main/NAZE/../controller/io/serial_msp.o (symbol from plugin)
GPS_speed                                         /tmp/cclQ5C5v.ltrans5.ltrans.o
                                                  obj/main/NAZE/../controller/io/gps.o (symbol from plugin)
                                                  /tmp/cclQ5C5v.ltrans19.ltrans.o
                                                  /tmp/cclQ5C5v.ltrans11.ltrans.o
                                                  /tmp/cclQ5C5v.ltrans10.ltrans.o
                                                  /tmp/cclQ5C5v.ltrans2.ltrans.o
                                                  /tmp/cclQ5C5v.ltrans1.ltrans.o
                                                  obj/main/NAZE/../controller/io/serial_msp.o (symbol from plugin)
                                                  obj/main/NAZE/../controller/flight/imu.o (symbol from plugin)
                                                  obj/main/NAZE/../controller/blackbox/blackbox.o (symbol from plugin)
                                                  obj/main/NAZE/../controller/telemetry/ltm.o (symbol from plugin)
                                                  obj/main/NAZE/../controller/telemetry/smartport.o (symbol from plugin)
                                                  obj/main/NAZE/../controller/telemetry/hott.o (symbol from plugin)
                                                  obj/main/NAZE/../controller/telemetry/frsky.o (symbol from plugin)
                                                  obj/main/NAZE/../controller/io/display.o (symbol from plugin)
GPS_svInfoReceivedCount                           /tmp/cclQ5C5v.ltrans19.ltrans.o
                                                  obj/main/NAZE/../controller/io/gps.o (symbol from plugin)
                                                  /tmp/cclQ5C5v.ltrans11.ltrans.o
                                                  obj/main/NAZE/../controller/io/display.o (symbol from plugin)
GPS_svinfo_chn                                    /tmp/cclQ5C5v.ltrans2.ltrans.o
                                                  obj/main/NAZE/../controller/io/gps.o (symbol from plugin)
                                                  /tmp/cclQ5C5v.ltrans11.ltrans.o
                                                  obj/main/NAZE/../controller/io/serial_msp.o (symbol from plugin)
GPS_svinfo_cno                                    /tmp/cclQ5C5v.ltrans2.ltrans.o
                                                  obj/main/NAZE/../controller/io/gps.o (symbol from plugin)
                                                  /tmp/cclQ5C5v.ltrans19.ltrans.o
                                                  /tmp/cclQ5C5v.ltrans11.ltrans.o
                                                  obj/main/NAZE/../controller/io/serial_msp.o (symbol from plugin)
                                                  obj/main/NAZE/../controller/io/display.o (symbol from plugin)
GPS_svinfo_quality                                /tmp/cclQ5C5v.ltrans2.ltrans.o
                                                  obj/main/NAZE/../controller/io/gps.o (symbol from plugin)
                                                  /tmp/cclQ5C5v.ltrans11.ltrans.o
                                                  obj/main/NAZE/../controller/io/serial_msp.o (symbol from plugin)
GPS_svinfo_svid                                   /tmp/cclQ5C5v.ltrans2.ltrans.o
                                                  obj/main/NAZE/../controller/io/gps.o (symbol from plugin)
                                                  /tmp/cclQ5C5v.ltrans11.ltrans.o
                                                  obj/main/NAZE/../controller/io/serial_msp.o (symbol from plugin)
GPS_update                                        /tmp/cclQ5C5v.ltrans2.ltrans.o
                                                  obj/main/NAZE/../controller/io/gps.o (symbol from plugin)
                                                  /tmp/cclQ5C5v.ltrans11.ltrans.o
                                                  obj/main/NAZE/../controller/io/serial_msp.o (symbol from plugin)
HardFault_Handler                                 /tmp/cclQ5C5v.ltrans18.ltrans.o
                                                  obj/main/NAZE/main.o (symbol from plugin)
                                                  obj/main/NAZE/startup_stm32f10x_md_gcc.o
I2C1_ER_IRQHandler                                /tmp/cclQ5C5v.ltrans4.ltrans.o
                                                  obj/main/NAZE/drivers/bus_i2c_stm32f10x.o (symbol from plugin)
                                                  obj/main/NAZE/startup_stm32f10x_md_gcc.o
I2C1_EV_IRQHandler                                /tmp/cclQ5C5v.ltrans4.ltrans.o
                                                  obj/main/NAZE/drivers/bus_i2c_stm32f10x.o (symbol from plugin)
                                                  obj/main/NAZE/startup_stm32f10x_md_gcc.o
I2C2_ER_IRQHandler                                /tmp/cclQ5C5v.ltrans4.ltrans.o
                                                  obj/main/NAZE/drivers/bus_i2c_stm32f10x.o (symbol from plugin)
                                                  obj/main/NAZE/startup_stm32f10x_md_gcc.o
I2C2_EV_IRQHandler                                /tmp/cclQ5C5v.ltrans4.ltrans.o
                                                  obj/main/NAZE/drivers/bus_i2c_stm32f10x.o (symbol from plugin)
                                                  obj/main/NAZE/startup_stm32f10x_md_gcc.o
I2C_ARPCmd                                        obj/main/NAZE/stm32f10x_i2c.o (symbol from plugin)
I2C_AcknowledgeConfig                             obj/main/NAZE/stm32f10x_i2c.o (symbol from plugin)
                                                  obj/main/NAZE/drivers/bus_i2c_stm32f10x.o (symbol from plugin)
I2C_CalculatePEC                                  obj/main/NAZE/stm32f10x_i2c.o (symbol from plugin)
I2C_CheckEvent                                    obj/main/NAZE/stm32f10x_i2c.o (symbol from plugin)
I2C_ClearFlag                                     obj/main/NAZE/stm32f10x_i2c.o (symbol from plugin)
I2C_ClearITPendingBit                             obj/main/NAZE/stm32f10x_i2c.o (symbol from plugin)
I2C_Cmd                                           obj/main/NAZE/stm32f10x_i2c.o (symbol from plugin)
                                                  obj/main/NAZE/drivers/bus_i2c_stm32f10x.o (symbol from plugin)
I2C_DMACmd                                        obj/main/NAZE/stm32f10x_i2c.o (symbol from plugin)
I2C_DMALastTransferCmd                            obj/main/NAZE/stm32f10x_i2c.o (symbol from plugin)
I2C_DeInit                                        obj/main/NAZE/stm32f10x_i2c.o (symbol from plugin)
                                                  obj/main/NAZE/drivers/bus_i2c_stm32f10x.o (symbol from plugin)
I2C_DualAddressCmd                                obj/main/NAZE/stm32f10x_i2c.o (symbol from plugin)
I2C_FastModeDutyCycleConfig                       obj/main/NAZE/stm32f10x_i2c.o (symbol from plugin)
I2C_GeneralCallCmd                                obj/main/NAZE/stm32f10x_i2c.o (symbol from plugin)
I2C_GenerateSTART                                 obj/main/NAZE/stm32f10x_i2c.o (symbol from plugin)
                                                  obj/main/NAZE/drivers/bus_i2c_stm32f10x.o (symbol from plugin)
I2C_GenerateSTOP                                  obj/main/NAZE/stm32f10x_i2c.o (symbol from plugin)
                                                  obj/main/NAZE/drivers/bus_i2c_stm32f10x.o (symbol from plugin)
I2C_GetFlagStatus                                 obj/main/NAZE/stm32f10x_i2c.o (symbol from plugin)
I2C_GetITStatus                                   obj/main/NAZE/stm32f10x_i2c.o (symbol from plugin)
I2C_GetLastEvent                                  obj/main/NAZE/stm32f10x_i2c.o (symbol from plugin)
I2C_GetPEC                                        obj/main/NAZE/stm32f10x_i2c.o (symbol from plugin)
I2C_ITConfig                                      obj/main/NAZE/stm32f10x_i2c.o (symbol from plugin)
                                                  obj/main/NAZE/drivers/bus_i2c_stm32f10x.o (symbol from plugin)
I2C_Init                                          obj/main/NAZE/stm32f10x_i2c.o (symbol from plugin)
                                                  obj/main/NAZE/drivers/bus_i2c_stm32f10x.o (symbol from plugin)
I2C_NACKPositionConfig                            obj/main/NAZE/stm32f10x_i2c.o (symbol from plugin)
I2C_OwnAddress2Config                             obj/main/NAZE/stm32f10x_i2c.o (symbol from plugin)
I2C_PECPositionConfig                             obj/main/NAZE/stm32f10x_i2c.o (symbol from plugin)
I2C_ReadRegister                                  obj/main/NAZE/stm32f10x_i2c.o (symbol from plugin)
I2C_ReceiveData                                   obj/main/NAZE/stm32f10x_i2c.o (symbol from plugin)
I2C_SMBusAlertConfig                              obj/main/NAZE/stm32f10x_i2c.o (symbol from plugin)
I2C_Send7bitAddress                               obj/main/NAZE/stm32f10x_i2c.o (symbol from plugin)
                                                  obj/main/NAZE/drivers/bus_i2c_stm32f10x.o (symbol from plugin)
I2C_SendData                                      obj/main/NAZE/stm32f10x_i2c.o (symbol from plugin)
I2C_SoftwareResetCmd                              obj/main/NAZE/stm32f10x_i2c.o (symbol from plugin)
I2C_StretchClockCmd                               obj/main/NAZE/stm32f10x_i2c.o (symbol from plugin)
I2C_StructInit                                    obj/main/NAZE/stm32f10x_i2c.o (symbol from plugin)
                                                  obj/main/NAZE/drivers/bus_i2c_stm32f10x.o (symbol from plugin)
I2C_TransmitPEC                                   obj/main/NAZE/stm32f10x_i2c.o (symbol from plugin)
I2Cx.lto_priv.601                                 /tmp/cclQ5C5v.ltrans15.ltrans.o
                                                  /tmp/cclQ5C5v.ltrans4.ltrans.o
I2Cx_index.lto_priv.602                           /tmp/cclQ5C5v.ltrans15.ltrans.o
                                                  /tmp/cclQ5C5v.ltrans4.ltrans.o
I2S_Cmd                                           obj/main/NAZE/stm32f10x_spi.o (symbol from plugin)
I2S_Init                                          obj/main/NAZE/stm32f10x_spi.o (symbol from plugin)
I2S_StructInit                                    obj/main/NAZE/stm32f10x_spi.o (symbol from plugin)
IWDG_Enable                                       obj/main/NAZE/stm32f10x_iwdg.o (symbol from plugin)
IWDG_GetFlagStatus                                obj/main/NAZE/stm32f10x_iwdg.o (symbol from plugin)
IWDG_ReloadCounter                                obj/main/NAZE/stm32f10x_iwdg.o (symbol from plugin)
IWDG_SetPrescaler                                 obj/main/NAZE/stm32f10x_iwdg.o (symbol from plugin)
IWDG_SetReload                                    obj/main/NAZE/stm32f10x_iwdg.o (symbol from plugin)
IWDG_WriteAccessCmd                               obj/main/NAZE/stm32f10x_iwdg.o (symbol from plugin)
InflightcalibratingA                              /tmp/cclQ5C5v.ltrans3.ltrans.o
                                                  obj/main/NAZE/../controller/mw.o (symbol from plugin)
                                                  /tmp/cclQ5C5v.ltrans28.ltrans.o
                                                  obj/main/NAZE/../controller/sensors/acceleration.o (symbol from plugin)
LCDprint                                          obj/main/NAZE/../controller/io/display.o (symbol from plugin)
MAG_DATA_READY_EXTI_Handler                       obj/main/NAZE/drivers/compass_hmc5883l.o (symbol from plugin)
MPU_DATA_READY_EXTI_Handler                       obj/main/NAZE/drivers/accgyro_mpu.o (symbol from plugin)
MemManage_Handler                                 obj/main/NAZE/startup_stm32f10x_md_gcc.o
NMI_Handler                                       obj/main/NAZE/startup_stm32f10x_md_gcc.o
NVIC_Init                                         obj/main/NAZE/misc.o (symbol from plugin)
                                                  obj/main/NAZE/drivers/timer.o (symbol from plugin)
                                                  obj/main/NAZE/drivers/serial_uart_stm32f10x.o (symbol from plugin)
                                                  obj/main/NAZE/drivers/sonar_hcsr04.o (symbol from plugin)
                                                  obj/main/NAZE/drivers/light_ws2811strip_stm32f10x.o (symbol from plugin)
                                                  obj/main/NAZE/drivers/compass_hmc5883l.o (symbol from plugin)
                                                  obj/main/NAZE/drivers/bus_i2c_stm32f10x.o (symbol from plugin)
                                                  obj/main/NAZE/drivers/barometer_bmp085.o (symbol from plugin)
                                                  obj/main/NAZE/drivers/accgyro_mpu.o (symbol from plugin)
NVIC_Init.part.0.constprop.217                    /tmp/cclQ5C5v.ltrans21.ltrans.o
                                                  /tmp/cclQ5C5v.ltrans17.ltrans.o
                                                  /tmp/cclQ5C5v.ltrans16.ltrans.o
                                                  /tmp/cclQ5C5v.ltrans15.ltrans.o
                                                  /tmp/cclQ5C5v.ltrans4.ltrans.o
                                                  /tmp/cclQ5C5v.ltrans0.ltrans.o
NVIC_PriorityGroupConfig                          obj/main/NAZE/misc.o (symbol from plugin)
                                                  obj/main/NAZE/drivers/system.o (symbol from plugin)
NVIC_SetVectorTable                               obj/main/NAZE/misc.o (symbol from plugin)
NVIC_SystemLPConfig                               obj/main/NAZE/misc.o (symbol from plugin)
PIDweight                                         /tmp/cclQ5C5v.ltrans14.ltrans.o
                                                  obj/main/NAZE/../controller/flight/pid.o (symbol from plugin)
                                                  /tmp/cclQ5C5v.ltrans26.ltrans.o
                                                  /tmp/cclQ5C5v.ltrans1.ltrans.o
                                                  obj/main/NAZE/../controller/mw.o (symbol from plugin)
PVD_IRQHandler                                    obj/main/NAZE/startup_stm32f10x_md_gcc.o
PWR_BackupAccessCmd                               obj/main/NAZE/stm32f10x_pwr.o (symbol from plugin)
PWR_ClearFlag                                     obj/main/NAZE/stm32f10x_pwr.o (symbol from plugin)
PWR_DeInit                                        obj/main/NAZE/stm32f10x_pwr.o (symbol from plugin)
PWR_EnterSTANDBYMode                              obj/main/NAZE/stm32f10x_pwr.o (symbol from plugin)
PWR_EnterSTOPMode                                 obj/main/NAZE/stm32f10x_pwr.o (symbol from plugin)
PWR_GetFlagStatus                                 obj/main/NAZE/stm32f10x_pwr.o (symbol from plugin)
PWR_PVDCmd                                        obj/main/NAZE/stm32f10x_pwr.o (symbol from plugin)
PWR_PVDLevelConfig                                obj/main/NAZE/stm32f10x_pwr.o (symbol from plugin)
PWR_WakeUpPinCmd                                  obj/main/NAZE/stm32f10x_pwr.o (symbol from plugin)
PendSV_Handler                                    obj/main/NAZE/startup_stm32f10x_md_gcc.o
RCC_ADCCLKConfig                                  obj/main/NAZE/stm32f10x_rcc.o (symbol from plugin)
                                                  obj/main/NAZE/drivers/adc_stm32f10x.o (symbol from plugin)
RCC_AHBPeriphClockCmd                             obj/main/NAZE/stm32f10x_rcc.o (symbol from plugin)
                                                  obj/main/NAZE/drivers/serial_uart_stm32f10x.o (symbol from plugin)
                                                  obj/main/NAZE/drivers/light_ws2811strip_stm32f10x.o (symbol from plugin)
                                                  obj/main/NAZE/drivers/adc_stm32f10x.o (symbol from plugin)
RCC_APB1PeriphClockCmd                            obj/main/NAZE/stm32f10x_rcc.o (symbol from plugin)
                                                  obj/main/NAZE/drivers/timer.o (symbol from plugin)
                                                  obj/main/NAZE/drivers/serial_uart_stm32f10x.o (symbol from plugin)
                                                  obj/main/NAZE/drivers/light_ws2811strip_stm32f10x.o (symbol from plugin)
                                                  obj/main/NAZE/drivers/bus_i2c_stm32f10x.o (symbol from plugin)
                                                  obj/main/NAZE/drivers/bus_spi.o (symbol from plugin)
RCC_APB1PeriphResetCmd                            obj/main/NAZE/stm32f10x_rcc.o (symbol from plugin)
                                                  obj/main/NAZE/stm32f10x_spi.o (symbol from plugin)
                                                  obj/main/NAZE/stm32f10x_wwdg.o (symbol from plugin)
                                                  obj/main/NAZE/stm32f10x_tim.o (symbol from plugin)
                                                  obj/main/NAZE/stm32f10x_usart.o (symbol from plugin)
                                                  obj/main/NAZE/stm32f10x_i2c.o (symbol from plugin)
                                                  obj/main/NAZE/stm32f10x_pwr.o (symbol from plugin)
                                                  obj/main/NAZE/stm32f10x_dac.o (symbol from plugin)
                                                  obj/main/NAZE/drivers/bus_spi.o (symbol from plugin)
RCC_APB2PeriphClockCmd                            obj/main/NAZE/stm32f10x_rcc.o (symbol from plugin)
                                                  obj/main/NAZE/drivers/system.o (symbol from plugin)
                                                  obj/main/NAZE/drivers/timer.o (symbol from plugin)
                                                  obj/main/NAZE/drivers/system_stm32f10x.o (symbol from plugin)
                                                  obj/main/NAZE/drivers/sound_beeper_stm32f10x.o (symbol from plugin)
                                                  obj/main/NAZE/drivers/serial_uart_stm32f10x.o (symbol from plugin)
                                                  obj/main/NAZE/drivers/sonar_hcsr04.o (symbol from plugin)
                                                  obj/main/NAZE/drivers/light_ws2811strip_stm32f10x.o (symbol from plugin)
                                                  obj/main/NAZE/drivers/light_led_stm32f10x.o (symbol from plugin)
                                                  obj/main/NAZE/drivers/inverter.o (symbol from plugin)
                                                  obj/main/NAZE/drivers/compass_hmc5883l.o (symbol from plugin)
                                                  obj/main/NAZE/drivers/barometer_bmp085.o (symbol from plugin)
                                                  obj/main/NAZE/drivers/adc_stm32f10x.o (symbol from plugin)
                                                  obj/main/NAZE/drivers/accgyro_spi_mpu6500.o (symbol from plugin)
                                                  obj/main/NAZE/drivers/accgyro_mpu.o (symbol from plugin)
                                                  obj/main/NAZE/drivers/accgyro_mma845x.o (symbol from plugin)
RCC_APB2PeriphResetCmd                            obj/main/NAZE/stm32f10x_rcc.o (symbol from plugin)
                                                  obj/main/NAZE/stm32f10x_gpio.o (symbol from plugin)
                                                  obj/main/NAZE/stm32f10x_spi.o (symbol from plugin)
                                                  obj/main/NAZE/stm32f10x_adc.o (symbol from plugin)
                                                  obj/main/NAZE/stm32f10x_tim.o (symbol from plugin)
                                                  obj/main/NAZE/stm32f10x_usart.o (symbol from plugin)
RCC_AdjustHSICalibrationValue                     obj/main/NAZE/stm32f10x_rcc.o (symbol from plugin)
RCC_BackupResetCmd                                obj/main/NAZE/stm32f10x_rcc.o (symbol from plugin)
                                                  obj/main/NAZE/stm32f10x_bkp.o (symbol from plugin)
RCC_ClearFlag                                     obj/main/NAZE/stm32f10x_rcc.o (symbol from plugin)
                                                  obj/main/NAZE/drivers/system.o (symbol from plugin)
RCC_ClearITPendingBit                             obj/main/NAZE/stm32f10x_rcc.o (symbol from plugin)
RCC_ClockSecuritySystemCmd                        obj/main/NAZE/stm32f10x_rcc.o (symbol from plugin)
RCC_DeInit                                        obj/main/NAZE/stm32f10x_rcc.o (symbol from plugin)
RCC_GetClocksFreq                                 /tmp/cclQ5C5v.ltrans8.ltrans.o
                                                  obj/main/NAZE/stm32f10x_rcc.o (symbol from plugin)
                                                  /tmp/cclQ5C5v.ltrans16.ltrans.o
                                                  /tmp/cclQ5C5v.ltrans15.ltrans.o
                                                  /tmp/cclQ5C5v.ltrans0.ltrans.o
                                                  obj/main/NAZE/stm32f10x_spi.o (symbol from plugin)
                                                  obj/main/NAZE/stm32f10x_usart.o (symbol from plugin)
                                                  obj/main/NAZE/stm32f10x_i2c.o (symbol from plugin)
                                                  obj/main/NAZE/drivers/system.o (symbol from plugin)
RCC_GetFlagStatus                                 obj/main/NAZE/stm32f10x_rcc.o (symbol from plugin)
RCC_GetITStatus                                   obj/main/NAZE/stm32f10x_rcc.o (symbol from plugin)
RCC_GetSYSCLKSource                               obj/main/NAZE/stm32f10x_rcc.o (symbol from plugin)
RCC_HCLKConfig                                    obj/main/NAZE/stm32f10x_rcc.o (symbol from plugin)
RCC_HSEConfig                                     obj/main/NAZE/stm32f10x_rcc.o (symbol from plugin)
RCC_HSICmd                                        obj/main/NAZE/stm32f10x_rcc.o (symbol from plugin)
RCC_IRQHandler                                    obj/main/NAZE/startup_stm32f10x_md_gcc.o
RCC_ITConfig                                      obj/main/NAZE/stm32f10x_rcc.o (symbol from plugin)
RCC_LSEConfig                                     obj/main/NAZE/stm32f10x_rcc.o (symbol from plugin)
RCC_LSICmd                                        obj/main/NAZE/stm32f10x_rcc.o (symbol from plugin)
RCC_MCOConfig                                     obj/main/NAZE/stm32f10x_rcc.o (symbol from plugin)
RCC_PCLK1Config                                   obj/main/NAZE/stm32f10x_rcc.o (symbol from plugin)
RCC_PCLK2Config                                   obj/main/NAZE/stm32f10x_rcc.o (symbol from plugin)
RCC_PLLCmd                                        obj/main/NAZE/stm32f10x_rcc.o (symbol from plugin)
RCC_PLLConfig                                     obj/main/NAZE/stm32f10x_rcc.o (symbol from plugin)
RCC_RTCCLKCmd                                     obj/main/NAZE/stm32f10x_rcc.o (symbol from plugin)
RCC_RTCCLKConfig                                  obj/main/NAZE/stm32f10x_rcc.o (symbol from plugin)
RCC_SYSCLKConfig                                  obj/main/NAZE/stm32f10x_rcc.o (symbol from plugin)
RCC_USBCLKConfig                                  obj/main/NAZE/stm32f10x_rcc.o (symbol from plugin)
RCC_WaitForHSEStartUp                             obj/main/NAZE/stm32f10x_rcc.o (symbol from plugin)
RTCAlarm_IRQHandler                               obj/main/NAZE/startup_stm32f10x_md_gcc.o
RTC_ClearFlag                                     obj/main/NAZE/stm32f10x_rtc.o (symbol from plugin)
RTC_ClearITPendingBit                             obj/main/NAZE/stm32f10x_rtc.o (symbol from plugin)
RTC_EnterConfigMode                               obj/main/NAZE/stm32f10x_rtc.o (symbol from plugin)
RTC_ExitConfigMode                                obj/main/NAZE/stm32f10x_rtc.o (symbol from plugin)
RTC_GetCounter                                    obj/main/NAZE/stm32f10x_rtc.o (symbol from plugin)
RTC_GetDivider                                    obj/main/NAZE/stm32f10x_rtc.o (symbol from plugin)
RTC_GetFlagStatus                                 obj/main/NAZE/stm32f10x_rtc.o (symbol from plugin)
RTC_GetITStatus                                   obj/main/NAZE/stm32f10x_rtc.o (symbol from plugin)
RTC_IRQHandler                                    obj/main/NAZE/startup_stm32f10x_md_gcc.o
RTC_ITConfig                                      obj/main/NAZE/stm32f10x_rtc.o (symbol from plugin)
RTC_SetAlarm                                      obj/main/NAZE/stm32f10x_rtc.o (symbol from plugin)
RTC_SetCounter                                    obj/main/NAZE/stm32f10x_rtc.o (symbol from plugin)
RTC_SetPrescaler                                  obj/main/NAZE/stm32f10x_rtc.o (symbol from plugin)
RTC_WaitForLastTask                               obj/main/NAZE/stm32f10x_rtc.o (symbol from plugin)
RTC_WaitForSynchro                                obj/main/NAZE/stm32f10x_rtc.o (symbol from plugin)
Reset_Handler                                     obj/main/NAZE/startup_stm32f10x_md_gcc.o
SDIO_CEATAITCmd                                   obj/main/NAZE/stm32f10x_sdio.o (symbol from plugin)
SDIO_ClearFlag                                    obj/main/NAZE/stm32f10x_sdio.o (symbol from plugin)
SDIO_ClearITPendingBit                            obj/main/NAZE/stm32f10x_sdio.o (symbol from plugin)
SDIO_ClockCmd                                     obj/main/NAZE/stm32f10x_sdio.o (symbol from plugin)
SDIO_CmdStructInit                                obj/main/NAZE/stm32f10x_sdio.o (symbol from plugin)
SDIO_CommandCompletionCmd                         obj/main/NAZE/stm32f10x_sdio.o (symbol from plugin)
SDIO_DMACmd                                       obj/main/NAZE/stm32f10x_sdio.o (symbol from plugin)
SDIO_DataConfig                                   obj/main/NAZE/stm32f10x_sdio.o (symbol from plugin)
SDIO_DataStructInit                               obj/main/NAZE/stm32f10x_sdio.o (symbol from plugin)
SDIO_DeInit                                       obj/main/NAZE/stm32f10x_sdio.o (symbol from plugin)
SDIO_GetCommandResponse                           obj/main/NAZE/stm32f10x_sdio.o (symbol from plugin)
SDIO_GetDataCounter                               obj/main/NAZE/stm32f10x_sdio.o (symbol from plugin)
SDIO_GetFIFOCount                                 obj/main/NAZE/stm32f10x_sdio.o (symbol from plugin)
SDIO_GetFlagStatus                                obj/main/NAZE/stm32f10x_sdio.o (symbol from plugin)
SDIO_GetITStatus                                  obj/main/NAZE/stm32f10x_sdio.o (symbol from plugin)
SDIO_GetPowerState                                obj/main/NAZE/stm32f10x_sdio.o (symbol from plugin)
SDIO_GetResponse                                  obj/main/NAZE/stm32f10x_sdio.o (symbol from plugin)
SDIO_ITConfig                                     obj/main/NAZE/stm32f10x_sdio.o (symbol from plugin)
SDIO_Init                                         obj/main/NAZE/stm32f10x_sdio.o (symbol from plugin)
SDIO_ReadData                                     obj/main/NAZE/stm32f10x_sdio.o (symbol from plugin)
SDIO_SendCEATACmd                                 obj/main/NAZE/stm32f10x_sdio.o (symbol from plugin)
SDIO_SendCommand                                  obj/main/NAZE/stm32f10x_sdio.o (symbol from plugin)
SDIO_SendSDIOSuspendCmd                           obj/main/NAZE/stm32f10x_sdio.o (symbol from plugin)
SDIO_SetPowerState                                obj/main/NAZE/stm32f10x_sdio.o (symbol from plugin)
SDIO_SetSDIOOperation                             obj/main/NAZE/stm32f10x_sdio.o (symbol from plugin)
SDIO_SetSDIOReadWaitMode                          obj/main/NAZE/stm32f10x_sdio.o (symbol from plugin)
SDIO_StartSDIOReadWait                            obj/main/NAZE/stm32f10x_sdio.o (symbol from plugin)
SDIO_StopSDIOReadWait                             obj/main/NAZE/stm32f10x_sdio.o (symbol from plugin)
SDIO_StructInit                                   obj/main/NAZE/stm32f10x_sdio.o (symbol from plugin)
SDIO_WriteData                                    obj/main/NAZE/stm32f10x_sdio.o (symbol from plugin)
SPI1_IRQHandler                                   obj/main/NAZE/startup_stm32f10x_md_gcc.o
SPI2_IRQHandler                                   obj/main/NAZE/startup_stm32f10x_md_gcc.o
SPI_BiDirectionalLineConfig                       obj/main/NAZE/stm32f10x_spi.o (symbol from plugin)
SPI_CalculateCRC                                  obj/main/NAZE/stm32f10x_spi.o (symbol from plugin)
SPI_Cmd                                           obj/main/NAZE/stm32f10x_spi.o (symbol from plugin)
                                                  obj/main/NAZE/drivers/bus_spi.o (symbol from plugin)
SPI_DataSizeConfig                                obj/main/NAZE/stm32f10x_spi.o (symbol from plugin)
SPI_GetCRC                                        obj/main/NAZE/stm32f10x_spi.o (symbol from plugin)
SPI_GetCRCPolynomial                              obj/main/NAZE/stm32f10x_spi.o (symbol from plugin)
SPI_I2S_ClearFlag                                 obj/main/NAZE/stm32f10x_spi.o (symbol from plugin)
SPI_I2S_ClearITPendingBit                         obj/main/NAZE/stm32f10x_spi.o (symbol from plugin)
SPI_I2S_DMACmd                                    obj/main/NAZE/stm32f10x_spi.o (symbol from plugin)
SPI_I2S_DeInit                                    obj/main/NAZE/stm32f10x_spi.o (symbol from plugin)
                                                  obj/main/NAZE/drivers/bus_spi.o (symbol from plugin)
SPI_I2S_GetFlagStatus                             obj/main/NAZE/stm32f10x_spi.o (symbol from plugin)
                                                  obj/main/NAZE/drivers/bus_spi.o (symbol from plugin)
SPI_I2S_GetITStatus                               obj/main/NAZE/stm32f10x_spi.o (symbol from plugin)
SPI_I2S_ITConfig                                  obj/main/NAZE/stm32f10x_spi.o (symbol from plugin)
SPI_I2S_ReceiveData                               obj/main/NAZE/stm32f10x_spi.o (symbol from plugin)
                                                  obj/main/NAZE/drivers/bus_spi.o (symbol from plugin)
SPI_I2S_SendData                                  obj/main/NAZE/stm32f10x_spi.o (symbol from plugin)
                                                  obj/main/NAZE/drivers/bus_spi.o (symbol from plugin)
SPI_Init                                          obj/main/NAZE/stm32f10x_spi.o (symbol from plugin)
                                                  obj/main/NAZE/drivers/bus_spi.o (symbol from plugin)
SPI_NSSInternalSoftwareConfig                     obj/main/NAZE/stm32f10x_spi.o (symbol from plugin)
SPI_SSOutputCmd                                   obj/main/NAZE/stm32f10x_spi.o (symbol from plugin)
SPI_StructInit                                    obj/main/NAZE/stm32f10x_spi.o (symbol from plugin)
SPI_TransmitCRC                                   obj/main/NAZE/stm32f10x_spi.o (symbol from plugin)
SVC_Handler                                       obj/main/NAZE/startup_stm32f10x_md_gcc.o
SetSysClock                                       obj/main/NAZE/system_stm32f10x.o (symbol from plugin)
                                                  obj/main/NAZE/main.o (symbol from plugin)
StopPwmAllMotors                                  obj/main/NAZE/../controller/flight/mixer.o (symbol from plugin)
                                                  obj/main/NAZE/../controller/config/config.o (symbol from plugin)
SysTick_CLKSourceConfig                           obj/main/NAZE/misc.o (symbol from plugin)
SysTick_Handler                                   /tmp/cclQ5C5v.ltrans14.ltrans.o
                                                  obj/main/NAZE/drivers/system.o (symbol from plugin)
                                                  obj/main/NAZE/startup_stm32f10x_md_gcc.o
SystemCoreClock                                   /tmp/cclQ5C5v.ltrans24.ltrans.o
                                                  obj/main/NAZE/system_stm32f10x.o (symbol from plugin)
                                                  /tmp/cclQ5C5v.ltrans20.ltrans.o
                                                  /tmp/cclQ5C5v.ltrans17.ltrans.o
                                                  /tmp/cclQ5C5v.ltrans0.ltrans.o
                                                  obj/main/NAZE/../controller/io/serial_cli.o (symbol from plugin)
                                                  obj/main/NAZE/drivers/system.o (symbol from plugin)
                                                  obj/main/NAZE/drivers/timer.o (symbol from plugin)
                                                  obj/main/NAZE/drivers/serial_softserial.o (symbol from plugin)
                                                  obj/main/NAZE/drivers/light_ws2811strip_stm32f10x.o (symbol from plugin)
SystemCoreClockUpdate                             obj/main/NAZE/system_stm32f10x.o (symbol from plugin)
SystemInit                                        /tmp/cclQ5C5v.ltrans8.ltrans.o
                                                  obj/main/NAZE/system_stm32f10x.o (symbol from plugin)
                                                  obj/main/NAZE/startup_stm32f10x_md_gcc.o
TAMPER_IRQHandler                                 obj/main/NAZE/startup_stm32f10x_md_gcc.o
TIM1_BRK_IRQHandler                               obj/main/NAZE/startup_stm32f10x_md_gcc.o
TIM1_CC_IRQHandler                                /tmp/cclQ5C5v.ltrans17.ltrans.o
                                                  obj/main/NAZE/drivers/timer.o (symbol from plugin)
                                                  obj/main/NAZE/startup_stm32f10x_md_gcc.o
TIM1_TRG_COM_IRQHandler                           obj/main/NAZE/startup_stm32f10x_md_gcc.o
TIM1_UP_IRQHandler                                /tmp/cclQ5C5v.ltrans17.ltrans.o
                                                  obj/main/NAZE/drivers/timer.o (symbol from plugin)
                                                  obj/main/NAZE/startup_stm32f10x_md_gcc.o
TIM2_IRQHandler                                   /tmp/cclQ5C5v.ltrans17.ltrans.o
                                                  obj/main/NAZE/drivers/timer.o (symbol from plugin)
                                                  obj/main/NAZE/startup_stm32f10x_md_gcc.o
TIM3_IRQHandler                                   /tmp/cclQ5C5v.ltrans17.ltrans.o
                                                  obj/main/NAZE/drivers/timer.o (symbol from plugin)
                                                  obj/main/NAZE/startup_stm32f10x_md_gcc.o
TIM4_IRQHandler                                   /tmp/cclQ5C5v.ltrans17.ltrans.o
                                                  obj/main/NAZE/drivers/timer.o (symbol from plugin)
                                                  obj/main/NAZE/startup_stm32f10x_md_gcc.o
TIM_ARRPreloadConfig                              obj/main/NAZE/stm32f10x_tim.o (symbol from plugin)
TIM_BDTRConfig                                    obj/main/NAZE/stm32f10x_tim.o (symbol from plugin)
TIM_BDTRStructInit                                obj/main/NAZE/stm32f10x_tim.o (symbol from plugin)
TIM_CCPreloadControl                              obj/main/NAZE/stm32f10x_tim.o (symbol from plugin)
TIM_CCxCmd                                        obj/main/NAZE/stm32f10x_tim.o (symbol from plugin)
TIM_CCxNCmd                                       obj/main/NAZE/stm32f10x_tim.o (symbol from plugin)
TIM_ClearFlag                                     obj/main/NAZE/stm32f10x_tim.o (symbol from plugin)
                                                  obj/main/NAZE/drivers/timer.o (symbol from plugin)
TIM_ClearITPendingBit                             obj/main/NAZE/stm32f10x_tim.o (symbol from plugin)
TIM_ClearOC1Ref                                   obj/main/NAZE/stm32f10x_tim.o (symbol from plugin)
TIM_ClearOC2Ref                                   obj/main/NAZE/stm32f10x_tim.o (symbol from plugin)
TIM_ClearOC3Ref                                   obj/main/NAZE/stm32f10x_tim.o (symbol from plugin)
TIM_ClearOC4Ref                                   obj/main/NAZE/stm32f10x_tim.o (symbol from plugin)
TIM_Cmd                                           obj/main/NAZE/stm32f10x_tim.o (symbol from plugin)
                                                  obj/main/NAZE/drivers/timer.o (symbol from plugin)
                                                  obj/main/NAZE/drivers/pwm_output.o (symbol from plugin)
                                                  obj/main/NAZE/drivers/light_ws2811strip_stm32f10x.o (symbol from plugin)
TIM_CounterModeConfig                             obj/main/NAZE/stm32f10x_tim.o (symbol from plugin)
TIM_CtrlPWMOutputs                                obj/main/NAZE/stm32f10x_tim.o (symbol from plugin)
                                                  obj/main/NAZE/drivers/pwm_output.o (symbol from plugin)
                                                  obj/main/NAZE/drivers/light_ws2811strip_stm32f10x.o (symbol from plugin)
TIM_DMACmd                                        obj/main/NAZE/stm32f10x_tim.o (symbol from plugin)
                                                  obj/main/NAZE/drivers/light_ws2811strip_stm32f10x.o (symbol from plugin)
TIM_DMAConfig                                     obj/main/NAZE/stm32f10x_tim.o (symbol from plugin)
TIM_DeInit                                        obj/main/NAZE/stm32f10x_tim.o (symbol from plugin)
TIM_ETRClockMode1Config                           obj/main/NAZE/stm32f10x_tim.o (symbol from plugin)
TIM_ETRClockMode2Config                           obj/main/NAZE/stm32f10x_tim.o (symbol from plugin)
TIM_ETRConfig                                     obj/main/NAZE/stm32f10x_tim.o (symbol from plugin)
TIM_EncoderInterfaceConfig                        obj/main/NAZE/stm32f10x_tim.o (symbol from plugin)
TIM_ForcedOC1Config                               obj/main/NAZE/stm32f10x_tim.o (symbol from plugin)
TIM_ForcedOC2Config                               obj/main/NAZE/stm32f10x_tim.o (symbol from plugin)
TIM_ForcedOC3Config                               obj/main/NAZE/stm32f10x_tim.o (symbol from plugin)
TIM_ForcedOC4Config                               obj/main/NAZE/stm32f10x_tim.o (symbol from plugin)
TIM_GenerateEvent                                 obj/main/NAZE/stm32f10x_tim.o (symbol from plugin)
TIM_GetCapture1                                   obj/main/NAZE/stm32f10x_tim.o (symbol from plugin)
TIM_GetCapture2                                   obj/main/NAZE/stm32f10x_tim.o (symbol from plugin)
TIM_GetCapture3                                   obj/main/NAZE/stm32f10x_tim.o (symbol from plugin)
TIM_GetCapture4                                   obj/main/NAZE/stm32f10x_tim.o (symbol from plugin)
TIM_GetCounter                                    obj/main/NAZE/stm32f10x_tim.o (symbol from plugin)
TIM_GetFlagStatus                                 obj/main/NAZE/stm32f10x_tim.o (symbol from plugin)
TIM_GetITStatus                                   obj/main/NAZE/stm32f10x_tim.o (symbol from plugin)
TIM_GetPrescaler                                  obj/main/NAZE/stm32f10x_tim.o (symbol from plugin)
TIM_ICInit                                        /tmp/cclQ5C5v.ltrans8.ltrans.o
                                                  obj/main/NAZE/stm32f10x_tim.o (symbol from plugin)
                                                  /tmp/cclQ5C5v.ltrans20.ltrans.o
                                                  obj/main/NAZE/drivers/timer.o (symbol from plugin)
                                                  obj/main/NAZE/drivers/serial_softserial.o (symbol from plugin)
                                                  obj/main/NAZE/drivers/pwm_rx.o (symbol from plugin)
TIM_ICStructInit                                  obj/main/NAZE/stm32f10x_tim.o (symbol from plugin)
                                                  obj/main/NAZE/drivers/timer.o (symbol from plugin)
                                                  obj/main/NAZE/drivers/serial_softserial.o (symbol from plugin)
                                                  obj/main/NAZE/drivers/pwm_rx.o (symbol from plugin)
TIM_ITConfig                                      obj/main/NAZE/stm32f10x_tim.o (symbol from plugin)
                                                  obj/main/NAZE/drivers/timer.o (symbol from plugin)
TIM_ITRxExternalClockConfig                       obj/main/NAZE/stm32f10x_tim.o (symbol from plugin)
TIM_InternalClockConfig                           obj/main/NAZE/stm32f10x_tim.o (symbol from plugin)
TIM_OC1FastConfig                                 obj/main/NAZE/stm32f10x_tim.o (symbol from plugin)
TIM_OC1Init                                       obj/main/NAZE/stm32f10x_tim.o (symbol from plugin)
                                                  obj/main/NAZE/drivers/timer.o (symbol from plugin)
                                                  obj/main/NAZE/drivers/pwm_output.o (symbol from plugin)
                                                  obj/main/NAZE/drivers/light_ws2811strip_stm32f10x.o (symbol from plugin)
TIM_OC1NPolarityConfig                            obj/main/NAZE/stm32f10x_tim.o (symbol from plugin)
TIM_OC1PolarityConfig                             obj/main/NAZE/stm32f10x_tim.o (symbol from plugin)
TIM_OC1PreloadConfig                              obj/main/NAZE/stm32f10x_tim.o (symbol from plugin)
                                                  obj/main/NAZE/drivers/timer.o (symbol from plugin)
                                                  obj/main/NAZE/drivers/pwm_output.o (symbol from plugin)
                                                  obj/main/NAZE/drivers/light_ws2811strip_stm32f10x.o (symbol from plugin)
TIM_OC2FastConfig                                 obj/main/NAZE/stm32f10x_tim.o (symbol from plugin)
TIM_OC2Init                                       obj/main/NAZE/stm32f10x_tim.o (symbol from plugin)
                                                  obj/main/NAZE/drivers/timer.o (symbol from plugin)
                                                  obj/main/NAZE/drivers/pwm_output.o (symbol from plugin)
TIM_OC2NPolarityConfig                            obj/main/NAZE/stm32f10x_tim.o (symbol from plugin)
TIM_OC2PolarityConfig                             obj/main/NAZE/stm32f10x_tim.o (symbol from plugin)
TIM_OC2PreloadConfig                              obj/main/NAZE/stm32f10x_tim.o (symbol from plugin)
                                                  obj/main/NAZE/drivers/timer.o (symbol from plugin)
                                                  obj/main/NAZE/drivers/pwm_output.o (symbol from plugin)
TIM_OC3FastConfig                                 obj/main/NAZE/stm32f10x_tim.o (symbol from plugin)
TIM_OC3Init                                       obj/main/NAZE/stm32f10x_tim.o (symbol from plugin)
                                                  obj/main/NAZE/drivers/timer.o (symbol from plugin)
                                                  obj/main/NAZE/drivers/pwm_output.o (symbol from plugin)
TIM_OC3NPolarityConfig                            obj/main/NAZE/stm32f10x_tim.o (symbol from plugin)
TIM_OC3PolarityConfig                             obj/main/NAZE/stm32f10x_tim.o (symbol from plugin)
TIM_OC3PreloadConfig                              obj/main/NAZE/stm32f10x_tim.o (symbol from plugin)
                                                  obj/main/NAZE/drivers/timer.o (symbol from plugin)
                                                  obj/main/NAZE/drivers/pwm_output.o (symbol from plugin)
TIM_OC4FastConfig                                 obj/main/NAZE/stm32f10x_tim.o (symbol from plugin)
TIM_OC4Init                                       obj/main/NAZE/stm32f10x_tim.o (symbol from plugin)
                                                  obj/main/NAZE/drivers/timer.o (symbol from plugin)
                                                  obj/main/NAZE/drivers/pwm_output.o (symbol from plugin)
TIM_OC4PolarityConfig                             obj/main/NAZE/stm32f10x_tim.o (symbol from plugin)
TIM_OC4PreloadConfig                              obj/main/NAZE/stm32f10x_tim.o (symbol from plugin)
                                                  obj/main/NAZE/drivers/timer.o (symbol from plugin)
                                                  obj/main/NAZE/drivers/pwm_output.o (symbol from plugin)
TIM_OCStructInit                                  obj/main/NAZE/stm32f10x_tim.o (symbol from plugin)
                                                  obj/main/NAZE/drivers/timer.o (symbol from plugin)
                                                  obj/main/NAZE/drivers/pwm_output.o (symbol from plugin)
                                                  obj/main/NAZE/drivers/light_ws2811strip_stm32f10x.o (symbol from plugin)
TIM_PWMIConfig                                    obj/main/NAZE/stm32f10x_tim.o (symbol from plugin)
TIM_PrescalerConfig                               obj/main/NAZE/stm32f10x_tim.o (symbol from plugin)
TIM_SelectCCDMA                                   obj/main/NAZE/stm32f10x_tim.o (symbol from plugin)
TIM_SelectCOM                                     obj/main/NAZE/stm32f10x_tim.o (symbol from plugin)
TIM_SelectHallSensor                              obj/main/NAZE/stm32f10x_tim.o (symbol from plugin)
TIM_SelectInputTrigger                            obj/main/NAZE/stm32f10x_tim.o (symbol from plugin)
TIM_SelectMasterSlaveMode                         obj/main/NAZE/stm32f10x_tim.o (symbol from plugin)
TIM_SelectOCxM                                    obj/main/NAZE/stm32f10x_tim.o (symbol from plugin)
TIM_SelectOCxM_NoDisable                          obj/main/NAZE/drivers/timer_stm32f10x.o (symbol from plugin)
TIM_SelectOnePulseMode                            obj/main/NAZE/stm32f10x_tim.o (symbol from plugin)
TIM_SelectOutputTrigger                           obj/main/NAZE/stm32f10x_tim.o (symbol from plugin)
TIM_SelectSlaveMode                               obj/main/NAZE/stm32f10x_tim.o (symbol from plugin)
TIM_SetAutoreload                                 obj/main/NAZE/stm32f10x_tim.o (symbol from plugin)
TIM_SetClockDivision                              obj/main/NAZE/stm32f10x_tim.o (symbol from plugin)
TIM_SetCompare1                                   obj/main/NAZE/stm32f10x_tim.o (symbol from plugin)
TIM_SetCompare2                                   obj/main/NAZE/stm32f10x_tim.o (symbol from plugin)
TIM_SetCompare3                                   obj/main/NAZE/stm32f10x_tim.o (symbol from plugin)
TIM_SetCompare4                                   obj/main/NAZE/stm32f10x_tim.o (symbol from plugin)
TIM_SetCounter                                    obj/main/NAZE/stm32f10x_tim.o (symbol from plugin)
                                                  obj/main/NAZE/drivers/serial_softserial.o (symbol from plugin)
                                                  obj/main/NAZE/drivers/light_ws2811strip_stm32f10x.o (symbol from plugin)
TIM_SetIC1Prescaler                               obj/main/NAZE/stm32f10x_tim.o (symbol from plugin)
TIM_SetIC2Prescaler                               obj/main/NAZE/stm32f10x_tim.o (symbol from plugin)
TIM_SetIC3Prescaler                               obj/main/NAZE/stm32f10x_tim.o (symbol from plugin)
TIM_SetIC4Prescaler                               obj/main/NAZE/stm32f10x_tim.o (symbol from plugin)
TIM_TIxExternalClockConfig                        obj/main/NAZE/stm32f10x_tim.o (symbol from plugin)
TIM_TimeBaseInit                                  obj/main/NAZE/stm32f10x_tim.o (symbol from plugin)
                                                  obj/main/NAZE/drivers/timer.o (symbol from plugin)
                                                  obj/main/NAZE/drivers/light_ws2811strip_stm32f10x.o (symbol from plugin)
TIM_TimeBaseStructInit                            obj/main/NAZE/stm32f10x_tim.o (symbol from plugin)
                                                  obj/main/NAZE/drivers/timer.o (symbol from plugin)
                                                  obj/main/NAZE/drivers/light_ws2811strip_stm32f10x.o (symbol from plugin)
TIM_UpdateDisableConfig                           obj/main/NAZE/stm32f10x_tim.o (symbol from plugin)
TIM_UpdateRequestConfig                           obj/main/NAZE/stm32f10x_tim.o (symbol from plugin)
USART1_IRQHandler                                 /tmp/cclQ5C5v.ltrans17.ltrans.o
                                                  obj/main/NAZE/drivers/serial_uart_stm32f10x.o (symbol from plugin)
                                                  obj/main/NAZE/startup_stm32f10x_md_gcc.o
USART2_IRQHandler                                 /tmp/cclQ5C5v.ltrans17.ltrans.o
                                                  obj/main/NAZE/drivers/serial_uart_stm32f10x.o (symbol from plugin)
                                                  obj/main/NAZE/startup_stm32f10x_md_gcc.o
USART3_IRQHandler                                 /tmp/cclQ5C5v.ltrans17.ltrans.o
                                                  obj/main/NAZE/drivers/serial_uart_stm32f10x.o (symbol from plugin)
                                                  obj/main/NAZE/startup_stm32f10x_md_gcc.o
USART_ClearFlag                                   obj/main/NAZE/stm32f10x_usart.o (symbol from plugin)
USART_ClearITPendingBit                           obj/main/NAZE/stm32f10x_usart.o (symbol from plugin)
                                                  obj/main/NAZE/drivers/serial_uart.o (symbol from plugin)
USART_ClockInit                                   obj/main/NAZE/stm32f10x_usart.o (symbol from plugin)
USART_ClockStructInit                             obj/main/NAZE/stm32f10x_usart.o (symbol from plugin)
USART_Cmd                                         obj/main/NAZE/stm32f10x_usart.o (symbol from plugin)
                                                  obj/main/NAZE/drivers/serial_uart.o (symbol from plugin)
USART_DMACmd                                      obj/main/NAZE/stm32f10x_usart.o (symbol from plugin)
                                                  obj/main/NAZE/drivers/serial_uart.o (symbol from plugin)
USART_DeInit                                      obj/main/NAZE/stm32f10x_usart.o (symbol from plugin)
USART_GetFlagStatus                               obj/main/NAZE/stm32f10x_usart.o (symbol from plugin)
USART_GetITStatus                                 obj/main/NAZE/stm32f10x_usart.o (symbol from plugin)
USART_HalfDuplexCmd                               obj/main/NAZE/stm32f10x_usart.o (symbol from plugin)
                                                  obj/main/NAZE/drivers/serial_uart.o (symbol from plugin)
USART_ITConfig                                    obj/main/NAZE/stm32f10x_usart.o (symbol from plugin)
                                                  obj/main/NAZE/drivers/serial_uart_stm32f10x.o (symbol from plugin)
                                                  obj/main/NAZE/drivers/serial_uart.o (symbol from plugin)
USART_Init                                        obj/main/NAZE/stm32f10x_usart.o (symbol from plugin)
                                                  obj/main/NAZE/drivers/serial_uart.o (symbol from plugin)
USART_IrDACmd                                     obj/main/NAZE/stm32f10x_usart.o (symbol from plugin)
USART_IrDAConfig                                  obj/main/NAZE/stm32f10x_usart.o (symbol from plugin)
USART_LINBreakDetectLengthConfig                  obj/main/NAZE/stm32f10x_usart.o (symbol from plugin)
USART_LINCmd                                      obj/main/NAZE/stm32f10x_usart.o (symbol from plugin)
USART_OneBitMethodCmd                             obj/main/NAZE/stm32f10x_usart.o (symbol from plugin)
USART_OverSampling8Cmd                            obj/main/NAZE/stm32f10x_usart.o (symbol from plugin)
USART_ReceiveData                                 obj/main/NAZE/stm32f10x_usart.o (symbol from plugin)
USART_ReceiverWakeUpCmd                           obj/main/NAZE/stm32f10x_usart.o (symbol from plugin)
USART_SendBreak                                   obj/main/NAZE/stm32f10x_usart.o (symbol from plugin)
USART_SendData                                    obj/main/NAZE/stm32f10x_usart.o (symbol from plugin)
USART_SetAddress                                  obj/main/NAZE/stm32f10x_usart.o (symbol from plugin)
USART_SetGuardTime                                obj/main/NAZE/stm32f10x_usart.o (symbol from plugin)
USART_SetPrescaler                                obj/main/NAZE/stm32f10x_usart.o (symbol from plugin)
USART_SmartCardCmd                                obj/main/NAZE/stm32f10x_usart.o (symbol from plugin)
USART_SmartCardNACKCmd                            obj/main/NAZE/stm32f10x_usart.o (symbol from plugin)
USART_StructInit                                  obj/main/NAZE/stm32f10x_usart.o (symbol from plugin)
USART_WakeUpConfig                                obj/main/NAZE/stm32f10x_usart.o (symbol from plugin)
USBWakeUp_IRQHandler                              obj/main/NAZE/startup_stm32f10x_md_gcc.o
USB_HP_CAN1_TX_IRQHandler                         obj/main/NAZE/startup_stm32f10x_md_gcc.o
USB_LP_CAN1_RX0_IRQHandler                        obj/main/NAZE/startup_stm32f10x_md_gcc.o
UsageFault_Handler                                obj/main/NAZE/startup_stm32f10x_md_gcc.o
WWDG_ClearFlag                                    obj/main/NAZE/stm32f10x_wwdg.o (symbol from plugin)
WWDG_DeInit                                       obj/main/NAZE/stm32f10x_wwdg.o (symbol from plugin)
WWDG_Enable                                       obj/main/NAZE/stm32f10x_wwdg.o (symbol from plugin)
WWDG_EnableIT                                     obj/main/NAZE/stm32f10x_wwdg.o (symbol from plugin)
WWDG_GetFlagStatus                                obj/main/NAZE/stm32f10x_wwdg.o (symbol from plugin)
WWDG_IRQHandler                                   obj/main/NAZE/startup_stm32f10x_md_gcc.o
WWDG_SetCounter                                   obj/main/NAZE/stm32f10x_wwdg.o (symbol from plugin)
WWDG_SetPrescaler                                 obj/main/NAZE/stm32f10x_wwdg.o (symbol from plugin)
WWDG_SetWindowValue                               obj/main/NAZE/stm32f10x_wwdg.o (symbol from plugin)
__LDREXB                                          obj/main/NAZE/core_cm3.o (symbol from plugin)
__LDREXH                                          obj/main/NAZE/core_cm3.o (symbol from plugin)
__LDREXW                                          obj/main/NAZE/core_cm3.o (symbol from plugin)
__RBIT                                            obj/main/NAZE/core_cm3.o (symbol from plugin)
__REV                                             obj/main/NAZE/core_cm3.o (symbol from plugin)
__REV16                                           obj/main/NAZE/core_cm3.o (symbol from plugin)
__REVSH                                           obj/main/NAZE/core_cm3.o (symbol from plugin)
__STREXB                                          obj/main/NAZE/core_cm3.o (symbol from plugin)
__STREXH                                          obj/main/NAZE/core_cm3.o (symbol from plugin)
__STREXW                                          obj/main/NAZE/core_cm3.o (symbol from plugin)
__adddf3                                          /usr/lib/gcc/arm-none-eabi/4.9.3/armv7-m/libgcc.a(_arm_addsubdf3.o)
__addsf3                                          /usr/lib/gcc/arm-none-eabi/4.9.3/armv7-m/libgcc.a(_arm_addsubsf3.o)
__aeabi_cdcmpeq                                   /usr/lib/gcc/arm-none-eabi/4.9.3/armv7-m/libgcc.a(_arm_cmpdf2.o)
__aeabi_cdcmple                                   /usr/lib/gcc/arm-none-eabi/4.9.3/armv7-m/libgcc.a(_arm_cmpdf2.o)
__aeabi_cdrcmple                                  /usr/lib/gcc/arm-none-eabi/4.9.3/armv7-m/libgcc.a(_arm_cmpdf2.o)
__aeabi_cfcmpeq                                   /usr/lib/gcc/arm-none-eabi/4.9.3/armv7-m/libgcc.a(_arm_cmpsf2.o)
__aeabi_cfcmple                                   /usr/lib/gcc/arm-none-eabi/4.9.3/armv7-m/libgcc.a(_arm_cmpsf2.o)
__aeabi_cfrcmple                                  /usr/lib/gcc/arm-none-eabi/4.9.3/armv7-m/libgcc.a(_arm_cmpsf2.o)
__aeabi_d2f                                       /usr/lib/gcc/arm-none-eabi/4.9.3/armv7-m/libgcc.a(_arm_truncdfsf2.o)
                                                  /usr/lib/gcc/arm-none-eabi/4.9.3/../../../arm-none-eabi/lib/armv7-m/libm.a(lib_a-wf_sqrt.o)
                                                  /usr/lib/gcc/arm-none-eabi/4.9.3/../../../arm-none-eabi/lib/armv7-m/libm.a(lib_a-wf_pow.o)
                                                  /tmp/cclQ5C5v.ltrans26.ltrans.o
                                                  /tmp/cclQ5C5v.ltrans4.ltrans.o
__aeabi_dadd                                      /usr/lib/gcc/arm-none-eabi/4.9.3/armv7-m/libgcc.a(_arm_addsubdf3.o)
                                                  /usr/lib/gcc/arm-none-eabi/4.9.3/../../../arm-none-eabi/lib/armv7-m/libm.a(lib_a-s_rint.o)
__aeabi_dcmpeq                                    /usr/lib/gcc/arm-none-eabi/4.9.3/armv7-m/libgcc.a(_arm_cmpdf2.o)
                                                  /usr/lib/gcc/arm-none-eabi/4.9.3/../../../arm-none-eabi/lib/armv7-m/libm.a(lib_a-wf_pow.o)
__aeabi_dcmpge                                    /usr/lib/gcc/arm-none-eabi/4.9.3/armv7-m/libgcc.a(_arm_cmpdf2.o)
__aeabi_dcmpgt                                    /usr/lib/gcc/arm-none-eabi/4.9.3/armv7-m/libgcc.a(_arm_cmpdf2.o)
__aeabi_dcmple                                    /usr/lib/gcc/arm-none-eabi/4.9.3/armv7-m/libgcc.a(_arm_cmpdf2.o)
__aeabi_dcmplt                                    /usr/lib/gcc/arm-none-eabi/4.9.3/armv7-m/libgcc.a(_arm_cmpdf2.o)
__aeabi_ddiv                                      /usr/lib/gcc/arm-none-eabi/4.9.3/armv7-m/libgcc.a(_arm_muldivdf3.o)
                                                  /usr/lib/gcc/arm-none-eabi/4.9.3/../../../arm-none-eabi/lib/armv7-m/libm.a(lib_a-wf_sqrt.o)
                                                  /usr/lib/gcc/arm-none-eabi/4.9.3/../../../arm-none-eabi/lib/armv7-m/libm.a(lib_a-wf_pow.o)
                                                  /tmp/cclQ5C5v.ltrans4.ltrans.o
__aeabi_dmul                                      /usr/lib/gcc/arm-none-eabi/4.9.3/armv7-m/libgcc.a(_arm_muldivdf3.o)
                                                  /tmp/cclQ5C5v.ltrans26.ltrans.o
__aeabi_drsub                                     /usr/lib/gcc/arm-none-eabi/4.9.3/armv7-m/libgcc.a(_arm_addsubdf3.o)
__aeabi_dsub                                      /usr/lib/gcc/arm-none-eabi/4.9.3/armv7-m/libgcc.a(_arm_addsubdf3.o)
                                                  /usr/lib/gcc/arm-none-eabi/4.9.3/../../../arm-none-eabi/lib/armv7-m/libm.a(lib_a-s_rint.o)
__aeabi_f2d                                       /usr/lib/gcc/arm-none-eabi/4.9.3/armv7-m/libgcc.a(_arm_addsubdf3.o)
                                                  /usr/lib/gcc/arm-none-eabi/4.9.3/../../../arm-none-eabi/lib/armv7-m/libm.a(lib_a-wf_sqrt.o)
                                                  /usr/lib/gcc/arm-none-eabi/4.9.3/../../../arm-none-eabi/lib/armv7-m/libm.a(lib_a-wf_pow.o)
__aeabi_f2iz                                      /usr/lib/gcc/arm-none-eabi/4.9.3/armv7-m/libgcc.a(_arm_fixsfsi.o)
                                                  /usr/lib/gcc/arm-none-eabi/4.9.3/../../../arm-none-eabi/lib/armv7-m/libm.a(lib_a-sf_lrint.o)
                                                  /tmp/cclQ5C5v.ltrans26.ltrans.o
                                                  /tmp/cclQ5C5v.ltrans25.ltrans.o
                                                  /tmp/cclQ5C5v.ltrans22.ltrans.o
                                                  /tmp/cclQ5C5v.ltrans17.ltrans.o
                                                  /tmp/cclQ5C5v.ltrans15.ltrans.o
                                                  /tmp/cclQ5C5v.ltrans14.ltrans.o
                                                  /tmp/cclQ5C5v.ltrans11.ltrans.o
                                                  /tmp/cclQ5C5v.ltrans8.ltrans.o
                                                  /tmp/cclQ5C5v.ltrans6.ltrans.o
                                                  /tmp/cclQ5C5v.ltrans5.ltrans.o
                                                  /tmp/cclQ5C5v.ltrans4.ltrans.o
                                                  /tmp/cclQ5C5v.ltrans1.ltrans.o
__aeabi_f2uiz                                     /usr/lib/gcc/arm-none-eabi/4.9.3/armv7-m/libgcc.a(_arm_fixunssfsi.o)
                                                  /tmp/cclQ5C5v.ltrans11.ltrans.o
                                                  /tmp/cclQ5C5v.ltrans8.ltrans.o
                                                  /tmp/cclQ5C5v.ltrans3.ltrans.o
                                                  /tmp/cclQ5C5v.ltrans1.ltrans.o
__aeabi_fadd                                      /usr/lib/gcc/arm-none-eabi/4.9.3/armv7-m/libgcc.a(_arm_addsubsf3.o)
                                                  /usr/lib/gcc/arm-none-eabi/4.9.3/../../../arm-none-eabi/lib/armv7-m/libm.a(lib_a-sf_scalbn.o)
                                                  /usr/lib/gcc/arm-none-eabi/4.9.3/../../../arm-none-eabi/lib/armv7-m/libm.a(lib_a-ef_sqrt.o)
                                                  /usr/lib/gcc/arm-none-eabi/4.9.3/../../../arm-none-eabi/lib/armv7-m/libm.a(lib_a-ef_pow.o)
                                                  /usr/lib/gcc/arm-none-eabi/4.9.3/../../../arm-none-eabi/lib/armv7-m/libm.a(lib_a-sf_lrint.o)
                                                  /tmp/cclQ5C5v.ltrans26.ltrans.o
                                                  /tmp/cclQ5C5v.ltrans22.ltrans.o
                                                  /tmp/cclQ5C5v.ltrans21.ltrans.o
                                                  /tmp/cclQ5C5v.ltrans14.ltrans.o
                                                  /tmp/cclQ5C5v.ltrans11.ltrans.o
                                                  /tmp/cclQ5C5v.ltrans8.ltrans.o
                                                  /tmp/cclQ5C5v.ltrans6.ltrans.o
                                                  /tmp/cclQ5C5v.ltrans5.ltrans.o
                                                  /tmp/cclQ5C5v.ltrans1.ltrans.o
                                                  /tmp/cclQ5C5v.ltrans0.ltrans.o
__aeabi_fcmpeq                                    /usr/lib/gcc/arm-none-eabi/4.9.3/armv7-m/libgcc.a(_arm_cmpsf2.o)
                                                  /usr/lib/gcc/arm-none-eabi/4.9.3/../../../arm-none-eabi/lib/armv7-m/libm.a(lib_a-wf_pow.o)
                                                  /tmp/cclQ5C5v.ltrans26.ltrans.o
                                                  /tmp/cclQ5C5v.ltrans18.ltrans.o
                                                  /tmp/cclQ5C5v.ltrans14.ltrans.o
                                                  /tmp/cclQ5C5v.ltrans12.ltrans.o
                                                  /tmp/cclQ5C5v.ltrans7.ltrans.o
                                                  /tmp/cclQ5C5v.ltrans6.ltrans.o
                                                  /tmp/cclQ5C5v.ltrans1.ltrans.o
                                                  /tmp/cclQ5C5v.ltrans0.ltrans.o
__aeabi_fcmpge                                    /usr/lib/gcc/arm-none-eabi/4.9.3/armv7-m/libgcc.a(_arm_cmpsf2.o)
                                                  /tmp/cclQ5C5v.ltrans24.ltrans.o
__aeabi_fcmpgt                                    /usr/lib/gcc/arm-none-eabi/4.9.3/armv7-m/libgcc.a(_arm_cmpsf2.o)
                                                  /usr/lib/gcc/arm-none-eabi/4.9.3/../../../arm-none-eabi/lib/armv7-m/libm.a(lib_a-ef_pow.o)
                                                  /tmp/cclQ5C5v.ltrans26.ltrans.o
                                                  /tmp/cclQ5C5v.ltrans21.ltrans.o
                                                  /tmp/cclQ5C5v.ltrans17.ltrans.o
                                                  /tmp/cclQ5C5v.ltrans6.ltrans.o
                                                  /tmp/cclQ5C5v.ltrans1.ltrans.o
__aeabi_fcmple                                    /usr/lib/gcc/arm-none-eabi/4.9.3/armv7-m/libgcc.a(_arm_cmpsf2.o)
                                                  /usr/lib/gcc/arm-none-eabi/4.9.3/../../../arm-none-eabi/lib/armv7-m/libm.a(lib_a-ef_pow.o)
                                                  /tmp/cclQ5C5v.ltrans24.ltrans.o
                                                  /tmp/cclQ5C5v.ltrans22.ltrans.o
                                                  /tmp/cclQ5C5v.ltrans1.ltrans.o
__aeabi_fcmplt                                    /usr/lib/gcc/arm-none-eabi/4.9.3/armv7-m/libgcc.a(_arm_cmpsf2.o)
                                                  /usr/lib/gcc/arm-none-eabi/4.9.3/../../../arm-none-eabi/lib/armv7-m/libm.a(lib_a-wf_sqrt.o)
                                                  /usr/lib/gcc/arm-none-eabi/4.9.3/../../../arm-none-eabi/lib/armv7-m/libm.a(lib_a-wf_pow.o)
                                                  /tmp/cclQ5C5v.ltrans26.ltrans.o
                                                  /tmp/cclQ5C5v.ltrans21.ltrans.o
                                                  /tmp/cclQ5C5v.ltrans12.ltrans.o
                                                  /tmp/cclQ5C5v.ltrans11.ltrans.o
                                                  /tmp/cclQ5C5v.ltrans6.ltrans.o
                                                  /tmp/cclQ5C5v.ltrans5.ltrans.o
                                                  /tmp/cclQ5C5v.ltrans1.ltrans.o
__aeabi_fdiv                                      /usr/lib/gcc/arm-none-eabi/4.9.3/armv7-m/libgcc.a(_arm_muldivsf3.o)
                                                  /usr/lib/gcc/arm-none-eabi/4.9.3/../../../arm-none-eabi/lib/armv7-m/libm.a(lib_a-ef_sqrt.o)
                                                  /usr/lib/gcc/arm-none-eabi/4.9.3/../../../arm-none-eabi/lib/armv7-m/libm.a(lib_a-ef_pow.o)
                                                  /tmp/cclQ5C5v.ltrans26.ltrans.o
                                                  /tmp/cclQ5C5v.ltrans22.ltrans.o
                                                  /tmp/cclQ5C5v.ltrans21.ltrans.o
                                                  /tmp/cclQ5C5v.ltrans17.ltrans.o
                                                  /tmp/cclQ5C5v.ltrans15.ltrans.o
                                                  /tmp/cclQ5C5v.ltrans13.ltrans.o
                                                  /tmp/cclQ5C5v.ltrans11.ltrans.o
                                                  /tmp/cclQ5C5v.ltrans8.ltrans.o
                                                  /tmp/cclQ5C5v.ltrans6.ltrans.o
                                                  /tmp/cclQ5C5v.ltrans5.ltrans.o
                                                  /tmp/cclQ5C5v.ltrans3.ltrans.o
                                                  /tmp/cclQ5C5v.ltrans2.ltrans.o
                                                  /tmp/cclQ5C5v.ltrans1.ltrans.o
                                                  /tmp/cclQ5C5v.ltrans0.ltrans.o
__aeabi_fmul                                      /usr/lib/gcc/arm-none-eabi/4.9.3/armv7-m/libgcc.a(_arm_muldivsf3.o)
                                                  /usr/lib/gcc/arm-none-eabi/4.9.3/../../../arm-none-eabi/lib/armv7-m/libm.a(lib_a-sf_scalbn.o)
                                                  /usr/lib/gcc/arm-none-eabi/4.9.3/../../../arm-none-eabi/lib/armv7-m/libm.a(lib_a-ef_sqrt.o)
                                                  /usr/lib/gcc/arm-none-eabi/4.9.3/../../../arm-none-eabi/lib/armv7-m/libm.a(lib_a-ef_pow.o)
                                                  /usr/lib/gcc/arm-none-eabi/4.9.3/../../../arm-none-eabi/lib/armv7-m/libm.a(lib_a-wf_pow.o)
                                                  /tmp/cclQ5C5v.ltrans26.ltrans.o
                                                  /tmp/cclQ5C5v.ltrans25.ltrans.o
                                                  /tmp/cclQ5C5v.ltrans22.ltrans.o
                                                  /tmp/cclQ5C5v.ltrans21.ltrans.o
                                                  /tmp/cclQ5C5v.ltrans17.ltrans.o
                                                  /tmp/cclQ5C5v.ltrans14.ltrans.o
                                                  /tmp/cclQ5C5v.ltrans11.ltrans.o
                                                  /tmp/cclQ5C5v.ltrans8.ltrans.o
                                                  /tmp/cclQ5C5v.ltrans6.ltrans.o
                                                  /tmp/cclQ5C5v.ltrans5.ltrans.o
                                                  /tmp/cclQ5C5v.ltrans3.ltrans.o
                                                  /tmp/cclQ5C5v.ltrans2.ltrans.o
                                                  /tmp/cclQ5C5v.ltrans1.ltrans.o
                                                  /tmp/cclQ5C5v.ltrans0.ltrans.o
__aeabi_frsub                                     /usr/lib/gcc/arm-none-eabi/4.9.3/armv7-m/libgcc.a(_arm_addsubsf3.o)
__aeabi_fsub                                      /usr/lib/gcc/arm-none-eabi/4.9.3/armv7-m/libgcc.a(_arm_addsubsf3.o)
                                                  /usr/lib/gcc/arm-none-eabi/4.9.3/../../../arm-none-eabi/lib/armv7-m/libm.a(lib_a-ef_sqrt.o)
                                                  /usr/lib/gcc/arm-none-eabi/4.9.3/../../../arm-none-eabi/lib/armv7-m/libm.a(lib_a-ef_pow.o)
                                                  /usr/lib/gcc/arm-none-eabi/4.9.3/../../../arm-none-eabi/lib/armv7-m/libm.a(lib_a-sf_lrint.o)
                                                  /tmp/cclQ5C5v.ltrans26.ltrans.o
                                                  /tmp/cclQ5C5v.ltrans22.ltrans.o
                                                  /tmp/cclQ5C5v.ltrans14.ltrans.o
                                                  /tmp/cclQ5C5v.ltrans11.ltrans.o
                                                  /tmp/cclQ5C5v.ltrans6.ltrans.o
                                                  /tmp/cclQ5C5v.ltrans3.ltrans.o
                                                  /tmp/cclQ5C5v.ltrans1.ltrans.o
                                                  /tmp/cclQ5C5v.ltrans0.ltrans.o
__aeabi_i2d                                       /usr/lib/gcc/arm-none-eabi/4.9.3/armv7-m/libgcc.a(_arm_addsubdf3.o)
                                                  /tmp/cclQ5C5v.ltrans4.ltrans.o
__aeabi_i2f                                       /usr/lib/gcc/arm-none-eabi/4.9.3/armv7-m/libgcc.a(_arm_addsubsf3.o)
                                                  /usr/lib/gcc/arm-none-eabi/4.9.3/../../../arm-none-eabi/lib/armv7-m/libm.a(lib_a-ef_pow.o)
                                                  /tmp/cclQ5C5v.ltrans26.ltrans.o
                                                  /tmp/cclQ5C5v.ltrans24.ltrans.o
                                                  /tmp/cclQ5C5v.ltrans22.ltrans.o
                                                  /tmp/cclQ5C5v.ltrans21.ltrans.o
                                                  /tmp/cclQ5C5v.ltrans17.ltrans.o
                                                  /tmp/cclQ5C5v.ltrans15.ltrans.o
                                                  /tmp/cclQ5C5v.ltrans14.ltrans.o
                                                  /tmp/cclQ5C5v.ltrans13.ltrans.o
                                                  /tmp/cclQ5C5v.ltrans11.ltrans.o
                                                  /tmp/cclQ5C5v.ltrans8.ltrans.o
                                                  /tmp/cclQ5C5v.ltrans6.ltrans.o
                                                  /tmp/cclQ5C5v.ltrans5.ltrans.o
                                                  /tmp/cclQ5C5v.ltrans4.ltrans.o
                                                  /tmp/cclQ5C5v.ltrans3.ltrans.o
                                                  /tmp/cclQ5C5v.ltrans1.ltrans.o
                                                  /tmp/cclQ5C5v.ltrans0.ltrans.o
__aeabi_idiv0                                     /usr/lib/gcc/arm-none-eabi/4.9.3/armv7-m/libgcc.a(_dvmd_tls.o)
__aeabi_l2d                                       /usr/lib/gcc/arm-none-eabi/4.9.3/armv7-m/libgcc.a(_arm_addsubdf3.o)
__aeabi_l2f                                       /usr/lib/gcc/arm-none-eabi/4.9.3/armv7-m/libgcc.a(_arm_addsubsf3.o)
__aeabi_ldiv0                                     /usr/lib/gcc/arm-none-eabi/4.9.3/armv7-m/libgcc.a(_dvmd_tls.o)
                                                  /usr/lib/gcc/arm-none-eabi/4.9.3/armv7-m/libgcc.a(_aeabi_ldivmod.o)
__aeabi_ldivmod                                   /usr/lib/gcc/arm-none-eabi/4.9.3/armv7-m/libgcc.a(_aeabi_ldivmod.o)
                                                  /tmp/cclQ5C5v.ltrans27.ltrans.o
__aeabi_ui2d                                      /usr/lib/gcc/arm-none-eabi/4.9.3/armv7-m/libgcc.a(_arm_addsubdf3.o)
                                                  /tmp/cclQ5C5v.ltrans26.ltrans.o
__aeabi_ui2f                                      /usr/lib/gcc/arm-none-eabi/4.9.3/armv7-m/libgcc.a(_arm_addsubsf3.o)
                                                  /tmp/cclQ5C5v.ltrans22.ltrans.o
                                                  /tmp/cclQ5C5v.ltrans17.ltrans.o
                                                  /tmp/cclQ5C5v.ltrans15.ltrans.o
                                                  /tmp/cclQ5C5v.ltrans13.ltrans.o
                                                  /tmp/cclQ5C5v.ltrans11.ltrans.o
                                                  /tmp/cclQ5C5v.ltrans8.ltrans.o
                                                  /tmp/cclQ5C5v.ltrans6.ltrans.o
                                                  /tmp/cclQ5C5v.ltrans3.ltrans.o
                                                  /tmp/cclQ5C5v.ltrans2.ltrans.o
                                                  /tmp/cclQ5C5v.ltrans1.ltrans.o
__aeabi_ul2d                                      /usr/lib/gcc/arm-none-eabi/4.9.3/armv7-m/libgcc.a(_arm_addsubdf3.o)
__aeabi_ul2f                                      /usr/lib/gcc/arm-none-eabi/4.9.3/armv7-m/libgcc.a(_arm_addsubsf3.o)
__cmpdf2                                          /usr/lib/gcc/arm-none-eabi/4.9.3/armv7-m/libgcc.a(_arm_cmpdf2.o)
__cmpsf2                                          /usr/lib/gcc/arm-none-eabi/4.9.3/armv7-m/libgcc.a(_arm_cmpsf2.o)
__ctype_ptr__                                     /usr/lib/gcc/arm-none-eabi/4.9.3/../../../arm-none-eabi/lib/armv7-m/libc_nano.a(lib_a-ctype_.o)
                                                  /usr/lib/gcc/arm-none-eabi/4.9.3/../../../arm-none-eabi/lib/armv7-m/libc_nano.a(lib_a-strncasecmp.o)
                                                  /usr/lib/gcc/arm-none-eabi/4.9.3/../../../arm-none-eabi/lib/armv7-m/libc_nano.a(lib_a-strcasecmp.o)
                                                  /tmp/cclQ5C5v.ltrans21.ltrans.o
                                                  /tmp/cclQ5C5v.ltrans12.ltrans.o
                                                  /tmp/cclQ5C5v.ltrans2.ltrans.o
                                                  /usr/lib/gcc/arm-none-eabi/4.9.3/../../../arm-none-eabi/lib/armv7-m/libc_nano.a(lib_a-strtol.o)
                                                  obj/main/NAZE/../controller/io/serial_cli.o (symbol from plugin)
                                                  obj/main/NAZE/../controller/flight/gps_conversion.o (symbol from plugin)
__divdf3                                          /usr/lib/gcc/arm-none-eabi/4.9.3/armv7-m/libgcc.a(_arm_muldivdf3.o)
__divdi3                                          /usr/lib/gcc/arm-none-eabi/4.9.3/armv7-m/libgcc.a(_divdi3.o)
                                                  /usr/lib/gcc/arm-none-eabi/4.9.3/armv7-m/libgcc.a(bpabi.o)
__divsf3                                          /usr/lib/gcc/arm-none-eabi/4.9.3/armv7-m/libgcc.a(_arm_muldivsf3.o)
__eqdf2                                           /usr/lib/gcc/arm-none-eabi/4.9.3/armv7-m/libgcc.a(_arm_cmpdf2.o)
__eqsf2                                           /usr/lib/gcc/arm-none-eabi/4.9.3/armv7-m/libgcc.a(_arm_cmpsf2.o)
__errno                                           /usr/lib/gcc/arm-none-eabi/4.9.3/../../../arm-none-eabi/lib/armv7-m/libc_nano.a(lib_a-errno.o)
                                                  /usr/lib/gcc/arm-none-eabi/4.9.3/../../../arm-none-eabi/lib/armv7-m/libm.a(lib_a-wf_sqrt.o)
                                                  /usr/lib/gcc/arm-none-eabi/4.9.3/../../../arm-none-eabi/lib/armv7-m/libm.a(lib_a-wf_pow.o)
__extendsfdf2                                     /usr/lib/gcc/arm-none-eabi/4.9.3/armv7-m/libgcc.a(_arm_addsubdf3.o)
__fdlib_version                                   /usr/lib/gcc/arm-none-eabi/4.9.3/../../../arm-none-eabi/lib/armv7-m/libm.a(lib_a-s_lib_ver.o)
                                                  /usr/lib/gcc/arm-none-eabi/4.9.3/../../../arm-none-eabi/lib/armv7-m/libm.a(lib_a-wf_sqrt.o)
                                                  /usr/lib/gcc/arm-none-eabi/4.9.3/../../../arm-none-eabi/lib/armv7-m/libm.a(lib_a-wf_pow.o)
__fixsfsi                                         /usr/lib/gcc/arm-none-eabi/4.9.3/armv7-m/libgcc.a(_arm_fixsfsi.o)
__fixunssfsi                                      /usr/lib/gcc/arm-none-eabi/4.9.3/armv7-m/libgcc.a(_arm_fixunssfsi.o)
__floatdidf                                       /usr/lib/gcc/arm-none-eabi/4.9.3/armv7-m/libgcc.a(_arm_addsubdf3.o)
__floatdisf                                       /usr/lib/gcc/arm-none-eabi/4.9.3/armv7-m/libgcc.a(_arm_addsubsf3.o)
__floatsidf                                       /usr/lib/gcc/arm-none-eabi/4.9.3/armv7-m/libgcc.a(_arm_addsubdf3.o)
__floatsisf                                       /usr/lib/gcc/arm-none-eabi/4.9.3/armv7-m/libgcc.a(_arm_addsubsf3.o)
__floatundidf                                     /usr/lib/gcc/arm-none-eabi/4.9.3/armv7-m/libgcc.a(_arm_addsubdf3.o)
__floatundisf                                     /usr/lib/gcc/arm-none-eabi/4.9.3/armv7-m/libgcc.a(_arm_addsubsf3.o)
__floatunsidf                                     /usr/lib/gcc/arm-none-eabi/4.9.3/armv7-m/libgcc.a(_arm_addsubdf3.o)
__floatunsisf                                     /usr/lib/gcc/arm-none-eabi/4.9.3/armv7-m/libgcc.a(_arm_addsubsf3.o)
__fpclassifyf                                     /usr/lib/gcc/arm-none-eabi/4.9.3/../../../arm-none-eabi/lib/armv7-m/libm.a(lib_a-sf_fpclassify.o)
                                                  /usr/lib/gcc/arm-none-eabi/4.9.3/../../../arm-none-eabi/lib/armv7-m/libm.a(lib_a-wf_sqrt.o)
                                                  /usr/lib/gcc/arm-none-eabi/4.9.3/../../../arm-none-eabi/lib/armv7-m/libm.a(lib_a-wf_pow.o)
__gedf2                                           /usr/lib/gcc/arm-none-eabi/4.9.3/armv7-m/libgcc.a(_arm_cmpdf2.o)
__gesf2                                           /usr/lib/gcc/arm-none-eabi/4.9.3/armv7-m/libgcc.a(_arm_cmpsf2.o)
__get_BASEPRI                                     obj/main/NAZE/core_cm3.o (symbol from plugin)
                                                  obj/main/NAZE/drivers/timer.o (symbol from plugin)
__get_CONTROL                                     obj/main/NAZE/core_cm3.o (symbol from plugin)
__get_FAULTMASK                                   obj/main/NAZE/core_cm3.o (symbol from plugin)
__get_MSP                                         obj/main/NAZE/core_cm3.o (symbol from plugin)
__get_PRIMASK                                     obj/main/NAZE/core_cm3.o (symbol from plugin)
__get_PSP                                         obj/main/NAZE/core_cm3.o (symbol from plugin)
__gnu_ldivmod_helper                              /usr/lib/gcc/arm-none-eabi/4.9.3/armv7-m/libgcc.a(bpabi.o)
                                                  /usr/lib/gcc/arm-none-eabi/4.9.3/armv7-m/libgcc.a(_aeabi_ldivmod.o)
__gnu_uldivmod_helper                             /usr/lib/gcc/arm-none-eabi/4.9.3/armv7-m/libgcc.a(bpabi.o)
__gtdf2                                           /usr/lib/gcc/arm-none-eabi/4.9.3/armv7-m/libgcc.a(_arm_cmpdf2.o)
__gtsf2                                           /usr/lib/gcc/arm-none-eabi/4.9.3/armv7-m/libgcc.a(_arm_cmpsf2.o)
__ieee754_powf                                    /usr/lib/gcc/arm-none-eabi/4.9.3/../../../arm-none-eabi/lib/armv7-m/libm.a(lib_a-ef_pow.o)
                                                  /usr/lib/gcc/arm-none-eabi/4.9.3/../../../arm-none-eabi/lib/armv7-m/libm.a(lib_a-wf_pow.o)
__ieee754_sqrtf                                   /usr/lib/gcc/arm-none-eabi/4.9.3/../../../arm-none-eabi/lib/armv7-m/libm.a(lib_a-ef_sqrt.o)
                                                  /usr/lib/gcc/arm-none-eabi/4.9.3/../../../arm-none-eabi/lib/armv7-m/libm.a(lib_a-ef_pow.o)
                                                  /usr/lib/gcc/arm-none-eabi/4.9.3/../../../arm-none-eabi/lib/armv7-m/libm.a(lib_a-wf_sqrt.o)
__ledf2                                           /usr/lib/gcc/arm-none-eabi/4.9.3/armv7-m/libgcc.a(_arm_cmpdf2.o)
__lesf2                                           /usr/lib/gcc/arm-none-eabi/4.9.3/armv7-m/libgcc.a(_arm_cmpsf2.o)
__ltdf2                                           /usr/lib/gcc/arm-none-eabi/4.9.3/armv7-m/libgcc.a(_arm_cmpdf2.o)
__ltsf2                                           /usr/lib/gcc/arm-none-eabi/4.9.3/armv7-m/libgcc.a(_arm_cmpsf2.o)
__malloc_free_list                                /usr/lib/gcc/arm-none-eabi/4.9.3/../../../arm-none-eabi/lib/armv7-m/libc_nano.a(lib_a-nano-mallocr.o)
                                                  /usr/lib/gcc/arm-none-eabi/4.9.3/../../../arm-none-eabi/lib/armv7-m/libc_nano.a(lib_a-nano-freer.o)
__malloc_sbrk_start                               /usr/lib/gcc/arm-none-eabi/4.9.3/../../../arm-none-eabi/lib/armv7-m/libc_nano.a(lib_a-nano-mallocr.o)
__muldf3                                          /usr/lib/gcc/arm-none-eabi/4.9.3/armv7-m/libgcc.a(_arm_muldivdf3.o)
__mulsf3                                          /usr/lib/gcc/arm-none-eabi/4.9.3/armv7-m/libgcc.a(_arm_muldivsf3.o)
__nedf2                                           /usr/lib/gcc/arm-none-eabi/4.9.3/armv7-m/libgcc.a(_arm_cmpdf2.o)
__nesf2                                           /usr/lib/gcc/arm-none-eabi/4.9.3/armv7-m/libgcc.a(_arm_cmpsf2.o)
__set_BASEPRI                                     obj/main/NAZE/core_cm3.o (symbol from plugin)
                                                  obj/main/NAZE/drivers/timer.o (symbol from plugin)
__set_CONTROL                                     obj/main/NAZE/core_cm3.o (symbol from plugin)
__set_FAULTMASK                                   obj/main/NAZE/core_cm3.o (symbol from plugin)
__set_MSP                                         obj/main/NAZE/core_cm3.o (symbol from plugin)
__set_PRIMASK                                     obj/main/NAZE/core_cm3.o (symbol from plugin)
__set_PSP                                         obj/main/NAZE/core_cm3.o (symbol from plugin)
__sf_fake_stderr                                  /usr/lib/gcc/arm-none-eabi/4.9.3/../../../arm-none-eabi/lib/armv7-m/libc_nano.a(lib_a-impure.o)
__sf_fake_stdin                                   /usr/lib/gcc/arm-none-eabi/4.9.3/../../../arm-none-eabi/lib/armv7-m/libc_nano.a(lib_a-impure.o)
__sf_fake_stdout                                  /usr/lib/gcc/arm-none-eabi/4.9.3/../../../arm-none-eabi/lib/armv7-m/libc_nano.a(lib_a-impure.o)
__strtok_r                                        /usr/lib/gcc/arm-none-eabi/4.9.3/../../../arm-none-eabi/lib/armv7-m/libc_nano.a(lib_a-strtok_r.o)
                                                  /usr/lib/gcc/arm-none-eabi/4.9.3/../../../arm-none-eabi/lib/armv7-m/libc_nano.a(lib_a-strtok.o)
__subdf3                                          /usr/lib/gcc/arm-none-eabi/4.9.3/armv7-m/libgcc.a(_arm_addsubdf3.o)
__subsf3                                          /usr/lib/gcc/arm-none-eabi/4.9.3/armv7-m/libgcc.a(_arm_addsubsf3.o)
__truncdfsf2                                      /usr/lib/gcc/arm-none-eabi/4.9.3/armv7-m/libgcc.a(_arm_truncdfsf2.o)
__udivdi3                                         /usr/lib/gcc/arm-none-eabi/4.9.3/armv7-m/libgcc.a(_udivdi3.o)
                                                  /usr/lib/gcc/arm-none-eabi/4.9.3/armv7-m/libgcc.a(bpabi.o)
_actHcSr04Trigger.lto_priv.453                    /tmp/cclQ5C5v.ltrans20.ltrans.o
                                                  /tmp/cclQ5C5v.ltrans0.ltrans.o
_alignSensors.constprop.207                       /tmp/cclQ5C5v.ltrans21.ltrans.o
                                                  /tmp/cclQ5C5v.ltrans15.ltrans.o
                                                  /tmp/cclQ5C5v.ltrans4.ltrans.o
_atoi_r                                           /usr/lib/gcc/arm-none-eabi/4.9.3/../../../arm-none-eabi/lib/armv7-m/libc_nano.a(lib_a-atoi.o)
_calloc_r                                         /usr/lib/gcc/arm-none-eabi/4.9.3/../../../arm-none-eabi/lib/armv7-m/libc_nano.a(lib_a-nano-callocr.o)
                                                  /usr/lib/gcc/arm-none-eabi/4.9.3/../../../arm-none-eabi/lib/armv7-m/libc_nano.a(lib_a-calloc.o)
_ctype_                                           /usr/lib/gcc/arm-none-eabi/4.9.3/../../../arm-none-eabi/lib/armv7-m/libc_nano.a(lib_a-ctype_.o)
_doTask.lto_priv.226                              /tmp/cclQ5C5v.ltrans13.ltrans.o
                                                  /tmp/cclQ5C5v.ltrans18.ltrans.o
_doTask.lto_priv.227                              /tmp/cclQ5C5v.ltrans13.ltrans.o
                                                  /tmp/cclQ5C5v.ltrans0.ltrans.o
_doTask.lto_priv.228                              /tmp/cclQ5C5v.ltrans13.ltrans.o
                                                  /tmp/cclQ5C5v.ltrans0.ltrans.o
_ebss                                             obj/main/NAZE/startup_stm32f10x_md_gcc.o
_edata                                            obj/main/NAZE/startup_stm32f10x_md_gcc.o
_estack                                           obj/main/NAZE/startup_stm32f10x_md_gcc.o
_evtHcSr04Distance.lto_priv.454                   /tmp/cclQ5C5v.ltrans20.ltrans.o
                                                  /tmp/cclQ5C5v.ltrans0.ltrans.o
_evtRcPpmReceive.lto_priv.497                     /tmp/cclQ5C5v.ltrans20.ltrans.o
                                                  /tmp/cclQ5C5v.ltrans0.ltrans.o
_free_r                                           /usr/lib/gcc/arm-none-eabi/4.9.3/../../../arm-none-eabi/lib/armv7-m/libc_nano.a(lib_a-nano-freer.o)
                                                  /usr/lib/gcc/arm-none-eabi/4.9.3/../../../arm-none-eabi/lib/armv7-m/libc_nano.a(lib_a-reent.o)
                                                  /usr/lib/gcc/arm-none-eabi/4.9.3/../../../arm-none-eabi/lib/armv7-m/libc_nano.a(lib_a-malloc.o)
_global_impure_ptr                                /usr/lib/gcc/arm-none-eabi/4.9.3/../../../arm-none-eabi/lib/armv7-m/libc_nano.a(lib_a-impure.o)
_i2a.lto_priv.224                                 /tmp/cclQ5C5v.ltrans6.ltrans.o
                                                  /tmp/cclQ5C5v.ltrans21.ltrans.o
_impure_ptr                                       /usr/lib/gcc/arm-none-eabi/4.9.3/../../../arm-none-eabi/lib/armv7-m/libc_nano.a(lib_a-impure.o)
                                                  /usr/lib/gcc/arm-none-eabi/4.9.3/../../../arm-none-eabi/lib/armv7-m/libc_nano.a(lib_a-errno.o)
                                                  /usr/lib/gcc/arm-none-eabi/4.9.3/../../../arm-none-eabi/lib/armv7-m/libc_nano.a(lib_a-calloc.o)
                                                  /usr/lib/gcc/arm-none-eabi/4.9.3/../../../arm-none-eabi/lib/armv7-m/libc_nano.a(lib_a-reent.o)
                                                  /usr/lib/gcc/arm-none-eabi/4.9.3/../../../arm-none-eabi/lib/armv7-m/libc_nano.a(lib_a-malloc.o)
                                                  /usr/lib/gcc/arm-none-eabi/4.9.3/../../../arm-none-eabi/lib/armv7-m/libc_nano.a(lib_a-strtol.o)
                                                  /usr/lib/gcc/arm-none-eabi/4.9.3/../../../arm-none-eabi/lib/armv7-m/libc_nano.a(lib_a-strtok.o)
_malloc_r                                         /usr/lib/gcc/arm-none-eabi/4.9.3/../../../arm-none-eabi/lib/armv7-m/libc_nano.a(lib_a-nano-mallocr.o)
                                                  /usr/lib/gcc/arm-none-eabi/4.9.3/../../../arm-none-eabi/lib/armv7-m/libc_nano.a(lib_a-nano-callocr.o)
                                                  /usr/lib/gcc/arm-none-eabi/4.9.3/../../../arm-none-eabi/lib/armv7-m/libc_nano.a(lib_a-malloc.o)
_processingTask.part.1.lto_priv.434               /tmp/cclQ5C5v.ltrans13.ltrans.o
                                                  /tmp/cclQ5C5v.ltrans18.ltrans.o
_putc.lto_priv.503                                /tmp/cclQ5C5v.ltrans6.ltrans.o
                                                  /tmp/cclQ5C5v.ltrans0.ltrans.o
_reclaim_reent                                    /usr/lib/gcc/arm-none-eabi/4.9.3/../../../arm-none-eabi/lib/armv7-m/libc_nano.a(lib_a-reent.o)
_sbrk                                             /usr/lib/gcc/arm-none-eabi/4.9.3/../../../arm-none-eabi/lib/armv7-m/libnosys.a(sbrk.o)
                                                  /usr/lib/gcc/arm-none-eabi/4.9.3/../../../arm-none-eabi/lib/armv7-m/libc_nano.a(lib_a-sbrkr.o)
_sbrk_r                                           /usr/lib/gcc/arm-none-eabi/4.9.3/../../../arm-none-eabi/lib/armv7-m/libc_nano.a(lib_a-sbrkr.o)
                                                  /usr/lib/gcc/arm-none-eabi/4.9.3/../../../arm-none-eabi/lib/armv7-m/libc_nano.a(lib_a-nano-mallocr.o)
_sbss                                             obj/main/NAZE/startup_stm32f10x_md_gcc.o
_sdata                                            obj/main/NAZE/startup_stm32f10x_md_gcc.o
_sidata                                           obj/main/NAZE/startup_stm32f10x_md_gcc.o
_strtol_r                                         /usr/lib/gcc/arm-none-eabi/4.9.3/../../../arm-none-eabi/lib/armv7-m/libc_nano.a(lib_a-strtol.o)
                                                  /usr/lib/gcc/arm-none-eabi/4.9.3/../../../arm-none-eabi/lib/armv7-m/libc_nano.a(lib_a-atoi.o)
_update_checksum                                  obj/main/NAZE/../controller/io/gps.o (symbol from plugin)
a2d                                               obj/main/NAZE/../controller/common/typeconversion.o (symbol from plugin)
a2i                                               obj/main/NAZE/../controller/common/typeconversion.o (symbol from plugin)
                                                  obj/main/NAZE/../controller/common/printf.o (symbol from plugin)
acc                                               /tmp/cclQ5C5v.ltrans24.ltrans.o
                                                  obj/main/NAZE/../controller/sensors/acceleration.o (symbol from plugin)
                                                  /tmp/cclQ5C5v.ltrans28.ltrans.o
                                                  /tmp/cclQ5C5v.ltrans0.ltrans.o
                                                  obj/main/NAZE/../controller/sensors/initialisation.o (symbol from plugin)
                                                  obj/main/NAZE/../controller/io/serial_cli.o (symbol from plugin)
accADC                                            /tmp/cclQ5C5v.ltrans28.ltrans.o
                                                  obj/main/NAZE/../controller/sensors/acceleration.o (symbol from plugin)
                                                  /tmp/cclQ5C5v.ltrans1.ltrans.o
                                                  obj/main/NAZE/../controller/flight/imu.o (symbol from plugin)
accAlign                                          /tmp/cclQ5C5v.ltrans28.ltrans.o
                                                  obj/main/NAZE/../controller/sensors/acceleration.o (symbol from plugin)
                                                  /tmp/cclQ5C5v.ltrans0.ltrans.o
                                                  obj/main/NAZE/../controller/sensors/initialisation.o (symbol from plugin)
accDeadband.lto_priv.536                          /tmp/cclQ5C5v.ltrans1.ltrans.o
                                                  /tmp/cclQ5C5v.ltrans6.ltrans.o
accSetCalibrationCycles                           obj/main/NAZE/../controller/sensors/acceleration.o (symbol from plugin)
                                                  obj/main/NAZE/../controller/io/serial_msp.o (symbol from plugin)
                                                  obj/main/NAZE/../controller/io/rc_controls.o (symbol from plugin)
                                                  obj/main/NAZE/main.o (symbol from plugin)
accSmooth                                         /tmp/cclQ5C5v.ltrans5.ltrans.o
                                                  obj/main/NAZE/../controller/flight/imu.o (symbol from plugin)
                                                  /tmp/cclQ5C5v.ltrans19.ltrans.o
                                                  /tmp/cclQ5C5v.ltrans10.ltrans.o
                                                  /tmp/cclQ5C5v.ltrans2.ltrans.o
                                                  /tmp/cclQ5C5v.ltrans1.ltrans.o
                                                  obj/main/NAZE/../controller/io/serial_msp.o (symbol from plugin)
                                                  obj/main/NAZE/../controller/blackbox/blackbox.o (symbol from plugin)
                                                  obj/main/NAZE/../controller/telemetry/smartport.o (symbol from plugin)
                                                  obj/main/NAZE/../controller/telemetry/frsky.o (symbol from plugin)
                                                  obj/main/NAZE/../controller/io/display.o (symbol from plugin)
accSum                                            /tmp/cclQ5C5v.ltrans22.ltrans.o
                                                  obj/main/NAZE/../controller/flight/imu.o (symbol from plugin)
                                                  /tmp/cclQ5C5v.ltrans1.ltrans.o
                                                  obj/main/NAZE/../controller/flight/altitudehold.o (symbol from plugin)
accSumCount                                       /tmp/cclQ5C5v.ltrans22.ltrans.o
                                                  obj/main/NAZE/../controller/flight/imu.o (symbol from plugin)
                                                  /tmp/cclQ5C5v.ltrans1.ltrans.o
                                                  obj/main/NAZE/../controller/flight/altitudehold.o (symbol from plugin)
accTimeSum                                        /tmp/cclQ5C5v.ltrans22.ltrans.o
                                                  obj/main/NAZE/../controller/flight/imu.o (symbol from plugin)
                                                  /tmp/cclQ5C5v.ltrans1.ltrans.o
                                                  obj/main/NAZE/../controller/flight/altitudehold.o (symbol from plugin)
accVelScale                                       /tmp/cclQ5C5v.ltrans22.ltrans.o
                                                  obj/main/NAZE/../controller/flight/imu.o (symbol from plugin)
                                                  /tmp/cclQ5C5v.ltrans0.ltrans.o
                                                  obj/main/NAZE/../controller/flight/altitudehold.o (symbol from plugin)
acc_1G                                            /tmp/cclQ5C5v.ltrans5.ltrans.o
                                                  obj/main/NAZE/../controller/sensors/acceleration.o (symbol from plugin)
                                                  /tmp/cclQ5C5v.ltrans28.ltrans.o
                                                  /tmp/cclQ5C5v.ltrans4.ltrans.o
                                                  /tmp/cclQ5C5v.ltrans2.ltrans.o
                                                  /tmp/cclQ5C5v.ltrans1.ltrans.o
                                                  /tmp/cclQ5C5v.ltrans0.ltrans.o
                                                  obj/main/NAZE/../controller/io/serial_msp.o (symbol from plugin)
                                                  obj/main/NAZE/../controller/flight/imu.o (symbol from plugin)
                                                  obj/main/NAZE/../controller/blackbox/blackbox.o (symbol from plugin)
                                                  obj/main/NAZE/../controller/telemetry/frsky.o (symbol from plugin)
                                                  obj/main/NAZE/drivers/accgyro_mpu6500.o (symbol from plugin)
                                                  obj/main/NAZE/drivers/accgyro_mpu6050.o (symbol from plugin)
                                                  obj/main/NAZE/drivers/accgyro_mma845x.o (symbol from plugin)
                                                  obj/main/NAZE/drivers/accgyro_bma280.o (symbol from plugin)
                                                  obj/main/NAZE/drivers/accgyro_adxl345.o (symbol from plugin)
acc_samples                                       obj/main/NAZE/drivers/accgyro_adxl345.o (symbol from plugin)
accelerationTrims.lto_priv.539                    /tmp/cclQ5C5v.ltrans28.ltrans.o
                                                  /tmp/cclQ5C5v.ltrans6.ltrans.o
acosf                                             /tmp/cclQ5C5v.ltrans6.ltrans.o
                                                  /tmp/cclQ5C5v.ltrans1.ltrans.o
actI2cRead.lto_priv.218                           /tmp/cclQ5C5v.ltrans15.ltrans.o
                                                  /tmp/cclQ5C5v.ltrans21.ltrans.o
actI2cWrite.lto_priv.219                          /tmp/cclQ5C5v.ltrans15.ltrans.o
                                                  /tmp/cclQ5C5v.ltrans21.ltrans.o
activateConfig                                    obj/main/NAZE/../controller/config/config.o (symbol from plugin)
activateControlRateConfig                         /tmp/cclQ5C5v.ltrans23.ltrans.o
                                                  obj/main/NAZE/../controller/config/config.o (symbol from plugin)
                                                  /tmp/cclQ5C5v.ltrans24.ltrans.o
                                                  /tmp/cclQ5C5v.ltrans6.ltrans.o
                                                  /tmp/cclQ5C5v.ltrans3.ltrans.o
activeBoxIdCount.lto_priv.361                     /tmp/cclQ5C5v.ltrans8.ltrans.o
                                                  /tmp/cclQ5C5v.ltrans2.ltrans.o
                                                  /tmp/cclQ5C5v.ltrans0.ltrans.o
activeBoxIds.lto_priv.362                         /tmp/cclQ5C5v.ltrans8.ltrans.o
                                                  /tmp/cclQ5C5v.ltrans2.ltrans.o
                                                  /tmp/cclQ5C5v.ltrans0.ltrans.o
activeFeaturesLatch.lto_priv.230                  /tmp/cclQ5C5v.ltrans21.ltrans.o
                                                  /tmp/cclQ5C5v.ltrans28.ltrans.o
                                                  /tmp/cclQ5C5v.ltrans27.ltrans.o
                                                  /tmp/cclQ5C5v.ltrans22.ltrans.o
                                                  /tmp/cclQ5C5v.ltrans19.ltrans.o
                                                  /tmp/cclQ5C5v.ltrans18.ltrans.o
                                                  /tmp/cclQ5C5v.ltrans17.ltrans.o
                                                  /tmp/cclQ5C5v.ltrans14.ltrans.o
                                                  /tmp/cclQ5C5v.ltrans12.ltrans.o
                                                  /tmp/cclQ5C5v.ltrans10.ltrans.o
                                                  /tmp/cclQ5C5v.ltrans9.ltrans.o
                                                  /tmp/cclQ5C5v.ltrans8.ltrans.o
                                                  /tmp/cclQ5C5v.ltrans6.ltrans.o
                                                  /tmp/cclQ5C5v.ltrans5.ltrans.o
                                                  /tmp/cclQ5C5v.ltrans3.ltrans.o
                                                  /tmp/cclQ5C5v.ltrans1.ltrans.o
                                                  /tmp/cclQ5C5v.ltrans0.ltrans.o
adcConfig                                         /tmp/cclQ5C5v.ltrans8.ltrans.o
                                                  obj/main/NAZE/drivers/adc.o (symbol from plugin)
                                                  /tmp/cclQ5C5v.ltrans27.ltrans.o
                                                  /tmp/cclQ5C5v.ltrans3.ltrans.o
                                                  /tmp/cclQ5C5v.ltrans0.ltrans.o
                                                  obj/main/NAZE/drivers/adc_stm32f10x.o (symbol from plugin)
adcGetChannel                                     obj/main/NAZE/drivers/adc.o (symbol from plugin)
                                                  obj/main/NAZE/../controller/sensors/battery.o (symbol from plugin)
                                                  obj/main/NAZE/../controller/rx/rx.o (symbol from plugin)
adcInit                                           obj/main/NAZE/drivers/adc_stm32f10x.o (symbol from plugin)
                                                  obj/main/NAZE/main.o (symbol from plugin)
adcValues                                         /tmp/cclQ5C5v.ltrans8.ltrans.o
                                                  obj/main/NAZE/drivers/adc.o (symbol from plugin)
                                                  /tmp/cclQ5C5v.ltrans27.ltrans.o
                                                  /tmp/cclQ5C5v.ltrans3.ltrans.o
                                                  /tmp/cclQ5C5v.ltrans0.ltrans.o
                                                  obj/main/NAZE/drivers/adc_stm32f10x.o (symbol from plugin)
addGPSCoordinates                                 obj/main/NAZE/../controller/telemetry/hott.o (symbol from plugin)
adjustmentStateMask                               obj/main/NAZE/../controller/io/rc_controls.o (symbol from plugin)
adjustmentStates                                  /tmp/cclQ5C5v.ltrans3.ltrans.o
                                                  obj/main/NAZE/../controller/io/rc_controls.o (symbol from plugin)
                                                  /tmp/cclQ5C5v.ltrans6.ltrans.o
adxl345Detect                                     obj/main/NAZE/drivers/accgyro_adxl345.o (symbol from plugin)
alignSensors                                      /tmp/cclQ5C5v.ltrans8.ltrans.o
                                                  obj/main/NAZE/../controller/sensors/boardalignment.o (symbol from plugin)
                                                  /tmp/cclQ5C5v.ltrans28.ltrans.o
                                                  /tmp/cclQ5C5v.ltrans22.ltrans.o
                                                  /tmp/cclQ5C5v.ltrans1.ltrans.o
                                                  obj/main/NAZE/../controller/sensors/gyro.o (symbol from plugin)
                                                  obj/main/NAZE/../controller/sensors/compass.o (symbol from plugin)
                                                  obj/main/NAZE/../controller/sensors/acceleration.o (symbol from plugin)
altHoldThrottleAdjustment                         /tmp/cclQ5C5v.ltrans22.ltrans.o
                                                  obj/main/NAZE/../controller/flight/altitudehold.o (symbol from plugin)
                                                  /tmp/cclQ5C5v.ltrans3.ltrans.o
                                                  /tmp/cclQ5C5v.ltrans1.ltrans.o
altitudeHoldGetEstimatedAltitude                  obj/main/NAZE/../controller/flight/altitudehold.o (symbol from plugin)
                                                  obj/main/NAZE/../controller/io/serial_msp.o (symbol from plugin)
                                                  obj/main/NAZE/../controller/telemetry/ltm.o (symbol from plugin)
amperage                                          /tmp/cclQ5C5v.ltrans5.ltrans.o
                                                  obj/main/NAZE/../controller/sensors/battery.o (symbol from plugin)
                                                  /tmp/cclQ5C5v.ltrans27.ltrans.o
                                                  /tmp/cclQ5C5v.ltrans19.ltrans.o
                                                  /tmp/cclQ5C5v.ltrans2.ltrans.o
                                                  obj/main/NAZE/../controller/io/serial_msp.o (symbol from plugin)
                                                  obj/main/NAZE/../controller/telemetry/smartport.o (symbol from plugin)
                                                  obj/main/NAZE/../controller/telemetry/hott.o (symbol from plugin)
                                                  obj/main/NAZE/../controller/telemetry/frsky.o (symbol from plugin)
                                                  obj/main/NAZE/../controller/io/display.o (symbol from plugin)
amperageLatestADC                                 /tmp/cclQ5C5v.ltrans27.ltrans.o
                                                  obj/main/NAZE/../controller/sensors/battery.o (symbol from plugin)
                                                  /tmp/cclQ5C5v.ltrans10.ltrans.o
                                                  obj/main/NAZE/../controller/blackbox/blackbox.o (symbol from plugin)
annexCode                                         obj/main/NAZE/../controller/mw.o (symbol from plugin)
applyAccelerationTrims                            obj/main/NAZE/../controller/sensors/acceleration.o (symbol from plugin)
applyAltHold                                      obj/main/NAZE/../controller/flight/altitudehold.o (symbol from plugin)
                                                  obj/main/NAZE/../controller/mw.o (symbol from plugin)
applyAndSaveAccelerometerTrimsDelta               obj/main/NAZE/../controller/mw.o (symbol from plugin)
                                                  obj/main/NAZE/../controller/io/rc_controls.o (symbol from plugin)
applyBiQuadFilter                                 /tmp/cclQ5C5v.ltrans6.ltrans.o
                                                  obj/main/NAZE/../controller/common/filter.o (symbol from plugin)
                                                  /tmp/cclQ5C5v.ltrans26.ltrans.o
                                                  /tmp/cclQ5C5v.ltrans14.ltrans.o
                                                  /tmp/cclQ5C5v.ltrans8.ltrans.o
                                                  /tmp/cclQ5C5v.ltrans1.ltrans.o
                                                  obj/main/NAZE/../controller/sensors/gyro.o (symbol from plugin)
                                                  obj/main/NAZE/../controller/sensors/battery.o (symbol from plugin)
                                                  obj/main/NAZE/../controller/flight/mixer.o (symbol from plugin)
                                                  obj/main/NAZE/../controller/flight/pid.o (symbol from plugin)
applyChangedBits                                  /tmp/cclQ5C5v.ltrans20.ltrans.o
                                                  obj/main/NAZE/drivers/serial_softserial.o (symbol from plugin)
                                                  /tmp/cclQ5C5v.ltrans16.ltrans.o
applyDeadband                                     /tmp/cclQ5C5v.ltrans6.ltrans.o
                                                  obj/main/NAZE/../controller/common/maths.o (symbol from plugin)
                                                  /tmp/cclQ5C5v.ltrans22.ltrans.o
                                                  /tmp/cclQ5C5v.ltrans1.ltrans.o
                                                  obj/main/NAZE/../controller/flight/imu.o (symbol from plugin)
                                                  obj/main/NAZE/../controller/flight/altitudehold.o (symbol from plugin)
applyDefaultColors                                obj/main/NAZE/../controller/io/ledstrip.o (symbol from plugin)
                                                  obj/main/NAZE/../controller/config/config.o (symbol from plugin)
applyDefaultLedStripConfig                        obj/main/NAZE/../controller/io/ledstrip.o (symbol from plugin)
                                                  obj/main/NAZE/../controller/config/config.o (symbol from plugin)
applyDirectionalModeColor                         /tmp/cclQ5C5v.ltrans19.ltrans.o
                                                  obj/main/NAZE/../controller/io/ledstrip.o (symbol from plugin)
                                                  /tmp/cclQ5C5v.ltrans9.ltrans.o
applyLedIndicatorLayer                            obj/main/NAZE/../controller/io/ledstrip.o (symbol from plugin)
applyLedModeLayer                                 obj/main/NAZE/../controller/io/ledstrip.o (symbol from plugin)
applyLedThrottleLayer                             obj/main/NAZE/../controller/io/ledstrip.o (symbol from plugin)
applyLedThrustRingLayer                           obj/main/NAZE/../controller/io/ledstrip.o (symbol from plugin)
applyLedWarningLayer                              obj/main/NAZE/../controller/io/ledstrip.o (symbol from plugin)
applyQuadrantColor                                obj/main/NAZE/../controller/io/ledstrip.o (symbol from plugin)
applySelectAdjustment                             obj/main/NAZE/../controller/io/rc_controls.o (symbol from plugin)
applyStepAdjustment                               obj/main/NAZE/../controller/io/rc_controls.o (symbol from plugin)
areSticksInApModePosition                         obj/main/NAZE/../controller/io/rc_controls.o (symbol from plugin)
                                                  obj/main/NAZE/../controller/flight/navigation.o (symbol from plugin)
armingBeepTimeMicros.lto_priv.422                 /tmp/cclQ5C5v.ltrans27.ltrans.o
                                                  /tmp/cclQ5C5v.ltrans18.ltrans.o
                                                  /tmp/cclQ5C5v.ltrans10.ltrans.o
armingFlags                                       /tmp/cclQ5C5v.ltrans8.ltrans.o
                                                  obj/main/NAZE/../controller/config/runtime_config.o (symbol from plugin)
                                                  /tmp/cclQ5C5v.ltrans27.ltrans.o
                                                  /tmp/cclQ5C5v.ltrans26.ltrans.o
                                                  /tmp/cclQ5C5v.ltrans25.ltrans.o
                                                  /tmp/cclQ5C5v.ltrans19.ltrans.o
                                                  /tmp/cclQ5C5v.ltrans18.ltrans.o
                                                  /tmp/cclQ5C5v.ltrans14.ltrans.o
                                                  /tmp/cclQ5C5v.ltrans11.ltrans.o
                                                  /tmp/cclQ5C5v.ltrans9.ltrans.o
                                                  /tmp/cclQ5C5v.ltrans5.ltrans.o
                                                  /tmp/cclQ5C5v.ltrans3.ltrans.o
                                                  /tmp/cclQ5C5v.ltrans2.ltrans.o
                                                  /tmp/cclQ5C5v.ltrans1.ltrans.o
                                                  /tmp/cclQ5C5v.ltrans0.ltrans.o
                                                  obj/main/NAZE/../controller/sensors/battery.o (symbol from plugin)
                                                  obj/main/NAZE/../controller/io/serial_msp.o (symbol from plugin)
                                                  obj/main/NAZE/../controller/io/serial_cli.o (symbol from plugin)
                                                  obj/main/NAZE/../controller/io/rc_controls.o (symbol from plugin)
                                                  obj/main/NAZE/../controller/flight/mixer.o (symbol from plugin)
                                                  obj/main/NAZE/../controller/flight/imu.o (symbol from plugin)
                                                  obj/main/NAZE/../controller/flight/pid.o (symbol from plugin)
                                                  obj/main/NAZE/../controller/flight/failsafe.o (symbol from plugin)
                                                  obj/main/NAZE/../controller/mw.o (symbol from plugin)
                                                  obj/main/NAZE/main.o (symbol from plugin)
                                                  obj/main/NAZE/../controller/telemetry/ltm.o (symbol from plugin)
                                                  obj/main/NAZE/../controller/telemetry/smartport.o (symbol from plugin)
                                                  obj/main/NAZE/../controller/telemetry/frsky.o (symbol from plugin)
                                                  obj/main/NAZE/../controller/telemetry/telemetry.o (symbol from plugin)
                                                  obj/main/NAZE/../controller/io/display.o (symbol from plugin)
                                                  obj/main/NAZE/../controller/io/ledstrip.o (symbol from plugin)
                                                  obj/main/NAZE/../controller/flight/navigation.o (symbol from plugin)
arraySubInt32                                     obj/main/NAZE/../controller/common/maths.o (symbol from plugin)
                                                  obj/main/NAZE/../controller/blackbox/blackbox.o (symbol from plugin)
atan2f                                            /tmp/cclQ5C5v.ltrans6.ltrans.o
                                                  /tmp/cclQ5C5v.ltrans11.ltrans.o
                                                  /tmp/cclQ5C5v.ltrans1.ltrans.o
atoi                                              /usr/lib/gcc/arm-none-eabi/4.9.3/../../../arm-none-eabi/lib/armv7-m/libc_nano.a(lib_a-atoi.o)
                                                  /tmp/cclQ5C5v.ltrans24.ltrans.o
                                                  /tmp/cclQ5C5v.ltrans12.ltrans.o
                                                  /tmp/cclQ5C5v.ltrans7.ltrans.o
                                                  obj/main/NAZE/../controller/io/serial_cli.o (symbol from plugin)
                                                  obj/main/NAZE/../controller/io/ledstrip.o (symbol from plugin)
attitude                                          /tmp/cclQ5C5v.ltrans14.ltrans.o
                                                  obj/main/NAZE/../controller/flight/imu.o (symbol from plugin)
                                                  /tmp/cclQ5C5v.ltrans26.ltrans.o
                                                  /tmp/cclQ5C5v.ltrans22.ltrans.o
                                                  /tmp/cclQ5C5v.ltrans19.ltrans.o
                                                  /tmp/cclQ5C5v.ltrans18.ltrans.o
                                                  /tmp/cclQ5C5v.ltrans17.ltrans.o
                                                  /tmp/cclQ5C5v.ltrans5.ltrans.o
                                                  /tmp/cclQ5C5v.ltrans3.ltrans.o
                                                  /tmp/cclQ5C5v.ltrans2.ltrans.o
                                                  /tmp/cclQ5C5v.ltrans1.ltrans.o
                                                  obj/main/NAZE/../controller/io/serial_msp.o (symbol from plugin)
                                                  obj/main/NAZE/../controller/flight/mixer.o (symbol from plugin)
                                                  obj/main/NAZE/../controller/flight/pid.o (symbol from plugin)
                                                  obj/main/NAZE/../controller/flight/altitudehold.o (symbol from plugin)
                                                  obj/main/NAZE/../controller/mw.o (symbol from plugin)
                                                  obj/main/NAZE/../controller/telemetry/ltm.o (symbol from plugin)
                                                  obj/main/NAZE/../controller/telemetry/smartport.o (symbol from plugin)
                                                  obj/main/NAZE/../controller/telemetry/frsky.o (symbol from plugin)
                                                  obj/main/NAZE/../controller/io/display.o (symbol from plugin)
                                                  obj/main/NAZE/../controller/flight/navigation.o (symbol from plugin)
axis                                              obj/main/NAZE/../controller/sensors/gyro.o (symbol from plugin)
axisPID                                           /tmp/cclQ5C5v.ltrans14.ltrans.o
                                                  obj/main/NAZE/../controller/flight/pid.o (symbol from plugin)
                                                  /tmp/cclQ5C5v.ltrans26.ltrans.o
                                                  /tmp/cclQ5C5v.ltrans1.ltrans.o
                                                  obj/main/NAZE/../controller/flight/mixer.o (symbol from plugin)
axisPID_D                                         /tmp/cclQ5C5v.ltrans14.ltrans.o
                                                  obj/main/NAZE/../controller/flight/pid.o (symbol from plugin)
                                                  /tmp/cclQ5C5v.ltrans26.ltrans.o
                                                  /tmp/cclQ5C5v.ltrans10.ltrans.o
                                                  obj/main/NAZE/../controller/blackbox/blackbox.o (symbol from plugin)
axisPID_I                                         /tmp/cclQ5C5v.ltrans14.ltrans.o
                                                  obj/main/NAZE/../controller/flight/pid.o (symbol from plugin)
                                                  /tmp/cclQ5C5v.ltrans26.ltrans.o
                                                  /tmp/cclQ5C5v.ltrans10.ltrans.o
                                                  obj/main/NAZE/../controller/blackbox/blackbox.o (symbol from plugin)
axisPID_P                                         /tmp/cclQ5C5v.ltrans14.ltrans.o
                                                  obj/main/NAZE/../controller/flight/pid.o (symbol from plugin)
                                                  /tmp/cclQ5C5v.ltrans26.ltrans.o
                                                  /tmp/cclQ5C5v.ltrans10.ltrans.o
                                                  obj/main/NAZE/../controller/blackbox/blackbox.o (symbol from plugin)
baro                                              obj/main/NAZE/../controller/sensors/barometer.o (symbol from plugin)
                                                  obj/main/NAZE/../controller/sensors/initialisation.o (symbol from plugin)
baroCalculateAltitude                             obj/main/NAZE/../controller/sensors/barometer.o (symbol from plugin)
                                                  obj/main/NAZE/../controller/flight/altitudehold.o (symbol from plugin)
baroPressure                                      obj/main/NAZE/../controller/sensors/barometer.o (symbol from plugin)
baroPressureSum.lto_priv.554                      /tmp/cclQ5C5v.ltrans22.ltrans.o
                                                  /tmp/cclQ5C5v.ltrans25.ltrans.o
baroReady.lto_priv.555                            /tmp/cclQ5C5v.ltrans22.ltrans.o
                                                  /tmp/cclQ5C5v.ltrans25.ltrans.o
baroSetCalibrationCycles                          obj/main/NAZE/../controller/sensors/barometer.o (symbol from plugin)
                                                  obj/main/NAZE/../controller/io/rc_controls.o (symbol from plugin)
                                                  obj/main/NAZE/main.o (symbol from plugin)
baroTemperature                                   /tmp/cclQ5C5v.ltrans5.ltrans.o
                                                  obj/main/NAZE/../controller/sensors/barometer.o (symbol from plugin)
                                                  /tmp/cclQ5C5v.ltrans25.ltrans.o
                                                  obj/main/NAZE/../controller/telemetry/frsky.o (symbol from plugin)
baro_cf_alt                                       obj/main/NAZE/../controller/sensors/sonar.o (symbol from plugin)
baro_cf_vel                                       obj/main/NAZE/../controller/sensors/sonar.o (symbol from plugin)
barometerConfig.lto_priv.306                      /tmp/cclQ5C5v.ltrans22.ltrans.o
                                                  /tmp/cclQ5C5v.ltrans25.ltrans.o
                                                  /tmp/cclQ5C5v.ltrans6.ltrans.o
barometerConfig.lto_priv.307                      /tmp/cclQ5C5v.ltrans22.ltrans.o
                                                  /tmp/cclQ5C5v.ltrans6.ltrans.o
batteryAdcToVoltage                               /tmp/cclQ5C5v.ltrans8.ltrans.o
                                                  obj/main/NAZE/../controller/sensors/battery.o (symbol from plugin)
                                                  /tmp/cclQ5C5v.ltrans27.ltrans.o
batteryCellCount                                  /tmp/cclQ5C5v.ltrans24.ltrans.o
                                                  obj/main/NAZE/../controller/sensors/battery.o (symbol from plugin)
                                                  /tmp/cclQ5C5v.ltrans27.ltrans.o
                                                  /tmp/cclQ5C5v.ltrans19.ltrans.o
                                                  /tmp/cclQ5C5v.ltrans5.ltrans.o
                                                  /tmp/cclQ5C5v.ltrans0.ltrans.o
                                                  obj/main/NAZE/../controller/io/serial_cli.o (symbol from plugin)
                                                  obj/main/NAZE/../controller/telemetry/frsky.o (symbol from plugin)
                                                  obj/main/NAZE/../controller/io/display.o (symbol from plugin)
batteryConfig                                     /tmp/cclQ5C5v.ltrans8.ltrans.o
                                                  obj/main/NAZE/../controller/sensors/battery.o (symbol from plugin)
                                                  /tmp/cclQ5C5v.ltrans27.ltrans.o
                                                  /tmp/cclQ5C5v.ltrans19.ltrans.o
                                                  /tmp/cclQ5C5v.ltrans5.ltrans.o
                                                  /tmp/cclQ5C5v.ltrans0.ltrans.o
                                                  obj/main/NAZE/../controller/telemetry/frsky.o (symbol from plugin)
batteryCriticalVoltage                            /tmp/cclQ5C5v.ltrans27.ltrans.o
                                                  obj/main/NAZE/../controller/sensors/battery.o (symbol from plugin)
                                                  /tmp/cclQ5C5v.ltrans0.ltrans.o
batteryInit                                       obj/main/NAZE/../controller/sensors/battery.o (symbol from plugin)
                                                  obj/main/NAZE/main.o (symbol from plugin)
batteryState.lto_priv.290                         /tmp/cclQ5C5v.ltrans24.ltrans.o
                                                  /tmp/cclQ5C5v.ltrans27.ltrans.o
                                                  /tmp/cclQ5C5v.ltrans9.ltrans.o
                                                  /tmp/cclQ5C5v.ltrans5.ltrans.o
                                                  /tmp/cclQ5C5v.ltrans0.ltrans.o
batteryStateStrings                               obj/main/NAZE/../controller/sensors/battery.o (symbol from plugin)
batteryWarningVoltage                             /tmp/cclQ5C5v.ltrans27.ltrans.o
                                                  obj/main/NAZE/../controller/sensors/battery.o (symbol from plugin)
                                                  /tmp/cclQ5C5v.ltrans0.ltrans.o
baudRates                                         /tmp/cclQ5C5v.ltrans21.ltrans.o
                                                  obj/main/NAZE/../controller/io/serial.o (symbol from plugin)
                                                  /tmp/cclQ5C5v.ltrans25.ltrans.o
                                                  /tmp/cclQ5C5v.ltrans22.ltrans.o
                                                  /tmp/cclQ5C5v.ltrans18.ltrans.o
                                                  /tmp/cclQ5C5v.ltrans7.ltrans.o
                                                  obj/main/NAZE/../controller/io/serial_msp.o (symbol from plugin)
                                                  obj/main/NAZE/../controller/io/serial_cli.o (symbol from plugin)
                                                  obj/main/NAZE/../controller/blackbox/blackbox_io.o (symbol from plugin)
                                                  obj/main/NAZE/../controller/telemetry/ltm.o (symbol from plugin)
                                                  obj/main/NAZE/../controller/io/gps.o (symbol from plugin)
beepInverted.lto_priv.499                         /tmp/cclQ5C5v.ltrans14.ltrans.o
                                                  /tmp/cclQ5C5v.ltrans0.ltrans.o
beepNormal.lto_priv.500                           /tmp/cclQ5C5v.ltrans14.ltrans.o
                                                  /tmp/cclQ5C5v.ltrans0.ltrans.o
beep_2longerBeeps.lto_priv.281                    /tmp/cclQ5C5v.ltrans12.ltrans.o
beep_2shortBeeps.lto_priv.280                     /tmp/cclQ5C5v.ltrans12.ltrans.o
beep_armedBeep.lto_priv.284                       /tmp/cclQ5C5v.ltrans12.ltrans.o
beep_armedGpsFix.lto_priv.276                     /tmp/cclQ5C5v.ltrans12.ltrans.o
beep_armingBeep.lto_priv.275                      /tmp/cclQ5C5v.ltrans12.ltrans.o
beep_critBatteryBeep.lto_priv.277                 /tmp/cclQ5C5v.ltrans12.ltrans.o
beep_disarmBeep.lto_priv.274                      /tmp/cclQ5C5v.ltrans12.ltrans.o
beep_disarmRepeatBeep.lto_priv.283                /tmp/cclQ5C5v.ltrans12.ltrans.o
beep_gyroCalibrated.lto_priv.271                  /tmp/cclQ5C5v.ltrans12.ltrans.o
beep_lowBatteryBeep.lto_priv.278                  /tmp/cclQ5C5v.ltrans12.ltrans.o
beep_multiBeeps.lto_priv.265                      /tmp/cclQ5C5v.ltrans12.ltrans.o
                                                  /tmp/cclQ5C5v.ltrans27.ltrans.o
                                                  /tmp/cclQ5C5v.ltrans14.ltrans.o
beep_readyBeep.lto_priv.282                       /tmp/cclQ5C5v.ltrans12.ltrans.o
beep_shortBeep.lto_priv.279                       /tmp/cclQ5C5v.ltrans12.ltrans.o
beep_sos.lto_priv.272                             /tmp/cclQ5C5v.ltrans12.ltrans.o
beep_txLostBeep.lto_priv.273                      /tmp/cclQ5C5v.ltrans12.ltrans.o
beeper                                            /tmp/cclQ5C5v.ltrans14.ltrans.o
                                                  obj/main/NAZE/../controller/io/beeper.o (symbol from plugin)
                                                  /tmp/cclQ5C5v.ltrans28.ltrans.o
                                                  /tmp/cclQ5C5v.ltrans27.ltrans.o
                                                  /tmp/cclQ5C5v.ltrans18.ltrans.o
                                                  /tmp/cclQ5C5v.ltrans12.ltrans.o
                                                  /tmp/cclQ5C5v.ltrans3.ltrans.o
                                                  /tmp/cclQ5C5v.ltrans1.ltrans.o
                                                  obj/main/NAZE/../controller/sensors/gyro.o (symbol from plugin)
                                                  obj/main/NAZE/../controller/sensors/battery.o (symbol from plugin)
                                                  obj/main/NAZE/../controller/sensors/acceleration.o (symbol from plugin)
                                                  obj/main/NAZE/../controller/io/serial_cli.o (symbol from plugin)
                                                  obj/main/NAZE/../controller/io/rc_controls.o (symbol from plugin)
                                                  obj/main/NAZE/../controller/flight/failsafe.o (symbol from plugin)
                                                  obj/main/NAZE/../controller/mw.o (symbol from plugin)
                                                  obj/main/NAZE/../controller/flight/navigation.o (symbol from plugin)
beeperConfirmationBeeps                           /tmp/cclQ5C5v.ltrans14.ltrans.o
                                                  obj/main/NAZE/../controller/io/beeper.o (symbol from plugin)
                                                  /tmp/cclQ5C5v.ltrans18.ltrans.o
                                                  /tmp/cclQ5C5v.ltrans6.ltrans.o
                                                  /tmp/cclQ5C5v.ltrans3.ltrans.o
                                                  obj/main/NAZE/../controller/io/rc_controls.o (symbol from plugin)
                                                  obj/main/NAZE/../controller/mw.o (symbol from plugin)
                                                  obj/main/NAZE/../controller/config/runtime_config.o (symbol from plugin)
                                                  obj/main/NAZE/../controller/config/config.o (symbol from plugin)
beeperGpsStatus                                   obj/main/NAZE/../controller/io/beeper.o (symbol from plugin)
beeperInit                                        obj/main/NAZE/drivers/sound_beeper.o (symbol from plugin)
                                                  obj/main/NAZE/main.o (symbol from plugin)
beeperIsOn.lto_priv.351                           /tmp/cclQ5C5v.ltrans14.ltrans.o
                                                  /tmp/cclQ5C5v.ltrans27.ltrans.o
beeperModeForTableIndex                           obj/main/NAZE/../controller/io/beeper.o (symbol from plugin)
                                                  obj/main/NAZE/../controller/io/serial_cli.o (symbol from plugin)
beeperNameForTableIndex                           obj/main/NAZE/../controller/io/beeper.o (symbol from plugin)
                                                  obj/main/NAZE/../controller/io/serial_cli.o (symbol from plugin)
beeperNextToggleTime.lto_priv.350                 /tmp/cclQ5C5v.ltrans14.ltrans.o
                                                  /tmp/cclQ5C5v.ltrans27.ltrans.o
beeperPos.lto_priv.352                            /tmp/cclQ5C5v.ltrans14.ltrans.o
                                                  /tmp/cclQ5C5v.ltrans27.ltrans.o
beeperSilence                                     /tmp/cclQ5C5v.ltrans14.ltrans.o
                                                  obj/main/NAZE/../controller/io/beeper.o (symbol from plugin)
                                                  /tmp/cclQ5C5v.ltrans27.ltrans.o
                                                  /tmp/cclQ5C5v.ltrans12.ltrans.o
                                                  /tmp/cclQ5C5v.ltrans3.ltrans.o
                                                  /tmp/cclQ5C5v.ltrans2.ltrans.o
                                                  obj/main/NAZE/../controller/io/serial_cli.o (symbol from plugin)
                                                  obj/main/NAZE/../controller/io/serial_1wire.o (symbol from plugin)
                                                  obj/main/NAZE/../controller/mw.o (symbol from plugin)
beeperTable.lto_priv.267                          /tmp/cclQ5C5v.ltrans12.ltrans.o
                                                  /tmp/cclQ5C5v.ltrans14.ltrans.o
beeperTableEntryCount                             obj/main/NAZE/../controller/io/beeper.o (symbol from plugin)
                                                  obj/main/NAZE/../controller/io/serial_cli.o (symbol from plugin)
beeperUpdate                                      obj/main/NAZE/../controller/io/beeper.o (symbol from plugin)
                                                  obj/main/NAZE/../controller/mw.o (symbol from plugin)
blackboxAdvanceIterationTimers.lto_priv.410       /tmp/cclQ5C5v.ltrans10.ltrans.o
                                                  /tmp/cclQ5C5v.ltrans1.ltrans.o
blackboxConditionCache.lto_priv.421               /tmp/cclQ5C5v.ltrans1.ltrans.o
                                                  /tmp/cclQ5C5v.ltrans18.ltrans.o
                                                  /tmp/cclQ5C5v.ltrans10.ltrans.o
blackboxDeviceBeginLog                            obj/main/NAZE/../controller/blackbox/blackbox_io.o (symbol from plugin)
                                                  obj/main/NAZE/../controller/blackbox/blackbox.o (symbol from plugin)
blackboxDeviceClose                               obj/main/NAZE/../controller/blackbox/blackbox_io.o (symbol from plugin)
                                                  obj/main/NAZE/../controller/blackbox/blackbox.o (symbol from plugin)
blackboxDeviceEndLog                              obj/main/NAZE/../controller/blackbox/blackbox_io.o (symbol from plugin)
                                                  obj/main/NAZE/../controller/blackbox/blackbox.o (symbol from plugin)
blackboxDeviceFlush                               obj/main/NAZE/../controller/blackbox/blackbox_io.o (symbol from plugin)
                                                  obj/main/NAZE/../controller/blackbox/blackbox.o (symbol from plugin)
blackboxDeviceFlushForce                          /tmp/cclQ5C5v.ltrans23.ltrans.o
                                                  obj/main/NAZE/../controller/blackbox/blackbox_io.o (symbol from plugin)
                                                  /tmp/cclQ5C5v.ltrans1.ltrans.o
                                                  obj/main/NAZE/../controller/blackbox/blackbox.o (symbol from plugin)
blackboxDeviceOpen                                obj/main/NAZE/../controller/blackbox/blackbox_io.o (symbol from plugin)
                                                  obj/main/NAZE/../controller/blackbox/blackbox.o (symbol from plugin)
blackboxDeviceReserveBufferSpace                  /tmp/cclQ5C5v.ltrans23.ltrans.o
                                                  obj/main/NAZE/../controller/blackbox/blackbox_io.o (symbol from plugin)
                                                  /tmp/cclQ5C5v.ltrans10.ltrans.o
                                                  /tmp/cclQ5C5v.ltrans1.ltrans.o
                                                  obj/main/NAZE/../controller/blackbox/blackbox.o (symbol from plugin)
blackboxHeaderBudget                              /tmp/cclQ5C5v.ltrans1.ltrans.o
                                                  obj/main/NAZE/../controller/blackbox/blackbox_io.o (symbol from plugin)
                                                  /tmp/cclQ5C5v.ltrans23.ltrans.o
                                                  /tmp/cclQ5C5v.ltrans10.ltrans.o
                                                  obj/main/NAZE/../controller/blackbox/blackbox.o (symbol from plugin)
blackboxHistory.lto_priv.550                      /tmp/cclQ5C5v.ltrans18.ltrans.o
                                                  /tmp/cclQ5C5v.ltrans10.ltrans.o
blackboxHistoryRing.lto_priv.551                  /tmp/cclQ5C5v.ltrans18.ltrans.o
                                                  /tmp/cclQ5C5v.ltrans10.ltrans.o
blackboxIFrameIndex.lto_priv.549                  /tmp/cclQ5C5v.ltrans18.ltrans.o
                                                  /tmp/cclQ5C5v.ltrans10.ltrans.o
blackboxIteration.lto_priv.419                    /tmp/cclQ5C5v.ltrans1.ltrans.o
                                                  /tmp/cclQ5C5v.ltrans18.ltrans.o
                                                  /tmp/cclQ5C5v.ltrans10.ltrans.o
blackboxLastArmingBeep.lto_priv.552               /tmp/cclQ5C5v.ltrans18.ltrans.o
                                                  /tmp/cclQ5C5v.ltrans10.ltrans.o
blackboxLogEvent                                  /tmp/cclQ5C5v.ltrans10.ltrans.o
                                                  obj/main/NAZE/../controller/blackbox/blackbox.o (symbol from plugin)
                                                  /tmp/cclQ5C5v.ltrans21.ltrans.o
                                                  /tmp/cclQ5C5v.ltrans18.ltrans.o
                                                  /tmp/cclQ5C5v.ltrans17.ltrans.o
                                                  /tmp/cclQ5C5v.ltrans14.ltrans.o
                                                  /tmp/cclQ5C5v.ltrans1.ltrans.o
                                                  obj/main/NAZE/../controller/io/rc_controls.o (symbol from plugin)
                                                  obj/main/NAZE/../controller/flight/gtune.o (symbol from plugin)
blackboxLogInflightAdjustmentEvent                /tmp/cclQ5C5v.ltrans14.ltrans.o
                                                  obj/main/NAZE/../controller/io/rc_controls.o (symbol from plugin)
                                                  /tmp/cclQ5C5v.ltrans21.ltrans.o
                                                  /tmp/cclQ5C5v.ltrans3.ltrans.o
blackboxLogInflightAdjustmentEventFloat           obj/main/NAZE/../controller/io/rc_controls.o (symbol from plugin)
blackboxLogIteration.lto_priv.411                 /tmp/cclQ5C5v.ltrans10.ltrans.o
                                                  /tmp/cclQ5C5v.ltrans1.ltrans.o
blackboxLoggedAnyFrames.lto_priv.423              /tmp/cclQ5C5v.ltrans1.ltrans.o
                                                  /tmp/cclQ5C5v.ltrans18.ltrans.o
                                                  /tmp/cclQ5C5v.ltrans10.ltrans.o
blackboxMaxHeaderBytesPerIteration.lto_priv.426   /tmp/cclQ5C5v.ltrans1.ltrans.o
                                                  /tmp/cclQ5C5v.ltrans18.ltrans.o
blackboxMayEditConfig                             obj/main/NAZE/../controller/blackbox/blackbox.o (symbol from plugin)
                                                  obj/main/NAZE/../controller/io/serial_msp.o (symbol from plugin)
blackboxModeActivationConditionPresent.lto_priv.418 /tmp/cclQ5C5v.ltrans1.ltrans.o
                                                  /tmp/cclQ5C5v.ltrans18.ltrans.o
blackboxPFrameIndex.lto_priv.420                  /tmp/cclQ5C5v.ltrans1.ltrans.o
                                                  /tmp/cclQ5C5v.ltrans18.ltrans.o
                                                  /tmp/cclQ5C5v.ltrans10.ltrans.o
blackboxPort.lto_priv.428                         /tmp/cclQ5C5v.ltrans1.ltrans.o
                                                  /tmp/cclQ5C5v.ltrans23.ltrans.o
                                                  /tmp/cclQ5C5v.ltrans18.ltrans.o
                                                  /tmp/cclQ5C5v.ltrans10.ltrans.o
blackboxPortSharing.lto_priv.427                  /tmp/cclQ5C5v.ltrans1.ltrans.o
                                                  /tmp/cclQ5C5v.ltrans18.ltrans.o
blackboxPrint                                     /tmp/cclQ5C5v.ltrans23.ltrans.o
                                                  obj/main/NAZE/../controller/blackbox/blackbox_io.o (symbol from plugin)
                                                  /tmp/cclQ5C5v.ltrans10.ltrans.o
                                                  obj/main/NAZE/../controller/blackbox/blackbox.o (symbol from plugin)
blackboxPrintf                                    /tmp/cclQ5C5v.ltrans23.ltrans.o
                                                  obj/main/NAZE/../controller/blackbox/blackbox_io.o (symbol from plugin)
                                                  /tmp/cclQ5C5v.ltrans10.ltrans.o
                                                  obj/main/NAZE/../controller/blackbox/blackbox.o (symbol from plugin)
blackboxPrintfHeaderLine                          /tmp/cclQ5C5v.ltrans23.ltrans.o
                                                  obj/main/NAZE/../controller/blackbox/blackbox_io.o (symbol from plugin)
                                                  /tmp/cclQ5C5v.ltrans1.ltrans.o
                                                  obj/main/NAZE/../controller/blackbox/blackbox.o (symbol from plugin)
blackboxReplenishHeaderBudget                     obj/main/NAZE/../controller/blackbox/blackbox_io.o (symbol from plugin)
                                                  obj/main/NAZE/../controller/blackbox/blackbox.o (symbol from plugin)
blackboxSlowFrameIterationTimer.lto_priv.425      /tmp/cclQ5C5v.ltrans1.ltrans.o
                                                  /tmp/cclQ5C5v.ltrans10.ltrans.o
blackboxState.lto_priv.393                        /tmp/cclQ5C5v.ltrans2.ltrans.o
                                                  /tmp/cclQ5C5v.ltrans18.ltrans.o
                                                  /tmp/cclQ5C5v.ltrans10.ltrans.o
                                                  /tmp/cclQ5C5v.ltrans1.ltrans.o
                                                  /tmp/cclQ5C5v.ltrans0.ltrans.o
blackboxWrite                                     /tmp/cclQ5C5v.ltrans10.ltrans.o
                                                  obj/main/NAZE/../controller/blackbox/blackbox_io.o (symbol from plugin)
                                                  /tmp/cclQ5C5v.ltrans23.ltrans.o
                                                  /tmp/cclQ5C5v.ltrans1.ltrans.o
                                                  obj/main/NAZE/../controller/blackbox/blackbox.o (symbol from plugin)
blackboxWriteFloat                                obj/main/NAZE/../controller/blackbox/blackbox_io.o (symbol from plugin)
                                                  obj/main/NAZE/../controller/blackbox/blackbox.o (symbol from plugin)
blackboxWriteS16                                  obj/main/NAZE/../controller/blackbox/blackbox_io.o (symbol from plugin)
                                                  obj/main/NAZE/../controller/blackbox/blackbox.o (symbol from plugin)
blackboxWriteSigned16VBArray                      obj/main/NAZE/../controller/blackbox/blackbox_io.o (symbol from plugin)
                                                  obj/main/NAZE/../controller/blackbox/blackbox.o (symbol from plugin)
blackboxWriteSigned16VBArray.constprop.81         /tmp/cclQ5C5v.ltrans21.ltrans.o
                                                  /tmp/cclQ5C5v.ltrans10.ltrans.o
blackboxWriteSignedVB                             /tmp/cclQ5C5v.ltrans23.ltrans.o
                                                  obj/main/NAZE/../controller/blackbox/blackbox_io.o (symbol from plugin)
                                                  /tmp/cclQ5C5v.ltrans21.ltrans.o
                                                  /tmp/cclQ5C5v.ltrans10.ltrans.o
                                                  obj/main/NAZE/../controller/blackbox/blackbox.o (symbol from plugin)
blackboxWriteSignedVBArray                        obj/main/NAZE/../controller/blackbox/blackbox_io.o (symbol from plugin)
                                                  obj/main/NAZE/../controller/blackbox/blackbox.o (symbol from plugin)
blackboxWriteSignedVBArray.constprop.80           /tmp/cclQ5C5v.ltrans21.ltrans.o
                                                  /tmp/cclQ5C5v.ltrans10.ltrans.o
blackboxWriteTag2_3S32                            /tmp/cclQ5C5v.ltrans23.ltrans.o
                                                  obj/main/NAZE/../controller/blackbox/blackbox_io.o (symbol from plugin)
                                                  /tmp/cclQ5C5v.ltrans10.ltrans.o
                                                  obj/main/NAZE/../controller/blackbox/blackbox.o (symbol from plugin)
blackboxWriteTag8_4S16                            obj/main/NAZE/../controller/blackbox/blackbox_io.o (symbol from plugin)
                                                  obj/main/NAZE/../controller/blackbox/blackbox.o (symbol from plugin)
blackboxWriteTag8_8SVB                            obj/main/NAZE/../controller/blackbox/blackbox_io.o (symbol from plugin)
                                                  obj/main/NAZE/../controller/blackbox/blackbox.o (symbol from plugin)
blackboxWriteU32                                  obj/main/NAZE/../controller/blackbox/blackbox_io.o (symbol from plugin)
blackboxWriteUnsignedVB                           /tmp/cclQ5C5v.ltrans23.ltrans.o
                                                  obj/main/NAZE/../controller/blackbox/blackbox_io.o (symbol from plugin)
                                                  /tmp/cclQ5C5v.ltrans10.ltrans.o
                                                  obj/main/NAZE/../controller/blackbox/blackbox.o (symbol from plugin)
bma280Detect                                      obj/main/NAZE/drivers/accgyro_bma280.o (symbol from plugin)
bmp085Detect                                      obj/main/NAZE/drivers/barometer_bmp085.o (symbol from plugin)
bmp085Disable                                     obj/main/NAZE/drivers/barometer_bmp085.o (symbol from plugin)
bmp085InitXCLRGpio                                obj/main/NAZE/drivers/barometer_bmp085.o (symbol from plugin)
bmp085TestEOCConnected                            obj/main/NAZE/drivers/barometer_bmp085.o (symbol from plugin)
bmp280Detect                                      obj/main/NAZE/drivers/barometer_bmp280.o (symbol from plugin)
                                                  obj/main/NAZE/../controller/sensors/initialisation.o (symbol from plugin)
boardRotation.lto_priv.486                        /tmp/cclQ5C5v.ltrans8.ltrans.o
                                                  /tmp/cclQ5C5v.ltrans0.ltrans.o
bufWriterAppend                                   /tmp/cclQ5C5v.ltrans14.ltrans.o
                                                  obj/main/NAZE/drivers/buf_writer.o (symbol from plugin)
                                                  /tmp/cclQ5C5v.ltrans24.ltrans.o
                                                  obj/main/NAZE/../controller/io/serial_msp.o (symbol from plugin)
                                                  obj/main/NAZE/../controller/io/serial_cli.o (symbol from plugin)
bufWriterFlush                                    /tmp/cclQ5C5v.ltrans14.ltrans.o
                                                  obj/main/NAZE/drivers/buf_writer.o (symbol from plugin)
                                                  /tmp/cclQ5C5v.ltrans24.ltrans.o
                                                  /tmp/cclQ5C5v.ltrans12.ltrans.o
                                                  /tmp/cclQ5C5v.ltrans7.ltrans.o
                                                  /tmp/cclQ5C5v.ltrans2.ltrans.o
                                                  obj/main/NAZE/../controller/io/serial_msp.o (symbol from plugin)
                                                  obj/main/NAZE/../controller/io/serial_cli.o (symbol from plugin)
bufWriterInit                                     obj/main/NAZE/drivers/buf_writer.o (symbol from plugin)
                                                  obj/main/NAZE/../controller/io/serial_msp.o (symbol from plugin)
                                                  obj/main/NAZE/../controller/io/serial_cli.o (symbol from plugin)
bufferHead.lto_priv.546                           /tmp/cclQ5C5v.ltrans23.ltrans.o
                                                  /tmp/cclQ5C5v.ltrans17.ltrans.o
                                                  /tmp/cclQ5C5v.ltrans10.ltrans.o
bufferIndex.lto_priv.367                          /tmp/cclQ5C5v.ltrans12.ltrans.o
                                                  /tmp/cclQ5C5v.ltrans2.ltrans.o
bufferTail.lto_priv.585                           /tmp/cclQ5C5v.ltrans23.ltrans.o
                                                  /tmp/cclQ5C5v.ltrans17.ltrans.o
buildDate                                         /tmp/cclQ5C5v.ltrans24.ltrans.o
                                                  obj/main/NAZE/../controller/version.o (symbol from plugin)
                                                  obj/main/NAZE/../controller/io/serial_msp.o (symbol from plugin)
                                                  obj/main/NAZE/../controller/io/serial_cli.o (symbol from plugin)
                                                  obj/main/NAZE/../controller/blackbox/blackbox.o (symbol from plugin)
buildRotationMatrix                               obj/main/NAZE/../controller/common/maths.o (symbol from plugin)
                                                  obj/main/NAZE/../controller/sensors/boardalignment.o (symbol from plugin)
buildTime                                         /tmp/cclQ5C5v.ltrans24.ltrans.o
                                                  obj/main/NAZE/../controller/version.o (symbol from plugin)
                                                  obj/main/NAZE/../controller/io/serial_msp.o (symbol from plugin)
                                                  obj/main/NAZE/../controller/io/serial_cli.o (symbol from plugin)
                                                  obj/main/NAZE/../controller/blackbox/blackbox.o (symbol from plugin)
cachedRccCsrValue                                 obj/main/NAZE/drivers/system.o (symbol from plugin)
                                                  obj/main/NAZE/drivers/system_stm32f10x.o (symbol from plugin)
calculateAccZLowPassFilterRCTimeConstant          obj/main/NAZE/../controller/flight/imu.o (symbol from plugin)
calculateAltHoldThrottleAdjustment                obj/main/NAZE/../controller/flight/altitudehold.o (symbol from plugin)
calculateBatteryCapacityRemainingPercentage       /tmp/cclQ5C5v.ltrans8.ltrans.o
                                                  obj/main/NAZE/../controller/sensors/battery.o (symbol from plugin)
                                                  /tmp/cclQ5C5v.ltrans19.ltrans.o
                                                  /tmp/cclQ5C5v.ltrans5.ltrans.o
                                                  obj/main/NAZE/../controller/telemetry/frsky.o (symbol from plugin)
                                                  obj/main/NAZE/../controller/io/display.o (symbol from plugin)
calculateBatteryPercentage                        obj/main/NAZE/../controller/sensors/battery.o (symbol from plugin)
                                                  obj/main/NAZE/../controller/io/display.o (symbol from plugin)
calculateChannelRemapping                         obj/main/NAZE/../controller/rx/rx.o (symbol from plugin)
calculateEstimatedAltitude                        obj/main/NAZE/../controller/flight/altitudehold.o (symbol from plugin)
                                                  obj/main/NAZE/../controller/mw.o (symbol from plugin)
calculateRollPitchCenterStatus                    obj/main/NAZE/../controller/io/rc_controls.o (symbol from plugin)
                                                  obj/main/NAZE/../controller/mw.o (symbol from plugin)
calculateRxChannelsAndUpdateFailsafe              obj/main/NAZE/../controller/rx/rx.o (symbol from plugin)
                                                  obj/main/NAZE/../controller/mw.o (symbol from plugin)
calculateThrottleAngleCorrection                  obj/main/NAZE/../controller/flight/imu.o (symbol from plugin)
                                                  obj/main/NAZE/../controller/mw.o (symbol from plugin)
calculateThrottleAngleScale                       obj/main/NAZE/../controller/flight/imu.o (symbol from plugin)
calculateThrottleStatus                           /tmp/cclQ5C5v.ltrans14.ltrans.o
                                                  obj/main/NAZE/../controller/io/rc_controls.o (symbol from plugin)
                                                  /tmp/cclQ5C5v.ltrans27.ltrans.o
                                                  /tmp/cclQ5C5v.ltrans5.ltrans.o
                                                  /tmp/cclQ5C5v.ltrans3.ltrans.o
                                                  obj/main/NAZE/../controller/flight/failsafe.o (symbol from plugin)
                                                  obj/main/NAZE/../controller/mw.o (symbol from plugin)
                                                  obj/main/NAZE/../controller/telemetry/frsky.o (symbol from plugin)
calculate_Gtune                                   /tmp/cclQ5C5v.ltrans17.ltrans.o
                                                  obj/main/NAZE/../controller/flight/gtune.o (symbol from plugin)
                                                  /tmp/cclQ5C5v.ltrans26.ltrans.o
                                                  /tmp/cclQ5C5v.ltrans14.ltrans.o
                                                  obj/main/NAZE/../controller/flight/pid.o (symbol from plugin)
calculatedAltitude.lto_priv.365                   /tmp/cclQ5C5v.ltrans22.ltrans.o
                                                  /tmp/cclQ5C5v.ltrans19.ltrans.o
                                                  /tmp/cclQ5C5v.ltrans2.ltrans.o
                                                  /tmp/cclQ5C5v.ltrans0.ltrans.o
calibratingA                                      /tmp/cclQ5C5v.ltrans3.ltrans.o
                                                  obj/main/NAZE/../controller/sensors/acceleration.o (symbol from plugin)
                                                  /tmp/cclQ5C5v.ltrans28.ltrans.o
                                                  /tmp/cclQ5C5v.ltrans2.ltrans.o
                                                  /tmp/cclQ5C5v.ltrans1.ltrans.o
                                                  /tmp/cclQ5C5v.ltrans0.ltrans.o
calibratingB                                      /tmp/cclQ5C5v.ltrans22.ltrans.o
                                                  obj/main/NAZE/../controller/sensors/barometer.o (symbol from plugin)
                                                  /tmp/cclQ5C5v.ltrans3.ltrans.o
                                                  /tmp/cclQ5C5v.ltrans1.ltrans.o
                                                  /tmp/cclQ5C5v.ltrans0.ltrans.o
calibratingG                                      /tmp/cclQ5C5v.ltrans3.ltrans.o
                                                  obj/main/NAZE/../controller/sensors/gyro.o (symbol from plugin)
                                                  /tmp/cclQ5C5v.ltrans1.ltrans.o
                                                  /tmp/cclQ5C5v.ltrans0.ltrans.o
calloc                                            /usr/lib/gcc/arm-none-eabi/4.9.3/../../../arm-none-eabi/lib/armv7-m/libc_nano.a(lib_a-calloc.o)
                                                  /tmp/cclQ5C5v.ltrans21.ltrans.o
                                                  /tmp/cclQ5C5v.ltrans0.ltrans.o
canSendSmartPortTelemetry                         obj/main/NAZE/../controller/telemetry/smartport.o (symbol from plugin)
captures.lto_priv.324                             /tmp/cclQ5C5v.ltrans8.ltrans.o
                                                  /tmp/cclQ5C5v.ltrans20.ltrans.o
                                                  /tmp/cclQ5C5v.ltrans3.ltrans.o
castFloatBytesToInt                               obj/main/NAZE/../controller/common/encoding.o (symbol from plugin)
                                                  obj/main/NAZE/../controller/blackbox/blackbox_io.o (symbol from plugin)
                                                  obj/main/NAZE/../controller/blackbox/blackbox.o (symbol from plugin)
cfTasks                                           /tmp/cclQ5C5v.ltrans21.ltrans.o
                                                  obj/main/NAZE/../controller/scheduler_tasks.o (symbol from plugin)
                                                  /tmp/cclQ5C5v.ltrans24.ltrans.o
                                                  /tmp/cclQ5C5v.ltrans6.ltrans.o
                                                  /tmp/cclQ5C5v.ltrans0.ltrans.o
                                                  obj/main/NAZE/../controller/scheduler.o (symbol from plugin)
                                                  obj/main/NAZE/drivers/pwm_rx.o (symbol from plugin)
changeControlRateProfile                          obj/main/NAZE/../controller/config/config.o (symbol from plugin)
                                                  obj/main/NAZE/../controller/io/serial_cli.o (symbol from plugin)
                                                  obj/main/NAZE/../controller/io/rc_controls.o (symbol from plugin)
changeProfile                                     obj/main/NAZE/../controller/config/config.o (symbol from plugin)
                                                  obj/main/NAZE/../controller/io/rc_controls.o (symbol from plugin)
checkFrSkyTelemetryState                          obj/main/NAZE/../controller/telemetry/frsky.o (symbol from plugin)
                                                  obj/main/NAZE/../controller/telemetry/telemetry.o (symbol from plugin)
checkHoTTTelemetryState                           obj/main/NAZE/../controller/telemetry/hott.o (symbol from plugin)
                                                  obj/main/NAZE/../controller/telemetry/telemetry.o (symbol from plugin)
checkLtmTelemetryState                            obj/main/NAZE/../controller/telemetry/ltm.o (symbol from plugin)
                                                  obj/main/NAZE/../controller/telemetry/telemetry.o (symbol from plugin)
checkSmartPortTelemetryState                      obj/main/NAZE/../controller/telemetry/smartport.o (symbol from plugin)
                                                  obj/main/NAZE/../controller/telemetry/telemetry.o (symbol from plugin)
cleanup_glue                                      /usr/lib/gcc/arm-none-eabi/4.9.3/../../../arm-none-eabi/lib/armv7-m/libc_nano.a(lib_a-reent.o)
cliAdjustmentRange.lto_priv.237                   /tmp/cclQ5C5v.ltrans7.ltrans.o
                                                  /tmp/cclQ5C5v.ltrans12.ltrans.o
cliAux.lto_priv.238                               /tmp/cclQ5C5v.ltrans7.ltrans.o
                                                  /tmp/cclQ5C5v.ltrans12.ltrans.o
cliBuffer.lto_priv.368                            /tmp/cclQ5C5v.ltrans12.ltrans.o
                                                  /tmp/cclQ5C5v.ltrans2.ltrans.o
cliColor.lto_priv.239                             /tmp/cclQ5C5v.ltrans7.ltrans.o
                                                  /tmp/cclQ5C5v.ltrans12.ltrans.o
cliDefaults.lto_priv.240                          /tmp/cclQ5C5v.ltrans24.ltrans.o
                                                  /tmp/cclQ5C5v.ltrans12.ltrans.o
cliDump.lto_priv.369                              /tmp/cclQ5C5v.ltrans12.ltrans.o
cliEnter                                          obj/main/NAZE/../controller/io/serial_cli.o (symbol from plugin)
                                                  obj/main/NAZE/../controller/io/serial.o (symbol from plugin)
cliExit.lto_priv.370                              /tmp/cclQ5C5v.ltrans12.ltrans.o
                                                  /tmp/cclQ5C5v.ltrans2.ltrans.o
cliFeature.lto_priv.371                           /tmp/cclQ5C5v.ltrans12.ltrans.o
cliFlashErase.lto_priv.372                        /tmp/cclQ5C5v.ltrans12.ltrans.o
cliFlashInfo.lto_priv.373                         /tmp/cclQ5C5v.ltrans12.ltrans.o
cliGet.lto_priv.241                               /tmp/cclQ5C5v.ltrans24.ltrans.o
                                                  /tmp/cclQ5C5v.ltrans12.ltrans.o
cliGpsPassthrough.lto_priv.374                    /tmp/cclQ5C5v.ltrans12.ltrans.o
cliHelp.lto_priv.375                              /tmp/cclQ5C5v.ltrans12.ltrans.o
cliInit                                           obj/main/NAZE/../controller/io/serial_cli.o (symbol from plugin)
                                                  obj/main/NAZE/main.o (symbol from plugin)
cliLed.lto_priv.242                               /tmp/cclQ5C5v.ltrans7.ltrans.o
                                                  /tmp/cclQ5C5v.ltrans12.ltrans.o
cliMap.lto_priv.376                               /tmp/cclQ5C5v.ltrans12.ltrans.o
cliMixer.lto_priv.377                             /tmp/cclQ5C5v.ltrans12.ltrans.o
cliMode                                           /tmp/cclQ5C5v.ltrans12.ltrans.o
                                                  obj/main/NAZE/../controller/io/serial_cli.o (symbol from plugin)
                                                  /tmp/cclQ5C5v.ltrans5.ltrans.o
                                                  /tmp/cclQ5C5v.ltrans3.ltrans.o
                                                  /tmp/cclQ5C5v.ltrans2.ltrans.o
                                                  /tmp/cclQ5C5v.ltrans1.ltrans.o
                                                  obj/main/NAZE/../controller/io/serial.o (symbol from plugin)
                                                  obj/main/NAZE/../controller/mw.o (symbol from plugin)
cliMotor.lto_priv.378                             /tmp/cclQ5C5v.ltrans12.ltrans.o
cliMotorMix.lto_priv.243                          /tmp/cclQ5C5v.ltrans7.ltrans.o
                                                  /tmp/cclQ5C5v.ltrans12.ltrans.o
cliPlaySound.lto_priv.379                         /tmp/cclQ5C5v.ltrans12.ltrans.o
cliPort.lto_priv.235                              /tmp/cclQ5C5v.ltrans24.ltrans.o
                                                  /tmp/cclQ5C5v.ltrans12.ltrans.o
                                                  /tmp/cclQ5C5v.ltrans2.ltrans.o
cliPrint.lto_priv.257                             /tmp/cclQ5C5v.ltrans24.ltrans.o
                                                  /tmp/cclQ5C5v.ltrans12.ltrans.o
                                                  /tmp/cclQ5C5v.ltrans7.ltrans.o
                                                  /tmp/cclQ5C5v.ltrans2.ltrans.o
cliPrintVar.lto_priv.261                          /tmp/cclQ5C5v.ltrans24.ltrans.o
                                                  /tmp/cclQ5C5v.ltrans12.ltrans.o
cliPrintf.lto_priv.254                            /tmp/cclQ5C5v.ltrans24.ltrans.o
                                                  /tmp/cclQ5C5v.ltrans12.ltrans.o
                                                  /tmp/cclQ5C5v.ltrans7.ltrans.o
cliProcess                                        obj/main/NAZE/../controller/io/serial_cli.o (symbol from plugin)
                                                  obj/main/NAZE/../controller/io/serial.o (symbol from plugin)
cliProfile.lto_priv.244                           /tmp/cclQ5C5v.ltrans24.ltrans.o
                                                  /tmp/cclQ5C5v.ltrans12.ltrans.o
cliPrompt.lto_priv.391                            /tmp/cclQ5C5v.ltrans7.ltrans.o
                                                  /tmp/cclQ5C5v.ltrans2.ltrans.o
cliRateProfile.lto_priv.245                       /tmp/cclQ5C5v.ltrans24.ltrans.o
                                                  /tmp/cclQ5C5v.ltrans12.ltrans.o
cliReboot.lto_priv.259                            /tmp/cclQ5C5v.ltrans24.ltrans.o
                                                  /tmp/cclQ5C5v.ltrans12.ltrans.o
cliRxFail.lto_priv.247                            /tmp/cclQ5C5v.ltrans7.ltrans.o
                                                  /tmp/cclQ5C5v.ltrans12.ltrans.o
cliRxRange.lto_priv.246                           /tmp/cclQ5C5v.ltrans7.ltrans.o
                                                  /tmp/cclQ5C5v.ltrans12.ltrans.o
cliSave.lto_priv.248                              /tmp/cclQ5C5v.ltrans24.ltrans.o
                                                  /tmp/cclQ5C5v.ltrans12.ltrans.o
cliSerial.lto_priv.249                            /tmp/cclQ5C5v.ltrans7.ltrans.o
                                                  /tmp/cclQ5C5v.ltrans12.ltrans.o
cliServo.lto_priv.380                             /tmp/cclQ5C5v.ltrans12.ltrans.o
cliServoMix.lto_priv.381                          /tmp/cclQ5C5v.ltrans12.ltrans.o
cliSet.lto_priv.250                               /tmp/cclQ5C5v.ltrans24.ltrans.o
                                                  /tmp/cclQ5C5v.ltrans12.ltrans.o
cliShowArgumentRangeError.lto_priv.255            /tmp/cclQ5C5v.ltrans7.ltrans.o
                                                  /tmp/cclQ5C5v.ltrans12.ltrans.o
cliShowParseError.lto_priv.256                    /tmp/cclQ5C5v.ltrans7.ltrans.o
                                                  /tmp/cclQ5C5v.ltrans12.ltrans.o
cliStatus.lto_priv.251                            /tmp/cclQ5C5v.ltrans24.ltrans.o
                                                  /tmp/cclQ5C5v.ltrans12.ltrans.o
cliTasks.lto_priv.252                             /tmp/cclQ5C5v.ltrans24.ltrans.o
                                                  /tmp/cclQ5C5v.ltrans12.ltrans.o
cliVersion.lto_priv.253                           /tmp/cclQ5C5v.ltrans24.ltrans.o
                                                  /tmp/cclQ5C5v.ltrans12.ltrans.o
cliWrite.lto_priv.260                             /tmp/cclQ5C5v.ltrans24.ltrans.o
                                                  /tmp/cclQ5C5v.ltrans12.ltrans.o
                                                  /tmp/cclQ5C5v.ltrans2.ltrans.o
cliWriter.lto_priv.236                            /tmp/cclQ5C5v.ltrans24.ltrans.o
                                                  /tmp/cclQ5C5v.ltrans12.ltrans.o
                                                  /tmp/cclQ5C5v.ltrans7.ltrans.o
                                                  /tmp/cclQ5C5v.ltrans2.ltrans.o
closeSerialPort                                   /tmp/cclQ5C5v.ltrans7.ltrans.o
                                                  obj/main/NAZE/../controller/io/serial.o (symbol from plugin)
                                                  /tmp/cclQ5C5v.ltrans25.ltrans.o
                                                  /tmp/cclQ5C5v.ltrans8.ltrans.o
                                                  /tmp/cclQ5C5v.ltrans1.ltrans.o
                                                  obj/main/NAZE/../controller/io/serial_msp.o (symbol from plugin)
                                                  obj/main/NAZE/../controller/blackbox/blackbox_io.o (symbol from plugin)
                                                  obj/main/NAZE/../controller/telemetry/ltm.o (symbol from plugin)
                                                  obj/main/NAZE/../controller/telemetry/smartport.o (symbol from plugin)
                                                  obj/main/NAZE/../controller/telemetry/hott.o (symbol from plugin)
                                                  obj/main/NAZE/../controller/telemetry/frsky.o (symbol from plugin)
cmdTable                                          /tmp/cclQ5C5v.ltrans12.ltrans.o
                                                  obj/main/NAZE/../controller/io/serial_cli.o (symbol from plugin)
                                                  /tmp/cclQ5C5v.ltrans2.ltrans.o
colors                                            /tmp/cclQ5C5v.ltrans7.ltrans.o
                                                  obj/main/NAZE/../controller/io/ledstrip.o (symbol from plugin)
                                                  /tmp/cclQ5C5v.ltrans19.ltrans.o
                                                  /tmp/cclQ5C5v.ltrans9.ltrans.o
                                                  /tmp/cclQ5C5v.ltrans0.ltrans.o
compassInit                                       obj/main/NAZE/../controller/sensors/compass.o (symbol from plugin)
                                                  obj/main/NAZE/main.o (symbol from plugin)
configTimeBase                                    /tmp/cclQ5C5v.ltrans17.ltrans.o
                                                  obj/main/NAZE/drivers/timer.o (symbol from plugin)
                                                  /tmp/cclQ5C5v.ltrans20.ltrans.o
                                                  obj/main/NAZE/drivers/pwm_output.o (symbol from plugin)
configureAdjustmentState                          obj/main/NAZE/../controller/io/rc_controls.o (symbol from plugin)
configureAltitudeHold                             obj/main/NAZE/../controller/flight/altitudehold.o (symbol from plugin)
                                                  obj/main/NAZE/../controller/config/config.o (symbol from plugin)
configureFrSkyTelemetryPort                       obj/main/NAZE/../controller/telemetry/frsky.o (symbol from plugin)
configureHoTTTelemetryPort                        obj/main/NAZE/../controller/telemetry/hott.o (symbol from plugin)
configureLtmTelemetryPort                         obj/main/NAZE/../controller/telemetry/ltm.o (symbol from plugin)
configureMPUDataReadyInterruptHandling            obj/main/NAZE/drivers/accgyro_mpu.o (symbol from plugin)
configureSmartPortTelemetryPort                   obj/main/NAZE/../controller/telemetry/smartport.o (symbol from plugin)
constrain                                         obj/main/NAZE/../controller/common/maths.o (symbol from plugin)
                                                  obj/main/NAZE/../controller/sensors/battery.o (symbol from plugin)
                                                  obj/main/NAZE/../controller/rx/rx.o (symbol from plugin)
                                                  obj/main/NAZE/../controller/io/serial_msp.o (symbol from plugin)
                                                  obj/main/NAZE/../controller/io/serial_cli.o (symbol from plugin)
                                                  obj/main/NAZE/../controller/io/rc_controls.o (symbol from plugin)
                                                  obj/main/NAZE/../controller/flight/mixer.o (symbol from plugin)
                                                  obj/main/NAZE/../controller/flight/pid.o (symbol from plugin)
                                                  obj/main/NAZE/../controller/flight/altitudehold.o (symbol from plugin)
                                                  obj/main/NAZE/../controller/mw.o (symbol from plugin)
                                                  obj/main/NAZE/../controller/config/config.o (symbol from plugin)
                                                  obj/main/NAZE/../controller/blackbox/blackbox_io.o (symbol from plugin)
                                                  obj/main/NAZE/../controller/telemetry/frsky.o (symbol from plugin)
                                                  obj/main/NAZE/../controller/io/display.o (symbol from plugin)
                                                  obj/main/NAZE/../controller/flight/navigation.o (symbol from plugin)
                                                  obj/main/NAZE/../controller/flight/gtune.o (symbol from plugin)
constrainf                                        obj/main/NAZE/../controller/common/maths.o (symbol from plugin)
                                                  obj/main/NAZE/../controller/io/rc_controls.o (symbol from plugin)
                                                  obj/main/NAZE/../controller/flight/pid.o (symbol from plugin)
copysignf                                         /usr/lib/gcc/arm-none-eabi/4.9.3/../../../arm-none-eabi/lib/armv7-m/libm.a(lib_a-sf_copysign.o)
                                                  /usr/lib/gcc/arm-none-eabi/4.9.3/../../../arm-none-eabi/lib/armv7-m/libm.a(lib_a-sf_scalbn.o)
cosf                                              /tmp/cclQ5C5v.ltrans6.ltrans.o
                                                  /tmp/cclQ5C5v.ltrans17.ltrans.o
                                                  /tmp/cclQ5C5v.ltrans11.ltrans.o
                                                  /tmp/cclQ5C5v.ltrans1.ltrans.o
                                                  /tmp/cclQ5C5v.ltrans0.ltrans.o
couldBeBusy.lto_priv.586                          /tmp/cclQ5C5v.ltrans0.ltrans.o
                                                  /tmp/cclQ5C5v.ltrans17.ltrans.o
                                                  /tmp/cclQ5C5v.ltrans15.ltrans.o
crc.lto_priv.333                                  /tmp/cclQ5C5v.ltrans8.ltrans.o
                                                  /tmp/cclQ5C5v.ltrans3.ltrans.o
currentBeeperEntry.lto_priv.349                   /tmp/cclQ5C5v.ltrans14.ltrans.o
                                                  /tmp/cclQ5C5v.ltrans27.ltrans.o
currentControlRateProfile                         /tmp/cclQ5C5v.ltrans24.ltrans.o
                                                  obj/main/NAZE/../controller/config/config.o (symbol from plugin)
                                                  /tmp/cclQ5C5v.ltrans23.ltrans.o
                                                  /tmp/cclQ5C5v.ltrans6.ltrans.o
                                                  /tmp/cclQ5C5v.ltrans3.ltrans.o
                                                  /tmp/cclQ5C5v.ltrans2.ltrans.o
                                                  /tmp/cclQ5C5v.ltrans1.ltrans.o
                                                  obj/main/NAZE/../controller/io/serial_msp.o (symbol from plugin)
                                                  obj/main/NAZE/../controller/mw.o (symbol from plugin)
currentControlRateProfileIndex.lto_priv.315       /tmp/cclQ5C5v.ltrans24.ltrans.o
                                                  /tmp/cclQ5C5v.ltrans23.ltrans.o
                                                  /tmp/cclQ5C5v.ltrans19.ltrans.o
                                                  /tmp/cclQ5C5v.ltrans6.ltrans.o
                                                  /tmp/cclQ5C5v.ltrans3.ltrans.o
currentMixer.lto_priv.488                         /tmp/cclQ5C5v.ltrans1.ltrans.o
                                                  /tmp/cclQ5C5v.ltrans0.ltrans.o
currentMixerMode.lto_priv.487                     /tmp/cclQ5C5v.ltrans1.ltrans.o
                                                  /tmp/cclQ5C5v.ltrans0.ltrans.o
currentPort.lto_priv.354                          /tmp/cclQ5C5v.ltrans24.ltrans.o
                                                  /tmp/cclQ5C5v.ltrans2.ltrans.o
currentProfile                                    /tmp/cclQ5C5v.ltrans12.ltrans.o
                                                  obj/main/NAZE/../controller/config/config.o (symbol from plugin)
                                                  /tmp/cclQ5C5v.ltrans28.ltrans.o
                                                  /tmp/cclQ5C5v.ltrans23.ltrans.o
                                                  /tmp/cclQ5C5v.ltrans18.ltrans.o
                                                  /tmp/cclQ5C5v.ltrans7.ltrans.o
                                                  /tmp/cclQ5C5v.ltrans6.ltrans.o
                                                  /tmp/cclQ5C5v.ltrans3.ltrans.o
                                                  /tmp/cclQ5C5v.ltrans2.ltrans.o
                                                  /tmp/cclQ5C5v.ltrans1.ltrans.o
                                                  /tmp/cclQ5C5v.ltrans0.ltrans.o
                                                  obj/main/NAZE/../controller/io/serial_msp.o (symbol from plugin)
                                                  obj/main/NAZE/../controller/io/serial_cli.o (symbol from plugin)
                                                  obj/main/NAZE/../controller/mw.o (symbol from plugin)
                                                  obj/main/NAZE/main.o (symbol from plugin)
                                                  obj/main/NAZE/../controller/blackbox/blackbox.o (symbol from plugin)
currentSensorToCentiamps                          obj/main/NAZE/../controller/sensors/battery.o (symbol from plugin)
currentServoMixer.lto_priv.397                    /tmp/cclQ5C5v.ltrans14.ltrans.o
                                                  /tmp/cclQ5C5v.ltrans1.ltrans.o
                                                  /tmp/cclQ5C5v.ltrans0.ltrans.o
currentTaskId                                     obj/main/NAZE/../controller/scheduler.o (symbol from plugin)
customServoMixers.lto_priv.498                    /tmp/cclQ5C5v.ltrans14.ltrans.o
                                                  /tmp/cclQ5C5v.ltrans0.ltrans.o
cyclePageIds                                      obj/main/NAZE/../controller/io/display.o (symbol from plugin)
cycleTime                                         /tmp/cclQ5C5v.ltrans24.ltrans.o
                                                  obj/main/NAZE/../controller/mw.o (symbol from plugin)
                                                  /tmp/cclQ5C5v.ltrans2.ltrans.o
                                                  /tmp/cclQ5C5v.ltrans1.ltrans.o
                                                  obj/main/NAZE/../controller/io/serial_msp.o (symbol from plugin)
                                                  obj/main/NAZE/../controller/io/serial_cli.o (symbol from plugin)
                                                  obj/main/NAZE/../controller/flight/gtune.o (symbol from plugin)
dT                                                /tmp/cclQ5C5v.ltrans26.ltrans.o
                                                  obj/main/NAZE/../controller/mw.o (symbol from plugin)
                                                  /tmp/cclQ5C5v.ltrans1.ltrans.o
                                                  obj/main/NAZE/../controller/flight/pid.o (symbol from plugin)
deadband3dThrottle.lto_priv.477                   /tmp/cclQ5C5v.ltrans3.ltrans.o
                                                  /tmp/cclQ5C5v.ltrans0.ltrans.o
debug                                             /tmp/cclQ5C5v.ltrans2.ltrans.o
                                                  obj/main/NAZE/debug.o (symbol from plugin)
                                                  /tmp/cclQ5C5v.ltrans1.ltrans.o
                                                  /tmp/cclQ5C5v.ltrans0.ltrans.o
                                                  obj/main/NAZE/../controller/io/serial_msp.o (symbol from plugin)
                                                  obj/main/NAZE/../controller/mw.o (symbol from plugin)
                                                  obj/main/NAZE/main.o (symbol from plugin)
defaultColors                                     obj/main/NAZE/../controller/io/ledstrip.o (symbol from plugin)
defaultLedStripConfig                             obj/main/NAZE/../controller/io/ledstrip.o (symbol from plugin)
degreesToRadians                                  obj/main/NAZE/../controller/common/maths.o (symbol from plugin)
                                                  obj/main/NAZE/../controller/sensors/boardalignment.o (symbol from plugin)
                                                  obj/main/NAZE/../controller/flight/imu.o (symbol from plugin)
                                                  obj/main/NAZE/../controller/mw.o (symbol from plugin)
delay                                             /tmp/cclQ5C5v.ltrans14.ltrans.o
                                                  obj/main/NAZE/drivers/system.o (symbol from plugin)
                                                  /tmp/cclQ5C5v.ltrans27.ltrans.o
                                                  /tmp/cclQ5C5v.ltrans20.ltrans.o
                                                  /tmp/cclQ5C5v.ltrans12.ltrans.o
                                                  /tmp/cclQ5C5v.ltrans7.ltrans.o
                                                  /tmp/cclQ5C5v.ltrans6.ltrans.o
                                                  /tmp/cclQ5C5v.ltrans4.ltrans.o
                                                  /tmp/cclQ5C5v.ltrans2.ltrans.o
                                                  /tmp/cclQ5C5v.ltrans0.ltrans.o
                                                  obj/main/NAZE/../controller/sensors/battery.o (symbol from plugin)
                                                  obj/main/NAZE/../controller/rx/spektrum.o (symbol from plugin)
                                                  obj/main/NAZE/../controller/io/serial_msp.o (symbol from plugin)
                                                  obj/main/NAZE/../controller/io/serial_cli.o (symbol from plugin)
                                                  obj/main/NAZE/../controller/io/serial.o (symbol from plugin)
                                                  obj/main/NAZE/../controller/flight/mixer.o (symbol from plugin)
                                                  obj/main/NAZE/main.o (symbol from plugin)
                                                  obj/main/NAZE/../controller/config/config.o (symbol from plugin)
                                                  obj/main/NAZE/../controller/io/display.o (symbol from plugin)
                                                  obj/main/NAZE/hardware_revision.o (symbol from plugin)
                                                  obj/main/NAZE/drivers/serial_softserial.o (symbol from plugin)
                                                  obj/main/NAZE/drivers/flash_m25p16.o (symbol from plugin)
                                                  obj/main/NAZE/drivers/compass_hmc5883l.o (symbol from plugin)
                                                  obj/main/NAZE/drivers/barometer_ms5611.o (symbol from plugin)
                                                  obj/main/NAZE/drivers/barometer_bmp085.o (symbol from plugin)
                                                  obj/main/NAZE/drivers/accgyro_mpu6500.o (symbol from plugin)
                                                  obj/main/NAZE/drivers/accgyro_mpu6050.o (symbol from plugin)
                                                  obj/main/NAZE/drivers/accgyro_mpu3050.o (symbol from plugin)
                                                  obj/main/NAZE/drivers/accgyro_mpu.o (symbol from plugin)
                                                  obj/main/NAZE/drivers/accgyro_l3g4200d.o (symbol from plugin)
delayMicroseconds                                 /tmp/cclQ5C5v.ltrans14.ltrans.o
                                                  obj/main/NAZE/drivers/system.o (symbol from plugin)
                                                  /tmp/cclQ5C5v.ltrans15.ltrans.o
                                                  /tmp/cclQ5C5v.ltrans0.ltrans.o
                                                  obj/main/NAZE/../controller/rx/spektrum.o (symbol from plugin)
                                                  obj/main/NAZE/drivers/bus_i2c_stm32f10x.o (symbol from plugin)
                                                  obj/main/NAZE/drivers/barometer_ms5611.o (symbol from plugin)
                                                  obj/main/NAZE/drivers/barometer_bmp085.o (symbol from plugin)
deltaFilterState.lto_priv.288                     /tmp/cclQ5C5v.ltrans14.ltrans.o
                                                  /tmp/cclQ5C5v.ltrans26.ltrans.o
detectGyro                                        obj/main/NAZE/../controller/sensors/initialisation.o (symbol from plugin)
detectHardwareRevision                            obj/main/NAZE/hardware_revision.o (symbol from plugin)
                                                  obj/main/NAZE/main.o (symbol from plugin)
detectMpu                                         obj/main/NAZE/drivers/accgyro_mpu.o (symbol from plugin)
                                                  obj/main/NAZE/../controller/sensors/initialisation.o (symbol from plugin)
detectSpiDevice                                   obj/main/NAZE/hardware_revision.o (symbol from plugin)
detectedSensors                                   /tmp/cclQ5C5v.ltrans24.ltrans.o
                                                  obj/main/NAZE/../controller/sensors/initialisation.o (symbol from plugin)
                                                  /tmp/cclQ5C5v.ltrans0.ltrans.o
                                                  obj/main/NAZE/../controller/io/serial_cli.o (symbol from plugin)
determineLedStripDimensions                       obj/main/NAZE/../controller/io/ledstrip.o (symbol from plugin)
determineOrientationLimits                        obj/main/NAZE/../controller/io/ledstrip.o (symbol from plugin)
determinePortSharing                              /tmp/cclQ5C5v.ltrans7.ltrans.o
                                                  obj/main/NAZE/../controller/io/serial.o (symbol from plugin)
                                                  /tmp/cclQ5C5v.ltrans18.ltrans.o
                                                  /tmp/cclQ5C5v.ltrans0.ltrans.o
                                                  obj/main/NAZE/../controller/blackbox/blackbox_io.o (symbol from plugin)
                                                  obj/main/NAZE/../controller/telemetry/ltm.o (symbol from plugin)
                                                  obj/main/NAZE/../controller/telemetry/smartport.o (symbol from plugin)
                                                  obj/main/NAZE/../controller/telemetry/hott.o (symbol from plugin)
                                                  obj/main/NAZE/../controller/telemetry/frsky.o (symbol from plugin)
determineServoMiddleOrForwardFromChannel          /tmp/cclQ5C5v.ltrans14.ltrans.o
                                                  obj/main/NAZE/../controller/flight/mixer.o (symbol from plugin)
                                                  /tmp/cclQ5C5v.ltrans1.ltrans.o
devClear                                          obj/main/NAZE/../controller/common/maths.o (symbol from plugin)
                                                  obj/main/NAZE/../controller/sensors/gyro.o (symbol from plugin)
devPush                                           obj/main/NAZE/../controller/common/maths.o (symbol from plugin)
                                                  obj/main/NAZE/../controller/sensors/gyro.o (symbol from plugin)
devStandardDeviation                              obj/main/NAZE/../controller/common/maths.o (symbol from plugin)
                                                  obj/main/NAZE/../controller/sensors/gyro.o (symbol from plugin)
devVariance                                       obj/main/NAZE/../controller/common/maths.o (symbol from plugin)
disableFlightMode                                 /tmp/cclQ5C5v.ltrans6.ltrans.o
                                                  obj/main/NAZE/../controller/config/runtime_config.o (symbol from plugin)
                                                  /tmp/cclQ5C5v.ltrans3.ltrans.o
                                                  /tmp/cclQ5C5v.ltrans2.ltrans.o
                                                  obj/main/NAZE/../controller/io/serial_msp.o (symbol from plugin)
                                                  obj/main/NAZE/../controller/flight/failsafe.o (symbol from plugin)
                                                  obj/main/NAZE/../controller/flight/altitudehold.o (symbol from plugin)
                                                  obj/main/NAZE/../controller/mw.o (symbol from plugin)
                                                  obj/main/NAZE/../controller/flight/navigation.o (symbol from plugin)
disarmAt.lto_priv.416                             /tmp/cclQ5C5v.ltrans3.ltrans.o
                                                  /tmp/cclQ5C5v.ltrans18.ltrans.o
displayDisablePageCycling                         obj/main/NAZE/../controller/io/display.o (symbol from plugin)
                                                  obj/main/NAZE/../controller/io/rc_controls.o (symbol from plugin)
displayEnablePageCycling                          obj/main/NAZE/../controller/io/display.o (symbol from plugin)
                                                  obj/main/NAZE/../controller/io/rc_controls.o (symbol from plugin)
                                                  obj/main/NAZE/main.o (symbol from plugin)
displayInit                                       obj/main/NAZE/../controller/io/display.o (symbol from plugin)
                                                  obj/main/NAZE/main.o (symbol from plugin)
displayPresent.lto_priv.568                       /tmp/cclQ5C5v.ltrans0.ltrans.o
                                                  /tmp/cclQ5C5v.ltrans19.ltrans.o
displayResetPageCycling                           obj/main/NAZE/../controller/io/display.o (symbol from plugin)
                                                  obj/main/NAZE/main.o (symbol from plugin)
displaySetNextPageChangeAt                        obj/main/NAZE/../controller/io/display.o (symbol from plugin)
displaySetPage                                    obj/main/NAZE/../controller/io/display.o (symbol from plugin)
displayShowFixedPage                              obj/main/NAZE/../controller/io/display.o (symbol from plugin)
                                                  obj/main/NAZE/../controller/io/gps.o (symbol from plugin)
dmaHandlers.lto_priv.452                          /tmp/cclQ5C5v.ltrans14.ltrans.o
                                                  /tmp/cclQ5C5v.ltrans0.ltrans.o
dmaInit                                           obj/main/NAZE/drivers/dma.o (symbol from plugin)
                                                  obj/main/NAZE/main.o (symbol from plugin)
dmaNoOpHandler                                    /tmp/cclQ5C5v.ltrans14.ltrans.o
                                                  obj/main/NAZE/drivers/dma.o (symbol from plugin)
                                                  /tmp/cclQ5C5v.ltrans0.ltrans.o
dmaSetHandler                                     obj/main/NAZE/drivers/dma.o (symbol from plugin)
                                                  obj/main/NAZE/drivers/light_ws2811strip.o (symbol from plugin)
doesConfigurationUsePort                          /tmp/cclQ5C5v.ltrans7.ltrans.o
                                                  obj/main/NAZE/../controller/io/serial.o (symbol from plugin)
                                                  /tmp/cclQ5C5v.ltrans0.ltrans.o
                                                  obj/main/NAZE/main.o (symbol from plugin)
drawHorizonalPercentageBar                        /tmp/cclQ5C5v.ltrans19.ltrans.o
                                                  obj/main/NAZE/../controller/io/display.o (symbol from plugin)
                                                  /tmp/cclQ5C5v.ltrans21.ltrans.o
drawRxChannel                                     obj/main/NAZE/../controller/io/display.o (symbol from plugin)
drawRxChannel.constprop.108                       /tmp/cclQ5C5v.ltrans21.ltrans.o
                                                  /tmp/cclQ5C5v.ltrans19.ltrans.o
dynD8                                             /tmp/cclQ5C5v.ltrans26.ltrans.o
                                                  obj/main/NAZE/../controller/flight/pid.o (symbol from plugin)
                                                  /tmp/cclQ5C5v.ltrans1.ltrans.o
                                                  obj/main/NAZE/../controller/mw.o (symbol from plugin)
dynI8                                             obj/main/NAZE/../controller/flight/pid.o (symbol from plugin)
                                                  obj/main/NAZE/../controller/mw.o (symbol from plugin)
dynP8                                             /tmp/cclQ5C5v.ltrans26.ltrans.o
                                                  obj/main/NAZE/../controller/flight/pid.o (symbol from plugin)
                                                  /tmp/cclQ5C5v.ltrans1.ltrans.o
                                                  obj/main/NAZE/../controller/mw.o (symbol from plugin)
enableFlightMode                                  /tmp/cclQ5C5v.ltrans6.ltrans.o
                                                  obj/main/NAZE/../controller/config/runtime_config.o (symbol from plugin)
                                                  /tmp/cclQ5C5v.ltrans26.ltrans.o
                                                  /tmp/cclQ5C5v.ltrans3.ltrans.o
                                                  obj/main/NAZE/../controller/flight/failsafe.o (symbol from plugin)
                                                  obj/main/NAZE/../controller/flight/altitudehold.o (symbol from plugin)
                                                  obj/main/NAZE/../controller/mw.o (symbol from plugin)
                                                  obj/main/NAZE/../controller/flight/navigation.o (symbol from plugin)
enableGPIOPowerUsageAndNoiseReductions            obj/main/NAZE/drivers/system_stm32f10x.o (symbol from plugin)
                                                  obj/main/NAZE/drivers/system.o (symbol from plugin)
enabledSensors.lto_priv.293                       /tmp/cclQ5C5v.ltrans24.ltrans.o
                                                  /tmp/cclQ5C5v.ltrans28.ltrans.o
                                                  /tmp/cclQ5C5v.ltrans25.ltrans.o
                                                  /tmp/cclQ5C5v.ltrans22.ltrans.o
                                                  /tmp/cclQ5C5v.ltrans19.ltrans.o
                                                  /tmp/cclQ5C5v.ltrans18.ltrans.o
                                                  /tmp/cclQ5C5v.ltrans11.ltrans.o
                                                  /tmp/cclQ5C5v.ltrans5.ltrans.o
                                                  /tmp/cclQ5C5v.ltrans3.ltrans.o
                                                  /tmp/cclQ5C5v.ltrans2.ltrans.o
                                                  /tmp/cclQ5C5v.ltrans1.ltrans.o
                                                  /tmp/cclQ5C5v.ltrans0.ltrans.o
end                                               /usr/lib/gcc/arm-none-eabi/4.9.3/../../../arm-none-eabi/lib/armv7-m/libnosys.a(sbrk.o)
ensureEEPROMContainsValidData                     obj/main/NAZE/../controller/config/config.o (symbol from plugin)
                                                  obj/main/NAZE/main.o (symbol from plugin)
errno                                             /usr/lib/gcc/arm-none-eabi/4.9.3/../../../arm-none-eabi/lib/armv7-m/libc_nano.a(lib_a-reent.o)
                                                  /usr/lib/gcc/arm-none-eabi/4.9.3/../../../arm-none-eabi/lib/armv7-m/libc_nano.a(lib_a-sbrkr.o)
error.lto_priv.580                                /tmp/cclQ5C5v.ltrans11.ltrans.o
                                                  /tmp/cclQ5C5v.ltrans17.ltrans.o
errorGyroI.lto_priv.286                           /tmp/cclQ5C5v.ltrans14.ltrans.o
                                                  /tmp/cclQ5C5v.ltrans26.ltrans.o
                                                  /tmp/cclQ5C5v.ltrans3.ltrans.o
errorGyroILimit.lto_priv.287                      /tmp/cclQ5C5v.ltrans14.ltrans.o
                                                  /tmp/cclQ5C5v.ltrans26.ltrans.o
errorGyroIf.lto_priv.317                          /tmp/cclQ5C5v.ltrans26.ltrans.o
                                                  /tmp/cclQ5C5v.ltrans3.ltrans.o
errorVelocityI                                    /tmp/cclQ5C5v.ltrans22.ltrans.o
                                                  obj/main/NAZE/../controller/flight/altitudehold.o (symbol from plugin)
                                                  /tmp/cclQ5C5v.ltrans3.ltrans.o
                                                  /tmp/cclQ5C5v.ltrans1.ltrans.o
escAndServoConfig.lto_priv.357                    /tmp/cclQ5C5v.ltrans3.ltrans.o
                                                  /tmp/cclQ5C5v.ltrans6.ltrans.o
                                                  /tmp/cclQ5C5v.ltrans2.ltrans.o
escAndServoConfig.lto_priv.395                    /tmp/cclQ5C5v.ltrans1.ltrans.o
                                                  /tmp/cclQ5C5v.ltrans6.ltrans.o
escAndServoConfig.lto_priv.396                    /tmp/cclQ5C5v.ltrans14.ltrans.o
                                                  /tmp/cclQ5C5v.ltrans6.ltrans.o
                                                  /tmp/cclQ5C5v.ltrans1.ltrans.o
escCount                                          obj/main/NAZE/../controller/io/serial_1wire.o (symbol from plugin)
                                                  obj/main/NAZE/../controller/io/serial_msp.o (symbol from plugin)
evaluateOtherData                                 obj/main/NAZE/../controller/io/serial.o (symbol from plugin)
                                                  obj/main/NAZE/../controller/io/serial_msp.o (symbol from plugin)
evtBaroRead.lto_priv.504                          /tmp/cclQ5C5v.ltrans25.ltrans.o
                                                  /tmp/cclQ5C5v.ltrans0.ltrans.o
extiHandlerConfigs.lto_priv.501                   /tmp/cclQ5C5v.ltrans14.ltrans.o
                                                  /tmp/cclQ5C5v.ltrans4.ltrans.o
                                                  /tmp/cclQ5C5v.ltrans0.ltrans.o
extractAndStoreRxByte                             obj/main/NAZE/drivers/serial_softserial.o (symbol from plugin)
fabsf                                             /usr/lib/gcc/arm-none-eabi/4.9.3/../../../arm-none-eabi/lib/armv7-m/libm.a(lib_a-sf_fabs.o)
                                                  /usr/lib/gcc/arm-none-eabi/4.9.3/../../../arm-none-eabi/lib/armv7-m/libm.a(lib_a-ef_pow.o)
failsafeActivate.lto_priv.347                     /tmp/cclQ5C5v.ltrans26.ltrans.o
                                                  /tmp/cclQ5C5v.ltrans3.ltrans.o
failsafeConfig.lto_priv.320                       /tmp/cclQ5C5v.ltrans26.ltrans.o
                                                  /tmp/cclQ5C5v.ltrans6.ltrans.o
                                                  /tmp/cclQ5C5v.ltrans3.ltrans.o
failsafeInit                                      obj/main/NAZE/../controller/flight/failsafe.o (symbol from plugin)
                                                  obj/main/NAZE/main.o (symbol from plugin)
failsafeIsActive                                  obj/main/NAZE/../controller/flight/failsafe.o (symbol from plugin)
                                                  obj/main/NAZE/../controller/io/rc_controls.o (symbol from plugin)
                                                  obj/main/NAZE/../controller/flight/mixer.o (symbol from plugin)
                                                  obj/main/NAZE/../controller/mw.o (symbol from plugin)
                                                  obj/main/NAZE/../controller/telemetry/ltm.o (symbol from plugin)
                                                  obj/main/NAZE/../controller/io/ledstrip.o (symbol from plugin)
failsafeIsMonitoring                              obj/main/NAZE/../controller/flight/failsafe.o (symbol from plugin)
                                                  obj/main/NAZE/../controller/mw.o (symbol from plugin)
failsafeIsReceivingRxData                         obj/main/NAZE/../controller/flight/failsafe.o (symbol from plugin)
failsafeOnRxResume                                obj/main/NAZE/../controller/flight/failsafe.o (symbol from plugin)
                                                  obj/main/NAZE/../controller/rx/rx.o (symbol from plugin)
failsafeOnRxSuspend                               obj/main/NAZE/../controller/flight/failsafe.o (symbol from plugin)
                                                  obj/main/NAZE/../controller/rx/rx.o (symbol from plugin)
failsafeOnValidDataFailed                         obj/main/NAZE/../controller/flight/failsafe.o (symbol from plugin)
                                                  obj/main/NAZE/../controller/rx/rx.o (symbol from plugin)
failsafeOnValidDataReceived                       obj/main/NAZE/../controller/flight/failsafe.o (symbol from plugin)
                                                  obj/main/NAZE/../controller/rx/rx.o (symbol from plugin)
failsafePhase                                     obj/main/NAZE/../controller/flight/failsafe.o (symbol from plugin)
                                                  obj/main/NAZE/../controller/blackbox/blackbox.o (symbol from plugin)
                                                  obj/main/NAZE/../controller/io/display.o (symbol from plugin)
failsafeStartMonitoring                           obj/main/NAZE/../controller/flight/failsafe.o (symbol from plugin)
                                                  obj/main/NAZE/../controller/mw.o (symbol from plugin)
failsafeState.lto_priv.289                        /tmp/cclQ5C5v.ltrans8.ltrans.o
                                                  /tmp/cclQ5C5v.ltrans26.ltrans.o
                                                  /tmp/cclQ5C5v.ltrans19.ltrans.o
                                                  /tmp/cclQ5C5v.ltrans10.ltrans.o
                                                  /tmp/cclQ5C5v.ltrans9.ltrans.o
                                                  /tmp/cclQ5C5v.ltrans6.ltrans.o
                                                  /tmp/cclQ5C5v.ltrans5.ltrans.o
                                                  /tmp/cclQ5C5v.ltrans3.ltrans.o
                                                  /tmp/cclQ5C5v.ltrans1.ltrans.o
                                                  /tmp/cclQ5C5v.ltrans0.ltrans.o
failsafeUpdateState                               obj/main/NAZE/../controller/flight/failsafe.o (symbol from plugin)
                                                  obj/main/NAZE/../controller/mw.o (symbol from plugin)
failureMode                                       /tmp/cclQ5C5v.ltrans14.ltrans.o
                                                  obj/main/NAZE/drivers/system.o (symbol from plugin)
                                                  /tmp/cclQ5C5v.ltrans6.ltrans.o
                                                  /tmp/cclQ5C5v.ltrans4.ltrans.o
                                                  /tmp/cclQ5C5v.ltrans0.ltrans.o
                                                  obj/main/NAZE/main.o (symbol from plugin)
                                                  obj/main/NAZE/../controller/config/config.o (symbol from plugin)
                                                  obj/main/NAZE/drivers/accgyro_mpu3050.o (symbol from plugin)
                                                  obj/main/NAZE/drivers/accgyro_mpu.o (symbol from plugin)
                                                  obj/main/NAZE/drivers/accgyro_l3g4200d.o (symbol from plugin)
fastA2F                                           /tmp/cclQ5C5v.ltrans6.ltrans.o
                                                  obj/main/NAZE/../controller/common/typeconversion.o (symbol from plugin)
                                                  /tmp/cclQ5C5v.ltrans24.ltrans.o
                                                  /tmp/cclQ5C5v.ltrans7.ltrans.o
                                                  obj/main/NAZE/../controller/io/serial_cli.o (symbol from plugin)
fc_acc                                            /tmp/cclQ5C5v.ltrans1.ltrans.o
                                                  obj/main/NAZE/../controller/flight/imu.o (symbol from plugin)
                                                  /tmp/cclQ5C5v.ltrans6.ltrans.o
feature                                           obj/main/NAZE/../controller/config/config.o (symbol from plugin)
                                                  obj/main/NAZE/../controller/sensors/battery.o (symbol from plugin)
                                                  obj/main/NAZE/../controller/sensors/acceleration.o (symbol from plugin)
                                                  obj/main/NAZE/../controller/rx/pwm.o (symbol from plugin)
                                                  obj/main/NAZE/../controller/rx/rx.o (symbol from plugin)
                                                  obj/main/NAZE/../controller/io/serial_msp.o (symbol from plugin)
                                                  obj/main/NAZE/../controller/io/rc_controls.o (symbol from plugin)
                                                  obj/main/NAZE/../controller/io/beeper.o (symbol from plugin)
                                                  obj/main/NAZE/../controller/flight/mixer.o (symbol from plugin)
                                                  obj/main/NAZE/../controller/mw.o (symbol from plugin)
                                                  obj/main/NAZE/main.o (symbol from plugin)
                                                  obj/main/NAZE/../controller/blackbox/blackbox.o (symbol from plugin)
                                                  obj/main/NAZE/../controller/sensors/sonar.o (symbol from plugin)
                                                  obj/main/NAZE/../controller/telemetry/smartport.o (symbol from plugin)
                                                  obj/main/NAZE/../controller/telemetry/frsky.o (symbol from plugin)
                                                  obj/main/NAZE/../controller/io/display.o (symbol from plugin)
                                                  obj/main/NAZE/../controller/io/ledstrip.o (symbol from plugin)
                                                  obj/main/NAZE/../controller/io/gps.o (symbol from plugin)
                                                  obj/main/NAZE/../controller/flight/gtune.o (symbol from plugin)
featureClear                                      /tmp/cclQ5C5v.ltrans6.ltrans.o
                                                  obj/main/NAZE/../controller/config/config.o (symbol from plugin)
                                                  /tmp/cclQ5C5v.ltrans12.ltrans.o
                                                  /tmp/cclQ5C5v.ltrans0.ltrans.o
                                                  obj/main/NAZE/../controller/rx/rx.o (symbol from plugin)
                                                  obj/main/NAZE/../controller/io/serial_cli.o (symbol from plugin)
                                                  obj/main/NAZE/../controller/io/gps.o (symbol from plugin)
featureClearAll                                   obj/main/NAZE/../controller/config/config.o (symbol from plugin)
                                                  obj/main/NAZE/../controller/io/serial_msp.o (symbol from plugin)
featureConfigured                                 obj/main/NAZE/../controller/config/config.o (symbol from plugin)
featureMask                                       obj/main/NAZE/../controller/config/config.o (symbol from plugin)
                                                  obj/main/NAZE/../controller/io/serial_msp.o (symbol from plugin)
                                                  obj/main/NAZE/../controller/io/serial_cli.o (symbol from plugin)
featureSet                                        obj/main/NAZE/../controller/config/config.o (symbol from plugin)
                                                  obj/main/NAZE/../controller/io/serial_msp.o (symbol from plugin)
                                                  obj/main/NAZE/../controller/io/serial_cli.o (symbol from plugin)
filterApplyPt1                                    obj/main/NAZE/../controller/common/filter.o (symbol from plugin)
                                                  obj/main/NAZE/../controller/flight/imu.o (symbol from plugin)
                                                  obj/main/NAZE/../controller/mw.o (symbol from plugin)
filterIsSetCheck                                  /tmp/cclQ5C5v.ltrans26.ltrans.o
                                                  obj/main/NAZE/../controller/flight/pid.o (symbol from plugin)
                                                  /tmp/cclQ5C5v.ltrans14.ltrans.o
filterRc                                          obj/main/NAZE/../controller/mw.o (symbol from plugin)
filterServos                                      obj/main/NAZE/../controller/flight/mixer.o (symbol from plugin)
                                                  obj/main/NAZE/../controller/mw.o (symbol from plugin)
filteredCycleTime                                 obj/main/NAZE/../controller/mw.o (symbol from plugin)
findNextSerialPortConfig                          /tmp/cclQ5C5v.ltrans7.ltrans.o
                                                  obj/main/NAZE/../controller/io/serial.o (symbol from plugin)
                                                  /tmp/cclQ5C5v.ltrans21.ltrans.o
                                                  obj/main/NAZE/../controller/io/serial_msp.o (symbol from plugin)
findNextSharedSerialPort                          obj/main/NAZE/../controller/io/serial.o (symbol from plugin)
                                                  obj/main/NAZE/../controller/mw.o (symbol from plugin)
findNextSharedSerialPort.constprop.20             /tmp/cclQ5C5v.ltrans21.ltrans.o
                                                  /tmp/cclQ5C5v.ltrans18.ltrans.o
                                                  /tmp/cclQ5C5v.ltrans3.ltrans.o
findSerialPortConfig                              /tmp/cclQ5C5v.ltrans7.ltrans.o
                                                  obj/main/NAZE/../controller/io/serial.o (symbol from plugin)
                                                  /tmp/cclQ5C5v.ltrans21.ltrans.o
                                                  /tmp/cclQ5C5v.ltrans18.ltrans.o
                                                  /tmp/cclQ5C5v.ltrans0.ltrans.o
                                                  obj/main/NAZE/../controller/rx/ibus.o (symbol from plugin)
                                                  obj/main/NAZE/../controller/rx/xbus.o (symbol from plugin)
                                                  obj/main/NAZE/../controller/rx/spektrum.o (symbol from plugin)
                                                  obj/main/NAZE/../controller/rx/sumh.o (symbol from plugin)
                                                  obj/main/NAZE/../controller/rx/sumd.o (symbol from plugin)
                                                  obj/main/NAZE/../controller/rx/sbus.o (symbol from plugin)
                                                  obj/main/NAZE/../controller/io/serial_msp.o (symbol from plugin)
                                                  obj/main/NAZE/../controller/blackbox/blackbox_io.o (symbol from plugin)
                                                  obj/main/NAZE/../controller/telemetry/ltm.o (symbol from plugin)
                                                  obj/main/NAZE/../controller/telemetry/smartport.o (symbol from plugin)
                                                  obj/main/NAZE/../controller/telemetry/hott.o (symbol from plugin)
                                                  obj/main/NAZE/../controller/telemetry/frsky.o (symbol from plugin)
                                                  obj/main/NAZE/../controller/io/gps.o (symbol from plugin)
findSerialPortUsageByPort                         obj/main/NAZE/../controller/io/serial.o (symbol from plugin)
findSharedSerialPort                              obj/main/NAZE/../controller/io/serial.o (symbol from plugin)
                                                  obj/main/NAZE/../controller/mw.o (symbol from plugin)
findSharedSerialPortState.lto_priv.312            /tmp/cclQ5C5v.ltrans21.ltrans.o
                                                  /tmp/cclQ5C5v.ltrans18.ltrans.o
                                                  /tmp/cclQ5C5v.ltrans3.ltrans.o
finishBlackbox                                    obj/main/NAZE/../controller/blackbox/blackbox.o (symbol from plugin)
                                                  obj/main/NAZE/../controller/mw.o (symbol from plugin)
finitef                                           /usr/lib/gcc/arm-none-eabi/4.9.3/../../../arm-none-eabi/lib/armv7-m/libm.a(lib_a-sf_finite.o)
                                                  /usr/lib/gcc/arm-none-eabi/4.9.3/../../../arm-none-eabi/lib/armv7-m/libm.a(lib_a-wf_pow.o)
flashLedsAndBeep                                  obj/main/NAZE/main.o (symbol from plugin)
flashWriteBuffer.lto_priv.547                     /tmp/cclQ5C5v.ltrans23.ltrans.o
                                                  /tmp/cclQ5C5v.ltrans17.ltrans.o
                                                  /tmp/cclQ5C5v.ltrans10.ltrans.o
flashfsAdvanceTailInBuffer.lto_priv.545           /tmp/cclQ5C5v.ltrans17.ltrans.o
                                                  /tmp/cclQ5C5v.ltrans23.ltrans.o
flashfsEraseCompletely                            /tmp/cclQ5C5v.ltrans17.ltrans.o
                                                  obj/main/NAZE/../controller/io/flashfs.o (symbol from plugin)
                                                  /tmp/cclQ5C5v.ltrans12.ltrans.o
                                                  /tmp/cclQ5C5v.ltrans2.ltrans.o
                                                  obj/main/NAZE/../controller/io/serial_msp.o (symbol from plugin)
                                                  obj/main/NAZE/../controller/io/serial_cli.o (symbol from plugin)
flashfsEraseRange                                 obj/main/NAZE/../controller/io/flashfs.o (symbol from plugin)
flashfsFlushAsync                                 /tmp/cclQ5C5v.ltrans17.ltrans.o
                                                  obj/main/NAZE/../controller/io/flashfs.o (symbol from plugin)
                                                  /tmp/cclQ5C5v.ltrans23.ltrans.o
                                                  /tmp/cclQ5C5v.ltrans10.ltrans.o
                                                  obj/main/NAZE/../controller/blackbox/blackbox_io.o (symbol from plugin)
flashfsFlushSync                                  /tmp/cclQ5C5v.ltrans17.ltrans.o
                                                  obj/main/NAZE/../controller/io/flashfs.o (symbol from plugin)
                                                  /tmp/cclQ5C5v.ltrans2.ltrans.o
                                                  /tmp/cclQ5C5v.ltrans0.ltrans.o
flashfsGetDirtyDataBuffers.lto_priv.543           /tmp/cclQ5C5v.ltrans17.ltrans.o
                                                  /tmp/cclQ5C5v.ltrans23.ltrans.o
flashfsGetGeometry                                obj/main/NAZE/../controller/io/flashfs.o (symbol from plugin)
                                                  obj/main/NAZE/../controller/io/serial_msp.o (symbol from plugin)
                                                  obj/main/NAZE/../controller/io/serial_cli.o (symbol from plugin)
flashfsGetOffset                                  /tmp/cclQ5C5v.ltrans17.ltrans.o
                                                  obj/main/NAZE/../controller/io/flashfs.o (symbol from plugin)
                                                  /tmp/cclQ5C5v.ltrans12.ltrans.o
                                                  /tmp/cclQ5C5v.ltrans2.ltrans.o
                                                  obj/main/NAZE/../controller/io/serial_msp.o (symbol from plugin)
                                                  obj/main/NAZE/../controller/io/serial_cli.o (symbol from plugin)
flashfsGetSize                                    obj/main/NAZE/../controller/io/flashfs.o (symbol from plugin)
                                                  obj/main/NAZE/../controller/blackbox/blackbox_io.o (symbol from plugin)
flashfsGetWriteBufferFreeSpace                    obj/main/NAZE/../controller/io/flashfs.o (symbol from plugin)
                                                  obj/main/NAZE/../controller/blackbox/blackbox_io.o (symbol from plugin)
flashfsGetWriteBufferSize                         obj/main/NAZE/../controller/io/flashfs.o (symbol from plugin)
                                                  obj/main/NAZE/../controller/blackbox/blackbox_io.o (symbol from plugin)
flashfsIdentifyStartOfFreeSpace                   obj/main/NAZE/../controller/io/flashfs.o (symbol from plugin)
flashfsInit                                       obj/main/NAZE/../controller/io/flashfs.o (symbol from plugin)
                                                  obj/main/NAZE/main.o (symbol from plugin)
flashfsIsEOF                                      obj/main/NAZE/../controller/io/flashfs.o (symbol from plugin)
                                                  obj/main/NAZE/../controller/blackbox/blackbox_io.o (symbol from plugin)
flashfsIsReady                                    obj/main/NAZE/../controller/io/flashfs.o (symbol from plugin)
                                                  obj/main/NAZE/../controller/io/serial_msp.o (symbol from plugin)
                                                  obj/main/NAZE/../controller/io/serial_cli.o (symbol from plugin)
flashfsReadAbs                                    obj/main/NAZE/../controller/io/flashfs.o (symbol from plugin)
                                                  obj/main/NAZE/../controller/io/serial_msp.o (symbol from plugin)
flashfsSeekAbs                                    obj/main/NAZE/../controller/io/flashfs.o (symbol from plugin)
flashfsSeekRel                                    obj/main/NAZE/../controller/io/flashfs.o (symbol from plugin)
flashfsTransmitBufferUsed.lto_priv.413            /tmp/cclQ5C5v.ltrans17.ltrans.o
                                                  /tmp/cclQ5C5v.ltrans23.ltrans.o
                                                  /tmp/cclQ5C5v.ltrans10.ltrans.o
                                                  /tmp/cclQ5C5v.ltrans1.ltrans.o
flashfsWrite                                      obj/main/NAZE/../controller/io/flashfs.o (symbol from plugin)
                                                  obj/main/NAZE/../controller/blackbox/blackbox_io.o (symbol from plugin)
flashfsWriteBuffers.lto_priv.544                  /tmp/cclQ5C5v.ltrans17.ltrans.o
                                                  /tmp/cclQ5C5v.ltrans23.ltrans.o
flashfsWriteByte                                  obj/main/NAZE/../controller/io/flashfs.o (symbol from plugin)
                                                  obj/main/NAZE/../controller/blackbox/blackbox_io.o (symbol from plugin)
flight3DConfig.lto_priv.394                       /tmp/cclQ5C5v.ltrans14.ltrans.o
                                                  /tmp/cclQ5C5v.ltrans6.ltrans.o
                                                  /tmp/cclQ5C5v.ltrans1.ltrans.o
flightControllerIdentifier                        obj/main/NAZE/../controller/io/serial_msp.o (symbol from plugin)
flightModeFlags                                   /tmp/cclQ5C5v.ltrans8.ltrans.o
                                                  obj/main/NAZE/../controller/config/runtime_config.o (symbol from plugin)
                                                  /tmp/cclQ5C5v.ltrans26.ltrans.o
                                                  /tmp/cclQ5C5v.ltrans17.ltrans.o
                                                  /tmp/cclQ5C5v.ltrans14.ltrans.o
                                                  /tmp/cclQ5C5v.ltrans11.ltrans.o
                                                  /tmp/cclQ5C5v.ltrans10.ltrans.o
                                                  /tmp/cclQ5C5v.ltrans9.ltrans.o
                                                  /tmp/cclQ5C5v.ltrans6.ltrans.o
                                                  /tmp/cclQ5C5v.ltrans5.ltrans.o
                                                  /tmp/cclQ5C5v.ltrans3.ltrans.o
                                                  /tmp/cclQ5C5v.ltrans1.ltrans.o
                                                  obj/main/NAZE/../controller/io/serial_msp.o (symbol from plugin)
                                                  obj/main/NAZE/../controller/flight/mixer.o (symbol from plugin)
                                                  obj/main/NAZE/../controller/flight/pid.o (symbol from plugin)
                                                  obj/main/NAZE/../controller/flight/altitudehold.o (symbol from plugin)
                                                  obj/main/NAZE/../controller/mw.o (symbol from plugin)
                                                  obj/main/NAZE/../controller/blackbox/blackbox.o (symbol from plugin)
                                                  obj/main/NAZE/../controller/telemetry/ltm.o (symbol from plugin)
                                                  obj/main/NAZE/../controller/telemetry/smartport.o (symbol from plugin)
                                                  obj/main/NAZE/../controller/io/ledstrip.o (symbol from plugin)
                                                  obj/main/NAZE/../controller/flight/navigation.o (symbol from plugin)
                                                  obj/main/NAZE/../controller/flight/gtune.o (symbol from plugin)
flushHottRxBuffer.lto_priv.298                    /tmp/cclQ5C5v.ltrans25.ltrans.o
                                                  /tmp/cclQ5C5v.ltrans5.ltrans.o
frSkyDataIdTable                                  obj/main/NAZE/../controller/telemetry/smartport.o (symbol from plugin)
free                                              /usr/lib/gcc/arm-none-eabi/4.9.3/../../../arm-none-eabi/lib/armv7-m/libc_nano.a(lib_a-malloc.o)
                                                  /tmp/cclQ5C5v.ltrans13.ltrans.o
freeFrSkyTelemetryPort                            obj/main/NAZE/../controller/telemetry/frsky.o (symbol from plugin)
freeHoTTTelemetryPort                             obj/main/NAZE/../controller/telemetry/hott.o (symbol from plugin)
freeLtmTelemetryPort                              obj/main/NAZE/../controller/telemetry/ltm.o (symbol from plugin)
freeSmartPortTelemetryPort                        obj/main/NAZE/../controller/telemetry/smartport.o (symbol from plugin)
frskyPortSharing.lto_priv.566                     /tmp/cclQ5C5v.ltrans0.ltrans.o
                                                  /tmp/cclQ5C5v.ltrans25.ltrans.o
frskyTelemetryEnabled.lto_priv.567                /tmp/cclQ5C5v.ltrans5.ltrans.o
                                                  /tmp/cclQ5C5v.ltrans25.ltrans.o
ftoa                                              /tmp/cclQ5C5v.ltrans6.ltrans.o
                                                  obj/main/NAZE/../controller/common/typeconversion.o (symbol from plugin)
                                                  /tmp/cclQ5C5v.ltrans24.ltrans.o
                                                  /tmp/cclQ5C5v.ltrans12.ltrans.o
                                                  /tmp/cclQ5C5v.ltrans7.ltrans.o
                                                  obj/main/NAZE/../controller/io/serial_cli.o (symbol from plugin)
g_i2c_port                                        /tmp/cclQ5C5v.ltrans21.ltrans.o
                                                  obj/main/NAZE/drivers/bus_i2c_stm32f10x.o (symbol from plugin)
                                                  /tmp/cclQ5C5v.ltrans0.ltrans.o
                                                  obj/main/NAZE/drivers/compass_qmc5883l.o (symbol from plugin)
                                                  obj/main/NAZE/drivers/barometer_bmp280.o (symbol from plugin)
                                                  obj/main/NAZE/drivers/accgyro_mpu6500.o (symbol from plugin)
g_imu_sensor                                      /tmp/cclQ5C5v.ltrans21.ltrans.o
                                                  obj/main/NAZE/../controller/pif_linker.o (symbol from plugin)
                                                  /tmp/cclQ5C5v.ltrans15.ltrans.o
                                                  /tmp/cclQ5C5v.ltrans4.ltrans.o
                                                  /tmp/cclQ5C5v.ltrans0.ltrans.o
                                                  obj/main/NAZE/main.o (symbol from plugin)
                                                  obj/main/NAZE/drivers/compass_qmc5883l.o (symbol from plugin)
                                                  obj/main/NAZE/drivers/accgyro_mpu6500.o (symbol from plugin)
                                                  obj/main/NAZE/drivers/accgyro_mpu.o (symbol from plugin)
g_pfnVectors                                      obj/main/NAZE/startup_stm32f10x_md_gcc.o
g_timer_1ms                                       /tmp/cclQ5C5v.ltrans24.ltrans.o
                                                  obj/main/NAZE/../controller/pif_linker.o (symbol from plugin)
                                                  /tmp/cclQ5C5v.ltrans18.ltrans.o
                                                  /tmp/cclQ5C5v.ltrans14.ltrans.o
                                                  obj/main/NAZE/../controller/io/serial_cli.o (symbol from plugin)
                                                  obj/main/NAZE/drivers/system.o (symbol from plugin)
                                                  obj/main/NAZE/main.o (symbol from plugin)
generateLedConfig                                 obj/main/NAZE/../controller/io/ledstrip.o (symbol from plugin)
                                                  obj/main/NAZE/../controller/io/serial_cli.o (symbol from plugin)
generatePitchRollCurve                            /tmp/cclQ5C5v.ltrans14.ltrans.o
                                                  obj/main/NAZE/../controller/io/rc_curves.o (symbol from plugin)
                                                  /tmp/cclQ5C5v.ltrans23.ltrans.o
                                                  /tmp/cclQ5C5v.ltrans3.ltrans.o
                                                  obj/main/NAZE/../controller/io/rc_controls.o (symbol from plugin)
                                                  obj/main/NAZE/../controller/config/config.o (symbol from plugin)
generateThrottleCurve                             /tmp/cclQ5C5v.ltrans14.ltrans.o
                                                  obj/main/NAZE/../controller/io/rc_curves.o (symbol from plugin)
                                                  /tmp/cclQ5C5v.ltrans23.ltrans.o
                                                  /tmp/cclQ5C5v.ltrans3.ltrans.o
                                                  obj/main/NAZE/../controller/io/rc_controls.o (symbol from plugin)
                                                  obj/main/NAZE/../controller/config/config.o (symbol from plugin)
generateYawCurve                                  obj/main/NAZE/../controller/io/rc_curves.o (symbol from plugin)
                                                  obj/main/NAZE/../controller/config/config.o (symbol from plugin)
geometry.lto_priv.363                             /tmp/cclQ5C5v.ltrans12.ltrans.o
                                                  /tmp/cclQ5C5v.ltrans23.ltrans.o
                                                  /tmp/cclQ5C5v.ltrans18.ltrans.o
                                                  /tmp/cclQ5C5v.ltrans17.ltrans.o
                                                  /tmp/cclQ5C5v.ltrans2.ltrans.o
                                                  /tmp/cclQ5C5v.ltrans0.ltrans.o
getArmingBeepTimeMicros                           obj/main/NAZE/../controller/io/beeper.o (symbol from plugin)
                                                  obj/main/NAZE/../controller/blackbox/blackbox.o (symbol from plugin)
getBatteryState                                   obj/main/NAZE/../controller/sensors/battery.o (symbol from plugin)
                                                  obj/main/NAZE/../controller/telemetry/hott.o (symbol from plugin)
                                                  obj/main/NAZE/../controller/io/ledstrip.o (symbol from plugin)
getBatteryStateString                             obj/main/NAZE/../controller/sensors/battery.o (symbol from plugin)
                                                  obj/main/NAZE/../controller/io/serial_cli.o (symbol from plugin)
getControlRateConfig                              obj/main/NAZE/../controller/config/config.o (symbol from plugin)
                                                  obj/main/NAZE/../controller/io/display.o (symbol from plugin)
getCosTiltAngle                                   obj/main/NAZE/../controller/flight/imu.o (symbol from plugin)
                                                  obj/main/NAZE/../controller/flight/altitudehold.o (symbol from plugin)
getCurrentControlRateProfile                      obj/main/NAZE/../controller/config/config.o (symbol from plugin)
                                                  obj/main/NAZE/../controller/io/serial_cli.o (symbol from plugin)
                                                  obj/main/NAZE/../controller/io/rc_controls.o (symbol from plugin)
                                                  obj/main/NAZE/../controller/io/display.o (symbol from plugin)
getCurrentMinthrottle                             obj/main/NAZE/../controller/config/config.o (symbol from plugin)
getCurrentProfile                                 obj/main/NAZE/../controller/config/config.o (symbol from plugin)
                                                  obj/main/NAZE/../controller/io/serial_cli.o (symbol from plugin)
                                                  obj/main/NAZE/../controller/io/display.o (symbol from plugin)
getLedHsv                                         obj/main/NAZE/drivers/light_ws2811strip.o (symbol from plugin)
                                                  obj/main/NAZE/../controller/io/ledstrip.o (symbol from plugin)
getRcStickDeflection                              obj/main/NAZE/../controller/io/rc_controls.o (symbol from plugin)
                                                  obj/main/NAZE/../controller/flight/pid.o (symbol from plugin)
getRxfailValue.lto_priv.348                       /tmp/cclQ5C5v.ltrans8.ltrans.o
                                                  /tmp/cclQ5C5v.ltrans3.ltrans.o
getTaskInfo                                       obj/main/NAZE/../controller/scheduler.o (symbol from plugin)
                                                  obj/main/NAZE/../controller/io/serial_cli.o (symbol from plugin)
gimbalConfig.lto_priv.537                         /tmp/cclQ5C5v.ltrans1.ltrans.o
                                                  /tmp/cclQ5C5v.ltrans6.ltrans.o
gpioExtiLineConfig                                /tmp/cclQ5C5v.ltrans15.ltrans.o
                                                  obj/main/NAZE/drivers/gpio_stm32f10x.o (symbol from plugin)
                                                  /tmp/cclQ5C5v.ltrans4.ltrans.o
                                                  /tmp/cclQ5C5v.ltrans0.ltrans.o
                                                  obj/main/NAZE/drivers/sonar_hcsr04.o (symbol from plugin)
                                                  obj/main/NAZE/drivers/compass_hmc5883l.o (symbol from plugin)
                                                  obj/main/NAZE/drivers/barometer_bmp085.o (symbol from plugin)
                                                  obj/main/NAZE/drivers/accgyro_mpu.o (symbol from plugin)
gpioInit                                          /tmp/cclQ5C5v.ltrans15.ltrans.o
                                                  obj/main/NAZE/drivers/gpio_stm32f10x.o (symbol from plugin)
                                                  /tmp/cclQ5C5v.ltrans20.ltrans.o
                                                  /tmp/cclQ5C5v.ltrans16.ltrans.o
                                                  /tmp/cclQ5C5v.ltrans4.ltrans.o
                                                  /tmp/cclQ5C5v.ltrans2.ltrans.o
                                                  /tmp/cclQ5C5v.ltrans0.ltrans.o
                                                  obj/main/NAZE/../controller/rx/spektrum.o (symbol from plugin)
                                                  obj/main/NAZE/../controller/io/serial_1wire.o (symbol from plugin)
                                                  obj/main/NAZE/drivers/system.o (symbol from plugin)
                                                  obj/main/NAZE/drivers/timer.o (symbol from plugin)
                                                  obj/main/NAZE/drivers/system_stm32f10x.o (symbol from plugin)
                                                  obj/main/NAZE/drivers/sound_beeper_stm32f10x.o (symbol from plugin)
                                                  obj/main/NAZE/drivers/serial_uart_stm32f10x.o (symbol from plugin)
                                                  obj/main/NAZE/drivers/serial_softserial.o (symbol from plugin)
                                                  obj/main/NAZE/drivers/pwm_rx.o (symbol from plugin)
                                                  obj/main/NAZE/drivers/pwm_output.o (symbol from plugin)
                                                  obj/main/NAZE/drivers/sonar_hcsr04.o (symbol from plugin)
                                                  obj/main/NAZE/drivers/light_led_stm32f10x.o (symbol from plugin)
                                                  obj/main/NAZE/drivers/inverter.o (symbol from plugin)
                                                  obj/main/NAZE/drivers/compass_hmc5883l.o (symbol from plugin)
                                                  obj/main/NAZE/drivers/bus_i2c_stm32f10x.o (symbol from plugin)
                                                  obj/main/NAZE/drivers/bus_spi.o (symbol from plugin)
                                                  obj/main/NAZE/drivers/barometer_bmp085.o (symbol from plugin)
                                                  obj/main/NAZE/drivers/accgyro_spi_mpu6500.o (symbol from plugin)
                                                  obj/main/NAZE/drivers/accgyro_mpu.o (symbol from plugin)
                                                  obj/main/NAZE/drivers/accgyro_mma845x.o (symbol from plugin)
gpioPinRemapConfig                                obj/main/NAZE/drivers/gpio_stm32f10x.o (symbol from plugin)
gpsConfig.lto_priv.455                            /tmp/cclQ5C5v.ltrans22.ltrans.o
                                                  /tmp/cclQ5C5v.ltrans11.ltrans.o
                                                  /tmp/cclQ5C5v.ltrans0.ltrans.o
gpsData                                           /tmp/cclQ5C5v.ltrans22.ltrans.o
                                                  obj/main/NAZE/../controller/io/gps.o (symbol from plugin)
                                                  /tmp/cclQ5C5v.ltrans19.ltrans.o
                                                  /tmp/cclQ5C5v.ltrans11.ltrans.o
                                                  /tmp/cclQ5C5v.ltrans0.ltrans.o
                                                  obj/main/NAZE/../controller/io/display.o (symbol from plugin)
gpsEnablePassthrough                              obj/main/NAZE/../controller/io/gps.o (symbol from plugin)
                                                  obj/main/NAZE/../controller/io/serial_cli.o (symbol from plugin)
gpsHistory.lto_priv.548                           /tmp/cclQ5C5v.ltrans18.ltrans.o
                                                  /tmp/cclQ5C5v.ltrans10.ltrans.o
gpsInit                                           obj/main/NAZE/../controller/io/gps.o (symbol from plugin)
                                                  obj/main/NAZE/main.o (symbol from plugin)
gpsInitData.lto_priv.456                          /tmp/cclQ5C5v.ltrans22.ltrans.o
                                                  /tmp/cclQ5C5v.ltrans0.ltrans.o
gpsInitHardware                                   obj/main/NAZE/../controller/io/gps.o (symbol from plugin)
gpsInitNmea                                       obj/main/NAZE/../controller/io/gps.o (symbol from plugin)
gpsInitUblox                                      obj/main/NAZE/../controller/io/gps.o (symbol from plugin)
gpsNewData.part.2.lto_priv.258                    /tmp/cclQ5C5v.ltrans11.ltrans.o
                                                  /tmp/cclQ5C5v.ltrans22.ltrans.o
                                                  /tmp/cclQ5C5v.ltrans12.ltrans.o
gpsNewFrame                                       /tmp/cclQ5C5v.ltrans11.ltrans.o
                                                  obj/main/NAZE/../controller/io/gps.o (symbol from plugin)
                                                  /tmp/cclQ5C5v.ltrans22.ltrans.o
                                                  /tmp/cclQ5C5v.ltrans12.ltrans.o
gpsPacketLog                                      /tmp/cclQ5C5v.ltrans0.ltrans.o
                                                  obj/main/NAZE/../controller/io/gps.o (symbol from plugin)
                                                  /tmp/cclQ5C5v.ltrans19.ltrans.o
                                                  /tmp/cclQ5C5v.ltrans11.ltrans.o
                                                  obj/main/NAZE/../controller/io/display.o (symbol from plugin)
gpsPort.lto_priv.310                              /tmp/cclQ5C5v.ltrans12.ltrans.o
                                                  /tmp/cclQ5C5v.ltrans22.ltrans.o
                                                  /tmp/cclQ5C5v.ltrans0.ltrans.o
gpsProfile.lto_priv.399                           /tmp/cclQ5C5v.ltrans3.ltrans.o
                                                  /tmp/cclQ5C5v.ltrans17.ltrans.o
                                                  /tmp/cclQ5C5v.ltrans11.ltrans.o
                                                  /tmp/cclQ5C5v.ltrans6.ltrans.o
                                                  /tmp/cclQ5C5v.ltrans1.ltrans.o
                                                  /tmp/cclQ5C5v.ltrans0.ltrans.o
gpsSetState.lto_priv.311                          /tmp/cclQ5C5v.ltrans11.ltrans.o
                                                  /tmp/cclQ5C5v.ltrans22.ltrans.o
                                                  /tmp/cclQ5C5v.ltrans0.ltrans.o
gpsThread                                         obj/main/NAZE/../controller/io/gps.o (symbol from plugin)
                                                  obj/main/NAZE/../controller/mw.o (symbol from plugin)
gpsUsePIDs                                        /tmp/cclQ5C5v.ltrans17.ltrans.o
                                                  obj/main/NAZE/../controller/flight/navigation.o (symbol from plugin)
                                                  /tmp/cclQ5C5v.ltrans6.ltrans.o
                                                  /tmp/cclQ5C5v.ltrans0.ltrans.o
                                                  obj/main/NAZE/../controller/config/config.o (symbol from plugin)
gpsUseProfile                                     obj/main/NAZE/../controller/flight/navigation.o (symbol from plugin)
                                                  obj/main/NAZE/../controller/config/config.o (symbol from plugin)
grab_fields.constprop.112                         /tmp/cclQ5C5v.ltrans21.ltrans.o
                                                  /tmp/cclQ5C5v.ltrans11.ltrans.o
gyro                                              /tmp/cclQ5C5v.ltrans26.ltrans.o
                                                  obj/main/NAZE/../controller/sensors/gyro.o (symbol from plugin)
                                                  /tmp/cclQ5C5v.ltrans1.ltrans.o
                                                  /tmp/cclQ5C5v.ltrans0.ltrans.o
                                                  obj/main/NAZE/../controller/sensors/initialisation.o (symbol from plugin)
                                                  obj/main/NAZE/drivers/gyro_sync.o (symbol from plugin)
                                                  obj/main/NAZE/../controller/flight/imu.o (symbol from plugin)
                                                  obj/main/NAZE/../controller/flight/pid.o (symbol from plugin)
                                                  obj/main/NAZE/../controller/mw.o (symbol from plugin)
                                                  obj/main/NAZE/../controller/blackbox/blackbox.o (symbol from plugin)
gyroADC                                           /tmp/cclQ5C5v.ltrans14.ltrans.o
                                                  obj/main/NAZE/../controller/sensors/gyro.o (symbol from plugin)
                                                  /tmp/cclQ5C5v.ltrans26.ltrans.o
                                                  /tmp/cclQ5C5v.ltrans19.ltrans.o
                                                  /tmp/cclQ5C5v.ltrans17.ltrans.o
                                                  /tmp/cclQ5C5v.ltrans10.ltrans.o
                                                  /tmp/cclQ5C5v.ltrans2.ltrans.o
                                                  /tmp/cclQ5C5v.ltrans1.ltrans.o
                                                  obj/main/NAZE/../controller/io/serial_msp.o (symbol from plugin)
                                                  obj/main/NAZE/../controller/flight/imu.o (symbol from plugin)
                                                  obj/main/NAZE/../controller/flight/pid.o (symbol from plugin)
                                                  obj/main/NAZE/../controller/blackbox/blackbox.o (symbol from plugin)
                                                  obj/main/NAZE/../controller/io/display.o (symbol from plugin)
                                                  obj/main/NAZE/../controller/flight/gtune.o (symbol from plugin)
gyroADCRaw                                        obj/main/NAZE/../controller/sensors/gyro.o (symbol from plugin)
gyroAlign                                         /tmp/cclQ5C5v.ltrans1.ltrans.o
                                                  obj/main/NAZE/../controller/sensors/gyro.o (symbol from plugin)
                                                  /tmp/cclQ5C5v.ltrans0.ltrans.o
                                                  obj/main/NAZE/../controller/sensors/initialisation.o (symbol from plugin)
gyroConfig.lto_priv.540                           /tmp/cclQ5C5v.ltrans1.ltrans.o
                                                  /tmp/cclQ5C5v.ltrans6.ltrans.o
gyroLpfCutFreq.lto_priv.541                       /tmp/cclQ5C5v.ltrans1.ltrans.o
                                                  /tmp/cclQ5C5v.ltrans6.ltrans.o
gyroMPU6xxxCalculateDivider                       obj/main/NAZE/drivers/gyro_sync.o (symbol from plugin)
                                                  obj/main/NAZE/drivers/accgyro_mpu6500.o (symbol from plugin)
                                                  obj/main/NAZE/drivers/accgyro_mpu6050.o (symbol from plugin)
gyroScale.lto_priv.479                            /tmp/cclQ5C5v.ltrans1.ltrans.o
                                                  /tmp/cclQ5C5v.ltrans0.ltrans.o
gyroSetCalibrationCycles                          obj/main/NAZE/../controller/sensors/gyro.o (symbol from plugin)
                                                  obj/main/NAZE/../controller/io/rc_controls.o (symbol from plugin)
                                                  obj/main/NAZE/main.o (symbol from plugin)
gyroSyncCheckUpdate                               obj/main/NAZE/drivers/gyro_sync.o (symbol from plugin)
                                                  obj/main/NAZE/../controller/mw.o (symbol from plugin)
gyroUpdate                                        obj/main/NAZE/../controller/sensors/gyro.o (symbol from plugin)
                                                  obj/main/NAZE/../controller/flight/imu.o (symbol from plugin)
gyroUpdateSampleRate                              obj/main/NAZE/drivers/gyro_sync.o (symbol from plugin)
                                                  obj/main/NAZE/../controller/sensors/initialisation.o (symbol from plugin)
gyroZero                                          obj/main/NAZE/../controller/sensors/gyro.o (symbol from plugin)
handleBlackbox                                    obj/main/NAZE/../controller/blackbox/blackbox.o (symbol from plugin)
                                                  obj/main/NAZE/../controller/mw.o (symbol from plugin)
handleFrSkyTelemetry                              obj/main/NAZE/../controller/telemetry/frsky.o (symbol from plugin)
                                                  obj/main/NAZE/../controller/telemetry/telemetry.o (symbol from plugin)
handleHoTTTelemetry                               obj/main/NAZE/../controller/telemetry/hott.o (symbol from plugin)
                                                  obj/main/NAZE/../controller/telemetry/telemetry.o (symbol from plugin)
handleInflightCalibrationStickPosition            obj/main/NAZE/../controller/mw.o (symbol from plugin)
                                                  obj/main/NAZE/../controller/io/rc_controls.o (symbol from plugin)
handleLtmTelemetry                                obj/main/NAZE/../controller/telemetry/ltm.o (symbol from plugin)
                                                  obj/main/NAZE/../controller/telemetry/telemetry.o (symbol from plugin)
handleOneshotFeatureChangeOnRestart               /tmp/cclQ5C5v.ltrans6.ltrans.o
                                                  obj/main/NAZE/../controller/config/config.o (symbol from plugin)
                                                  /tmp/cclQ5C5v.ltrans24.ltrans.o
                                                  /tmp/cclQ5C5v.ltrans2.ltrans.o
                                                  obj/main/NAZE/../controller/io/serial_msp.o (symbol from plugin)
                                                  obj/main/NAZE/../controller/io/serial_cli.o (symbol from plugin)
handlePageChange                                  obj/main/NAZE/../controller/io/display.o (symbol from plugin)
handleSerial                                      obj/main/NAZE/../controller/io/serial.o (symbol from plugin)
                                                  obj/main/NAZE/../controller/mw.o (symbol from plugin)
handleSmartPortTelemetry                          obj/main/NAZE/../controller/telemetry/smartport.o (symbol from plugin)
                                                  obj/main/NAZE/../controller/telemetry/telemetry.o (symbol from plugin)
hardwareRevision                                  /tmp/cclQ5C5v.ltrans2.ltrans.o
                                                  obj/main/NAZE/hardware_revision.o (symbol from plugin)
                                                  /tmp/cclQ5C5v.ltrans0.ltrans.o
                                                  obj/main/NAZE/../controller/sensors/initialisation.o (symbol from plugin)
                                                  obj/main/NAZE/../controller/io/serial_msp.o (symbol from plugin)
                                                  obj/main/NAZE/main.o (symbol from plugin)
hasEnoughTimeLapsedSinceLastTelemetryTransmission obj/main/NAZE/../controller/telemetry/frsky.o (symbol from plugin)
haveProcessedAnnexCodeOnce.lto_priv.392           /tmp/cclQ5C5v.ltrans3.ltrans.o
                                                  /tmp/cclQ5C5v.ltrans1.ltrans.o
hcsr04_get_distance                               obj/main/NAZE/drivers/sonar_hcsr04.o (symbol from plugin)
                                                  obj/main/NAZE/../controller/sensors/sonar.o (symbol from plugin)
hcsr04_init                                       obj/main/NAZE/drivers/sonar_hcsr04.o (symbol from plugin)
                                                  obj/main/NAZE/../controller/sensors/sonar.o (symbol from plugin)
hcsr04_start_reading                              obj/main/NAZE/../controller/sensors/sonar.o (symbol from plugin)
headFreeModeHold                                  /tmp/cclQ5C5v.ltrans3.ltrans.o
                                                  obj/main/NAZE/../controller/mw.o (symbol from plugin)
                                                  /tmp/cclQ5C5v.ltrans18.ltrans.o
                                                  /tmp/cclQ5C5v.ltrans1.ltrans.o
headSerialError.constprop.12                      /tmp/cclQ5C5v.ltrans21.ltrans.o
                                                  /tmp/cclQ5C5v.ltrans2.ltrans.o
headSerialReply.lto_priv.383                      /tmp/cclQ5C5v.ltrans24.ltrans.o
                                                  /tmp/cclQ5C5v.ltrans2.ltrans.o
headSerialResponse.lto_priv.225                   /tmp/cclQ5C5v.ltrans24.ltrans.o
                                                  /tmp/cclQ5C5v.ltrans21.ltrans.o
highestXValueForWest                              /tmp/cclQ5C5v.ltrans9.ltrans.o
                                                  obj/main/NAZE/../controller/io/ledstrip.o (symbol from plugin)
                                                  /tmp/cclQ5C5v.ltrans19.ltrans.o
highestYValueForNorth                             /tmp/cclQ5C5v.ltrans9.ltrans.o
                                                  obj/main/NAZE/../controller/io/ledstrip.o (symbol from plugin)
                                                  /tmp/cclQ5C5v.ltrans19.ltrans.o
hmc5883lDetect                                    obj/main/NAZE/drivers/compass_hmc5883l.o (symbol from plugin)
hmc5883lInit                                      obj/main/NAZE/drivers/compass_hmc5883l.o (symbol from plugin)
hmc5883lRead                                      obj/main/NAZE/drivers/compass_hmc5883l.o (symbol from plugin)
hottEAMMessage.lto_priv.448                       /tmp/cclQ5C5v.ltrans5.ltrans.o
                                                  /tmp/cclQ5C5v.ltrans0.ltrans.o
hottGPSMessage.lto_priv.449                       /tmp/cclQ5C5v.ltrans5.ltrans.o
                                                  /tmp/cclQ5C5v.ltrans0.ltrans.o
hottPort.lto_priv.558                             /tmp/cclQ5C5v.ltrans5.ltrans.o
                                                  /tmp/cclQ5C5v.ltrans25.ltrans.o
hottPortSharing.lto_priv.564                      /tmp/cclQ5C5v.ltrans0.ltrans.o
                                                  /tmp/cclQ5C5v.ltrans25.ltrans.o
hottPrepareEAMResponse                            obj/main/NAZE/../controller/telemetry/hott.o (symbol from plugin)
hottPrepareGPSResponse                            obj/main/NAZE/../controller/telemetry/hott.o (symbol from plugin)
hottTelemetryEnabled.lto_priv.565                 /tmp/cclQ5C5v.ltrans5.ltrans.o
                                                  /tmp/cclQ5C5v.ltrans25.ltrans.o
hse_value                                         /tmp/cclQ5C5v.ltrans8.ltrans.o
                                                  obj/main/NAZE/system_stm32f10x.o (symbol from plugin)
                                                  /tmp/cclQ5C5v.ltrans0.ltrans.o
                                                  obj/main/NAZE/stm32f10x_rcc.o (symbol from plugin)
                                                  obj/main/NAZE/hardware_revision.o (symbol from plugin)
hsvToRgb24                                        obj/main/NAZE/../controller/common/colorconversion.o (symbol from plugin)
                                                  obj/main/NAZE/drivers/light_ws2811strip.o (symbol from plugin)
hsv_black                                         /tmp/cclQ5C5v.ltrans9.ltrans.o
                                                  obj/main/NAZE/../controller/io/ledstrip.o (symbol from plugin)
                                                  /tmp/cclQ5C5v.ltrans23.ltrans.o
hsv_blue                                          /tmp/cclQ5C5v.ltrans9.ltrans.o
                                                  obj/main/NAZE/../controller/io/ledstrip.o (symbol from plugin)
                                                  /tmp/cclQ5C5v.ltrans23.ltrans.o
hsv_cyan                                          obj/main/NAZE/../controller/io/ledstrip.o (symbol from plugin)
hsv_darkViolet                                    obj/main/NAZE/../controller/io/ledstrip.o (symbol from plugin)
hsv_deepPink                                      obj/main/NAZE/../controller/io/ledstrip.o (symbol from plugin)
hsv_green                                         /tmp/cclQ5C5v.ltrans9.ltrans.o
                                                  obj/main/NAZE/../controller/io/ledstrip.o (symbol from plugin)
                                                  /tmp/cclQ5C5v.ltrans23.ltrans.o
hsv_lightBlue                                     obj/main/NAZE/../controller/io/ledstrip.o (symbol from plugin)
hsv_limeGreen                                     obj/main/NAZE/../controller/io/ledstrip.o (symbol from plugin)
hsv_magenta                                       obj/main/NAZE/../controller/io/ledstrip.o (symbol from plugin)
hsv_mintGreen                                     obj/main/NAZE/../controller/io/ledstrip.o (symbol from plugin)
hsv_orange                                        /tmp/cclQ5C5v.ltrans9.ltrans.o
                                                  obj/main/NAZE/../controller/io/ledstrip.o (symbol from plugin)
                                                  /tmp/cclQ5C5v.ltrans23.ltrans.o
hsv_red                                           /tmp/cclQ5C5v.ltrans9.ltrans.o
                                                  obj/main/NAZE/../controller/io/ledstrip.o (symbol from plugin)
                                                  /tmp/cclQ5C5v.ltrans23.ltrans.o
hsv_white                                         /tmp/cclQ5C5v.ltrans0.ltrans.o
                                                  obj/main/NAZE/../controller/io/ledstrip.o (symbol from plugin)
                                                  /tmp/cclQ5C5v.ltrans23.ltrans.o
                                                  obj/main/NAZE/drivers/light_ws2811strip_stm32f10x.o (symbol from plugin)
hsv_yellow                                        /tmp/cclQ5C5v.ltrans9.ltrans.o
                                                  obj/main/NAZE/../controller/io/ledstrip.o (symbol from plugin)
                                                  /tmp/cclQ5C5v.ltrans23.ltrans.o
i2a                                               obj/main/NAZE/../controller/common/typeconversion.o (symbol from plugin)
                                                  obj/main/NAZE/../controller/common/printf.o (symbol from plugin)
i2cErrorCount.lto_priv.366                        /tmp/cclQ5C5v.ltrans24.ltrans.o
                                                  /tmp/cclQ5C5v.ltrans4.ltrans.o
                                                  /tmp/cclQ5C5v.ltrans2.ltrans.o
i2cGetErrorCounter                                obj/main/NAZE/drivers/bus_i2c_stm32f10x.o (symbol from plugin)
                                                  obj/main/NAZE/../controller/io/serial_msp.o (symbol from plugin)
                                                  obj/main/NAZE/../controller/io/serial_cli.o (symbol from plugin)
i2cInit.lto_priv.223                              /tmp/cclQ5C5v.ltrans15.ltrans.o
                                                  /tmp/cclQ5C5v.ltrans21.ltrans.o
                                                  /tmp/cclQ5C5v.ltrans4.ltrans.o
i2cOverClock.lto_priv.600                         /tmp/cclQ5C5v.ltrans0.ltrans.o
                                                  /tmp/cclQ5C5v.ltrans15.ltrans.o
i2cRead                                           /tmp/cclQ5C5v.ltrans4.ltrans.o
                                                  obj/main/NAZE/drivers/bus_i2c_stm32f10x.o (symbol from plugin)
                                                  /tmp/cclQ5C5v.ltrans15.ltrans.o
                                                  obj/main/NAZE/drivers/compass_hmc5883l.o (symbol from plugin)
                                                  obj/main/NAZE/drivers/barometer_ms5611.o (symbol from plugin)
                                                  obj/main/NAZE/drivers/barometer_bmp085.o (symbol from plugin)
                                                  obj/main/NAZE/drivers/accgyro_mpu.o (symbol from plugin)
                                                  obj/main/NAZE/drivers/accgyro_mma845x.o (symbol from plugin)
                                                  obj/main/NAZE/drivers/accgyro_l3g4200d.o (symbol from plugin)
                                                  obj/main/NAZE/drivers/accgyro_bma280.o (symbol from plugin)
                                                  obj/main/NAZE/drivers/accgyro_adxl345.o (symbol from plugin)
i2cSetOverclock                                   obj/main/NAZE/drivers/bus_i2c_stm32f10x.o (symbol from plugin)
                                                  obj/main/NAZE/main.o (symbol from plugin)
i2cWrite                                          obj/main/NAZE/drivers/bus_i2c_stm32f10x.o (symbol from plugin)
                                                  obj/main/NAZE/drivers/display_ug2864hsweg01.o (symbol from plugin)
                                                  obj/main/NAZE/drivers/compass_hmc5883l.o (symbol from plugin)
                                                  obj/main/NAZE/drivers/barometer_ms5611.o (symbol from plugin)
                                                  obj/main/NAZE/drivers/barometer_bmp085.o (symbol from plugin)
                                                  obj/main/NAZE/drivers/accgyro_mpu.o (symbol from plugin)
                                                  obj/main/NAZE/drivers/accgyro_mma845x.o (symbol from plugin)
                                                  obj/main/NAZE/drivers/accgyro_l3g4200d.o (symbol from plugin)
                                                  obj/main/NAZE/drivers/accgyro_bma280.o (symbol from plugin)
                                                  obj/main/NAZE/drivers/accgyro_adxl345.o (symbol from plugin)
i2cWriteBuffer                                    /tmp/cclQ5C5v.ltrans4.ltrans.o
                                                  obj/main/NAZE/drivers/bus_i2c_stm32f10x.o (symbol from plugin)
                                                  /tmp/cclQ5C5v.ltrans15.ltrans.o
i2c_OLED_clear_display                            obj/main/NAZE/drivers/display_ug2864hsweg01.o (symbol from plugin)
i2c_OLED_clear_display_quick                      obj/main/NAZE/drivers/display_ug2864hsweg01.o (symbol from plugin)
                                                  obj/main/NAZE/../controller/io/display.o (symbol from plugin)
i2c_OLED_send_byte.lto_priv.569                   /tmp/cclQ5C5v.ltrans15.ltrans.o
                                                  /tmp/cclQ5C5v.ltrans19.ltrans.o
i2c_OLED_send_char                                /tmp/cclQ5C5v.ltrans15.ltrans.o
                                                  obj/main/NAZE/drivers/display_ug2864hsweg01.o (symbol from plugin)
                                                  /tmp/cclQ5C5v.ltrans21.ltrans.o
                                                  /tmp/cclQ5C5v.ltrans19.ltrans.o
                                                  obj/main/NAZE/../controller/io/display.o (symbol from plugin)
i2c_OLED_send_cmd.lto_priv.529                    /tmp/cclQ5C5v.ltrans15.ltrans.o
                                                  /tmp/cclQ5C5v.ltrans19.ltrans.o
                                                  /tmp/cclQ5C5v.ltrans0.ltrans.o
i2c_OLED_send_string                              /tmp/cclQ5C5v.ltrans15.ltrans.o
                                                  obj/main/NAZE/drivers/display_ug2864hsweg01.o (symbol from plugin)
                                                  /tmp/cclQ5C5v.ltrans19.ltrans.o
                                                  obj/main/NAZE/../controller/io/display.o (symbol from plugin)
i2c_OLED_set_line                                 /tmp/cclQ5C5v.ltrans15.ltrans.o
                                                  obj/main/NAZE/drivers/display_ug2864hsweg01.o (symbol from plugin)
                                                  /tmp/cclQ5C5v.ltrans19.ltrans.o
                                                  obj/main/NAZE/../controller/io/display.o (symbol from plugin)
i2c_OLED_set_xy                                   /tmp/cclQ5C5v.ltrans15.ltrans.o
                                                  obj/main/NAZE/drivers/display_ug2864hsweg01.o (symbol from plugin)
                                                  /tmp/cclQ5C5v.ltrans19.ltrans.o
                                                  obj/main/NAZE/../controller/io/display.o (symbol from plugin)
ibus.lto_priv.326                                 /tmp/cclQ5C5v.ltrans8.ltrans.o
                                                  /tmp/cclQ5C5v.ltrans3.ltrans.o
ibusChannelData.lto_priv.327                      /tmp/cclQ5C5v.ltrans8.ltrans.o
                                                  /tmp/cclQ5C5v.ltrans3.ltrans.o
ibusDataReceive.lto_priv.473                      /tmp/cclQ5C5v.ltrans8.ltrans.o
                                                  /tmp/cclQ5C5v.ltrans0.ltrans.o
ibusFrameDone.lto_priv.325                        /tmp/cclQ5C5v.ltrans8.ltrans.o
                                                  /tmp/cclQ5C5v.ltrans3.ltrans.o
ibusFrameStatus                                   obj/main/NAZE/../controller/rx/ibus.o (symbol from plugin)
                                                  obj/main/NAZE/../controller/rx/rx.o (symbol from plugin)
ibusInit                                          obj/main/NAZE/../controller/rx/ibus.o (symbol from plugin)
                                                  obj/main/NAZE/../controller/rx/rx.o (symbol from plugin)
ibusReadRawRC.lto_priv.472                        /tmp/cclQ5C5v.ltrans8.ltrans.o
                                                  /tmp/cclQ5C5v.ltrans0.ltrans.o
imuCalculateAcceleration                          obj/main/NAZE/../controller/flight/imu.o (symbol from plugin)
imuComputeRotationMatrix.lto_priv.415             /tmp/cclQ5C5v.ltrans14.ltrans.o
                                                  /tmp/cclQ5C5v.ltrans1.ltrans.o
                                                  /tmp/cclQ5C5v.ltrans0.ltrans.o
imuConfigure                                      obj/main/NAZE/../controller/flight/imu.o (symbol from plugin)
                                                  obj/main/NAZE/../controller/config/config.o (symbol from plugin)
imuInit                                           obj/main/NAZE/../controller/flight/imu.o (symbol from plugin)
                                                  obj/main/NAZE/main.o (symbol from plugin)
imuResetAccelerationSum                           obj/main/NAZE/../controller/flight/imu.o (symbol from plugin)
                                                  obj/main/NAZE/../controller/flight/altitudehold.o (symbol from plugin)
imuRuntimeConfig.lto_priv.478                     /tmp/cclQ5C5v.ltrans1.ltrans.o
                                                  /tmp/cclQ5C5v.ltrans6.ltrans.o
                                                  /tmp/cclQ5C5v.ltrans0.ltrans.o
imuTransformVectorBodyToEarth                     obj/main/NAZE/../controller/flight/imu.o (symbol from plugin)
imuUpdateAccelerometer                            obj/main/NAZE/../controller/flight/imu.o (symbol from plugin)
                                                  obj/main/NAZE/../controller/mw.o (symbol from plugin)
imuUpdateGyroAndAttitude                          obj/main/NAZE/../controller/flight/imu.o (symbol from plugin)
                                                  obj/main/NAZE/../controller/mw.o (symbol from plugin)
init                                              /tmp/cclQ5C5v.ltrans0.ltrans.o
                                                  obj/main/NAZE/main.o (symbol from plugin)
                                                  /tmp/cclQ5C5v.ltrans18.ltrans.o
initBeeperHardware                                obj/main/NAZE/drivers/sound_beeper_stm32f10x.o (symbol from plugin)
                                                  obj/main/NAZE/drivers/sound_beeper.o (symbol from plugin)
initBlackbox                                      obj/main/NAZE/../controller/blackbox/blackbox.o (symbol from plugin)
                                                  obj/main/NAZE/main.o (symbol from plugin)
initBoardAlignment                                obj/main/NAZE/../controller/sensors/boardalignment.o (symbol from plugin)
                                                  obj/main/NAZE/main.o (symbol from plugin)
initEEPROM                                        obj/main/NAZE/../controller/config/config.o (symbol from plugin)
                                                  obj/main/NAZE/main.o (symbol from plugin)
initFrSkyTelemetry                                obj/main/NAZE/../controller/telemetry/frsky.o (symbol from plugin)
                                                  obj/main/NAZE/../controller/telemetry/telemetry.o (symbol from plugin)
initGyroFilterCoefficients                        obj/main/NAZE/../controller/sensors/gyro.o (symbol from plugin)
initHoTTTelemetry                                 obj/main/NAZE/../controller/telemetry/hott.o (symbol from plugin)
                                                  obj/main/NAZE/../controller/telemetry/telemetry.o (symbol from plugin)
initI2cDevice                                     obj/main/NAZE/drivers/bus_i2c_stm32f10x.o (symbol from plugin)
                                                  obj/main/NAZE/main.o (symbol from plugin)
initI2cDevice.constprop.153                       /tmp/cclQ5C5v.ltrans21.ltrans.o
                                                  /tmp/cclQ5C5v.ltrans0.ltrans.o
initInverter                                      obj/main/NAZE/drivers/inverter.o (symbol from plugin)
                                                  obj/main/NAZE/main.o (symbol from plugin)
initLtmTelemetry                                  obj/main/NAZE/../controller/telemetry/ltm.o (symbol from plugin)
                                                  obj/main/NAZE/../controller/telemetry/telemetry.o (symbol from plugin)
initRxRefreshRate                                 obj/main/NAZE/../controller/rx/rx.o (symbol from plugin)
                                                  obj/main/NAZE/../controller/mw.o (symbol from plugin)
initSmartPortTelemetry                            obj/main/NAZE/../controller/telemetry/smartport.o (symbol from plugin)
                                                  obj/main/NAZE/../controller/telemetry/telemetry.o (symbol from plugin)
initSpi2                                          /tmp/cclQ5C5v.ltrans4.ltrans.o
                                                  obj/main/NAZE/drivers/bus_spi.o (symbol from plugin)
                                                  /tmp/cclQ5C5v.ltrans0.ltrans.o
init_Gtune                                        obj/main/NAZE/../controller/flight/gtune.o (symbol from plugin)
                                                  obj/main/NAZE/../controller/mw.o (symbol from plugin)
init_printf                                       obj/main/NAZE/../controller/common/printf.o (symbol from plugin)
initialThrottleHold.lto_priv.402                  /tmp/cclQ5C5v.ltrans3.ltrans.o
                                                  /tmp/cclQ5C5v.ltrans1.ltrans.o
inputFilteringMode.lto_priv.592                   /tmp/cclQ5C5v.ltrans0.ltrans.o
                                                  /tmp/cclQ5C5v.ltrans20.ltrans.o
inputSource_e                                     obj/main/NAZE/../controller/io/serial_msp.o (symbol from plugin)
                                                  obj/main/NAZE/../controller/io/serial_cli.o (symbol from plugin)
                                                  obj/main/NAZE/../controller/io/serial_1wire.o (symbol from plugin)
                                                  obj/main/NAZE/../controller/flight/mixer.o (symbol from plugin)
                                                  obj/main/NAZE/../controller/flight/imu.o (symbol from plugin)
                                                  obj/main/NAZE/../controller/flight/pid.o (symbol from plugin)
                                                  obj/main/NAZE/../controller/flight/altitudehold.o (symbol from plugin)
                                                  obj/main/NAZE/../controller/mw.o (symbol from plugin)
                                                  obj/main/NAZE/main.o (symbol from plugin)
                                                  obj/main/NAZE/../controller/config/config.o (symbol from plugin)
                                                  obj/main/NAZE/build_config.o (symbol from plugin)
                                                  obj/main/NAZE/../controller/blackbox/blackbox_io.o (symbol from plugin)
                                                  obj/main/NAZE/../controller/blackbox/blackbox.o (symbol from plugin)
                                                  obj/main/NAZE/../controller/telemetry/ltm.o (symbol from plugin)
                                                  obj/main/NAZE/../controller/telemetry/smartport.o (symbol from plugin)
                                                  obj/main/NAZE/../controller/telemetry/frsky.o (symbol from plugin)
isAccelUpdatedAtLeastOnce.lto_priv.405            /tmp/cclQ5C5v.ltrans28.ltrans.o
                                                  /tmp/cclQ5C5v.ltrans1.ltrans.o
isAccelerationCalibrationComplete                 obj/main/NAZE/../controller/sensors/acceleration.o (symbol from plugin)
                                                  obj/main/NAZE/../controller/mw.o (symbol from plugin)
isBaroCalibrationComplete                         obj/main/NAZE/../controller/sensors/barometer.o (symbol from plugin)
                                                  obj/main/NAZE/../controller/flight/altitudehold.o (symbol from plugin)
                                                  obj/main/NAZE/../controller/mw.o (symbol from plugin)
isBaroReady                                       obj/main/NAZE/../controller/sensors/barometer.o (symbol from plugin)
                                                  obj/main/NAZE/../controller/mw.o (symbol from plugin)
isBlackboxDeviceFull                              /tmp/cclQ5C5v.ltrans23.ltrans.o
                                                  obj/main/NAZE/../controller/blackbox/blackbox_io.o (symbol from plugin)
                                                  /tmp/cclQ5C5v.ltrans18.ltrans.o
                                                  /tmp/cclQ5C5v.ltrans1.ltrans.o
                                                  obj/main/NAZE/../controller/blackbox/blackbox.o (symbol from plugin)
isCalibrating                                     obj/main/NAZE/../controller/mw.o (symbol from plugin)
isEEPROMContentValid.lto_priv.531                 /tmp/cclQ5C5v.ltrans23.ltrans.o
                                                  /tmp/cclQ5C5v.ltrans6.ltrans.o
                                                  /tmp/cclQ5C5v.ltrans0.ltrans.o
isGyroCalibrationComplete                         obj/main/NAZE/../controller/sensors/gyro.o (symbol from plugin)
                                                  obj/main/NAZE/../controller/mw.o (symbol from plugin)
isMPUSoftReset                                    obj/main/NAZE/drivers/system_stm32f10x.o (symbol from plugin)
                                                  obj/main/NAZE/../controller/rx/spektrum.o (symbol from plugin)
isMixerUsingServos                                obj/main/NAZE/../controller/flight/mixer.o (symbol from plugin)
                                                  obj/main/NAZE/main.o (symbol from plugin)
isModeActivationConditionPresent                  /tmp/cclQ5C5v.ltrans14.ltrans.o
                                                  obj/main/NAZE/../controller/io/rc_controls.o (symbol from plugin)
                                                  /tmp/cclQ5C5v.ltrans18.ltrans.o
                                                  /tmp/cclQ5C5v.ltrans6.ltrans.o
                                                  /tmp/cclQ5C5v.ltrans2.ltrans.o
                                                  obj/main/NAZE/../controller/blackbox/blackbox.o (symbol from plugin)
isMotorBrushed                                    obj/main/NAZE/drivers/pwm_output.o (symbol from plugin)
                                                  obj/main/NAZE/drivers/pwm_mapping.o (symbol from plugin)
isOnFinalAccelerationCalibrationCycle             obj/main/NAZE/../controller/sensors/acceleration.o (symbol from plugin)
isOnFinalGyroCalibrationCycle                     obj/main/NAZE/../controller/sensors/gyro.o (symbol from plugin)
isOnFirstAccelerationCalibrationCycle             obj/main/NAZE/../controller/sensors/acceleration.o (symbol from plugin)
isOnFirstGyroCalibrationCycle                     obj/main/NAZE/../controller/sensors/gyro.o (symbol from plugin)
isPPMDataBeingReceived                            obj/main/NAZE/drivers/pwm_rx.o (symbol from plugin)
                                                  obj/main/NAZE/../controller/rx/rx.o (symbol from plugin)
isPWMDataBeingReceived                            obj/main/NAZE/drivers/pwm_rx.o (symbol from plugin)
                                                  obj/main/NAZE/../controller/rx/rx.o (symbol from plugin)
isRXDataNew.lto_priv.403                          /tmp/cclQ5C5v.ltrans3.ltrans.o
                                                  /tmp/cclQ5C5v.ltrans1.ltrans.o
isRangeActive                                     obj/main/NAZE/../controller/io/rc_controls.o (symbol from plugin)
isRangeActive.part.3.lto_priv.346                 /tmp/cclQ5C5v.ltrans14.ltrans.o
                                                  /tmp/cclQ5C5v.ltrans3.ltrans.o
isSerialConfigValid                               obj/main/NAZE/../controller/io/serial.o (symbol from plugin)
                                                  obj/main/NAZE/../controller/config/config.o (symbol from plugin)
isSerialPortShared                                obj/main/NAZE/../controller/io/serial.o (symbol from plugin)
isSerialTransmitBufferEmpty                       /tmp/cclQ5C5v.ltrans14.ltrans.o
                                                  obj/main/NAZE/drivers/serial.o (symbol from plugin)
                                                  /tmp/cclQ5C5v.ltrans23.ltrans.o
                                                  /tmp/cclQ5C5v.ltrans22.ltrans.o
                                                  /tmp/cclQ5C5v.ltrans7.ltrans.o
                                                  obj/main/NAZE/../controller/io/serial.o (symbol from plugin)
                                                  obj/main/NAZE/../controller/common/printf.o (symbol from plugin)
                                                  obj/main/NAZE/../controller/blackbox/blackbox_io.o (symbol from plugin)
                                                  obj/main/NAZE/../controller/io/gps.o (symbol from plugin)
isSmartPortTimedOut                               obj/main/NAZE/../controller/telemetry/smartport.o (symbol from plugin)
isSoftSerialTransmitBufferEmpty                   /tmp/cclQ5C5v.ltrans16.ltrans.o
                                                  obj/main/NAZE/drivers/serial_softserial.o (symbol from plugin)
                                                  /tmp/cclQ5C5v.ltrans20.ltrans.o
isThrustFacingDownwards                           obj/main/NAZE/../controller/flight/altitudehold.o (symbol from plugin)
isUartTransmitBufferEmpty                         obj/main/NAZE/drivers/serial_uart.o (symbol from plugin)
isUsingSticksForArming                            obj/main/NAZE/../controller/io/rc_controls.o (symbol from plugin)
                                                  obj/main/NAZE/../controller/flight/failsafe.o (symbol from plugin)
                                                  obj/main/NAZE/../controller/mw.o (symbol from plugin)
isUsingSticksToArm.lto_priv.358                   /tmp/cclQ5C5v.ltrans3.ltrans.o
                                                  /tmp/cclQ5C5v.ltrans6.ltrans.o
                                                  /tmp/cclQ5C5v.ltrans2.ltrans.o
                                                  /tmp/cclQ5C5v.ltrans1.ltrans.o
isWS2811LedStripReady                             obj/main/NAZE/drivers/light_ws2811strip.o (symbol from plugin)
                                                  obj/main/NAZE/../controller/io/ledstrip.o (symbol from plugin)
itoa                                              obj/main/NAZE/../controller/common/typeconversion.o (symbol from plugin)
                                                  obj/main/NAZE/../controller/io/serial_cli.o (symbol from plugin)
itoa.constprop.59                                 /tmp/cclQ5C5v.ltrans21.ltrans.o
                                                  /tmp/cclQ5C5v.ltrans7.ltrans.o
                                                  /tmp/cclQ5C5v.ltrans6.ltrans.o
kDaysInMonth                                      obj/main/NAZE/../../pif/source/core/pif.o (symbol from plugin)
kPifHexLowerChar                                  obj/main/NAZE/../../pif/source/core/pif.o (symbol from plugin)
kPifHexUpperChar                                  obj/main/NAZE/../../pif/source/core/pif.o (symbol from plugin)
kPifMonth3                                        obj/main/NAZE/../../pif/source/core/pif.o (symbol from plugin)
l3g4200dDetect                                    obj/main/NAZE/drivers/accgyro_l3g4200d.o (symbol from plugin)
latchActiveFeatures                               obj/main/NAZE/../controller/config/config.o (symbol from plugin)
                                                  obj/main/NAZE/main.o (symbol from plugin)
ledColorBuffer.lto_priv.451                       /tmp/cclQ5C5v.ltrans9.ltrans.o
                                                  /tmp/cclQ5C5v.ltrans19.ltrans.o
                                                  /tmp/cclQ5C5v.ltrans15.ltrans.o
                                                  /tmp/cclQ5C5v.ltrans0.ltrans.o
ledConfigs                                        /tmp/cclQ5C5v.ltrans7.ltrans.o
                                                  obj/main/NAZE/../controller/io/ledstrip.o (symbol from plugin)
                                                  /tmp/cclQ5C5v.ltrans19.ltrans.o
                                                  /tmp/cclQ5C5v.ltrans9.ltrans.o
                                                  /tmp/cclQ5C5v.ltrans0.ltrans.o
ledCount                                          /tmp/cclQ5C5v.ltrans9.ltrans.o
                                                  obj/main/NAZE/../controller/io/ledstrip.o (symbol from plugin)
                                                  /tmp/cclQ5C5v.ltrans19.ltrans.o
ledGridHeight                                     obj/main/NAZE/../controller/io/ledstrip.o (symbol from plugin)
ledGridWidth                                      obj/main/NAZE/../controller/io/ledstrip.o (symbol from plugin)
ledInit                                           obj/main/NAZE/drivers/light_led_stm32f10x.o (symbol from plugin)
                                                  obj/main/NAZE/main.o (symbol from plugin)
ledStripDMABuffer                                 /tmp/cclQ5C5v.ltrans0.ltrans.o
                                                  obj/main/NAZE/drivers/light_ws2811strip.o (symbol from plugin)
                                                  /tmp/cclQ5C5v.ltrans15.ltrans.o
                                                  obj/main/NAZE/drivers/light_ws2811strip_stm32f10x.o (symbol from plugin)
ledStripEnable                                    obj/main/NAZE/../controller/io/ledstrip.o (symbol from plugin)
                                                  obj/main/NAZE/main.o (symbol from plugin)
ledStripInit                                      obj/main/NAZE/../controller/io/ledstrip.o (symbol from plugin)
                                                  obj/main/NAZE/main.o (symbol from plugin)
ledStripInitialised.lto_priv.450                  /tmp/cclQ5C5v.ltrans9.ltrans.o
                                                  /tmp/cclQ5C5v.ltrans0.ltrans.o
ledsInRingCount                                   obj/main/NAZE/../controller/io/ledstrip.o (symbol from plugin)
li2a                                              obj/main/NAZE/../controller/common/typeconversion.o (symbol from plugin)
                                                  obj/main/NAZE/../controller/common/printf.o (symbol from plugin)
loadCustomServoMixer                              /tmp/cclQ5C5v.ltrans14.ltrans.o
                                                  obj/main/NAZE/../controller/flight/mixer.o (symbol from plugin)
                                                  /tmp/cclQ5C5v.ltrans2.ltrans.o
                                                  /tmp/cclQ5C5v.ltrans0.ltrans.o
                                                  obj/main/NAZE/../controller/io/serial_msp.o (symbol from plugin)
lookupBaudRateIndex                               obj/main/NAZE/../controller/io/serial.o (symbol from plugin)
                                                  obj/main/NAZE/../controller/io/serial_cli.o (symbol from plugin)
                                                  obj/main/NAZE/../controller/io/gps.o (symbol from plugin)
lookupPitchRollRC                                 /tmp/cclQ5C5v.ltrans14.ltrans.o
                                                  obj/main/NAZE/../controller/io/rc_curves.o (symbol from plugin)
                                                  /tmp/cclQ5C5v.ltrans1.ltrans.o
                                                  obj/main/NAZE/../controller/mw.o (symbol from plugin)
lookupThrottleRC                                  /tmp/cclQ5C5v.ltrans14.ltrans.o
                                                  obj/main/NAZE/../controller/io/rc_curves.o (symbol from plugin)
                                                  /tmp/cclQ5C5v.ltrans1.ltrans.o
                                                  obj/main/NAZE/../controller/mw.o (symbol from plugin)
lookupTimerIndex.lto_priv.285                     /tmp/cclQ5C5v.ltrans17.ltrans.o
                                                  /tmp/cclQ5C5v.ltrans14.ltrans.o
lookupYawRC                                       /tmp/cclQ5C5v.ltrans1.ltrans.o
                                                  obj/main/NAZE/../controller/io/rc_curves.o (symbol from plugin)
                                                  /tmp/cclQ5C5v.ltrans23.ltrans.o
                                                  obj/main/NAZE/../controller/mw.o (symbol from plugin)
lowestXValueForEast                               /tmp/cclQ5C5v.ltrans9.ltrans.o
                                                  obj/main/NAZE/../controller/io/ledstrip.o (symbol from plugin)
                                                  /tmp/cclQ5C5v.ltrans19.ltrans.o
lowestYValueForSouth                              /tmp/cclQ5C5v.ltrans9.ltrans.o
                                                  obj/main/NAZE/../controller/io/ledstrip.o (symbol from plugin)
                                                  /tmp/cclQ5C5v.ltrans19.ltrans.o
lrintf                                            /usr/lib/gcc/arm-none-eabi/4.9.3/../../../arm-none-eabi/lib/armv7-m/libm.a(lib_a-sf_lrint.o)
                                                  /tmp/cclQ5C5v.ltrans26.ltrans.o
                                                  /tmp/cclQ5C5v.ltrans22.ltrans.o
                                                  /tmp/cclQ5C5v.ltrans21.ltrans.o
                                                  /tmp/cclQ5C5v.ltrans14.ltrans.o
                                                  /tmp/cclQ5C5v.ltrans8.ltrans.o
                                                  /tmp/cclQ5C5v.ltrans2.ltrans.o
                                                  /tmp/cclQ5C5v.ltrans1.ltrans.o
ltmEnabled.lto_priv.560                           /tmp/cclQ5C5v.ltrans5.ltrans.o
                                                  /tmp/cclQ5C5v.ltrans25.ltrans.o
ltmPort.lto_priv.556                              /tmp/cclQ5C5v.ltrans5.ltrans.o
                                                  /tmp/cclQ5C5v.ltrans25.ltrans.o
ltmPortSharing.lto_priv.559                       /tmp/cclQ5C5v.ltrans0.ltrans.o
                                                  /tmp/cclQ5C5v.ltrans25.ltrans.o
ltm_finalise.lto_priv.301                         /tmp/cclQ5C5v.ltrans25.ltrans.o
                                                  /tmp/cclQ5C5v.ltrans5.ltrans.o
ltm_initialise_packet.lto_priv.304                /tmp/cclQ5C5v.ltrans25.ltrans.o
                                                  /tmp/cclQ5C5v.ltrans5.ltrans.o
ltm_serialise_16.lto_priv.305                     /tmp/cclQ5C5v.ltrans25.ltrans.o
                                                  /tmp/cclQ5C5v.ltrans5.ltrans.o
ltm_serialise_32.lto_priv.303                     /tmp/cclQ5C5v.ltrans25.ltrans.o
                                                  /tmp/cclQ5C5v.ltrans5.ltrans.o
ltm_serialise_8.lto_priv.302                      /tmp/cclQ5C5v.ltrans25.ltrans.o
                                                  /tmp/cclQ5C5v.ltrans5.ltrans.o
m25p16_eraseCompletely                            obj/main/NAZE/drivers/flash_m25p16.o (symbol from plugin)
                                                  obj/main/NAZE/../controller/io/flashfs.o (symbol from plugin)
m25p16_eraseSector                                obj/main/NAZE/drivers/flash_m25p16.o (symbol from plugin)
                                                  obj/main/NAZE/../controller/io/flashfs.o (symbol from plugin)
m25p16_getGeometry                                obj/main/NAZE/drivers/flash_m25p16.o (symbol from plugin)
                                                  obj/main/NAZE/../controller/io/flashfs.o (symbol from plugin)
m25p16_init                                       obj/main/NAZE/drivers/flash_m25p16.o (symbol from plugin)
                                                  obj/main/NAZE/main.o (symbol from plugin)
m25p16_isReady                                    /tmp/cclQ5C5v.ltrans15.ltrans.o
                                                  obj/main/NAZE/drivers/flash_m25p16.o (symbol from plugin)
                                                  /tmp/cclQ5C5v.ltrans17.ltrans.o
                                                  /tmp/cclQ5C5v.ltrans12.ltrans.o
                                                  /tmp/cclQ5C5v.ltrans2.ltrans.o
                                                  obj/main/NAZE/../controller/io/flashfs.o (symbol from plugin)
m25p16_pageProgram                                obj/main/NAZE/drivers/flash_m25p16.o (symbol from plugin)
m25p16_pageProgramBegin                           obj/main/NAZE/drivers/flash_m25p16.o (symbol from plugin)
                                                  obj/main/NAZE/../controller/io/flashfs.o (symbol from plugin)
m25p16_pageProgramContinue                        obj/main/NAZE/drivers/flash_m25p16.o (symbol from plugin)
                                                  obj/main/NAZE/../controller/io/flashfs.o (symbol from plugin)
m25p16_pageProgramFinish                          obj/main/NAZE/drivers/flash_m25p16.o (symbol from plugin)
                                                  obj/main/NAZE/../controller/io/flashfs.o (symbol from plugin)
m25p16_readBytes                                  /tmp/cclQ5C5v.ltrans15.ltrans.o
                                                  obj/main/NAZE/drivers/flash_m25p16.o (symbol from plugin)
                                                  /tmp/cclQ5C5v.ltrans2.ltrans.o
                                                  /tmp/cclQ5C5v.ltrans0.ltrans.o
                                                  obj/main/NAZE/../controller/io/flashfs.o (symbol from plugin)
m25p16_waitForReady                               /tmp/cclQ5C5v.ltrans15.ltrans.o
                                                  obj/main/NAZE/drivers/flash_m25p16.o (symbol from plugin)
                                                  /tmp/cclQ5C5v.ltrans17.ltrans.o
mAhDrawn                                          /tmp/cclQ5C5v.ltrans8.ltrans.o
                                                  obj/main/NAZE/../controller/sensors/battery.o (symbol from plugin)
                                                  /tmp/cclQ5C5v.ltrans27.ltrans.o
                                                  /tmp/cclQ5C5v.ltrans19.ltrans.o
                                                  /tmp/cclQ5C5v.ltrans5.ltrans.o
                                                  /tmp/cclQ5C5v.ltrans2.ltrans.o
                                                  obj/main/NAZE/../controller/io/serial_msp.o (symbol from plugin)
                                                  obj/main/NAZE/../controller/telemetry/smartport.o (symbol from plugin)
                                                  obj/main/NAZE/../controller/telemetry/hott.o (symbol from plugin)
                                                  obj/main/NAZE/../controller/telemetry/frsky.o (symbol from plugin)
                                                  obj/main/NAZE/../controller/io/display.o (symbol from plugin)
mag                                               /tmp/cclQ5C5v.ltrans22.ltrans.o
                                                  obj/main/NAZE/../controller/sensors/compass.o (symbol from plugin)
                                                  /tmp/cclQ5C5v.ltrans0.ltrans.o
                                                  obj/main/NAZE/../controller/sensors/initialisation.o (symbol from plugin)
magADC                                            /tmp/cclQ5C5v.ltrans22.ltrans.o
                                                  obj/main/NAZE/../controller/sensors/compass.o (symbol from plugin)
                                                  /tmp/cclQ5C5v.ltrans19.ltrans.o
                                                  /tmp/cclQ5C5v.ltrans10.ltrans.o
                                                  /tmp/cclQ5C5v.ltrans2.ltrans.o
                                                  /tmp/cclQ5C5v.ltrans1.ltrans.o
                                                  obj/main/NAZE/../controller/io/serial_msp.o (symbol from plugin)
                                                  obj/main/NAZE/../controller/flight/imu.o (symbol from plugin)
                                                  obj/main/NAZE/../controller/blackbox/blackbox.o (symbol from plugin)
                                                  obj/main/NAZE/../controller/io/display.o (symbol from plugin)
magADCRaw                                         obj/main/NAZE/../controller/sensors/compass.o (symbol from plugin)
magAlign                                          /tmp/cclQ5C5v.ltrans22.ltrans.o
                                                  obj/main/NAZE/../controller/sensors/compass.o (symbol from plugin)
                                                  /tmp/cclQ5C5v.ltrans0.ltrans.o
                                                  obj/main/NAZE/../controller/sensors/initialisation.o (symbol from plugin)
magHold                                           /tmp/cclQ5C5v.ltrans3.ltrans.o
                                                  obj/main/NAZE/../controller/mw.o (symbol from plugin)
                                                  /tmp/cclQ5C5v.ltrans11.ltrans.o
                                                  /tmp/cclQ5C5v.ltrans2.ltrans.o
                                                  /tmp/cclQ5C5v.ltrans1.ltrans.o
                                                  obj/main/NAZE/../controller/io/serial_msp.o (symbol from plugin)
                                                  obj/main/NAZE/../controller/flight/navigation.o (symbol from plugin)
magInit.lto_priv.480                              /tmp/cclQ5C5v.ltrans22.ltrans.o
                                                  /tmp/cclQ5C5v.ltrans0.ltrans.o
magneticDeclination                               /tmp/cclQ5C5v.ltrans1.ltrans.o
                                                  obj/main/NAZE/../controller/flight/imu.o (symbol from plugin)
                                                  /tmp/cclQ5C5v.ltrans0.ltrans.o
                                                  obj/main/NAZE/../controller/sensors/initialisation.o (symbol from plugin)
main                                              /tmp/cclQ5C5v.ltrans18.ltrans.o
                                                  obj/main/NAZE/main.o (symbol from plugin)
                                                  obj/main/NAZE/startup_stm32f10x_md_gcc.o
malloc                                            /usr/lib/gcc/arm-none-eabi/4.9.3/../../../arm-none-eabi/lib/armv7-m/libc_nano.a(lib_a-malloc.o)
                                                  /usr/lib/gcc/arm-none-eabi/4.9.3/../../../arm-none-eabi/lib/armv7-m/libc_nano.a(lib_a-strtok.o)
masterConfig                                      /tmp/cclQ5C5v.ltrans21.ltrans.o
                                                  obj/main/NAZE/../controller/config/config.o (symbol from plugin)
                                                  /tmp/cclQ5C5v.ltrans27.ltrans.o
                                                  /tmp/cclQ5C5v.ltrans24.ltrans.o
                                                  /tmp/cclQ5C5v.ltrans23.ltrans.o
                                                  /tmp/cclQ5C5v.ltrans22.ltrans.o
                                                  /tmp/cclQ5C5v.ltrans19.ltrans.o
                                                  /tmp/cclQ5C5v.ltrans18.ltrans.o
                                                  /tmp/cclQ5C5v.ltrans12.ltrans.o
                                                  /tmp/cclQ5C5v.ltrans10.ltrans.o
                                                  /tmp/cclQ5C5v.ltrans7.ltrans.o
                                                  /tmp/cclQ5C5v.ltrans6.ltrans.o
                                                  /tmp/cclQ5C5v.ltrans5.ltrans.o
                                                  /tmp/cclQ5C5v.ltrans3.ltrans.o
                                                  /tmp/cclQ5C5v.ltrans2.ltrans.o
                                                  /tmp/cclQ5C5v.ltrans1.ltrans.o
                                                  /tmp/cclQ5C5v.ltrans0.ltrans.o
                                                  obj/main/NAZE/../controller/io/serial_msp.o (symbol from plugin)
                                                  obj/main/NAZE/../controller/io/serial_cli.o (symbol from plugin)
                                                  obj/main/NAZE/../controller/mw.o (symbol from plugin)
                                                  obj/main/NAZE/main.o (symbol from plugin)
                                                  obj/main/NAZE/../controller/blackbox/blackbox_io.o (symbol from plugin)
                                                  obj/main/NAZE/../controller/blackbox/blackbox.o (symbol from plugin)
matherr                                           /usr/lib/gcc/arm-none-eabi/4.9.3/../../../arm-none-eabi/lib/armv7-m/libm.a(lib_a-s_matherr.o)
                                                  /usr/lib/gcc/arm-none-eabi/4.9.3/../../../arm-none-eabi/lib/armv7-m/libm.a(lib_a-wf_sqrt.o)
                                                  /usr/lib/gcc/arm-none-eabi/4.9.3/../../../arm-none-eabi/lib/armv7-m/libm.a(lib_a-wf_pow.o)
measurement.lto_priv.596                          /tmp/cclQ5C5v.ltrans25.ltrans.o
                                                  /tmp/cclQ5C5v.ltrans20.ltrans.o
memcmp                                            /usr/lib/gcc/arm-none-eabi/4.9.3/../../../arm-none-eabi/lib/armv7-m/libc_nano.a(lib_a-memcmp.o)
                                                  /tmp/cclQ5C5v.ltrans10.ltrans.o
memcpy                                            /usr/lib/gcc/arm-none-eabi/4.9.3/../../../arm-none-eabi/lib/armv7-m/libc_nano.a(lib_a-memcpy.o)
                                                  /tmp/cclQ5C5v.ltrans23.ltrans.o
                                                  /tmp/cclQ5C5v.ltrans6.ltrans.o
memset                                            /usr/lib/gcc/arm-none-eabi/4.9.3/../../../arm-none-eabi/lib/armv7-m/libc_nano.a(lib_a-memset.o)
                                                  /usr/lib/gcc/arm-none-eabi/4.9.3/../../../arm-none-eabi/lib/armv7-m/libc_nano.a(lib_a-nano-callocr.o)
                                                  /tmp/cclQ5C5v.ltrans23.ltrans.o
                                                  /tmp/cclQ5C5v.ltrans21.ltrans.o
                                                  /tmp/cclQ5C5v.ltrans18.ltrans.o
                                                  /tmp/cclQ5C5v.ltrans15.ltrans.o
                                                  /tmp/cclQ5C5v.ltrans14.ltrans.o
                                                  /tmp/cclQ5C5v.ltrans13.ltrans.o
                                                  /tmp/cclQ5C5v.ltrans12.ltrans.o
                                                  /tmp/cclQ5C5v.ltrans8.ltrans.o
                                                  /tmp/cclQ5C5v.ltrans7.ltrans.o
                                                  /tmp/cclQ5C5v.ltrans6.ltrans.o
                                                  /tmp/cclQ5C5v.ltrans4.ltrans.o
                                                  /tmp/cclQ5C5v.ltrans2.ltrans.o
                                                  /tmp/cclQ5C5v.ltrans0.ltrans.o
micros                                            /tmp/cclQ5C5v.ltrans14.ltrans.o
                                                  obj/main/NAZE/drivers/system.o (symbol from plugin)
                                                  /tmp/cclQ5C5v.ltrans27.ltrans.o
                                                  /tmp/cclQ5C5v.ltrans19.ltrans.o
                                                  /tmp/cclQ5C5v.ltrans18.ltrans.o
                                                  /tmp/cclQ5C5v.ltrans9.ltrans.o
                                                  /tmp/cclQ5C5v.ltrans8.ltrans.o
                                                  /tmp/cclQ5C5v.ltrans5.ltrans.o
                                                  /tmp/cclQ5C5v.ltrans1.ltrans.o
                                                  /tmp/cclQ5C5v.ltrans0.ltrans.o
                                                  obj/main/NAZE/../controller/rx/ibus.o (symbol from plugin)
                                                  obj/main/NAZE/../controller/rx/xbus.o (symbol from plugin)
                                                  obj/main/NAZE/../controller/rx/spektrum.o (symbol from plugin)
                                                  obj/main/NAZE/../controller/rx/sumh.o (symbol from plugin)
                                                  obj/main/NAZE/../controller/rx/sumd.o (symbol from plugin)
                                                  obj/main/NAZE/../controller/rx/sbus.o (symbol from plugin)
                                                  obj/main/NAZE/../controller/rx/rx.o (symbol from plugin)
                                                  obj/main/NAZE/../controller/io/statusindicator.o (symbol from plugin)
                                                  obj/main/NAZE/../controller/io/beeper.o (symbol from plugin)
                                                  obj/main/NAZE/../controller/flight/imu.o (symbol from plugin)
                                                  obj/main/NAZE/../controller/mw.o (symbol from plugin)
                                                  obj/main/NAZE/main.o (symbol from plugin)
                                                  obj/main/NAZE/../controller/telemetry/hott.o (symbol from plugin)
                                                  obj/main/NAZE/../controller/io/display.o (symbol from plugin)
                                                  obj/main/NAZE/../controller/io/ledstrip.o (symbol from plugin)
millis                                            obj/main/NAZE/drivers/system.o (symbol from plugin)
                                                  obj/main/NAZE/../controller/rx/rx.o (symbol from plugin)
                                                  obj/main/NAZE/../controller/io/statusindicator.o (symbol from plugin)
                                                  obj/main/NAZE/../controller/io/serial_cli.o (symbol from plugin)
                                                  obj/main/NAZE/../controller/io/rc_controls.o (symbol from plugin)
                                                  obj/main/NAZE/../controller/io/beeper.o (symbol from plugin)
                                                  obj/main/NAZE/../controller/flight/imu.o (symbol from plugin)
                                                  obj/main/NAZE/../controller/flight/failsafe.o (symbol from plugin)
                                                  obj/main/NAZE/../controller/mw.o (symbol from plugin)
                                                  obj/main/NAZE/../controller/blackbox/blackbox.o (symbol from plugin)
                                                  obj/main/NAZE/../controller/telemetry/ltm.o (symbol from plugin)
                                                  obj/main/NAZE/../controller/telemetry/smartport.o (symbol from plugin)
                                                  obj/main/NAZE/../controller/telemetry/hott.o (symbol from plugin)
                                                  obj/main/NAZE/../controller/telemetry/frsky.o (symbol from plugin)
                                                  obj/main/NAZE/../controller/io/gps.o (symbol from plugin)
                                                  obj/main/NAZE/../controller/flight/navigation.o (symbol from plugin)
                                                  obj/main/NAZE/drivers/sonar_hcsr04.o (symbol from plugin)
                                                  obj/main/NAZE/drivers/flash_m25p16.o (symbol from plugin)
mixConstrainMotorForFailsafeCondition             obj/main/NAZE/../controller/flight/mixer.o (symbol from plugin)
mixTable                                          obj/main/NAZE/../controller/flight/mixer.o (symbol from plugin)
                                                  obj/main/NAZE/../controller/mw.o (symbol from plugin)
mixerAtail4.lto_priv.520                          /tmp/cclQ5C5v.ltrans7.ltrans.o
mixerBicopter.lto_priv.508                        /tmp/cclQ5C5v.ltrans7.ltrans.o
mixerConfig.lto_priv.481                          /tmp/cclQ5C5v.ltrans1.ltrans.o
                                                  /tmp/cclQ5C5v.ltrans6.ltrans.o
                                                  /tmp/cclQ5C5v.ltrans0.ltrans.o
mixerDualcopter.lto_priv.519                      /tmp/cclQ5C5v.ltrans7.ltrans.o
mixerHex6H.lto_priv.518                           /tmp/cclQ5C5v.ltrans7.ltrans.o
mixerHex6P.lto_priv.510                           /tmp/cclQ5C5v.ltrans7.ltrans.o
mixerHex6X.lto_priv.513                           /tmp/cclQ5C5v.ltrans7.ltrans.o
mixerInit                                         obj/main/NAZE/../controller/flight/mixer.o (symbol from plugin)
                                                  obj/main/NAZE/main.o (symbol from plugin)
mixerInitialiseServoFiltering                     obj/main/NAZE/../controller/flight/mixer.o (symbol from plugin)
                                                  obj/main/NAZE/main.o (symbol from plugin)
mixerLoadMix                                      obj/main/NAZE/../controller/flight/mixer.o (symbol from plugin)
                                                  obj/main/NAZE/../controller/io/serial_cli.o (symbol from plugin)
mixerNames.lto_priv.262                           /tmp/cclQ5C5v.ltrans12.ltrans.o
                                                  /tmp/cclQ5C5v.ltrans7.ltrans.o
mixerOctoFlatP.lto_priv.515                       /tmp/cclQ5C5v.ltrans7.ltrans.o
mixerOctoFlatX.lto_priv.516                       /tmp/cclQ5C5v.ltrans7.ltrans.o
mixerOctoX8.lto_priv.514                          /tmp/cclQ5C5v.ltrans7.ltrans.o
mixerQuadP.lto_priv.506                           /tmp/cclQ5C5v.ltrans7.ltrans.o
mixerQuadX.lto_priv.507                           /tmp/cclQ5C5v.ltrans7.ltrans.o
mixerResetDisarmedMotors                          /tmp/cclQ5C5v.ltrans14.ltrans.o
                                                  obj/main/NAZE/../controller/flight/mixer.o (symbol from plugin)
                                                  /tmp/cclQ5C5v.ltrans12.ltrans.o
                                                  /tmp/cclQ5C5v.ltrans0.ltrans.o
                                                  obj/main/NAZE/../controller/io/serial_cli.o (symbol from plugin)
mixerSingleProp.lto_priv.511                      /tmp/cclQ5C5v.ltrans7.ltrans.o
mixerTricopter.lto_priv.505                       /tmp/cclQ5C5v.ltrans7.ltrans.o
mixerUseConfigs                                   obj/main/NAZE/../controller/flight/mixer.o (symbol from plugin)
                                                  obj/main/NAZE/../controller/config/config.o (symbol from plugin)
mixerUsePWMIOConfiguration                        obj/main/NAZE/../controller/flight/mixer.o (symbol from plugin)
                                                  obj/main/NAZE/main.o (symbol from plugin)
mixerVtail4.lto_priv.517                          /tmp/cclQ5C5v.ltrans7.ltrans.o
mixerY4.lto_priv.512                              /tmp/cclQ5C5v.ltrans7.ltrans.o
mixerY6.lto_priv.509                              /tmp/cclQ5C5v.ltrans7.ltrans.o
mixers                                            /tmp/cclQ5C5v.ltrans7.ltrans.o
                                                  obj/main/NAZE/../controller/flight/mixer.o (symbol from plugin)
                                                  /tmp/cclQ5C5v.ltrans0.ltrans.o
mma8452Detect                                     obj/main/NAZE/drivers/accgyro_mma845x.o (symbol from plugin)
motor                                             /tmp/cclQ5C5v.ltrans14.ltrans.o
                                                  obj/main/NAZE/../controller/flight/mixer.o (symbol from plugin)
                                                  /tmp/cclQ5C5v.ltrans10.ltrans.o
                                                  /tmp/cclQ5C5v.ltrans2.ltrans.o
                                                  /tmp/cclQ5C5v.ltrans1.ltrans.o
                                                  obj/main/NAZE/../controller/io/serial_msp.o (symbol from plugin)
                                                  obj/main/NAZE/../controller/io/serial_1wire.o (symbol from plugin)
                                                  obj/main/NAZE/../controller/blackbox/blackbox.o (symbol from plugin)
motorControlEnable                                /tmp/cclQ5C5v.ltrans1.ltrans.o
                                                  obj/main/NAZE/../controller/mw.o (symbol from plugin)
                                                  /tmp/cclQ5C5v.ltrans0.ltrans.o
                                                  obj/main/NAZE/main.o (symbol from plugin)
motorCount                                        /tmp/cclQ5C5v.ltrans14.ltrans.o
                                                  obj/main/NAZE/../controller/flight/mixer.o (symbol from plugin)
                                                  /tmp/cclQ5C5v.ltrans26.ltrans.o
                                                  /tmp/cclQ5C5v.ltrans18.ltrans.o
                                                  /tmp/cclQ5C5v.ltrans10.ltrans.o
                                                  /tmp/cclQ5C5v.ltrans6.ltrans.o
                                                  /tmp/cclQ5C5v.ltrans1.ltrans.o
                                                  /tmp/cclQ5C5v.ltrans0.ltrans.o
                                                  obj/main/NAZE/../controller/flight/pid.o (symbol from plugin)
                                                  obj/main/NAZE/../controller/blackbox/blackbox.o (symbol from plugin)
                                                  obj/main/NAZE/../controller/flight/gtune.o (symbol from plugin)
motorLimitReached                                 /tmp/cclQ5C5v.ltrans14.ltrans.o
                                                  obj/main/NAZE/../controller/flight/mixer.o (symbol from plugin)
                                                  /tmp/cclQ5C5v.ltrans26.ltrans.o
                                                  /tmp/cclQ5C5v.ltrans1.ltrans.o
                                                  obj/main/NAZE/../controller/flight/pid.o (symbol from plugin)
motor_disarmed                                    /tmp/cclQ5C5v.ltrans12.ltrans.o
                                                  obj/main/NAZE/../controller/flight/mixer.o (symbol from plugin)
                                                  /tmp/cclQ5C5v.ltrans14.ltrans.o
                                                  /tmp/cclQ5C5v.ltrans2.ltrans.o
                                                  /tmp/cclQ5C5v.ltrans1.ltrans.o
                                                  obj/main/NAZE/../controller/io/serial_msp.o (symbol from plugin)
                                                  obj/main/NAZE/../controller/io/serial_cli.o (symbol from plugin)
motors.lto_priv.490                               /tmp/cclQ5C5v.ltrans14.ltrans.o
                                                  /tmp/cclQ5C5v.ltrans20.ltrans.o
                                                  /tmp/cclQ5C5v.ltrans6.ltrans.o
                                                  /tmp/cclQ5C5v.ltrans0.ltrans.o
mpu3050Detect                                     obj/main/NAZE/drivers/accgyro_mpu3050.o (symbol from plugin)
mpu6050AccDetect                                  obj/main/NAZE/drivers/accgyro_mpu6050.o (symbol from plugin)
mpu6050GyroDetect                                 obj/main/NAZE/drivers/accgyro_mpu6050.o (symbol from plugin)
mpu6500AccDetect                                  obj/main/NAZE/drivers/accgyro_mpu6500.o (symbol from plugin)
                                                  obj/main/NAZE/../controller/sensors/initialisation.o (symbol from plugin)
mpu6500AccInit                                    /tmp/cclQ5C5v.ltrans4.ltrans.o
                                                  obj/main/NAZE/drivers/accgyro_mpu6500.o (symbol from plugin)
                                                  /tmp/cclQ5C5v.ltrans0.ltrans.o
                                                  obj/main/NAZE/drivers/accgyro_spi_mpu6500.o (symbol from plugin)
mpu6500GyroDetect                                 obj/main/NAZE/drivers/accgyro_mpu6500.o (symbol from plugin)
                                                  obj/main/NAZE/../controller/sensors/initialisation.o (symbol from plugin)
mpu6500GyroInit                                   /tmp/cclQ5C5v.ltrans4.ltrans.o
                                                  obj/main/NAZE/drivers/accgyro_mpu6500.o (symbol from plugin)
                                                  /tmp/cclQ5C5v.ltrans0.ltrans.o
                                                  obj/main/NAZE/drivers/accgyro_spi_mpu6500.o (symbol from plugin)
mpu6500ReadRegister                               obj/main/NAZE/drivers/accgyro_spi_mpu6500.o (symbol from plugin)
mpu6500SpiAccDetect                               obj/main/NAZE/drivers/accgyro_spi_mpu6500.o (symbol from plugin)
mpu6500SpiDetect                                  obj/main/NAZE/drivers/accgyro_spi_mpu6500.o (symbol from plugin)
mpu6500SpiGyroDetect                              obj/main/NAZE/drivers/accgyro_spi_mpu6500.o (symbol from plugin)
mpu6500WriteRegister                              obj/main/NAZE/drivers/accgyro_spi_mpu6500.o (symbol from plugin)
mpuAccRead                                        obj/main/NAZE/drivers/accgyro_mpu.o (symbol from plugin)
                                                  obj/main/NAZE/drivers/accgyro_spi_mpu6500.o (symbol from plugin)
                                                  obj/main/NAZE/drivers/accgyro_mpu6050.o (symbol from plugin)
mpuConfiguration                                  /tmp/cclQ5C5v.ltrans0.ltrans.o
                                                  obj/main/NAZE/drivers/accgyro_mpu.o (symbol from plugin)
                                                  /tmp/cclQ5C5v.ltrans4.ltrans.o
                                                  obj/main/NAZE/drivers/accgyro_mpu6500.o (symbol from plugin)
                                                  obj/main/NAZE/drivers/accgyro_mpu6050.o (symbol from plugin)
                                                  obj/main/NAZE/drivers/accgyro_mpu3050.o (symbol from plugin)
mpuDetectionResult                                obj/main/NAZE/drivers/accgyro_mpu.o (symbol from plugin)
                                                  obj/main/NAZE/drivers/accgyro_spi_mpu6500.o (symbol from plugin)
                                                  obj/main/NAZE/drivers/accgyro_mpu6500.o (symbol from plugin)
                                                  obj/main/NAZE/drivers/accgyro_mpu6050.o (symbol from plugin)
                                                  obj/main/NAZE/drivers/accgyro_mpu3050.o (symbol from plugin)
mpuDividerDrops                                   /tmp/cclQ5C5v.ltrans0.ltrans.o
                                                  obj/main/NAZE/drivers/gyro_sync.o (symbol from plugin)
                                                  /tmp/cclQ5C5v.ltrans4.ltrans.o
mpuGyroRead                                       obj/main/NAZE/drivers/accgyro_mpu.o (symbol from plugin)
                                                  obj/main/NAZE/drivers/accgyro_spi_mpu6500.o (symbol from plugin)
                                                  obj/main/NAZE/drivers/accgyro_mpu6050.o (symbol from plugin)
                                                  obj/main/NAZE/drivers/accgyro_mpu3050.o (symbol from plugin)
mpuIntExtiConfig.lto_priv.603                     /tmp/cclQ5C5v.ltrans0.ltrans.o
                                                  /tmp/cclQ5C5v.ltrans4.ltrans.o
mpuIntExtiInit                                    obj/main/NAZE/drivers/accgyro_mpu.o (symbol from plugin)
                                                  obj/main/NAZE/drivers/accgyro_mpu6500.o (symbol from plugin)
                                                  obj/main/NAZE/drivers/accgyro_mpu6050.o (symbol from plugin)
mpuIsDataReady                                    /tmp/cclQ5C5v.ltrans4.ltrans.o
                                                  obj/main/NAZE/drivers/accgyro_mpu.o (symbol from plugin)
                                                  /tmp/cclQ5C5v.ltrans0.ltrans.o
                                                  obj/main/NAZE/drivers/accgyro_spi_mpu6500.o (symbol from plugin)
                                                  obj/main/NAZE/drivers/accgyro_mpu6500.o (symbol from plugin)
                                                  obj/main/NAZE/drivers/accgyro_mpu6050.o (symbol from plugin)
                                                  obj/main/NAZE/drivers/accgyro_mpu3050.o (symbol from plugin)
mpuReadRegisterI2C.lto_priv.483                   /tmp/cclQ5C5v.ltrans4.ltrans.o
                                                  /tmp/cclQ5C5v.ltrans0.ltrans.o
mpuWriteRegisterI2C.lto_priv.484                  /tmp/cclQ5C5v.ltrans4.ltrans.o
                                                  /tmp/cclQ5C5v.ltrans0.ltrans.o
ms5611Detect                                      obj/main/NAZE/drivers/barometer_ms5611.o (symbol from plugin)
mspAllocateSerialPorts                            obj/main/NAZE/../controller/io/serial_msp.o (symbol from plugin)
                                                  obj/main/NAZE/../controller/mw.o (symbol from plugin)
                                                  obj/main/NAZE/../controller/blackbox/blackbox_io.o (symbol from plugin)
mspAllocateSerialPorts.constprop.78               /tmp/cclQ5C5v.ltrans21.ltrans.o
                                                  /tmp/cclQ5C5v.ltrans3.ltrans.o
                                                  /tmp/cclQ5C5v.ltrans2.ltrans.o
                                                  /tmp/cclQ5C5v.ltrans1.ltrans.o
                                                  /tmp/cclQ5C5v.ltrans0.ltrans.o
mspFrame.lto_priv.359                             /tmp/cclQ5C5v.ltrans8.ltrans.o
                                                  /tmp/cclQ5C5v.ltrans2.ltrans.o
mspInit                                           obj/main/NAZE/../controller/io/serial_msp.o (symbol from plugin)
                                                  obj/main/NAZE/main.o (symbol from plugin)
mspPorts.lto_priv.231                             /tmp/cclQ5C5v.ltrans21.ltrans.o
                                                  /tmp/cclQ5C5v.ltrans8.ltrans.o
                                                  /tmp/cclQ5C5v.ltrans2.ltrans.o
                                                  /tmp/cclQ5C5v.ltrans0.ltrans.o
mspProcess                                        obj/main/NAZE/../controller/io/serial_msp.o (symbol from plugin)
                                                  obj/main/NAZE/../controller/io/serial.o (symbol from plugin)
mspReleasePortIfAllocated                         /tmp/cclQ5C5v.ltrans8.ltrans.o
                                                  obj/main/NAZE/../controller/io/serial_msp.o (symbol from plugin)
                                                  /tmp/cclQ5C5v.ltrans18.ltrans.o
                                                  /tmp/cclQ5C5v.ltrans3.ltrans.o
                                                  /tmp/cclQ5C5v.ltrans2.ltrans.o
                                                  obj/main/NAZE/../controller/mw.o (symbol from plugin)
mspSerialPort.lto_priv.356                        /tmp/cclQ5C5v.ltrans24.ltrans.o
                                                  /tmp/cclQ5C5v.ltrans2.ltrans.o
mwArm                                             /tmp/cclQ5C5v.ltrans18.ltrans.o
                                                  obj/main/NAZE/../controller/mw.o (symbol from plugin)
                                                  /tmp/cclQ5C5v.ltrans3.ltrans.o
                                                  obj/main/NAZE/../controller/io/rc_controls.o (symbol from plugin)
mwDisarm                                          /tmp/cclQ5C5v.ltrans18.ltrans.o
                                                  obj/main/NAZE/../controller/mw.o (symbol from plugin)
                                                  /tmp/cclQ5C5v.ltrans3.ltrans.o
                                                  obj/main/NAZE/../controller/io/rc_controls.o (symbol from plugin)
                                                  obj/main/NAZE/../controller/flight/failsafe.o (symbol from plugin)
nanf                                              /usr/lib/gcc/arm-none-eabi/4.9.3/../../../arm-none-eabi/lib/armv7-m/libm.a(lib_a-sf_nan.o)
                                                  /usr/lib/gcc/arm-none-eabi/4.9.3/../../../arm-none-eabi/lib/armv7-m/libm.a(lib_a-ef_pow.o)
nav.lto_priv.400                                  /tmp/cclQ5C5v.ltrans3.ltrans.o
                                                  /tmp/cclQ5C5v.ltrans11.ltrans.o
                                                  /tmp/cclQ5C5v.ltrans1.ltrans.o
navPID.lto_priv.571                               /tmp/cclQ5C5v.ltrans3.ltrans.o
                                                  /tmp/cclQ5C5v.ltrans11.ltrans.o
navPID_PARAM.lto_priv.583                         /tmp/cclQ5C5v.ltrans11.ltrans.o
                                                  /tmp/cclQ5C5v.ltrans17.ltrans.o
nav_bearing.lto_priv.576                          /tmp/cclQ5C5v.ltrans11.ltrans.o
                                                  /tmp/cclQ5C5v.ltrans17.ltrans.o
nav_mode                                          /tmp/cclQ5C5v.ltrans3.ltrans.o
                                                  obj/main/NAZE/../controller/flight/navigation.o (symbol from plugin)
                                                  /tmp/cclQ5C5v.ltrans11.ltrans.o
                                                  /tmp/cclQ5C5v.ltrans2.ltrans.o
                                                  obj/main/NAZE/../controller/io/serial_msp.o (symbol from plugin)
nav_rated.lto_priv.401                            /tmp/cclQ5C5v.ltrans3.ltrans.o
                                                  /tmp/cclQ5C5v.ltrans1.ltrans.o
nav_takeoff_bearing.lto_priv.584                  /tmp/cclQ5C5v.ltrans11.ltrans.o
                                                  /tmp/cclQ5C5v.ltrans17.ltrans.o
navigationInit                                    obj/main/NAZE/../controller/flight/navigation.o (symbol from plugin)
                                                  obj/main/NAZE/main.o (symbol from plugin)
normalizeV                                        obj/main/NAZE/../controller/common/maths.o (symbol from plugin)
nullReadRawRC.lto_priv.222                        /tmp/cclQ5C5v.ltrans8.ltrans.o
                                                  /tmp/cclQ5C5v.ltrans21.ltrans.o
                                                  /tmp/cclQ5C5v.ltrans0.ltrans.o
onGpsNewData                                      obj/main/NAZE/../controller/flight/navigation.o (symbol from plugin)
                                                  obj/main/NAZE/../controller/io/gps.o (symbol from plugin)
onSerialRxPinChange                               /tmp/cclQ5C5v.ltrans16.ltrans.o
                                                  obj/main/NAZE/drivers/serial_softserial.o (symbol from plugin)
                                                  /tmp/cclQ5C5v.ltrans20.ltrans.o
onSerialTimer                                     obj/main/NAZE/drivers/serial_softserial.o (symbol from plugin)
openSerialPort                                    /tmp/cclQ5C5v.ltrans7.ltrans.o
                                                  obj/main/NAZE/../controller/io/serial.o (symbol from plugin)
                                                  /tmp/cclQ5C5v.ltrans25.ltrans.o
                                                  /tmp/cclQ5C5v.ltrans21.ltrans.o
                                                  /tmp/cclQ5C5v.ltrans18.ltrans.o
                                                  /tmp/cclQ5C5v.ltrans0.ltrans.o
                                                  obj/main/NAZE/../controller/rx/ibus.o (symbol from plugin)
                                                  obj/main/NAZE/../controller/rx/xbus.o (symbol from plugin)
                                                  obj/main/NAZE/../controller/rx/spektrum.o (symbol from plugin)
                                                  obj/main/NAZE/../controller/rx/sumh.o (symbol from plugin)
                                                  obj/main/NAZE/../controller/rx/sumd.o (symbol from plugin)
                                                  obj/main/NAZE/../controller/rx/sbus.o (symbol from plugin)
                                                  obj/main/NAZE/../controller/io/serial_msp.o (symbol from plugin)
                                                  obj/main/NAZE/../controller/blackbox/blackbox_io.o (symbol from plugin)
                                                  obj/main/NAZE/../controller/telemetry/ltm.o (symbol from plugin)
                                                  obj/main/NAZE/../controller/telemetry/smartport.o (symbol from plugin)
                                                  obj/main/NAZE/../controller/telemetry/hott.o (symbol from plugin)
                                                  obj/main/NAZE/../controller/telemetry/frsky.o (symbol from plugin)
                                                  obj/main/NAZE/../controller/io/gps.o (symbol from plugin)
openSoftSerial                                    /tmp/cclQ5C5v.ltrans20.ltrans.o
                                                  obj/main/NAZE/drivers/serial_softserial.o (symbol from plugin)
                                                  /tmp/cclQ5C5v.ltrans16.ltrans.o
                                                  /tmp/cclQ5C5v.ltrans7.ltrans.o
                                                  obj/main/NAZE/../controller/io/serial.o (symbol from plugin)
original_target_bearing.lto_priv.577              /tmp/cclQ5C5v.ltrans11.ltrans.o
                                                  /tmp/cclQ5C5v.ltrans17.ltrans.o
packFlightModeFlags.lto_priv.390                  /tmp/cclQ5C5v.ltrans8.ltrans.o
                                                  /tmp/cclQ5C5v.ltrans2.ltrans.o
padHalfLineBuffer                                 obj/main/NAZE/../controller/io/display.o (symbol from plugin)
padLineBuffer                                     obj/main/NAZE/../controller/io/display.o (symbol from plugin)
pageState.lto_priv.316                            /tmp/cclQ5C5v.ltrans12.ltrans.o
                                                  /tmp/cclQ5C5v.ltrans19.ltrans.o
                                                  /tmp/cclQ5C5v.ltrans3.ltrans.o
                                                  /tmp/cclQ5C5v.ltrans0.ltrans.o
parseColor                                        obj/main/NAZE/../controller/io/ledstrip.o (symbol from plugin)
                                                  obj/main/NAZE/../controller/io/serial_cli.o (symbol from plugin)
parseLedStripConfig                               obj/main/NAZE/../controller/io/ledstrip.o (symbol from plugin)
                                                  obj/main/NAZE/../controller/io/serial_cli.o (symbol from plugin)
parseRcChannels                                   obj/main/NAZE/../controller/rx/rx.o (symbol from plugin)
                                                  obj/main/NAZE/../controller/io/serial_cli.o (symbol from plugin)
                                                  obj/main/NAZE/../controller/config/config.o (symbol from plugin)
parseRcChannels.constprop.64                      /tmp/cclQ5C5v.ltrans21.ltrans.o
                                                  /tmp/cclQ5C5v.ltrans23.ltrans.o
                                                  /tmp/cclQ5C5v.ltrans12.ltrans.o
performAcclerationCalibration                     obj/main/NAZE/../controller/sensors/acceleration.o (symbol from plugin)
performBaroCalibrationCycle                       obj/main/NAZE/../controller/sensors/barometer.o (symbol from plugin)
                                                  obj/main/NAZE/../controller/flight/altitudehold.o (symbol from plugin)
performInflightAccelerationCalibration            obj/main/NAZE/../controller/sensors/acceleration.o (symbol from plugin)
pidLuxFloat.lto_priv.269                          /tmp/cclQ5C5v.ltrans26.ltrans.o
                                                  /tmp/cclQ5C5v.ltrans14.ltrans.o
pidMultiWii23.lto_priv.270                        /tmp/cclQ5C5v.ltrans26.ltrans.o
                                                  /tmp/cclQ5C5v.ltrans14.ltrans.o
pidProfile.lto_priv.314                           /tmp/cclQ5C5v.ltrans21.ltrans.o
                                                  /tmp/cclQ5C5v.ltrans6.ltrans.o
                                                  /tmp/cclQ5C5v.ltrans3.ltrans.o
                                                  /tmp/cclQ5C5v.ltrans2.ltrans.o
pidProfile.lto_priv.533                           /tmp/cclQ5C5v.ltrans22.ltrans.o
                                                  /tmp/cclQ5C5v.ltrans6.ltrans.o
pidResetErrorAngle                                /tmp/cclQ5C5v.ltrans26.ltrans.o
                                                  obj/main/NAZE/../controller/flight/pid.o (symbol from plugin)
                                                  /tmp/cclQ5C5v.ltrans3.ltrans.o
                                                  obj/main/NAZE/../controller/mw.o (symbol from plugin)
pidResetErrorGyro                                 obj/main/NAZE/../controller/flight/pid.o (symbol from plugin)
                                                  obj/main/NAZE/../controller/mw.o (symbol from plugin)
pidSetController                                  /tmp/cclQ5C5v.ltrans14.ltrans.o
                                                  obj/main/NAZE/../controller/flight/pid.o (symbol from plugin)
                                                  /tmp/cclQ5C5v.ltrans6.ltrans.o
                                                  /tmp/cclQ5C5v.ltrans2.ltrans.o
                                                  obj/main/NAZE/../controller/io/serial_msp.o (symbol from plugin)
                                                  obj/main/NAZE/../controller/config/config.o (symbol from plugin)
pid_controller                                    /tmp/cclQ5C5v.ltrans14.ltrans.o
                                                  obj/main/NAZE/../controller/flight/pid.o (symbol from plugin)
                                                  /tmp/cclQ5C5v.ltrans1.ltrans.o
                                                  obj/main/NAZE/../controller/mw.o (symbol from plugin)
pifBmp280_AddTaskForReading                       obj/main/NAZE/../../pif/source/sensor/pif_bmp280.o (symbol from plugin)
                                                  obj/main/NAZE/drivers/barometer_bmp280.o (symbol from plugin)
pifBmp280_Clear                                   obj/main/NAZE/../../pif/source/sensor/pif_bmp280.o (symbol from plugin)
pifBmp280_Detect                                  obj/main/NAZE/../../pif/source/sensor/pif_bmp280.o (symbol from plugin)
                                                  obj/main/NAZE/drivers/barometer_bmp280.o (symbol from plugin)
pifBmp280_Init                                    obj/main/NAZE/../../pif/source/sensor/pif_bmp280.o (symbol from plugin)
                                                  obj/main/NAZE/drivers/barometer_bmp280.o (symbol from plugin)
pifBmp280_ReadBarometric                          obj/main/NAZE/../../pif/source/sensor/pif_bmp280.o (symbol from plugin)
pifBmp280_ReadRawData                             obj/main/NAZE/../../pif/source/sensor/pif_bmp280.o (symbol from plugin)
pifBmp280_SetOverSamplingRate                     obj/main/NAZE/../../pif/source/sensor/pif_bmp280.o (symbol from plugin)
                                                  obj/main/NAZE/drivers/barometer_bmp280.o (symbol from plugin)
pifCheckSum                                       obj/main/NAZE/../../pif/source/core/pif.o (symbol from plugin)
pifCheckXor                                       obj/main/NAZE/../../pif/source/core/pif.o (symbol from plugin)
pifCrc16                                          obj/main/NAZE/../../pif/source/core/pif.o (symbol from plugin)
pifCrc16_Add                                      obj/main/NAZE/../../pif/source/core/pif.o (symbol from plugin)
pifCrc7                                           obj/main/NAZE/../../pif/source/core/pif.o (symbol from plugin)
pifCrc7_Add                                       obj/main/NAZE/../../pif/source/core/pif.o (symbol from plugin)
pifCrc7_Result                                    obj/main/NAZE/../../pif/source/core/pif.o (symbol from plugin)
pifHcSr04_Clear                                   obj/main/NAZE/../../pif/source/sensor/pif_hc_sr04.o (symbol from plugin)
pifHcSr04_Init                                    obj/main/NAZE/../../pif/source/sensor/pif_hc_sr04.o (symbol from plugin)
                                                  obj/main/NAZE/drivers/sonar_hcsr04.o (symbol from plugin)
pifHcSr04_SetTemperature                          obj/main/NAZE/../../pif/source/sensor/pif_hc_sr04.o (symbol from plugin)
pifHcSr04_StartTrigger                            obj/main/NAZE/../../pif/source/sensor/pif_hc_sr04.o (symbol from plugin)
                                                  obj/main/NAZE/drivers/sonar_hcsr04.o (symbol from plugin)
pifHcSr04_StopTrigger                             obj/main/NAZE/../../pif/source/sensor/pif_hc_sr04.o (symbol from plugin)
pifHcSr04_Trigger                                 obj/main/NAZE/../../pif/source/sensor/pif_hc_sr04.o (symbol from plugin)
pifHcSr04_sigReceiveEcho                          obj/main/NAZE/../../pif/source/sensor/pif_hc_sr04.o (symbol from plugin)
                                                  obj/main/NAZE/drivers/sonar_hcsr04.o (symbol from plugin)
pifI2cDevice_Read                                 obj/main/NAZE/../../pif/source/communication/pif_i2c.o (symbol from plugin)
pifI2cDevice_Read.constprop.198                   /tmp/cclQ5C5v.ltrans21.ltrans.o
                                                  /tmp/cclQ5C5v.ltrans13.ltrans.o
                                                  /tmp/cclQ5C5v.ltrans4.ltrans.o
                                                  /tmp/cclQ5C5v.ltrans0.ltrans.o
pifI2cDevice_ReadRegBit16                         obj/main/NAZE/../../pif/source/communication/pif_i2c.o (symbol from plugin)
pifI2cDevice_ReadRegBit8                          /tmp/cclQ5C5v.ltrans13.ltrans.o
                                                  obj/main/NAZE/../../pif/source/communication/pif_i2c.o (symbol from plugin)
                                                  /tmp/cclQ5C5v.ltrans15.ltrans.o
                                                  /tmp/cclQ5C5v.ltrans4.ltrans.o
                                                  obj/main/NAZE/../../pif/source/sensor/pif_qmc5883.o (symbol from plugin)
                                                  obj/main/NAZE/../../pif/source/sensor/pif_mpu6500.o (symbol from plugin)
pifI2cDevice_ReadRegByte                          obj/main/NAZE/../../pif/source/communication/pif_i2c.o (symbol from plugin)
                                                  obj/main/NAZE/../../pif/source/sensor/pif_qmc5883.o (symbol from plugin)
                                                  obj/main/NAZE/../../pif/source/sensor/pif_mpu6500.o (symbol from plugin)
                                                  obj/main/NAZE/../../pif/source/sensor/pif_bmp280.o (symbol from plugin)
pifI2cDevice_ReadRegBytes                         obj/main/NAZE/../../pif/source/communication/pif_i2c.o (symbol from plugin)
                                                  obj/main/NAZE/../../pif/source/sensor/pif_qmc5883.o (symbol from plugin)
                                                  obj/main/NAZE/../../pif/source/sensor/pif_mpu6500.o (symbol from plugin)
                                                  obj/main/NAZE/../../pif/source/sensor/pif_bmp280.o (symbol from plugin)
pifI2cDevice_ReadRegWord                          obj/main/NAZE/../../pif/source/communication/pif_i2c.o (symbol from plugin)
pifI2cDevice_Write                                obj/main/NAZE/../../pif/source/communication/pif_i2c.o (symbol from plugin)
pifI2cDevice_WriteRegBit16                        obj/main/NAZE/../../pif/source/communication/pif_i2c.o (symbol from plugin)
pifI2cDevice_WriteRegBit8                         obj/main/NAZE/../../pif/source/communication/pif_i2c.o (symbol from plugin)
                                                  obj/main/NAZE/../../pif/source/sensor/pif_mpu6500.o (symbol from plugin)
pifI2cDevice_WriteRegByte                         /tmp/cclQ5C5v.ltrans13.ltrans.o
                                                  obj/main/NAZE/../../pif/source/communication/pif_i2c.o (symbol from plugin)
                                                  /tmp/cclQ5C5v.ltrans15.ltrans.o
                                                  /tmp/cclQ5C5v.ltrans4.ltrans.o
                                                  obj/main/NAZE/../../pif/source/sensor/pif_qmc5883.o (symbol from plugin)
                                                  obj/main/NAZE/../../pif/source/sensor/pif_mpu6500.o (symbol from plugin)
                                                  obj/main/NAZE/../../pif/source/sensor/pif_bmp280.o (symbol from plugin)
                                                  obj/main/NAZE/drivers/accgyro_mpu6500.o (symbol from plugin)
pifI2cDevice_WriteRegBytes                        obj/main/NAZE/../../pif/source/communication/pif_i2c.o (symbol from plugin)
pifI2cDevice_WriteRegWord                         obj/main/NAZE/../../pif/source/communication/pif_i2c.o (symbol from plugin)
pifI2cPort_AddDevice                              obj/main/NAZE/../../pif/source/communication/pif_i2c.o (symbol from plugin)
                                                  obj/main/NAZE/../../pif/source/sensor/pif_qmc5883.o (symbol from plugin)
                                                  obj/main/NAZE/../../pif/source/sensor/pif_mpu6500.o (symbol from plugin)
                                                  obj/main/NAZE/../../pif/source/sensor/pif_bmp280.o (symbol from plugin)
pifI2cPort_AddDevice.constprop.199                /tmp/cclQ5C5v.ltrans21.ltrans.o
                                                  /tmp/cclQ5C5v.ltrans15.ltrans.o
                                                  /tmp/cclQ5C5v.ltrans4.ltrans.o
                                                  /tmp/cclQ5C5v.ltrans0.ltrans.o
pifI2cPort_Clear                                  obj/main/NAZE/../../pif/source/communication/pif_i2c.o (symbol from plugin)
pifI2cPort_Init                                   obj/main/NAZE/../../pif/source/communication/pif_i2c.o (symbol from plugin)
                                                  obj/main/NAZE/drivers/bus_i2c_stm32f10x.o (symbol from plugin)
pifI2cPort_RemoveDevice                           obj/main/NAZE/../../pif/source/communication/pif_i2c.o (symbol from plugin)
                                                  obj/main/NAZE/../../pif/source/sensor/pif_qmc5883.o (symbol from plugin)
                                                  obj/main/NAZE/../../pif/source/sensor/pif_mpu6500.o (symbol from plugin)
                                                  obj/main/NAZE/../../pif/source/sensor/pif_bmp280.o (symbol from plugin)
pifI2cPort_TemporaryDevice                        obj/main/NAZE/../../pif/source/communication/pif_i2c.o (symbol from plugin)
                                                  obj/main/NAZE/../../pif/source/sensor/pif_qmc5883.o (symbol from plugin)
                                                  obj/main/NAZE/../../pif/source/sensor/pif_mpu6500.o (symbol from plugin)
                                                  obj/main/NAZE/../../pif/source/sensor/pif_bmp280.o (symbol from plugin)
pifI2cPort_sigEndTransfer                         obj/main/NAZE/../../pif/source/communication/pif_i2c.o (symbol from plugin)
pifImuSensor_Init                                 obj/main/NAZE/../../pif/source/sensor/pif_imu_sensor.o (symbol from plugin)
                                                  obj/main/NAZE/main.o (symbol from plugin)
pifImuSensor_InitBoardAlignment                   obj/main/NAZE/../../pif/source/sensor/pif_imu_sensor.o (symbol from plugin)
                                                  obj/main/NAZE/main.o (symbol from plugin)
pifImuSensor_ReadAccel                            obj/main/NAZE/../../pif/source/sensor/pif_imu_sensor.o (symbol from plugin)
pifImuSensor_ReadGyro                             obj/main/NAZE/../../pif/source/sensor/pif_imu_sensor.o (symbol from plugin)
pifImuSensor_ReadMag                              obj/main/NAZE/../../pif/source/sensor/pif_imu_sensor.o (symbol from plugin)
pifImuSensor_ReadRawAccel                         obj/main/NAZE/../../pif/source/sensor/pif_imu_sensor.o (symbol from plugin)
                                                  obj/main/NAZE/drivers/accgyro_mpu.o (symbol from plugin)
pifImuSensor_ReadRawGyro                          obj/main/NAZE/../../pif/source/sensor/pif_imu_sensor.o (symbol from plugin)
                                                  obj/main/NAZE/drivers/accgyro_mpu.o (symbol from plugin)
pifImuSensor_ReadRawMag                           obj/main/NAZE/../../pif/source/sensor/pif_imu_sensor.o (symbol from plugin)
                                                  obj/main/NAZE/drivers/compass_qmc5883l.o (symbol from plugin)
pifImuSensor_SetAccelAlign                        obj/main/NAZE/../../pif/source/sensor/pif_imu_sensor.o (symbol from plugin)
pifImuSensor_SetGyroAlign                         obj/main/NAZE/../../pif/source/sensor/pif_imu_sensor.o (symbol from plugin)
pifImuSensor_SetMagAlign                          obj/main/NAZE/../../pif/source/sensor/pif_imu_sensor.o (symbol from plugin)
pifMpu6500_CalibrationGyro                        obj/main/NAZE/../../pif/source/sensor/pif_mpu6500.o (symbol from plugin)
pifMpu6500_Clear                                  obj/main/NAZE/../../pif/source/sensor/pif_mpu6500.o (symbol from plugin)
pifMpu6500_Detect                                 obj/main/NAZE/../../pif/source/sensor/pif_mpu6500.o (symbol from plugin)
pifMpu6500_Init                                   obj/main/NAZE/../../pif/source/sensor/pif_mpu6500.o (symbol from plugin)
                                                  obj/main/NAZE/drivers/accgyro_mpu6500.o (symbol from plugin)
pifMpu6500_ReadAccel                              /tmp/cclQ5C5v.ltrans13.ltrans.o
                                                  obj/main/NAZE/../../pif/source/sensor/pif_mpu6500.o (symbol from plugin)
                                                  /tmp/cclQ5C5v.ltrans4.ltrans.o
pifMpu6500_ReadGyro                               /tmp/cclQ5C5v.ltrans13.ltrans.o
                                                  obj/main/NAZE/../../pif/source/sensor/pif_mpu6500.o (symbol from plugin)
                                                  /tmp/cclQ5C5v.ltrans4.ltrans.o
pifMpu6500_ReadTemperature                        obj/main/NAZE/../../pif/source/sensor/pif_mpu6500.o (symbol from plugin)
pifMpu6500_SetAccelConfig                         obj/main/NAZE/../../pif/source/sensor/pif_mpu6500.o (symbol from plugin)
                                                  obj/main/NAZE/drivers/accgyro_mpu6500.o (symbol from plugin)
pifMpu6500_SetAccelFsSel                          obj/main/NAZE/../../pif/source/sensor/pif_mpu6500.o (symbol from plugin)
pifMpu6500_SetGyroConfig                          obj/main/NAZE/../../pif/source/sensor/pif_mpu6500.o (symbol from plugin)
                                                  obj/main/NAZE/drivers/accgyro_mpu6500.o (symbol from plugin)
pifMpu6500_SetGyroFsSel                           obj/main/NAZE/../../pif/source/sensor/pif_mpu6500.o (symbol from plugin)
pifMpu6500_SetThreshold                           obj/main/NAZE/../../pif/source/sensor/pif_mpu6500.o (symbol from plugin)
pifMpuAccRead                                     /tmp/cclQ5C5v.ltrans4.ltrans.o
                                                  obj/main/NAZE/drivers/accgyro_mpu.o (symbol from plugin)
                                                  /tmp/cclQ5C5v.ltrans0.ltrans.o
                                                  obj/main/NAZE/drivers/accgyro_mpu6500.o (symbol from plugin)
pifMpuGyroRead                                    /tmp/cclQ5C5v.ltrans4.ltrans.o
                                                  obj/main/NAZE/drivers/accgyro_mpu.o (symbol from plugin)
                                                  /tmp/cclQ5C5v.ltrans0.ltrans.o
                                                  obj/main/NAZE/drivers/accgyro_mpu6500.o (symbol from plugin)
pifObjArray_Add                                   /tmp/cclQ5C5v.ltrans13.ltrans.o
                                                  obj/main/NAZE/../../pif/source/core/pif_obj_array.o (symbol from plugin)
                                                  /tmp/cclQ5C5v.ltrans21.ltrans.o
                                                  obj/main/NAZE/../../pif/source/core/pif_timer.o (symbol from plugin)
                                                  obj/main/NAZE/../../pif/source/core/pif_task.o (symbol from plugin)
                                                  obj/main/NAZE/../../pif/source/communication/pif_i2c.o (symbol from plugin)
pifObjArray_Begin                                 obj/main/NAZE/../../pif/source/core/pif_obj_array.o (symbol from plugin)
                                                  obj/main/NAZE/../../pif/source/core/pif_timer.o (symbol from plugin)
                                                  obj/main/NAZE/../../pif/source/core/pif_task.o (symbol from plugin)
pifObjArray_Clear                                 /tmp/cclQ5C5v.ltrans13.ltrans.o
                                                  obj/main/NAZE/../../pif/source/core/pif_obj_array.o (symbol from plugin)
                                                  /tmp/cclQ5C5v.ltrans21.ltrans.o
                                                  /tmp/cclQ5C5v.ltrans18.ltrans.o
                                                  obj/main/NAZE/../../pif/source/core/pif_timer.o (symbol from plugin)
                                                  obj/main/NAZE/../../pif/source/core/pif_task.o (symbol from plugin)
                                                  obj/main/NAZE/../../pif/source/communication/pif_i2c.o (symbol from plugin)
pifObjArray_Count                                 obj/main/NAZE/../../pif/source/core/pif_obj_array.o (symbol from plugin)
                                                  obj/main/NAZE/../../pif/source/core/pif_timer.o (symbol from plugin)
                                                  obj/main/NAZE/../../pif/source/core/pif_task.o (symbol from plugin)
pifObjArray_Init                                  obj/main/NAZE/../../pif/source/core/pif_obj_array.o (symbol from plugin)
                                                  obj/main/NAZE/../../pif/source/core/pif_timer.o (symbol from plugin)
                                                  obj/main/NAZE/../../pif/source/core/pif_task.o (symbol from plugin)
                                                  obj/main/NAZE/../../pif/source/communication/pif_i2c.o (symbol from plugin)
pifObjArray_Init.part.0.constprop.157             /tmp/cclQ5C5v.ltrans21.ltrans.o
                                                  /tmp/cclQ5C5v.ltrans18.ltrans.o
pifObjArray_Next                                  obj/main/NAZE/../../pif/source/core/pif_obj_array.o (symbol from plugin)
                                                  obj/main/NAZE/../../pif/source/core/pif_timer.o (symbol from plugin)
                                                  obj/main/NAZE/../../pif/source/core/pif_task.o (symbol from plugin)
pifObjArray_Remove                                /tmp/cclQ5C5v.ltrans13.ltrans.o
                                                  obj/main/NAZE/../../pif/source/core/pif_obj_array.o (symbol from plugin)
                                                  /tmp/cclQ5C5v.ltrans15.ltrans.o
                                                  /tmp/cclQ5C5v.ltrans14.ltrans.o
                                                  /tmp/cclQ5C5v.ltrans4.ltrans.o
                                                  /tmp/cclQ5C5v.ltrans0.ltrans.o
                                                  obj/main/NAZE/../../pif/source/core/pif_timer.o (symbol from plugin)
                                                  obj/main/NAZE/../../pif/source/core/pif_task.o (symbol from plugin)
                                                  obj/main/NAZE/../../pif/source/communication/pif_i2c.o (symbol from plugin)
pifPidControl_Calcurate                           obj/main/NAZE/../../pif/source/core/pif.o (symbol from plugin)
pifPidControl_Init                                obj/main/NAZE/../../pif/source/core/pif.o (symbol from plugin)
pifQmc5883_Clear                                  obj/main/NAZE/../../pif/source/sensor/pif_qmc5883.o (symbol from plugin)
pifQmc5883_Detect                                 obj/main/NAZE/../../pif/source/sensor/pif_qmc5883.o (symbol from plugin)
                                                  obj/main/NAZE/drivers/compass_qmc5883l.o (symbol from plugin)
pifQmc5883_Init                                   obj/main/NAZE/../../pif/source/sensor/pif_qmc5883.o (symbol from plugin)
                                                  obj/main/NAZE/drivers/compass_qmc5883l.o (symbol from plugin)
pifQmc5883_ReadMag                                /tmp/cclQ5C5v.ltrans13.ltrans.o
                                                  obj/main/NAZE/../../pif/source/sensor/pif_qmc5883.o (symbol from plugin)
                                                  /tmp/cclQ5C5v.ltrans15.ltrans.o
pifQmc5883_SetControl1                            obj/main/NAZE/../../pif/source/sensor/pif_qmc5883.o (symbol from plugin)
                                                  obj/main/NAZE/drivers/compass_qmc5883l.o (symbol from plugin)
pifRcPpm_Clear                                    obj/main/NAZE/../../pif/source/rc/pif_rc_ppm.o (symbol from plugin)
pifRcPpm_Init                                     obj/main/NAZE/../../pif/source/rc/pif_rc_ppm.o (symbol from plugin)
                                                  obj/main/NAZE/drivers/pwm_rx.o (symbol from plugin)
pifRcPpm_ResetMeasureValue                        obj/main/NAZE/../../pif/source/rc/pif_rc_ppm.o (symbol from plugin)
pifRcPpm_SetValidRange                            obj/main/NAZE/../../pif/source/rc/pif_rc_ppm.o (symbol from plugin)
                                                  obj/main/NAZE/drivers/pwm_rx.o (symbol from plugin)
pifRcPpm_sigTick                                  obj/main/NAZE/../../pif/source/rc/pif_rc_ppm.o (symbol from plugin)
                                                  obj/main/NAZE/drivers/pwm_rx.o (symbol from plugin)
pifRc_AttachEvtReceive                            obj/main/NAZE/../../pif/source/rc/pif_rc.o (symbol from plugin)
                                                  obj/main/NAZE/drivers/pwm_rx.o (symbol from plugin)
pifRc_CheckFailSafe                               obj/main/NAZE/../../pif/source/rc/pif_rc.o (symbol from plugin)
pifRc_GetFrameLoss                                obj/main/NAZE/../../pif/source/rc/pif_rc.o (symbol from plugin)
pifTaskManager_Add                                /tmp/cclQ5C5v.ltrans13.ltrans.o
                                                  obj/main/NAZE/../../pif/source/core/pif_task.o (symbol from plugin)
                                                  /tmp/cclQ5C5v.ltrans18.ltrans.o
                                                  /tmp/cclQ5C5v.ltrans6.ltrans.o
                                                  /tmp/cclQ5C5v.ltrans0.ltrans.o
                                                  obj/main/NAZE/../../pif/source/sensor/pif_hc_sr04.o (symbol from plugin)
                                                  obj/main/NAZE/../../pif/source/sensor/pif_bmp280.o (symbol from plugin)
                                                  obj/main/NAZE/../../pif/source/core/pif_timer.o (symbol from plugin)
                                                  obj/main/NAZE/../controller/scheduler.o (symbol from plugin)
pifTaskManager_Clear                              obj/main/NAZE/../../pif/source/core/pif_task.o (symbol from plugin)
                                                  obj/main/NAZE/../../pif/source/core/pif.o (symbol from plugin)
pifTaskManager_Count                              obj/main/NAZE/../../pif/source/core/pif_task.o (symbol from plugin)
                                                  obj/main/NAZE/../controller/io/serial_cli.o (symbol from plugin)
pifTaskManager_CurrentTask                        obj/main/NAZE/../../pif/source/core/pif_task.o (symbol from plugin)
pifTaskManager_Init                               obj/main/NAZE/../../pif/source/core/pif_task.o (symbol from plugin)
                                                  obj/main/NAZE/main.o (symbol from plugin)
pifTaskManager_Loop                               obj/main/NAZE/../../pif/source/core/pif_task.o (symbol from plugin)
                                                  obj/main/NAZE/main.o (symbol from plugin)
pifTaskManager_Remove                             /tmp/cclQ5C5v.ltrans13.ltrans.o
                                                  obj/main/NAZE/../../pif/source/core/pif_task.o (symbol from plugin)
                                                  /tmp/cclQ5C5v.ltrans18.ltrans.o
                                                  /tmp/cclQ5C5v.ltrans6.ltrans.o
                                                  /tmp/cclQ5C5v.ltrans0.ltrans.o
                                                  obj/main/NAZE/../../pif/source/sensor/pif_hc_sr04.o (symbol from plugin)
                                                  obj/main/NAZE/../../pif/source/sensor/pif_bmp280.o (symbol from plugin)
                                                  obj/main/NAZE/../../pif/source/core/pif_timer.o (symbol from plugin)
                                                  obj/main/NAZE/../controller/scheduler.o (symbol from plugin)
pifTaskManager_Yield                              obj/main/NAZE/../../pif/source/core/pif_task.o (symbol from plugin)
pifTaskManager_YieldAbort                         obj/main/NAZE/../../pif/source/core/pif_task.o (symbol from plugin)
pifTaskManager_YieldAbortMs                       obj/main/NAZE/../../pif/source/core/pif_task.o (symbol from plugin)
pifTaskManager_YieldAbortUs                       obj/main/NAZE/../../pif/source/core/pif_task.o (symbol from plugin)
pifTaskManager_YieldMs                            obj/main/NAZE/../../pif/source/core/pif_task.o (symbol from plugin)
                                                  obj/main/NAZE/../../pif/source/sensor/pif_mpu6500.o (symbol from plugin)
                                                  obj/main/NAZE/../../pif/source/sensor/pif_bmp280.o (symbol from plugin)
pifTaskManager_YieldUs                            obj/main/NAZE/../../pif/source/core/pif_task.o (symbol from plugin)
pifTask_ChangeMode                                obj/main/NAZE/../../pif/source/core/pif_task.o (symbol from plugin)
pifTask_ChangePeriod                              /tmp/cclQ5C5v.ltrans13.ltrans.o
                                                  obj/main/NAZE/../../pif/source/core/pif_task.o (symbol from plugin)
                                                  /tmp/cclQ5C5v.ltrans21.ltrans.o
                                                  /tmp/cclQ5C5v.ltrans0.ltrans.o
                                                  obj/main/NAZE/../../pif/source/sensor/pif_hc_sr04.o (symbol from plugin)
                                                  obj/main/NAZE/../controller/scheduler.o (symbol from plugin)
pifTask_DelayMs                                   obj/main/NAZE/../../pif/source/core/pif_task.o (symbol from plugin)
pifTask_GetAverageDeltaTime                       obj/main/NAZE/../../pif/source/core/pif_task.o (symbol from plugin)
                                                  obj/main/NAZE/../controller/scheduler.o (symbol from plugin)
pifTask_GetAverageExecuteTime                     obj/main/NAZE/../../pif/source/core/pif_task.o (symbol from plugin)
                                                  obj/main/NAZE/../controller/scheduler.o (symbol from plugin)
pifTask_GetAverageTriggerTime                     obj/main/NAZE/../../pif/source/core/pif_task.o (symbol from plugin)
pifTask_Init                                      obj/main/NAZE/../../pif/source/core/pif_task.o (symbol from plugin)
pifTask_SetTrigger                                /tmp/cclQ5C5v.ltrans13.ltrans.o
                                                  obj/main/NAZE/../../pif/source/core/pif_task.o (symbol from plugin)
                                                  /tmp/cclQ5C5v.ltrans15.ltrans.o
                                                  obj/main/NAZE/../../pif/source/sensor/pif_hc_sr04.o (symbol from plugin)
                                                  obj/main/NAZE/../../pif/source/sensor/pif_bmp280.o (symbol from plugin)
pifTimerManager_Add                               obj/main/NAZE/../../pif/source/core/pif_timer.o (symbol from plugin)
pifTimerManager_Clear                             obj/main/NAZE/../../pif/source/core/pif_timer.o (symbol from plugin)
pifTimerManager_Count                             obj/main/NAZE/../../pif/source/core/pif_timer.o (symbol from plugin)
                                                  obj/main/NAZE/../controller/io/serial_cli.o (symbol from plugin)
pifTimerManager_Init                              obj/main/NAZE/../../pif/source/core/pif_timer.o (symbol from plugin)
                                                  obj/main/NAZE/main.o (symbol from plugin)
pifTimerManager_Remove                            obj/main/NAZE/../../pif/source/core/pif_timer.o (symbol from plugin)
pifTimerManager_sigTick                           obj/main/NAZE/../../pif/source/core/pif_timer.o (symbol from plugin)
                                                  obj/main/NAZE/drivers/system.o (symbol from plugin)
pifTimer_AttachEvtFinish                          obj/main/NAZE/../../pif/source/core/pif_timer.o (symbol from plugin)
pifTimer_AttachEvtIntFinish                       obj/main/NAZE/../../pif/source/core/pif_timer.o (symbol from plugin)
pifTimer_Elapsed                                  obj/main/NAZE/../../pif/source/core/pif_timer.o (symbol from plugin)
pifTimer_Remain                                   obj/main/NAZE/../../pif/source/core/pif_timer.o (symbol from plugin)
pifTimer_Reset                                    obj/main/NAZE/../../pif/source/core/pif_timer.o (symbol from plugin)
pifTimer_SetPwmDuty                               obj/main/NAZE/../../pif/source/core/pif_timer.o (symbol from plugin)
pifTimer_Start                                    obj/main/NAZE/../../pif/source/core/pif_timer.o (symbol from plugin)
pifTimer_Stop                                     obj/main/NAZE/../../pif/source/core/pif_timer.o (symbol from plugin)
pif_BinToString                                   obj/main/NAZE/../../pif/source/core/pif.o (symbol from plugin)
pif_ChangeStatusLed                               obj/main/NAZE/../../pif/source/core/pif.o (symbol from plugin)
pif_ClearError                                    obj/main/NAZE/../../pif/source/core/pif.o (symbol from plugin)
pif_DecToString                                   obj/main/NAZE/../../pif/source/core/pif.o (symbol from plugin)
pif_Delay1ms                                      obj/main/NAZE/../../pif/source/core/pif.o (symbol from plugin)
                                                  obj/main/NAZE/drivers/barometer_bmp280.o (symbol from plugin)
pif_Delay1us                                      /tmp/cclQ5C5v.ltrans13.ltrans.o
                                                  obj/main/NAZE/../../pif/source/core/pif.o (symbol from plugin)
                                                  /tmp/cclQ5C5v.ltrans6.ltrans.o
                                                  obj/main/NAZE/../../pif/source/sensor/pif_hc_sr04.o (symbol from plugin)
                                                  obj/main/NAZE/../controller/scheduler.o (symbol from plugin)
pif_Exit                                          obj/main/NAZE/../../pif/source/core/pif.o (symbol from plugin)
pif_FloatToString                                 obj/main/NAZE/../../pif/source/core/pif.o (symbol from plugin)
pif_HexToString                                   obj/main/NAZE/../../pif/source/core/pif.o (symbol from plugin)
pif_Init                                          obj/main/NAZE/../../pif/source/core/pif.o (symbol from plugin)
                                                  obj/main/NAZE/main.o (symbol from plugin)
pif_PrintFormat                                   obj/main/NAZE/../../pif/source/core/pif.o (symbol from plugin)
pif_Printf                                        obj/main/NAZE/../../pif/source/core/pif.o (symbol from plugin)
pif_ToggleStatusLed                               obj/main/NAZE/../../pif/source/core/pif.o (symbol from plugin)
pif_act_gpio_read                                 obj/main/NAZE/../../pif/source/core/pif.o (symbol from plugin)
pif_act_gpio_write                                obj/main/NAZE/../../pif/source/core/pif.o (symbol from plugin)
pif_act_timer1us                                  /tmp/cclQ5C5v.ltrans13.ltrans.o
                                                  obj/main/NAZE/../../pif/source/core/pif.o (symbol from plugin)
                                                  /tmp/cclQ5C5v.ltrans20.ltrans.o
                                                  /tmp/cclQ5C5v.ltrans18.ltrans.o
                                                  /tmp/cclQ5C5v.ltrans15.ltrans.o
                                                  obj/main/NAZE/../../pif/source/sensor/pif_hc_sr04.o (symbol from plugin)
                                                  obj/main/NAZE/../../pif/source/core/pif_task.o (symbol from plugin)
                                                  obj/main/NAZE/drivers/pwm_rx.o (symbol from plugin)
pif_cumulative_timer1ms                           /tmp/cclQ5C5v.ltrans21.ltrans.o
                                                  obj/main/NAZE/../../pif/source/core/pif.o (symbol from plugin)
                                                  /tmp/cclQ5C5v.ltrans14.ltrans.o
                                                  /tmp/cclQ5C5v.ltrans13.ltrans.o
                                                  /tmp/cclQ5C5v.ltrans0.ltrans.o
                                                  obj/main/NAZE/../../pif/source/sensor/pif_bmp280.o (symbol from plugin)
                                                  obj/main/NAZE/../../pif/source/rc/pif_rc.o (symbol from plugin)
                                                  obj/main/NAZE/../../pif/source/core/pif_task.o (symbol from plugin)
                                                  obj/main/NAZE/../../pif/source/communication/pif_i2c.o (symbol from plugin)
pif_datetime                                      /tmp/cclQ5C5v.ltrans14.ltrans.o
                                                  obj/main/NAZE/../../pif/source/core/pif.o (symbol from plugin)
                                                  /tmp/cclQ5C5v.ltrans18.ltrans.o
pif_error                                         /tmp/cclQ5C5v.ltrans21.ltrans.o
                                                  obj/main/NAZE/../../pif/source/core/pif.o (symbol from plugin)
                                                  /tmp/cclQ5C5v.ltrans13.ltrans.o
                                                  /tmp/cclQ5C5v.ltrans0.ltrans.o
                                                  obj/main/NAZE/../../pif/source/sensor/pif_qmc5883.o (symbol from plugin)
                                                  obj/main/NAZE/../../pif/source/sensor/pif_mpu6500.o (symbol from plugin)
                                                  obj/main/NAZE/../../pif/source/sensor/pif_hc_sr04.o (symbol from plugin)
                                                  obj/main/NAZE/../../pif/source/sensor/pif_bmp280.o (symbol from plugin)
                                                  obj/main/NAZE/../../pif/source/rc/pif_rc_ppm.o (symbol from plugin)
                                                  obj/main/NAZE/../../pif/source/core/pif_timer.o (symbol from plugin)
                                                  obj/main/NAZE/../../pif/source/core/pif_task.o (symbol from plugin)
                                                  obj/main/NAZE/../../pif/source/core/pif_obj_array.o (symbol from plugin)
                                                  obj/main/NAZE/../../pif/source/communication/pif_i2c.o (symbol from plugin)
pif_id                                            /tmp/cclQ5C5v.ltrans21.ltrans.o
                                                  obj/main/NAZE/../../pif/source/core/pif.o (symbol from plugin)
                                                  /tmp/cclQ5C5v.ltrans18.ltrans.o
                                                  /tmp/cclQ5C5v.ltrans15.ltrans.o
                                                  /tmp/cclQ5C5v.ltrans13.ltrans.o
                                                  /tmp/cclQ5C5v.ltrans4.ltrans.o
                                                  /tmp/cclQ5C5v.ltrans0.ltrans.o
                                                  obj/main/NAZE/../../pif/source/sensor/pif_qmc5883.o (symbol from plugin)
                                                  obj/main/NAZE/../../pif/source/sensor/pif_mpu6500.o (symbol from plugin)
                                                  obj/main/NAZE/../../pif/source/sensor/pif_hc_sr04.o (symbol from plugin)
                                                  obj/main/NAZE/../../pif/source/sensor/pif_bmp280.o (symbol from plugin)
                                                  obj/main/NAZE/../../pif/source/rc/pif_rc_ppm.o (symbol from plugin)
                                                  obj/main/NAZE/../../pif/source/core/pif_timer.o (symbol from plugin)
                                                  obj/main/NAZE/../../pif/source/core/pif_task.o (symbol from plugin)
                                                  obj/main/NAZE/../../pif/source/communication/pif_i2c.o (symbol from plugin)
pif_performance                                   /tmp/cclQ5C5v.ltrans24.ltrans.o
                                                  obj/main/NAZE/../../pif/source/core/pif.o (symbol from plugin)
                                                  /tmp/cclQ5C5v.ltrans18.ltrans.o
                                                  /tmp/cclQ5C5v.ltrans14.ltrans.o
                                                  /tmp/cclQ5C5v.ltrans2.ltrans.o
                                                  /tmp/cclQ5C5v.ltrans1.ltrans.o
                                                  obj/main/NAZE/../../pif/source/core/pif_task.o (symbol from plugin)
                                                  obj/main/NAZE/../controller/io/serial_msp.o (symbol from plugin)
                                                  obj/main/NAZE/../controller/io/serial_cli.o (symbol from plugin)
                                                  obj/main/NAZE/../controller/mw.o (symbol from plugin)
pif_sigTimer1ms                                   obj/main/NAZE/../../pif/source/core/pif.o (symbol from plugin)
                                                  obj/main/NAZE/drivers/system.o (symbol from plugin)
pif_timer1ms                                      obj/main/NAZE/../../pif/source/core/pif.o (symbol from plugin)
pif_timer1sec                                     obj/main/NAZE/../../pif/source/core/pif.o (symbol from plugin)
pif_timer1us                                      /tmp/cclQ5C5v.ltrans22.ltrans.o
                                                  obj/main/NAZE/../../pif/source/core/pif.o (symbol from plugin)
                                                  /tmp/cclQ5C5v.ltrans27.ltrans.o
                                                  /tmp/cclQ5C5v.ltrans18.ltrans.o
                                                  /tmp/cclQ5C5v.ltrans10.ltrans.o
                                                  /tmp/cclQ5C5v.ltrans3.ltrans.o
                                                  /tmp/cclQ5C5v.ltrans1.ltrans.o
                                                  obj/main/NAZE/../../pif/source/core/pif_task.o (symbol from plugin)
                                                  obj/main/NAZE/../controller/sensors/compass.o (symbol from plugin)
                                                  obj/main/NAZE/../controller/mw.o (symbol from plugin)
                                                  obj/main/NAZE/../controller/blackbox/blackbox.o (symbol from plugin)
portConfig.lto_priv.444                           /tmp/cclQ5C5v.ltrans0.ltrans.o
                                                  /tmp/cclQ5C5v.ltrans25.ltrans.o
portConfig.lto_priv.445                           /tmp/cclQ5C5v.ltrans5.ltrans.o
                                                  /tmp/cclQ5C5v.ltrans25.ltrans.o
                                                  /tmp/cclQ5C5v.ltrans0.ltrans.o
portConfig.lto_priv.446                           /tmp/cclQ5C5v.ltrans0.ltrans.o
                                                  /tmp/cclQ5C5v.ltrans25.ltrans.o
portConfig.lto_priv.447                           /tmp/cclQ5C5v.ltrans0.ltrans.o
                                                  /tmp/cclQ5C5v.ltrans25.ltrans.o
posholdPID_PARAM.lto_priv.581                     /tmp/cclQ5C5v.ltrans11.ltrans.o
                                                  /tmp/cclQ5C5v.ltrans17.ltrans.o
poshold_ratePID.lto_priv.570                      /tmp/cclQ5C5v.ltrans3.ltrans.o
                                                  /tmp/cclQ5C5v.ltrans11.ltrans.o
poshold_ratePID_PARAM.lto_priv.582                /tmp/cclQ5C5v.ltrans11.ltrans.o
                                                  /tmp/cclQ5C5v.ltrans17.ltrans.o
powf                                              /usr/lib/gcc/arm-none-eabi/4.9.3/../../../arm-none-eabi/lib/armv7-m/libm.a(lib_a-wf_pow.o)
                                                  /tmp/cclQ5C5v.ltrans22.ltrans.o
ppmAvoidPWMTimerClash                             obj/main/NAZE/drivers/pwm_rx.o (symbol from plugin)
ppmComplete.lto_priv.594                          /tmp/cclQ5C5v.ltrans3.ltrans.o
                                                  /tmp/cclQ5C5v.ltrans20.ltrans.o
ppmEdgeCallback.lto_priv.495                      /tmp/cclQ5C5v.ltrans20.ltrans.o
                                                  /tmp/cclQ5C5v.ltrans0.ltrans.o
ppmInConfig                                       obj/main/NAZE/drivers/pwm_rx.o (symbol from plugin)
                                                  obj/main/NAZE/drivers/pwm_mapping.o (symbol from plugin)
ppmOverflowCallback.lto_priv.496                  /tmp/cclQ5C5v.ltrans20.ltrans.o
                                                  /tmp/cclQ5C5v.ltrans0.ltrans.o
ppmRead                                           obj/main/NAZE/drivers/pwm_rx.o (symbol from plugin)
                                                  obj/main/NAZE/../controller/rx/pwm.o (symbol from plugin)
ppmReadRawRC.lto_priv.476                         /tmp/cclQ5C5v.ltrans8.ltrans.o
                                                  /tmp/cclQ5C5v.ltrans0.ltrans.o
prepareForNextRxByte                              obj/main/NAZE/drivers/serial_softserial.o (symbol from plugin)
printfSerialPort.lto_priv.532                     /tmp/cclQ5C5v.ltrans2.ltrans.o
                                                  /tmp/cclQ5C5v.ltrans6.ltrans.o
printfSupportInit                                 obj/main/NAZE/../controller/common/printf.o (symbol from plugin)
                                                  obj/main/NAZE/main.o (symbol from plugin)
processRcAdjustments                              obj/main/NAZE/../controller/io/rc_controls.o (symbol from plugin)
                                                  obj/main/NAZE/../controller/mw.o (symbol from plugin)
processRcStickPositions                           obj/main/NAZE/../controller/io/rc_controls.o (symbol from plugin)
                                                  obj/main/NAZE/../controller/mw.o (symbol from plugin)
processRx                                         obj/main/NAZE/../controller/mw.o (symbol from plugin)
processRxState                                    obj/main/NAZE/drivers/serial_softserial.o (symbol from plugin)
processTxState                                    obj/main/NAZE/drivers/serial_softserial.o (symbol from plugin)
pwmBrushedMotorConfig                             obj/main/NAZE/drivers/pwm_output.o (symbol from plugin)
                                                  obj/main/NAZE/drivers/pwm_mapping.o (symbol from plugin)
pwmBrushlessMotorConfig                           obj/main/NAZE/drivers/pwm_output.o (symbol from plugin)
                                                  obj/main/NAZE/drivers/pwm_mapping.o (symbol from plugin)
pwmCompleteOneshotMotorUpdate                     obj/main/NAZE/drivers/pwm_output.o (symbol from plugin)
                                                  obj/main/NAZE/../controller/flight/mixer.o (symbol from plugin)
pwmEdgeCallback.lto_priv.493                      /tmp/cclQ5C5v.ltrans20.ltrans.o
                                                  /tmp/cclQ5C5v.ltrans0.ltrans.o
pwmGetOutputConfiguration                         obj/main/NAZE/drivers/pwm_mapping.o (symbol from plugin)
                                                  obj/main/NAZE/../controller/io/serial_1wire.o (symbol from plugin)
pwmICConfig                                       /tmp/cclQ5C5v.ltrans20.ltrans.o
                                                  obj/main/NAZE/drivers/pwm_rx.o (symbol from plugin)
                                                  /tmp/cclQ5C5v.ltrans0.ltrans.o
pwmIOConfiguration.lto_priv.489                   /tmp/cclQ5C5v.ltrans2.ltrans.o
                                                  /tmp/cclQ5C5v.ltrans0.ltrans.o
pwmInConfig                                       obj/main/NAZE/drivers/pwm_rx.o (symbol from plugin)
                                                  obj/main/NAZE/drivers/pwm_mapping.o (symbol from plugin)
pwmInit                                           obj/main/NAZE/drivers/pwm_mapping.o (symbol from plugin)
                                                  obj/main/NAZE/main.o (symbol from plugin)
pwmOneshotMotorConfig                             obj/main/NAZE/drivers/pwm_output.o (symbol from plugin)
                                                  obj/main/NAZE/drivers/pwm_mapping.o (symbol from plugin)
pwmOutConfig.lto_priv.530                         /tmp/cclQ5C5v.ltrans20.ltrans.o
                                                  /tmp/cclQ5C5v.ltrans0.ltrans.o
pwmOverflowCallback.lto_priv.494                  /tmp/cclQ5C5v.ltrans20.ltrans.o
                                                  /tmp/cclQ5C5v.ltrans0.ltrans.o
pwmRead                                           obj/main/NAZE/drivers/pwm_rx.o (symbol from plugin)
                                                  obj/main/NAZE/../controller/rx/pwm.o (symbol from plugin)
pwmReadRawRC.lto_priv.475                         /tmp/cclQ5C5v.ltrans8.ltrans.o
                                                  /tmp/cclQ5C5v.ltrans0.ltrans.o
pwmRxInit                                         obj/main/NAZE/drivers/pwm_rx.o (symbol from plugin)
                                                  obj/main/NAZE/main.o (symbol from plugin)
pwmServoConfig                                    obj/main/NAZE/drivers/pwm_output.o (symbol from plugin)
                                                  obj/main/NAZE/drivers/pwm_mapping.o (symbol from plugin)
pwmShutdownPulsesForAllMotors                     obj/main/NAZE/drivers/pwm_output.o (symbol from plugin)
                                                  obj/main/NAZE/../controller/flight/mixer.o (symbol from plugin)
pwmWriteBrushed.lto_priv.492                      /tmp/cclQ5C5v.ltrans20.ltrans.o
                                                  /tmp/cclQ5C5v.ltrans0.ltrans.o
pwmWriteMotor                                     obj/main/NAZE/drivers/pwm_output.o (symbol from plugin)
                                                  obj/main/NAZE/../controller/flight/mixer.o (symbol from plugin)
pwmWriteServo                                     /tmp/cclQ5C5v.ltrans20.ltrans.o
                                                  obj/main/NAZE/drivers/pwm_output.o (symbol from plugin)
                                                  /tmp/cclQ5C5v.ltrans1.ltrans.o
                                                  obj/main/NAZE/../controller/flight/mixer.o (symbol from plugin)
pwmWriteStandard.lto_priv.491                     /tmp/cclQ5C5v.ltrans20.ltrans.o
                                                  /tmp/cclQ5C5v.ltrans0.ltrans.o
q0.lto_priv.406                                   /tmp/cclQ5C5v.ltrans14.ltrans.o
                                                  /tmp/cclQ5C5v.ltrans1.ltrans.o
q1.lto_priv.407                                   /tmp/cclQ5C5v.ltrans14.ltrans.o
                                                  /tmp/cclQ5C5v.ltrans1.ltrans.o
q2.lto_priv.408                                   /tmp/cclQ5C5v.ltrans14.ltrans.o
                                                  /tmp/cclQ5C5v.ltrans1.ltrans.o
q3.lto_priv.409                                   /tmp/cclQ5C5v.ltrans14.ltrans.o
                                                  /tmp/cclQ5C5v.ltrans1.ltrans.o
qmc5883lDetect                                    obj/main/NAZE/drivers/compass_qmc5883l.o (symbol from plugin)
                                                  obj/main/NAZE/../controller/sensors/initialisation.o (symbol from plugin)
qmc5883lInit                                      /tmp/cclQ5C5v.ltrans15.ltrans.o
                                                  obj/main/NAZE/drivers/compass_qmc5883l.o (symbol from plugin)
                                                  /tmp/cclQ5C5v.ltrans0.ltrans.o
qmc5883lRead                                      /tmp/cclQ5C5v.ltrans15.ltrans.o
                                                  obj/main/NAZE/drivers/compass_qmc5883l.o (symbol from plugin)
                                                  /tmp/cclQ5C5v.ltrans0.ltrans.o
quickMedianFilter3                                obj/main/NAZE/../controller/common/maths.o (symbol from plugin)
                                                  obj/main/NAZE/../controller/sensors/barometer.o (symbol from plugin)
quickMedianFilter5                                obj/main/NAZE/../controller/common/maths.o (symbol from plugin)
                                                  obj/main/NAZE/../controller/sensors/sonar.o (symbol from plugin)
quickMedianFilter7                                obj/main/NAZE/../controller/common/maths.o (symbol from plugin)
quickMedianFilter9                                obj/main/NAZE/../controller/common/maths.o (symbol from plugin)
rMat.lto_priv.309                                 /tmp/cclQ5C5v.ltrans14.ltrans.o
                                                  /tmp/cclQ5C5v.ltrans22.ltrans.o
                                                  /tmp/cclQ5C5v.ltrans1.ltrans.o
rcAliasToAngleIndexMap                            obj/main/NAZE/../controller/flight/pid.o (symbol from plugin)
rcChannelLetters                                  /tmp/cclQ5C5v.ltrans21.ltrans.o
                                                  obj/main/NAZE/../controller/rx/rx.o (symbol from plugin)
                                                  /tmp/cclQ5C5v.ltrans12.ltrans.o
                                                  obj/main/NAZE/../controller/io/serial_cli.o (symbol from plugin)
                                                  obj/main/NAZE/../controller/io/display.o (symbol from plugin)
rcCommand                                         /tmp/cclQ5C5v.ltrans14.ltrans.o
                                                  obj/main/NAZE/../controller/io/rc_controls.o (symbol from plugin)
                                                  /tmp/cclQ5C5v.ltrans27.ltrans.o
                                                  /tmp/cclQ5C5v.ltrans26.ltrans.o
                                                  /tmp/cclQ5C5v.ltrans17.ltrans.o
                                                  /tmp/cclQ5C5v.ltrans10.ltrans.o
                                                  /tmp/cclQ5C5v.ltrans9.ltrans.o
                                                  /tmp/cclQ5C5v.ltrans5.ltrans.o
                                                  /tmp/cclQ5C5v.ltrans3.ltrans.o
                                                  /tmp/cclQ5C5v.ltrans1.ltrans.o
                                                  obj/main/NAZE/../controller/sensors/battery.o (symbol from plugin)
                                                  obj/main/NAZE/../controller/flight/mixer.o (symbol from plugin)
                                                  obj/main/NAZE/../controller/flight/pid.o (symbol from plugin)
                                                  obj/main/NAZE/../controller/flight/altitudehold.o (symbol from plugin)
                                                  obj/main/NAZE/../controller/mw.o (symbol from plugin)
                                                  obj/main/NAZE/../controller/blackbox/blackbox.o (symbol from plugin)
                                                  obj/main/NAZE/../controller/telemetry/frsky.o (symbol from plugin)
                                                  obj/main/NAZE/../controller/io/ledstrip.o (symbol from plugin)
                                                  obj/main/NAZE/../controller/flight/gtune.o (symbol from plugin)
rcControlsConfig.lto_priv.535                     /tmp/cclQ5C5v.ltrans1.ltrans.o
                                                  /tmp/cclQ5C5v.ltrans6.ltrans.o
rcData                                            /tmp/cclQ5C5v.ltrans21.ltrans.o
                                                  obj/main/NAZE/../controller/rx/rx.o (symbol from plugin)
                                                  /tmp/cclQ5C5v.ltrans26.ltrans.o
                                                  /tmp/cclQ5C5v.ltrans14.ltrans.o
                                                  /tmp/cclQ5C5v.ltrans9.ltrans.o
                                                  /tmp/cclQ5C5v.ltrans8.ltrans.o
                                                  /tmp/cclQ5C5v.ltrans3.ltrans.o
                                                  /tmp/cclQ5C5v.ltrans2.ltrans.o
                                                  /tmp/cclQ5C5v.ltrans1.ltrans.o
                                                  /tmp/cclQ5C5v.ltrans0.ltrans.o
                                                  obj/main/NAZE/../controller/io/serial_msp.o (symbol from plugin)
                                                  obj/main/NAZE/../controller/io/rc_controls.o (symbol from plugin)
                                                  obj/main/NAZE/../controller/flight/mixer.o (symbol from plugin)
                                                  obj/main/NAZE/../controller/flight/failsafe.o (symbol from plugin)
                                                  obj/main/NAZE/../controller/flight/altitudehold.o (symbol from plugin)
                                                  obj/main/NAZE/../controller/mw.o (symbol from plugin)
                                                  obj/main/NAZE/../controller/io/display.o (symbol from plugin)
                                                  obj/main/NAZE/../controller/io/ledstrip.o (symbol from plugin)
rcFrameComplete.lto_priv.340                      /tmp/cclQ5C5v.ltrans8.ltrans.o
                                                  /tmp/cclQ5C5v.ltrans3.ltrans.o
rcInvalidPulsPeriod                               /tmp/cclQ5C5v.ltrans3.ltrans.o
                                                  obj/main/NAZE/../controller/rx/rx.o (symbol from plugin)
                                                  /tmp/cclQ5C5v.ltrans0.ltrans.o
rcModeActivationMask                              /tmp/cclQ5C5v.ltrans8.ltrans.o
                                                  obj/main/NAZE/../controller/io/rc_controls.o (symbol from plugin)
                                                  /tmp/cclQ5C5v.ltrans27.ltrans.o
                                                  /tmp/cclQ5C5v.ltrans26.ltrans.o
                                                  /tmp/cclQ5C5v.ltrans25.ltrans.o
                                                  /tmp/cclQ5C5v.ltrans18.ltrans.o
                                                  /tmp/cclQ5C5v.ltrans14.ltrans.o
                                                  /tmp/cclQ5C5v.ltrans9.ltrans.o
                                                  /tmp/cclQ5C5v.ltrans3.ltrans.o
                                                  /tmp/cclQ5C5v.ltrans1.ltrans.o
                                                  obj/main/NAZE/../controller/rx/rx.o (symbol from plugin)
                                                  obj/main/NAZE/../controller/io/serial_msp.o (symbol from plugin)
                                                  obj/main/NAZE/../controller/io/beeper.o (symbol from plugin)
                                                  obj/main/NAZE/../controller/flight/mixer.o (symbol from plugin)
                                                  obj/main/NAZE/../controller/flight/pid.o (symbol from plugin)
                                                  obj/main/NAZE/../controller/flight/failsafe.o (symbol from plugin)
                                                  obj/main/NAZE/../controller/flight/altitudehold.o (symbol from plugin)
                                                  obj/main/NAZE/../controller/mw.o (symbol from plugin)
                                                  obj/main/NAZE/../controller/blackbox/blackbox.o (symbol from plugin)
                                                  obj/main/NAZE/../controller/telemetry/telemetry.o (symbol from plugin)
                                                  obj/main/NAZE/../controller/io/ledstrip.o (symbol from plugin)
                                                  obj/main/NAZE/../controller/flight/navigation.o (symbol from plugin)
rcRaw                                             obj/main/NAZE/../controller/rx/rx.o (symbol from plugin)
rcReadRawFunc.lto_priv.323                        /tmp/cclQ5C5v.ltrans21.ltrans.o
                                                  /tmp/cclQ5C5v.ltrans3.ltrans.o
                                                  /tmp/cclQ5C5v.ltrans0.ltrans.o
rcSampleIndex.lto_priv.457                        /tmp/cclQ5C5v.ltrans3.ltrans.o
                                                  /tmp/cclQ5C5v.ltrans0.ltrans.o
read16.lto_priv.386                               /tmp/cclQ5C5v.ltrans24.ltrans.o
                                                  /tmp/cclQ5C5v.ltrans2.ltrans.o
read32.lto_priv.387                               /tmp/cclQ5C5v.ltrans24.ltrans.o
                                                  /tmp/cclQ5C5v.ltrans2.ltrans.o
read8.lto_priv.385                                /tmp/cclQ5C5v.ltrans24.ltrans.o
                                                  /tmp/cclQ5C5v.ltrans2.ltrans.o
readEEPROM                                        /tmp/cclQ5C5v.ltrans6.ltrans.o
                                                  obj/main/NAZE/../controller/config/config.o (symbol from plugin)
                                                  /tmp/cclQ5C5v.ltrans24.ltrans.o
                                                  /tmp/cclQ5C5v.ltrans3.ltrans.o
                                                  /tmp/cclQ5C5v.ltrans2.ltrans.o
                                                  /tmp/cclQ5C5v.ltrans0.ltrans.o
                                                  obj/main/NAZE/../controller/io/serial_msp.o (symbol from plugin)
                                                  obj/main/NAZE/../controller/io/serial_cli.o (symbol from plugin)
                                                  obj/main/NAZE/main.o (symbol from plugin)
readEEPROMAndNotify                               obj/main/NAZE/../controller/config/config.o (symbol from plugin)
reconfigureAlignment                              obj/main/NAZE/../controller/sensors/initialisation.o (symbol from plugin)
reevalulateLedConfig                              /tmp/cclQ5C5v.ltrans19.ltrans.o
                                                  obj/main/NAZE/../controller/io/ledstrip.o (symbol from plugin)
                                                  /tmp/cclQ5C5v.ltrans23.ltrans.o
                                                  /tmp/cclQ5C5v.ltrans7.ltrans.o
                                                  /tmp/cclQ5C5v.ltrans2.ltrans.o
                                                  /tmp/cclQ5C5v.ltrans0.ltrans.o
                                                  obj/main/NAZE/../controller/io/serial_msp.o (symbol from plugin)
registerExtiCallbackHandler                       obj/main/NAZE/drivers/system.o (symbol from plugin)
                                                  obj/main/NAZE/drivers/compass_hmc5883l.o (symbol from plugin)
                                                  obj/main/NAZE/drivers/barometer_bmp085.o (symbol from plugin)
                                                  obj/main/NAZE/drivers/accgyro_mpu.o (symbol from plugin)
releaseSharedTelemetryPorts                       obj/main/NAZE/../controller/mw.o (symbol from plugin)
rescheduleTask                                    obj/main/NAZE/../controller/scheduler.o (symbol from plugin)
                                                  obj/main/NAZE/main.o (symbol from plugin)
rescheduleTask.part.0.constprop.58                /tmp/cclQ5C5v.ltrans21.ltrans.o
                                                  /tmp/cclQ5C5v.ltrans18.ltrans.o
resetAdjustmentStates                             obj/main/NAZE/../controller/io/rc_controls.o (symbol from plugin)
                                                  obj/main/NAZE/../controller/config/config.o (symbol from plugin)
resetAllRxChannelRangeConfigurations              obj/main/NAZE/../controller/rx/rx.o (symbol from plugin)
                                                  obj/main/NAZE/../controller/io/serial_cli.o (symbol from plugin)
                                                  obj/main/NAZE/../controller/config/config.o (symbol from plugin)
resetBarometerConfig                              obj/main/NAZE/../controller/config/config.o (symbol from plugin)
resetConf.lto_priv.234                            /tmp/cclQ5C5v.ltrans23.ltrans.o
                                                  /tmp/cclQ5C5v.ltrans24.ltrans.o
                                                  /tmp/cclQ5C5v.ltrans2.ltrans.o
                                                  /tmp/cclQ5C5v.ltrans0.ltrans.o
resetDisplay                                      obj/main/NAZE/../controller/io/display.o (symbol from plugin)
resetEEPROM                                       obj/main/NAZE/../controller/config/config.o (symbol from plugin)
                                                  obj/main/NAZE/../controller/io/serial_msp.o (symbol from plugin)
                                                  obj/main/NAZE/../controller/io/serial_cli.o (symbol from plugin)
resetEscAndServoConfig                            obj/main/NAZE/../controller/config/config.o (symbol from plugin)
resetFlight3DConfig                               obj/main/NAZE/../controller/config/config.o (symbol from plugin)
resetGpsProfile                                   obj/main/NAZE/../controller/config/config.o (symbol from plugin)
resetPPMDataReceivedState                         obj/main/NAZE/drivers/pwm_rx.o (symbol from plugin)
                                                  obj/main/NAZE/../controller/rx/rx.o (symbol from plugin)
resetPidProfile                                   obj/main/NAZE/../controller/config/config.o (symbol from plugin)
                                                  obj/main/NAZE/../controller/io/serial_msp.o (symbol from plugin)
resetRcControlsConfig                             obj/main/NAZE/../controller/config/config.o (symbol from plugin)
resetRollAndPitchTrims                            obj/main/NAZE/../controller/sensors/acceleration.o (symbol from plugin)
                                                  obj/main/NAZE/../controller/config/config.o (symbol from plugin)
resetSerialConfig                                 obj/main/NAZE/../controller/config/config.o (symbol from plugin)
resetSerialConfig.constprop.74                    /tmp/cclQ5C5v.ltrans21.ltrans.o
                                                  /tmp/cclQ5C5v.ltrans23.ltrans.o
                                                  /tmp/cclQ5C5v.ltrans6.ltrans.o
resumeRxSignal                                    /tmp/cclQ5C5v.ltrans8.ltrans.o
                                                  obj/main/NAZE/../controller/rx/rx.o (symbol from plugin)
                                                  /tmp/cclQ5C5v.ltrans6.ltrans.o
                                                  obj/main/NAZE/../controller/config/config.o (symbol from plugin)
rint                                              /usr/lib/gcc/arm-none-eabi/4.9.3/../../../arm-none-eabi/lib/armv7-m/libm.a(lib_a-s_rint.o)
                                                  /usr/lib/gcc/arm-none-eabi/4.9.3/../../../arm-none-eabi/lib/armv7-m/libm.a(lib_a-wf_pow.o)
rotateV                                           obj/main/NAZE/../controller/common/maths.o (symbol from plugin)
rssi                                              /tmp/cclQ5C5v.ltrans5.ltrans.o
                                                  obj/main/NAZE/../controller/rx/rx.o (symbol from plugin)
                                                  /tmp/cclQ5C5v.ltrans10.ltrans.o
                                                  /tmp/cclQ5C5v.ltrans3.ltrans.o
                                                  /tmp/cclQ5C5v.ltrans2.ltrans.o
                                                  obj/main/NAZE/../controller/io/serial_msp.o (symbol from plugin)
                                                  obj/main/NAZE/../controller/blackbox/blackbox.o (symbol from plugin)
                                                  obj/main/NAZE/../controller/telemetry/ltm.o (symbol from plugin)
rxAreFlightChannelsValid                          obj/main/NAZE/../controller/rx/rx.o (symbol from plugin)
                                                  obj/main/NAZE/../controller/blackbox/blackbox.o (symbol from plugin)
                                                  obj/main/NAZE/../controller/io/display.o (symbol from plugin)
rxConfig.lto_priv.318                             /tmp/cclQ5C5v.ltrans3.ltrans.o
                                                  /tmp/cclQ5C5v.ltrans0.ltrans.o
rxConfig.lto_priv.319                             /tmp/cclQ5C5v.ltrans8.ltrans.o
                                                  /tmp/cclQ5C5v.ltrans6.ltrans.o
                                                  /tmp/cclQ5C5v.ltrans3.ltrans.o
                                                  /tmp/cclQ5C5v.ltrans0.ltrans.o
rxConfig.lto_priv.538                             /tmp/cclQ5C5v.ltrans1.ltrans.o
                                                  /tmp/cclQ5C5v.ltrans6.ltrans.o
rxFlightChannelsValid.lto_priv.553                /tmp/cclQ5C5v.ltrans3.ltrans.o
                                                  /tmp/cclQ5C5v.ltrans19.ltrans.o
                                                  /tmp/cclQ5C5v.ltrans10.ltrans.o
rxInit                                            obj/main/NAZE/../controller/rx/rx.o (symbol from plugin)
                                                  obj/main/NAZE/main.o (symbol from plugin)
rxIsReceivingSignal                               obj/main/NAZE/../controller/rx/rx.o (symbol from plugin)
                                                  obj/main/NAZE/../controller/io/rc_controls.o (symbol from plugin)
                                                  obj/main/NAZE/../controller/blackbox/blackbox.o (symbol from plugin)
                                                  obj/main/NAZE/../controller/io/display.o (symbol from plugin)
                                                  obj/main/NAZE/../controller/io/ledstrip.o (symbol from plugin)
rxMspFrameComplete                                obj/main/NAZE/../controller/rx/msp.o (symbol from plugin)
                                                  obj/main/NAZE/../controller/rx/rx.o (symbol from plugin)
rxMspFrameDone.lto_priv.360                       /tmp/cclQ5C5v.ltrans3.ltrans.o
                                                  /tmp/cclQ5C5v.ltrans2.ltrans.o
rxMspFrameReceive                                 obj/main/NAZE/../controller/rx/msp.o (symbol from plugin)
                                                  obj/main/NAZE/../controller/io/serial_msp.o (symbol from plugin)
rxMspInit                                         obj/main/NAZE/../controller/rx/msp.o (symbol from plugin)
                                                  obj/main/NAZE/../controller/rx/rx.o (symbol from plugin)
rxMspReadRawRC.lto_priv.474                       /tmp/cclQ5C5v.ltrans8.ltrans.o
                                                  /tmp/cclQ5C5v.ltrans0.ltrans.o
rxPwmInit                                         obj/main/NAZE/../controller/rx/pwm.o (symbol from plugin)
                                                  obj/main/NAZE/../controller/rx/rx.o (symbol from plugin)
rxRefreshRate.lto_priv.458                        /tmp/cclQ5C5v.ltrans1.ltrans.o
                                                  /tmp/cclQ5C5v.ltrans0.ltrans.o
rxRuntimeConfig                                   /tmp/cclQ5C5v.ltrans21.ltrans.o
                                                  obj/main/NAZE/../controller/rx/rx.o (symbol from plugin)
                                                  /tmp/cclQ5C5v.ltrans19.ltrans.o
                                                  /tmp/cclQ5C5v.ltrans14.ltrans.o
                                                  /tmp/cclQ5C5v.ltrans3.ltrans.o
                                                  /tmp/cclQ5C5v.ltrans2.ltrans.o
                                                  /tmp/cclQ5C5v.ltrans0.ltrans.o
                                                  obj/main/NAZE/../controller/io/serial_msp.o (symbol from plugin)
                                                  obj/main/NAZE/../controller/flight/mixer.o (symbol from plugin)
                                                  obj/main/NAZE/../controller/io/display.o (symbol from plugin)
rxRuntimeConfigPtr.lto_priv.343                   /tmp/cclQ5C5v.ltrans21.ltrans.o
                                                  /tmp/cclQ5C5v.ltrans3.ltrans.o
rxSignalReceived.lto_priv.313                     /tmp/cclQ5C5v.ltrans9.ltrans.o
                                                  /tmp/cclQ5C5v.ltrans19.ltrans.o
                                                  /tmp/cclQ5C5v.ltrans10.ltrans.o
                                                  /tmp/cclQ5C5v.ltrans3.ltrans.o
s_hcsr04.lto_priv.599                             /tmp/cclQ5C5v.ltrans0.ltrans.o
                                                  /tmp/cclQ5C5v.ltrans15.ltrans.o
s_it_current.lto_priv.429                         /tmp/cclQ5C5v.ltrans13.ltrans.o
                                                  /tmp/cclQ5C5v.ltrans18.ltrans.o
s_rc_ppm.lto_priv.593                             /tmp/cclQ5C5v.ltrans0.ltrans.o
                                                  /tmp/cclQ5C5v.ltrans20.ltrans.o
s_table.lto_priv.433                              /tmp/cclQ5C5v.ltrans13.ltrans.o
                                                  /tmp/cclQ5C5v.ltrans18.ltrans.o
s_table_number.lto_priv.432                       /tmp/cclQ5C5v.ltrans13.ltrans.o
                                                  /tmp/cclQ5C5v.ltrans18.ltrans.o
s_task_cutin.lto_priv.430                         /tmp/cclQ5C5v.ltrans13.ltrans.o
                                                  /tmp/cclQ5C5v.ltrans18.ltrans.o
s_task_stack_ptr.lto_priv.431                     /tmp/cclQ5C5v.ltrans13.ltrans.o
                                                  /tmp/cclQ5C5v.ltrans18.ltrans.o
s_tasks.lto_priv.232                              /tmp/cclQ5C5v.ltrans13.ltrans.o
                                                  /tmp/cclQ5C5v.ltrans24.ltrans.o
                                                  /tmp/cclQ5C5v.ltrans18.ltrans.o
saveConfigAndNotify                               /tmp/cclQ5C5v.ltrans6.ltrans.o
                                                  obj/main/NAZE/../controller/config/config.o (symbol from plugin)
                                                  /tmp/cclQ5C5v.ltrans28.ltrans.o
                                                  /tmp/cclQ5C5v.ltrans22.ltrans.o
                                                  /tmp/cclQ5C5v.ltrans3.ltrans.o
                                                  /tmp/cclQ5C5v.ltrans0.ltrans.o
                                                  obj/main/NAZE/../controller/sensors/compass.o (symbol from plugin)
                                                  obj/main/NAZE/../controller/sensors/acceleration.o (symbol from plugin)
                                                  obj/main/NAZE/../controller/rx/spektrum.o (symbol from plugin)
                                                  obj/main/NAZE/../controller/io/rc_controls.o (symbol from plugin)
                                                  obj/main/NAZE/../controller/mw.o (symbol from plugin)
sbusChannelData.lto_priv.339                      /tmp/cclQ5C5v.ltrans8.ltrans.o
                                                  /tmp/cclQ5C5v.ltrans3.ltrans.o
                                                  /tmp/cclQ5C5v.ltrans0.ltrans.o
sbusDataReceive.lto_priv.460                      /tmp/cclQ5C5v.ltrans8.ltrans.o
                                                  /tmp/cclQ5C5v.ltrans0.ltrans.o
sbusFrame.lto_priv.338                            /tmp/cclQ5C5v.ltrans8.ltrans.o
                                                  /tmp/cclQ5C5v.ltrans3.ltrans.o
sbusFrameDone.lto_priv.337                        /tmp/cclQ5C5v.ltrans8.ltrans.o
                                                  /tmp/cclQ5C5v.ltrans3.ltrans.o
sbusFrameStatus                                   obj/main/NAZE/../controller/rx/sbus.o (symbol from plugin)
                                                  obj/main/NAZE/../controller/rx/rx.o (symbol from plugin)
sbusInit                                          obj/main/NAZE/../controller/rx/sbus.o (symbol from plugin)
                                                  obj/main/NAZE/../controller/rx/rx.o (symbol from plugin)
sbusReadRawRC.lto_priv.459                        /tmp/cclQ5C5v.ltrans8.ltrans.o
                                                  /tmp/cclQ5C5v.ltrans0.ltrans.o
scalbnf                                           /usr/lib/gcc/arm-none-eabi/4.9.3/../../../arm-none-eabi/lib/armv7-m/libm.a(lib_a-sf_scalbn.o)
                                                  /usr/lib/gcc/arm-none-eabi/4.9.3/../../../arm-none-eabi/lib/armv7-m/libm.a(lib_a-ef_pow.o)
scaleItermToRcInput                               /tmp/cclQ5C5v.ltrans26.ltrans.o
                                                  obj/main/NAZE/../controller/flight/pid.o (symbol from plugin)
                                                  /tmp/cclQ5C5v.ltrans14.ltrans.o
scaleLedValue                                     obj/main/NAZE/drivers/light_ws2811strip.o (symbol from plugin)
scaleRange                                        obj/main/NAZE/../controller/common/maths.o (symbol from plugin)
                                                  obj/main/NAZE/../controller/rx/rx.o (symbol from plugin)
                                                  obj/main/NAZE/../controller/flight/mixer.o (symbol from plugin)
                                                  obj/main/NAZE/../controller/io/ledstrip.o (symbol from plugin)
sectionTimes                                      obj/main/NAZE/debug.o (symbol from plugin)
selectMPUIntExtiConfig                            obj/main/NAZE/../controller/sensors/initialisation.o (symbol from plugin)
sendDataHead.lto_priv.296                         /tmp/cclQ5C5v.ltrans25.ltrans.o
                                                  /tmp/cclQ5C5v.ltrans5.ltrans.o
sendFieldDefinition.lto_priv.412                  /tmp/cclQ5C5v.ltrans10.ltrans.o
                                                  /tmp/cclQ5C5v.ltrans1.ltrans.o
sendLatLong.lto_priv.297                          /tmp/cclQ5C5v.ltrans25.ltrans.o
                                                  /tmp/cclQ5C5v.ltrans5.ltrans.o
sendTelemetryTail.lto_priv.294                    /tmp/cclQ5C5v.ltrans25.ltrans.o
                                                  /tmp/cclQ5C5v.ltrans5.ltrans.o
sensors                                           obj/main/NAZE/../controller/config/runtime_config.o (symbol from plugin)
                                                  obj/main/NAZE/../controller/sensors/initialisation.o (symbol from plugin)
                                                  obj/main/NAZE/../controller/io/serial_msp.o (symbol from plugin)
                                                  obj/main/NAZE/../controller/io/rc_controls.o (symbol from plugin)
                                                  obj/main/NAZE/../controller/flight/imu.o (symbol from plugin)
                                                  obj/main/NAZE/../controller/mw.o (symbol from plugin)
                                                  obj/main/NAZE/main.o (symbol from plugin)
                                                  obj/main/NAZE/../controller/blackbox/blackbox.o (symbol from plugin)
                                                  obj/main/NAZE/../controller/sensors/barometer.o (symbol from plugin)
                                                  obj/main/NAZE/../controller/telemetry/ltm.o (symbol from plugin)
                                                  obj/main/NAZE/../controller/telemetry/smartport.o (symbol from plugin)
                                                  obj/main/NAZE/../controller/telemetry/hott.o (symbol from plugin)
                                                  obj/main/NAZE/../controller/telemetry/frsky.o (symbol from plugin)
                                                  obj/main/NAZE/../controller/io/display.o (symbol from plugin)
sensorsAutodetect                                 obj/main/NAZE/../controller/sensors/initialisation.o (symbol from plugin)
                                                  obj/main/NAZE/main.o (symbol from plugin)
sensorsClear                                      obj/main/NAZE/../controller/config/runtime_config.o (symbol from plugin)
                                                  obj/main/NAZE/../controller/io/gps.o (symbol from plugin)
sensorsMask                                       obj/main/NAZE/../controller/config/runtime_config.o (symbol from plugin)
                                                  obj/main/NAZE/../controller/io/serial_cli.o (symbol from plugin)
sensorsSet                                        obj/main/NAZE/../controller/config/runtime_config.o (symbol from plugin)
                                                  obj/main/NAZE/../controller/sensors/initialisation.o (symbol from plugin)
                                                  obj/main/NAZE/../controller/sensors/sonar.o (symbol from plugin)
                                                  obj/main/NAZE/../controller/io/gps.o (symbol from plugin)
serialBeginWrite                                  obj/main/NAZE/drivers/serial.o (symbol from plugin)
                                                  obj/main/NAZE/../controller/io/serial_msp.o (symbol from plugin)
serialConfig.lto_priv.264                         /tmp/cclQ5C5v.ltrans21.ltrans.o
                                                  /tmp/cclQ5C5v.ltrans7.ltrans.o
                                                  /tmp/cclQ5C5v.ltrans2.ltrans.o
                                                  /tmp/cclQ5C5v.ltrans0.ltrans.o
serialEndWrite                                    obj/main/NAZE/drivers/serial.o (symbol from plugin)
                                                  obj/main/NAZE/../controller/io/serial_msp.o (symbol from plugin)
serialFindPortConfiguration                       /tmp/cclQ5C5v.ltrans7.ltrans.o
                                                  obj/main/NAZE/../controller/io/serial.o (symbol from plugin)
                                                  /tmp/cclQ5C5v.ltrans2.ltrans.o
                                                  obj/main/NAZE/../controller/io/serial_msp.o (symbol from plugin)
                                                  obj/main/NAZE/../controller/io/serial_cli.o (symbol from plugin)
serialGetAvailablePortCount                       obj/main/NAZE/../controller/io/serial.o (symbol from plugin)
                                                  obj/main/NAZE/../controller/io/serial_msp.o (symbol from plugin)
serialGetBaudRate                                 obj/main/NAZE/drivers/serial.o (symbol from plugin)
                                                  obj/main/NAZE/../controller/io/gps.o (symbol from plugin)
serialICConfig.lto_priv.591                       /tmp/cclQ5C5v.ltrans20.ltrans.o
                                                  /tmp/cclQ5C5v.ltrans16.ltrans.o
serialInit                                        obj/main/NAZE/../controller/io/serial.o (symbol from plugin)
                                                  obj/main/NAZE/main.o (symbol from plugin)
serialInputPortConfig                             obj/main/NAZE/drivers/serial_softserial.o (symbol from plugin)
serialIsPortAvailable                             obj/main/NAZE/../controller/io/serial.o (symbol from plugin)
                                                  obj/main/NAZE/../controller/io/serial_msp.o (symbol from plugin)
                                                  obj/main/NAZE/../controller/io/serial_cli.o (symbol from plugin)
serialPortCount.lto_priv.364                      /tmp/cclQ5C5v.ltrans7.ltrans.o
                                                  /tmp/cclQ5C5v.ltrans2.ltrans.o
                                                  /tmp/cclQ5C5v.ltrans0.ltrans.o
serialPortIdentifiers                             /tmp/cclQ5C5v.ltrans21.ltrans.o
                                                  obj/main/NAZE/../controller/io/serial.o (symbol from plugin)
                                                  /tmp/cclQ5C5v.ltrans0.ltrans.o
                                                  obj/main/NAZE/../controller/config/config.o (symbol from plugin)
serialPortUsageList.lto_priv.263                  /tmp/cclQ5C5v.ltrans21.ltrans.o
                                                  /tmp/cclQ5C5v.ltrans7.ltrans.o
                                                  /tmp/cclQ5C5v.ltrans2.ltrans.o
                                                  /tmp/cclQ5C5v.ltrans0.ltrans.o
serialPrint                                       obj/main/NAZE/drivers/serial.o (symbol from plugin)
                                                  obj/main/NAZE/../controller/io/gps.o (symbol from plugin)
serialRead                                        /tmp/cclQ5C5v.ltrans14.ltrans.o
                                                  obj/main/NAZE/drivers/serial.o (symbol from plugin)
                                                  /tmp/cclQ5C5v.ltrans25.ltrans.o
                                                  /tmp/cclQ5C5v.ltrans22.ltrans.o
                                                  /tmp/cclQ5C5v.ltrans12.ltrans.o
                                                  /tmp/cclQ5C5v.ltrans5.ltrans.o
                                                  /tmp/cclQ5C5v.ltrans2.ltrans.o
                                                  obj/main/NAZE/../controller/io/serial_msp.o (symbol from plugin)
                                                  obj/main/NAZE/../controller/io/serial_cli.o (symbol from plugin)
                                                  obj/main/NAZE/../controller/telemetry/smartport.o (symbol from plugin)
                                                  obj/main/NAZE/../controller/telemetry/hott.o (symbol from plugin)
                                                  obj/main/NAZE/../controller/io/gps.o (symbol from plugin)
serialRemovePort                                  /tmp/cclQ5C5v.ltrans7.ltrans.o
                                                  obj/main/NAZE/../controller/io/serial.o (symbol from plugin)
                                                  /tmp/cclQ5C5v.ltrans0.ltrans.o
                                                  obj/main/NAZE/main.o (symbol from plugin)
serialRxBytesWaiting                              /tmp/cclQ5C5v.ltrans14.ltrans.o
                                                  obj/main/NAZE/drivers/serial.o (symbol from plugin)
                                                  /tmp/cclQ5C5v.ltrans25.ltrans.o
                                                  /tmp/cclQ5C5v.ltrans22.ltrans.o
                                                  /tmp/cclQ5C5v.ltrans12.ltrans.o
                                                  /tmp/cclQ5C5v.ltrans5.ltrans.o
                                                  /tmp/cclQ5C5v.ltrans2.ltrans.o
                                                  obj/main/NAZE/../controller/io/serial_msp.o (symbol from plugin)
                                                  obj/main/NAZE/../controller/io/serial_cli.o (symbol from plugin)
                                                  obj/main/NAZE/../controller/telemetry/smartport.o (symbol from plugin)
                                                  obj/main/NAZE/../controller/telemetry/hott.o (symbol from plugin)
                                                  obj/main/NAZE/../controller/io/gps.o (symbol from plugin)
serialRxFrameStatus                               obj/main/NAZE/../controller/rx/rx.o (symbol from plugin)
serialRxInit                                      obj/main/NAZE/../controller/rx/rx.o (symbol from plugin)
serialSetBaudRate                                 /tmp/cclQ5C5v.ltrans14.ltrans.o
                                                  obj/main/NAZE/drivers/serial.o (symbol from plugin)
                                                  /tmp/cclQ5C5v.ltrans22.ltrans.o
                                                  obj/main/NAZE/../controller/io/gps.o (symbol from plugin)
serialSetMode                                     /tmp/cclQ5C5v.ltrans14.ltrans.o
                                                  obj/main/NAZE/drivers/serial.o (symbol from plugin)
                                                  /tmp/cclQ5C5v.ltrans12.ltrans.o
                                                  /tmp/cclQ5C5v.ltrans7.ltrans.o
                                                  /tmp/cclQ5C5v.ltrans5.ltrans.o
                                                  obj/main/NAZE/../controller/io/serial.o (symbol from plugin)
                                                  obj/main/NAZE/../controller/telemetry/hott.o (symbol from plugin)
                                                  obj/main/NAZE/../controller/io/gps.o (symbol from plugin)
serialTxBytesFree                                 obj/main/NAZE/drivers/serial.o (symbol from plugin)
                                                  obj/main/NAZE/../controller/blackbox/blackbox_io.o (symbol from plugin)
serialUSART1                                      obj/main/NAZE/drivers/serial_uart_stm32f10x.o (symbol from plugin)
                                                  obj/main/NAZE/drivers/serial_uart.o (symbol from plugin)
serialUSART2                                      obj/main/NAZE/drivers/serial_uart_stm32f10x.o (symbol from plugin)
                                                  obj/main/NAZE/drivers/serial_uart.o (symbol from plugin)
serialUSART3                                      obj/main/NAZE/drivers/serial_uart_stm32f10x.o (symbol from plugin)
                                                  obj/main/NAZE/drivers/serial_uart.o (symbol from plugin)
serialWrite                                       /tmp/cclQ5C5v.ltrans14.ltrans.o
                                                  obj/main/NAZE/drivers/serial.o (symbol from plugin)
                                                  /tmp/cclQ5C5v.ltrans25.ltrans.o
                                                  /tmp/cclQ5C5v.ltrans23.ltrans.o
                                                  /tmp/cclQ5C5v.ltrans22.ltrans.o
                                                  /tmp/cclQ5C5v.ltrans12.ltrans.o
                                                  /tmp/cclQ5C5v.ltrans10.ltrans.o
                                                  /tmp/cclQ5C5v.ltrans6.ltrans.o
                                                  /tmp/cclQ5C5v.ltrans5.ltrans.o
                                                  obj/main/NAZE/../controller/common/printf.o (symbol from plugin)
                                                  obj/main/NAZE/../controller/blackbox/blackbox_io.o (symbol from plugin)
                                                  obj/main/NAZE/../controller/telemetry/ltm.o (symbol from plugin)
                                                  obj/main/NAZE/../controller/telemetry/smartport.o (symbol from plugin)
                                                  obj/main/NAZE/../controller/telemetry/hott.o (symbol from plugin)
                                                  obj/main/NAZE/../controller/telemetry/frsky.o (symbol from plugin)
                                                  obj/main/NAZE/../controller/io/gps.o (symbol from plugin)
serialWriteBuf                                    obj/main/NAZE/drivers/serial.o (symbol from plugin)
serialWriteBufShim                                /tmp/cclQ5C5v.ltrans14.ltrans.o
                                                  obj/main/NAZE/drivers/serial.o (symbol from plugin)
                                                  /tmp/cclQ5C5v.ltrans2.ltrans.o
                                                  obj/main/NAZE/../controller/io/serial_msp.o (symbol from plugin)
                                                  obj/main/NAZE/../controller/io/serial_cli.o (symbol from plugin)
serialize16.lto_priv.295                          /tmp/cclQ5C5v.ltrans25.ltrans.o
                                                  /tmp/cclQ5C5v.ltrans5.ltrans.o
serialize16.lto_priv.388                          /tmp/cclQ5C5v.ltrans24.ltrans.o
                                                  /tmp/cclQ5C5v.ltrans2.ltrans.o
serialize32.lto_priv.389                          /tmp/cclQ5C5v.ltrans24.ltrans.o
                                                  /tmp/cclQ5C5v.ltrans2.ltrans.o
serialize8.lto_priv.384                           /tmp/cclQ5C5v.ltrans24.ltrans.o
                                                  /tmp/cclQ5C5v.ltrans2.ltrans.o
servo                                             /tmp/cclQ5C5v.ltrans2.ltrans.o
                                                  obj/main/NAZE/../controller/flight/mixer.o (symbol from plugin)
                                                  /tmp/cclQ5C5v.ltrans10.ltrans.o
                                                  /tmp/cclQ5C5v.ltrans1.ltrans.o
                                                  /tmp/cclQ5C5v.ltrans0.ltrans.o
                                                  obj/main/NAZE/../controller/io/serial_msp.o (symbol from plugin)
                                                  obj/main/NAZE/../controller/blackbox/blackbox.o (symbol from plugin)
servoConf.lto_priv.268                            /tmp/cclQ5C5v.ltrans12.ltrans.o
                                                  /tmp/cclQ5C5v.ltrans14.ltrans.o
                                                  /tmp/cclQ5C5v.ltrans6.ltrans.o
                                                  /tmp/cclQ5C5v.ltrans1.ltrans.o
servoDirection                                    obj/main/NAZE/../controller/flight/mixer.o (symbol from plugin)
                                                  obj/main/NAZE/../controller/io/serial_cli.o (symbol from plugin)
servoFilterState.lto_priv.482                     /tmp/cclQ5C5v.ltrans1.ltrans.o
                                                  /tmp/cclQ5C5v.ltrans0.ltrans.o
servoMixerAirplane.lto_priv.525                   /tmp/cclQ5C5v.ltrans12.ltrans.o
servoMixerBI.lto_priv.522                         /tmp/cclQ5C5v.ltrans12.ltrans.o
servoMixerDual.lto_priv.526                       /tmp/cclQ5C5v.ltrans12.ltrans.o
servoMixerFlyingWing.lto_priv.524                 /tmp/cclQ5C5v.ltrans12.ltrans.o
servoMixerGimbal.lto_priv.523                     /tmp/cclQ5C5v.ltrans12.ltrans.o
servoMixerLoadMix                                 obj/main/NAZE/../controller/flight/mixer.o (symbol from plugin)
                                                  obj/main/NAZE/../controller/io/serial_cli.o (symbol from plugin)
servoMixerSingle.lto_priv.527                     /tmp/cclQ5C5v.ltrans12.ltrans.o
servoMixerTri.lto_priv.521                        /tmp/cclQ5C5v.ltrans12.ltrans.o
servoMixers                                       /tmp/cclQ5C5v.ltrans12.ltrans.o
                                                  obj/main/NAZE/../controller/flight/mixer.o (symbol from plugin)
                                                  /tmp/cclQ5C5v.ltrans0.ltrans.o
servoRuleCount.lto_priv.398                       /tmp/cclQ5C5v.ltrans14.ltrans.o
                                                  /tmp/cclQ5C5v.ltrans1.ltrans.o
                                                  /tmp/cclQ5C5v.ltrans0.ltrans.o
servos.lto_priv.595                               /tmp/cclQ5C5v.ltrans0.ltrans.o
                                                  /tmp/cclQ5C5v.ltrans20.ltrans.o
setAccelerationTrims                              obj/main/NAZE/../controller/sensors/acceleration.o (symbol from plugin)
                                                  obj/main/NAZE/../controller/config/config.o (symbol from plugin)
setAdjustment.constprop.18                        /tmp/cclQ5C5v.ltrans21.ltrans.o
                                                  /tmp/cclQ5C5v.ltrans3.ltrans.o
setLedHsv                                         obj/main/NAZE/drivers/light_ws2811strip.o (symbol from plugin)
                                                  obj/main/NAZE/../controller/io/ledstrip.o (symbol from plugin)
setLedValue                                       obj/main/NAZE/drivers/light_ws2811strip.o (symbol from plugin)
setPrintfSerialPort                               obj/main/NAZE/../controller/common/printf.o (symbol from plugin)
                                                  obj/main/NAZE/../controller/io/serial_cli.o (symbol from plugin)
setStripColor                                     obj/main/NAZE/drivers/light_ws2811strip.o (symbol from plugin)
                                                  obj/main/NAZE/../controller/io/ledstrip.o (symbol from plugin)
                                                  obj/main/NAZE/drivers/light_ws2811strip_stm32f10x.o (symbol from plugin)
setStripColors                                    obj/main/NAZE/drivers/light_ws2811strip.o (symbol from plugin)
setTaskEnabled                                    /tmp/cclQ5C5v.ltrans6.ltrans.o
                                                  obj/main/NAZE/../controller/scheduler.o (symbol from plugin)
                                                  /tmp/cclQ5C5v.ltrans18.ltrans.o
                                                  obj/main/NAZE/main.o (symbol from plugin)
setTxSignal                                       obj/main/NAZE/drivers/serial_softserial.o (symbol from plugin)
setVelocity                                       /tmp/cclQ5C5v.ltrans22.ltrans.o
                                                  obj/main/NAZE/../controller/flight/altitudehold.o (symbol from plugin)
                                                  /tmp/cclQ5C5v.ltrans1.ltrans.o
shortGitRevision                                  /tmp/cclQ5C5v.ltrans24.ltrans.o
                                                  obj/main/NAZE/../controller/version.o (symbol from plugin)
                                                  obj/main/NAZE/../controller/io/serial_msp.o (symbol from plugin)
                                                  obj/main/NAZE/../controller/io/serial_cli.o (symbol from plugin)
                                                  obj/main/NAZE/../controller/blackbox/blackbox.o (symbol from plugin)
                                                  obj/main/NAZE/../controller/io/display.o (symbol from plugin)
shouldProcessRx                                   obj/main/NAZE/../controller/rx/rx.o (symbol from plugin)
                                                  obj/main/NAZE/../controller/mw.o (symbol from plugin)
showArmedPage                                     obj/main/NAZE/../controller/io/display.o (symbol from plugin)
showBatteryPage                                   obj/main/NAZE/../controller/io/display.o (symbol from plugin)
showGpsPage                                       obj/main/NAZE/../controller/io/display.o (symbol from plugin)
showProfilePage                                   obj/main/NAZE/../controller/io/display.o (symbol from plugin)
showRxPage                                        obj/main/NAZE/../controller/io/display.o (symbol from plugin)
showSensorsPage                                   obj/main/NAZE/../controller/io/display.o (symbol from plugin)
showTitle                                         obj/main/NAZE/../controller/io/display.o (symbol from plugin)
showWelcomePage                                   obj/main/NAZE/../controller/io/display.o (symbol from plugin)
sinf                                              /tmp/cclQ5C5v.ltrans6.ltrans.o
                                                  /tmp/cclQ5C5v.ltrans11.ltrans.o
                                                  /tmp/cclQ5C5v.ltrans1.ltrans.o
                                                  /tmp/cclQ5C5v.ltrans0.ltrans.o
skipRxSamples.lto_priv.321                        /tmp/cclQ5C5v.ltrans8.ltrans.o
                                                  /tmp/cclQ5C5v.ltrans3.ltrans.o
smallAngleCosZ                                    /tmp/cclQ5C5v.ltrans1.ltrans.o
                                                  obj/main/NAZE/../controller/flight/imu.o (symbol from plugin)
                                                  /tmp/cclQ5C5v.ltrans0.ltrans.o
smartPortLastRequestTime.lto_priv.563             /tmp/cclQ5C5v.ltrans5.ltrans.o
                                                  /tmp/cclQ5C5v.ltrans25.ltrans.o
smartPortPortSharing.lto_priv.561                 /tmp/cclQ5C5v.ltrans0.ltrans.o
                                                  /tmp/cclQ5C5v.ltrans25.ltrans.o
smartPortSendPackage.lto_priv.300                 /tmp/cclQ5C5v.ltrans25.ltrans.o
                                                  /tmp/cclQ5C5v.ltrans5.ltrans.o
smartPortSerialPort.lto_priv.557                  /tmp/cclQ5C5v.ltrans5.ltrans.o
                                                  /tmp/cclQ5C5v.ltrans25.ltrans.o
smartPortState                                    /tmp/cclQ5C5v.ltrans5.ltrans.o
                                                  obj/main/NAZE/../controller/telemetry/smartport.o (symbol from plugin)
                                                  /tmp/cclQ5C5v.ltrans25.ltrans.o
smartPortTelemetryEnabled.lto_priv.562            /tmp/cclQ5C5v.ltrans5.ltrans.o
                                                  /tmp/cclQ5C5v.ltrans25.ltrans.o
softSerialPorts                                   obj/main/NAZE/drivers/serial_softserial.o (symbol from plugin)
softSerialReadByte                                /tmp/cclQ5C5v.ltrans16.ltrans.o
                                                  obj/main/NAZE/drivers/serial_softserial.o (symbol from plugin)
                                                  /tmp/cclQ5C5v.ltrans20.ltrans.o
softSerialRxBytesWaiting                          /tmp/cclQ5C5v.ltrans16.ltrans.o
                                                  obj/main/NAZE/drivers/serial_softserial.o (symbol from plugin)
                                                  /tmp/cclQ5C5v.ltrans20.ltrans.o
softSerialSetBaudRate                             /tmp/cclQ5C5v.ltrans16.ltrans.o
                                                  obj/main/NAZE/drivers/serial_softserial.o (symbol from plugin)
                                                  /tmp/cclQ5C5v.ltrans20.ltrans.o
softSerialSetMode                                 /tmp/cclQ5C5v.ltrans16.ltrans.o
                                                  obj/main/NAZE/drivers/serial_softserial.o (symbol from plugin)
                                                  /tmp/cclQ5C5v.ltrans20.ltrans.o
softSerialTxBytesFree                             /tmp/cclQ5C5v.ltrans16.ltrans.o
                                                  obj/main/NAZE/drivers/serial_softserial.o (symbol from plugin)
                                                  /tmp/cclQ5C5v.ltrans20.ltrans.o
softSerialVTable                                  obj/main/NAZE/drivers/serial_softserial.o (symbol from plugin)
softSerialWriteByte                               /tmp/cclQ5C5v.ltrans16.ltrans.o
                                                  obj/main/NAZE/drivers/serial_softserial.o (symbol from plugin)
                                                  /tmp/cclQ5C5v.ltrans20.ltrans.o
sonarCalculateAltitude                            obj/main/NAZE/../controller/sensors/sonar.o (symbol from plugin)
                                                  obj/main/NAZE/../controller/flight/altitudehold.o (symbol from plugin)
sonarCfAltCm                                      /tmp/cclQ5C5v.ltrans22.ltrans.o
                                                  obj/main/NAZE/../controller/sensors/sonar.o (symbol from plugin)
                                                  /tmp/cclQ5C5v.ltrans0.ltrans.o
                                                  obj/main/NAZE/../controller/flight/altitudehold.o (symbol from plugin)
sonarGetHardwareConfiguration                     obj/main/NAZE/../controller/sensors/sonar.o (symbol from plugin)
                                                  obj/main/NAZE/main.o (symbol from plugin)
sonarGetLatestAltitude                            obj/main/NAZE/../controller/sensors/sonar.o (symbol from plugin)
                                                  obj/main/NAZE/../controller/io/serial_msp.o (symbol from plugin)
                                                  obj/main/NAZE/../controller/io/display.o (symbol from plugin)
sonarHardware.lto_priv.597                        /tmp/cclQ5C5v.ltrans0.ltrans.o
                                                  /tmp/cclQ5C5v.ltrans20.ltrans.o
                                                  /tmp/cclQ5C5v.ltrans15.ltrans.o
sonarInit                                         obj/main/NAZE/../controller/sensors/sonar.o (symbol from plugin)
                                                  obj/main/NAZE/main.o (symbol from plugin)
sonarMaxAltWithTiltCm                             /tmp/cclQ5C5v.ltrans22.ltrans.o
                                                  obj/main/NAZE/../controller/sensors/sonar.o (symbol from plugin)
                                                  /tmp/cclQ5C5v.ltrans0.ltrans.o
                                                  obj/main/NAZE/../controller/flight/altitudehold.o (symbol from plugin)
sonarMaxRangeCm                                   obj/main/NAZE/../controller/sensors/sonar.o (symbol from plugin)
sonarMaxTiltCos                                   /tmp/cclQ5C5v.ltrans22.ltrans.o
                                                  obj/main/NAZE/../controller/sensors/sonar.o (symbol from plugin)
                                                  /tmp/cclQ5C5v.ltrans0.ltrans.o
sonarRead                                         /tmp/cclQ5C5v.ltrans25.ltrans.o
                                                  obj/main/NAZE/../controller/sensors/sonar.o (symbol from plugin)
                                                  /tmp/cclQ5C5v.ltrans22.ltrans.o
                                                  /tmp/cclQ5C5v.ltrans10.ltrans.o
                                                  obj/main/NAZE/../controller/flight/altitudehold.o (symbol from plugin)
                                                  obj/main/NAZE/../controller/blackbox/blackbox.o (symbol from plugin)
sonarUpdate                                       obj/main/NAZE/../controller/sensors/sonar.o (symbol from plugin)
spekChannelData.lto_priv.345                      /tmp/cclQ5C5v.ltrans8.ltrans.o
                                                  /tmp/cclQ5C5v.ltrans3.ltrans.o
spekFrame.lto_priv.341                            /tmp/cclQ5C5v.ltrans8.ltrans.o
                                                  /tmp/cclQ5C5v.ltrans3.ltrans.o
spekHiRes.lto_priv.229                            /tmp/cclQ5C5v.ltrans21.ltrans.o
                                                  /tmp/cclQ5C5v.ltrans8.ltrans.o
spekShouldBind                                    obj/main/NAZE/../controller/rx/spektrum.o (symbol from plugin)
spek_chan_mask.lto_priv.344                       /tmp/cclQ5C5v.ltrans21.ltrans.o
                                                  /tmp/cclQ5C5v.ltrans3.ltrans.o
spek_chan_shift.lto_priv.342                      /tmp/cclQ5C5v.ltrans21.ltrans.o
                                                  /tmp/cclQ5C5v.ltrans3.ltrans.o
spektrumBind                                      obj/main/NAZE/../controller/rx/spektrum.o (symbol from plugin)
                                                  obj/main/NAZE/main.o (symbol from plugin)
spektrumDataReceive.lto_priv.221                  /tmp/cclQ5C5v.ltrans8.ltrans.o
                                                  /tmp/cclQ5C5v.ltrans21.ltrans.o
spektrumFrameStatus                               obj/main/NAZE/../controller/rx/spektrum.o (symbol from plugin)
                                                  obj/main/NAZE/../controller/rx/rx.o (symbol from plugin)
spektrumInit                                      obj/main/NAZE/../controller/rx/spektrum.o (symbol from plugin)
                                                  obj/main/NAZE/../controller/rx/rx.o (symbol from plugin)
spektrumInit.constprop.46                         /tmp/cclQ5C5v.ltrans21.ltrans.o
                                                  /tmp/cclQ5C5v.ltrans0.ltrans.o
spektrumReadRawRC.lto_priv.220                    /tmp/cclQ5C5v.ltrans8.ltrans.o
                                                  /tmp/cclQ5C5v.ltrans21.ltrans.o
spiInit                                           obj/main/NAZE/drivers/bus_spi.o (symbol from plugin)
                                                  obj/main/NAZE/main.o (symbol from plugin)
spiIsBusBusy                                      obj/main/NAZE/drivers/bus_spi.o (symbol from plugin)
spiSetDivisor                                     obj/main/NAZE/drivers/bus_spi.o (symbol from plugin)
                                                  obj/main/NAZE/drivers/flash_m25p16.o (symbol from plugin)
                                                  obj/main/NAZE/drivers/accgyro_spi_mpu6500.o (symbol from plugin)
spiTransfer                                       obj/main/NAZE/drivers/bus_spi.o (symbol from plugin)
                                                  obj/main/NAZE/hardware_revision.o (symbol from plugin)
                                                  obj/main/NAZE/drivers/flash_m25p16.o (symbol from plugin)
                                                  obj/main/NAZE/drivers/accgyro_spi_mpu6500.o (symbol from plugin)
spiTransfer.constprop.160                         /tmp/cclQ5C5v.ltrans21.ltrans.o
                                                  /tmp/cclQ5C5v.ltrans17.ltrans.o
                                                  /tmp/cclQ5C5v.ltrans15.ltrans.o
                                                  /tmp/cclQ5C5v.ltrans0.ltrans.o
spiTransferByte                                   obj/main/NAZE/drivers/bus_spi.o (symbol from plugin)
                                                  obj/main/NAZE/hardware_revision.o (symbol from plugin)
                                                  obj/main/NAZE/drivers/flash_m25p16.o (symbol from plugin)
                                                  obj/main/NAZE/drivers/accgyro_spi_mpu6500.o (symbol from plugin)
spiTransferByte.constprop.161                     /tmp/cclQ5C5v.ltrans21.ltrans.o
                                                  /tmp/cclQ5C5v.ltrans17.ltrans.o
                                                  /tmp/cclQ5C5v.ltrans0.ltrans.o
sqrtf                                             /usr/lib/gcc/arm-none-eabi/4.9.3/../../../arm-none-eabi/lib/armv7-m/libm.a(lib_a-wf_sqrt.o)
                                                  /tmp/cclQ5C5v.ltrans11.ltrans.o
                                                  /tmp/cclQ5C5v.ltrans6.ltrans.o
                                                  /tmp/cclQ5C5v.ltrans1.ltrans.o
standardBoardAlignment.lto_priv.485               /tmp/cclQ5C5v.ltrans8.ltrans.o
                                                  /tmp/cclQ5C5v.ltrans0.ltrans.o
startBlackbox                                     obj/main/NAZE/../controller/blackbox/blackbox.o (symbol from plugin)
                                                  obj/main/NAZE/../controller/mw.o (symbol from plugin)
stateFlags                                        /tmp/cclQ5C5v.ltrans14.ltrans.o
                                                  obj/main/NAZE/../controller/config/runtime_config.o (symbol from plugin)
                                                  /tmp/cclQ5C5v.ltrans27.ltrans.o
                                                  /tmp/cclQ5C5v.ltrans26.ltrans.o
                                                  /tmp/cclQ5C5v.ltrans22.ltrans.o
                                                  /tmp/cclQ5C5v.ltrans19.ltrans.o
                                                  /tmp/cclQ5C5v.ltrans18.ltrans.o
                                                  /tmp/cclQ5C5v.ltrans17.ltrans.o
                                                  /tmp/cclQ5C5v.ltrans11.ltrans.o
                                                  /tmp/cclQ5C5v.ltrans10.ltrans.o
                                                  /tmp/cclQ5C5v.ltrans5.ltrans.o
                                                  /tmp/cclQ5C5v.ltrans3.ltrans.o
                                                  /tmp/cclQ5C5v.ltrans2.ltrans.o
                                                  /tmp/cclQ5C5v.ltrans1.ltrans.o
                                                  /tmp/cclQ5C5v.ltrans0.ltrans.o
                                                  obj/main/NAZE/../controller/sensors/compass.o (symbol from plugin)
                                                  obj/main/NAZE/../controller/io/serial_msp.o (symbol from plugin)
                                                  obj/main/NAZE/../controller/io/rc_controls.o (symbol from plugin)
                                                  obj/main/NAZE/../controller/io/beeper.o (symbol from plugin)
                                                  obj/main/NAZE/../controller/flight/mixer.o (symbol from plugin)
                                                  obj/main/NAZE/../controller/flight/imu.o (symbol from plugin)
                                                  obj/main/NAZE/../controller/flight/pid.o (symbol from plugin)
                                                  obj/main/NAZE/../controller/flight/altitudehold.o (symbol from plugin)
                                                  obj/main/NAZE/../controller/mw.o (symbol from plugin)
                                                  obj/main/NAZE/main.o (symbol from plugin)
                                                  obj/main/NAZE/../controller/blackbox/blackbox.o (symbol from plugin)
                                                  obj/main/NAZE/../controller/telemetry/ltm.o (symbol from plugin)
                                                  obj/main/NAZE/../controller/telemetry/smartport.o (symbol from plugin)
                                                  obj/main/NAZE/../controller/telemetry/hott.o (symbol from plugin)
                                                  obj/main/NAZE/../controller/telemetry/frsky.o (symbol from plugin)
                                                  obj/main/NAZE/../controller/io/display.o (symbol from plugin)
                                                  obj/main/NAZE/../controller/io/gps.o (symbol from plugin)
                                                  obj/main/NAZE/../controller/flight/navigation.o (symbol from plugin)
stopMotors                                        /tmp/cclQ5C5v.ltrans14.ltrans.o
                                                  obj/main/NAZE/../controller/flight/mixer.o (symbol from plugin)
                                                  /tmp/cclQ5C5v.ltrans24.ltrans.o
                                                  /tmp/cclQ5C5v.ltrans18.ltrans.o
                                                  /tmp/cclQ5C5v.ltrans2.ltrans.o
                                                  obj/main/NAZE/../controller/io/serial_msp.o (symbol from plugin)
                                                  obj/main/NAZE/../controller/io/serial_cli.o (symbol from plugin)
                                                  obj/main/NAZE/main.o (symbol from plugin)
strcasecmp                                        /usr/lib/gcc/arm-none-eabi/4.9.3/../../../arm-none-eabi/lib/armv7-m/libc_nano.a(lib_a-strcasecmp.o)
                                                  /tmp/cclQ5C5v.ltrans24.ltrans.o
                                                  /tmp/cclQ5C5v.ltrans12.ltrans.o
                                                  /tmp/cclQ5C5v.ltrans7.ltrans.o
strcat                                            /usr/lib/gcc/arm-none-eabi/4.9.3/../../../arm-none-eabi/lib/armv7-m/libc_nano.a(lib_a-strcat.o)
                                                  /tmp/cclQ5C5v.ltrans6.ltrans.o
strchr                                            /usr/lib/gcc/arm-none-eabi/4.9.3/../../../arm-none-eabi/lib/armv7-m/libc_nano.a(lib_a-strchr.o)
                                                  /tmp/cclQ5C5v.ltrans24.ltrans.o
                                                  /tmp/cclQ5C5v.ltrans21.ltrans.o
                                                  /tmp/cclQ5C5v.ltrans12.ltrans.o
                                                  /tmp/cclQ5C5v.ltrans7.ltrans.o
                                                  /tmp/cclQ5C5v.ltrans2.ltrans.o
string.9033.lto_priv.572                          /tmp/cclQ5C5v.ltrans21.ltrans.o
                                                  /tmp/cclQ5C5v.ltrans11.ltrans.o
strlen                                            /usr/lib/gcc/arm-none-eabi/4.9.3/../../../arm-none-eabi/lib/armv7-m/libc_nano.a(lib_a-strlen.o)
                                                  /tmp/cclQ5C5v.ltrans24.ltrans.o
                                                  /tmp/cclQ5C5v.ltrans23.ltrans.o
                                                  /tmp/cclQ5C5v.ltrans19.ltrans.o
                                                  /tmp/cclQ5C5v.ltrans12.ltrans.o
                                                  /tmp/cclQ5C5v.ltrans10.ltrans.o
                                                  /tmp/cclQ5C5v.ltrans7.ltrans.o
                                                  /tmp/cclQ5C5v.ltrans6.ltrans.o
                                                  /tmp/cclQ5C5v.ltrans2.ltrans.o
strncasecmp                                       /usr/lib/gcc/arm-none-eabi/4.9.3/../../../arm-none-eabi/lib/armv7-m/libc_nano.a(lib_a-strncasecmp.o)
                                                  /tmp/cclQ5C5v.ltrans24.ltrans.o
                                                  /tmp/cclQ5C5v.ltrans12.ltrans.o
                                                  /tmp/cclQ5C5v.ltrans7.ltrans.o
                                                  /tmp/cclQ5C5v.ltrans2.ltrans.o
strncpy                                           /usr/lib/gcc/arm-none-eabi/4.9.3/../../../arm-none-eabi/lib/armv7-m/libc_nano.a(lib_a-strncpy.o)
                                                  /tmp/cclQ5C5v.ltrans19.ltrans.o
                                                  /tmp/cclQ5C5v.ltrans6.ltrans.o
strstr                                            /usr/lib/gcc/arm-none-eabi/4.9.3/../../../arm-none-eabi/lib/armv7-m/libc_nano.a(lib_a-strstr.o)
                                                  /tmp/cclQ5C5v.ltrans24.ltrans.o
strtok                                            /usr/lib/gcc/arm-none-eabi/4.9.3/../../../arm-none-eabi/lib/armv7-m/libc_nano.a(lib_a-strtok.o)
                                                  /tmp/cclQ5C5v.ltrans12.ltrans.o
                                                  obj/main/NAZE/../controller/io/serial_cli.o (symbol from plugin)
strtok_r                                          /usr/lib/gcc/arm-none-eabi/4.9.3/../../../arm-none-eabi/lib/armv7-m/libc_nano.a(lib_a-strtok_r.o)
                                                  /tmp/cclQ5C5v.ltrans12.ltrans.o
                                                  obj/main/NAZE/../controller/io/serial_cli.o (symbol from plugin)
strtol                                            /usr/lib/gcc/arm-none-eabi/4.9.3/../../../arm-none-eabi/lib/armv7-m/libc_nano.a(lib_a-strtol.o)
                                                  /usr/lib/gcc/arm-none-eabi/4.9.3/../../../arm-none-eabi/lib/armv7-m/libc_nano.a(lib_a-atoi.o)
sumd.lto_priv.335                                 /tmp/cclQ5C5v.ltrans8.ltrans.o
                                                  /tmp/cclQ5C5v.ltrans3.ltrans.o
sumdChannelCount.lto_priv.334                     /tmp/cclQ5C5v.ltrans8.ltrans.o
                                                  /tmp/cclQ5C5v.ltrans3.ltrans.o
sumdChannels.lto_priv.336                         /tmp/cclQ5C5v.ltrans8.ltrans.o
                                                  /tmp/cclQ5C5v.ltrans3.ltrans.o
sumdDataReceive.lto_priv.462                      /tmp/cclQ5C5v.ltrans8.ltrans.o
                                                  /tmp/cclQ5C5v.ltrans0.ltrans.o
sumdFrameDone.lto_priv.332                        /tmp/cclQ5C5v.ltrans8.ltrans.o
                                                  /tmp/cclQ5C5v.ltrans3.ltrans.o
sumdFrameStatus                                   obj/main/NAZE/../controller/rx/sumd.o (symbol from plugin)
                                                  obj/main/NAZE/../controller/rx/rx.o (symbol from plugin)
sumdInit                                          obj/main/NAZE/../controller/rx/sumd.o (symbol from plugin)
                                                  obj/main/NAZE/../controller/rx/rx.o (symbol from plugin)
sumdReadRawRC.lto_priv.461                        /tmp/cclQ5C5v.ltrans8.ltrans.o
                                                  /tmp/cclQ5C5v.ltrans0.ltrans.o
sumhChannels.lto_priv.331                         /tmp/cclQ5C5v.ltrans8.ltrans.o
                                                  /tmp/cclQ5C5v.ltrans3.ltrans.o
sumhDataReceive.lto_priv.464                      /tmp/cclQ5C5v.ltrans8.ltrans.o
                                                  /tmp/cclQ5C5v.ltrans0.ltrans.o
sumhFrame.lto_priv.330                            /tmp/cclQ5C5v.ltrans8.ltrans.o
                                                  /tmp/cclQ5C5v.ltrans3.ltrans.o
sumhFrameDone.lto_priv.329                        /tmp/cclQ5C5v.ltrans8.ltrans.o
                                                  /tmp/cclQ5C5v.ltrans3.ltrans.o
sumhFrameStatus                                   obj/main/NAZE/../controller/rx/sumh.o (symbol from plugin)
                                                  obj/main/NAZE/../controller/rx/rx.o (symbol from plugin)
sumhInit                                          obj/main/NAZE/../controller/rx/sumh.o (symbol from plugin)
                                                  obj/main/NAZE/../controller/rx/rx.o (symbol from plugin)
sumhReadRawRC.lto_priv.463                        /tmp/cclQ5C5v.ltrans8.ltrans.o
                                                  /tmp/cclQ5C5v.ltrans0.ltrans.o
suspendRxSignal                                   /tmp/cclQ5C5v.ltrans8.ltrans.o
                                                  obj/main/NAZE/../controller/rx/rx.o (symbol from plugin)
                                                  /tmp/cclQ5C5v.ltrans6.ltrans.o
                                                  obj/main/NAZE/../controller/config/config.o (symbol from plugin)
suspendRxSignalUntil.lto_priv.322                 /tmp/cclQ5C5v.ltrans8.ltrans.o
                                                  /tmp/cclQ5C5v.ltrans3.ltrans.o
sysTickUptime.lto_priv.233                        /tmp/cclQ5C5v.ltrans8.ltrans.o
                                                  /tmp/cclQ5C5v.ltrans27.ltrans.o
                                                  /tmp/cclQ5C5v.ltrans26.ltrans.o
                                                  /tmp/cclQ5C5v.ltrans25.ltrans.o
                                                  /tmp/cclQ5C5v.ltrans24.ltrans.o
                                                  /tmp/cclQ5C5v.ltrans22.ltrans.o
                                                  /tmp/cclQ5C5v.ltrans18.ltrans.o
                                                  /tmp/cclQ5C5v.ltrans15.ltrans.o
                                                  /tmp/cclQ5C5v.ltrans14.ltrans.o
                                                  /tmp/cclQ5C5v.ltrans11.ltrans.o
                                                  /tmp/cclQ5C5v.ltrans5.ltrans.o
                                                  /tmp/cclQ5C5v.ltrans3.ltrans.o
                                                  /tmp/cclQ5C5v.ltrans1.ltrans.o
                                                  /tmp/cclQ5C5v.ltrans0.ltrans.o
systemBeep                                        /tmp/cclQ5C5v.ltrans14.ltrans.o
                                                  obj/main/NAZE/drivers/sound_beeper.o (symbol from plugin)
                                                  /tmp/cclQ5C5v.ltrans27.ltrans.o
                                                  /tmp/cclQ5C5v.ltrans0.ltrans.o
                                                  obj/main/NAZE/../controller/io/beeper.o (symbol from plugin)
                                                  obj/main/NAZE/drivers/system.o (symbol from plugin)
                                                  obj/main/NAZE/main.o (symbol from plugin)
systemBeepPtr                                     /tmp/cclQ5C5v.ltrans14.ltrans.o
                                                  obj/main/NAZE/drivers/sound_beeper.o (symbol from plugin)
                                                  /tmp/cclQ5C5v.ltrans0.ltrans.o
systemInit                                        obj/main/NAZE/drivers/system.o (symbol from plugin)
                                                  obj/main/NAZE/main.o (symbol from plugin)
systemReset                                       obj/main/NAZE/drivers/system_stm32f10x.o (symbol from plugin)
                                                  obj/main/NAZE/../controller/io/serial_msp.o (symbol from plugin)
                                                  obj/main/NAZE/../controller/io/serial_cli.o (symbol from plugin)
                                                  obj/main/NAZE/drivers/system.o (symbol from plugin)
systemResetToBootloader                           obj/main/NAZE/drivers/system_stm32f10x.o (symbol from plugin)
                                                  obj/main/NAZE/../controller/io/serial.o (symbol from plugin)
systemState.lto_priv.435                          /tmp/cclQ5C5v.ltrans18.ltrans.o
                                                  /tmp/cclQ5C5v.ltrans0.ltrans.o
tailAddress.lto_priv.542                          /tmp/cclQ5C5v.ltrans0.ltrans.o
                                                  /tmp/cclQ5C5v.ltrans23.ltrans.o
                                                  /tmp/cclQ5C5v.ltrans17.ltrans.o
tailSerialReply.lto_priv.382                      /tmp/cclQ5C5v.ltrans24.ltrans.o
                                                  /tmp/cclQ5C5v.ltrans2.ltrans.o
targetLooptime                                    /tmp/cclQ5C5v.ltrans14.ltrans.o
                                                  obj/main/NAZE/drivers/gyro_sync.o (symbol from plugin)
                                                  /tmp/cclQ5C5v.ltrans26.ltrans.o
                                                  /tmp/cclQ5C5v.ltrans18.ltrans.o
                                                  /tmp/cclQ5C5v.ltrans1.ltrans.o
                                                  /tmp/cclQ5C5v.ltrans0.ltrans.o
                                                  obj/main/NAZE/../controller/sensors/gyro.o (symbol from plugin)
                                                  obj/main/NAZE/../controller/flight/pid.o (symbol from plugin)
                                                  obj/main/NAZE/../controller/mw.o (symbol from plugin)
                                                  obj/main/NAZE/main.o (symbol from plugin)
                                                  obj/main/NAZE/../controller/blackbox/blackbox_io.o (symbol from plugin)
targetName                                        /tmp/cclQ5C5v.ltrans24.ltrans.o
                                                  obj/main/NAZE/../controller/version.o (symbol from plugin)
                                                  obj/main/NAZE/../controller/io/serial_cli.o (symbol from plugin)
                                                  obj/main/NAZE/../controller/io/display.o (symbol from plugin)
target_bearing.lto_priv.575                       /tmp/cclQ5C5v.ltrans11.ltrans.o
                                                  /tmp/cclQ5C5v.ltrans17.ltrans.o
taskCalculateAltitude                             /tmp/cclQ5C5v.ltrans22.ltrans.o
                                                  obj/main/NAZE/../controller/mw.o (symbol from plugin)
                                                  /tmp/cclQ5C5v.ltrans21.ltrans.o
                                                  obj/main/NAZE/../controller/scheduler_tasks.o (symbol from plugin)
taskHandleSerial                                  /tmp/cclQ5C5v.ltrans2.ltrans.o
                                                  obj/main/NAZE/../controller/mw.o (symbol from plugin)
                                                  /tmp/cclQ5C5v.ltrans21.ltrans.o
                                                  obj/main/NAZE/../controller/scheduler_tasks.o (symbol from plugin)
taskLedStrip                                      /tmp/cclQ5C5v.ltrans9.ltrans.o
                                                  obj/main/NAZE/../controller/mw.o (symbol from plugin)
                                                  /tmp/cclQ5C5v.ltrans21.ltrans.o
                                                  obj/main/NAZE/../controller/scheduler_tasks.o (symbol from plugin)
taskMainPidLoop                                   obj/main/NAZE/../controller/mw.o (symbol from plugin)
taskMainPidLoopChecker                            /tmp/cclQ5C5v.ltrans1.ltrans.o
                                                  obj/main/NAZE/../controller/mw.o (symbol from plugin)
                                                  /tmp/cclQ5C5v.ltrans21.ltrans.o
                                                  obj/main/NAZE/../controller/scheduler_tasks.o (symbol from plugin)
taskProcessGPS                                    /tmp/cclQ5C5v.ltrans22.ltrans.o
                                                  obj/main/NAZE/../controller/mw.o (symbol from plugin)
                                                  /tmp/cclQ5C5v.ltrans21.ltrans.o
                                                  obj/main/NAZE/../controller/scheduler_tasks.o (symbol from plugin)
taskTelemetry                                     /tmp/cclQ5C5v.ltrans5.ltrans.o
                                                  obj/main/NAZE/../controller/mw.o (symbol from plugin)
                                                  /tmp/cclQ5C5v.ltrans21.ltrans.o
                                                  obj/main/NAZE/../controller/scheduler_tasks.o (symbol from plugin)
taskUpdateAccelerometer                           /tmp/cclQ5C5v.ltrans28.ltrans.o
                                                  obj/main/NAZE/../controller/mw.o (symbol from plugin)
                                                  /tmp/cclQ5C5v.ltrans21.ltrans.o
                                                  obj/main/NAZE/../controller/scheduler_tasks.o (symbol from plugin)
taskUpdateBattery                                 /tmp/cclQ5C5v.ltrans27.ltrans.o
                                                  obj/main/NAZE/../controller/mw.o (symbol from plugin)
                                                  /tmp/cclQ5C5v.ltrans21.ltrans.o
                                                  obj/main/NAZE/../controller/scheduler_tasks.o (symbol from plugin)
taskUpdateBeeper                                  /tmp/cclQ5C5v.ltrans27.ltrans.o
                                                  obj/main/NAZE/../controller/mw.o (symbol from plugin)
                                                  /tmp/cclQ5C5v.ltrans21.ltrans.o
                                                  obj/main/NAZE/../controller/scheduler_tasks.o (symbol from plugin)
taskUpdateCompass                                 /tmp/cclQ5C5v.ltrans22.ltrans.o
                                                  obj/main/NAZE/../controller/mw.o (symbol from plugin)
                                                  /tmp/cclQ5C5v.ltrans21.ltrans.o
                                                  obj/main/NAZE/../controller/scheduler_tasks.o (symbol from plugin)
taskUpdateDisplay                                 /tmp/cclQ5C5v.ltrans22.ltrans.o
                                                  obj/main/NAZE/../controller/mw.o (symbol from plugin)
                                                  /tmp/cclQ5C5v.ltrans21.ltrans.o
                                                  obj/main/NAZE/../controller/scheduler_tasks.o (symbol from plugin)
taskUpdateRxMain                                  /tmp/cclQ5C5v.ltrans3.ltrans.o
                                                  obj/main/NAZE/../controller/mw.o (symbol from plugin)
                                                  /tmp/cclQ5C5v.ltrans21.ltrans.o
                                                  obj/main/NAZE/../controller/scheduler_tasks.o (symbol from plugin)
telemTemperature1                                 obj/main/NAZE/../controller/mw.o (symbol from plugin)
telemetryCheckState                               /tmp/cclQ5C5v.ltrans25.ltrans.o
                                                  obj/main/NAZE/../controller/telemetry/telemetry.o (symbol from plugin)
                                                  /tmp/cclQ5C5v.ltrans5.ltrans.o
                                                  /tmp/cclQ5C5v.ltrans3.ltrans.o
                                                  /tmp/cclQ5C5v.ltrans0.ltrans.o
                                                  obj/main/NAZE/../controller/mw.o (symbol from plugin)
telemetryConfig.lto_priv.291                      /tmp/cclQ5C5v.ltrans5.ltrans.o
                                                  /tmp/cclQ5C5v.ltrans25.ltrans.o
                                                  /tmp/cclQ5C5v.ltrans0.ltrans.o
telemetryConfig.lto_priv.292                      /tmp/cclQ5C5v.ltrans5.ltrans.o
                                                  /tmp/cclQ5C5v.ltrans0.ltrans.o
telemetryConfig.lto_priv.441                      /tmp/cclQ5C5v.ltrans0.ltrans.o
                                                  /tmp/cclQ5C5v.ltrans25.ltrans.o
                                                  /tmp/cclQ5C5v.ltrans6.ltrans.o
telemetryConfig.lto_priv.442                      /tmp/cclQ5C5v.ltrans0.ltrans.o
                                                  /tmp/cclQ5C5v.ltrans25.ltrans.o
telemetryDetermineEnabledState                    obj/main/NAZE/../controller/telemetry/telemetry.o (symbol from plugin)
                                                  obj/main/NAZE/../controller/telemetry/ltm.o (symbol from plugin)
                                                  obj/main/NAZE/../controller/telemetry/smartport.o (symbol from plugin)
                                                  obj/main/NAZE/../controller/telemetry/hott.o (symbol from plugin)
                                                  obj/main/NAZE/../controller/telemetry/frsky.o (symbol from plugin)
telemetryInit                                     obj/main/NAZE/../controller/telemetry/telemetry.o (symbol from plugin)
                                                  obj/main/NAZE/main.o (symbol from plugin)
telemetryProcess                                  obj/main/NAZE/../controller/telemetry/telemetry.o (symbol from plugin)
                                                  obj/main/NAZE/../controller/mw.o (symbol from plugin)
telemetryUseConfig                                obj/main/NAZE/../controller/telemetry/telemetry.o (symbol from plugin)
                                                  obj/main/NAZE/../controller/config/config.o (symbol from plugin)
tfp_format                                        /tmp/cclQ5C5v.ltrans6.ltrans.o
                                                  obj/main/NAZE/../controller/common/printf.o (symbol from plugin)
                                                  /tmp/cclQ5C5v.ltrans24.ltrans.o
                                                  /tmp/cclQ5C5v.ltrans23.ltrans.o
                                                  obj/main/NAZE/../controller/io/serial_cli.o (symbol from plugin)
                                                  obj/main/NAZE/../controller/blackbox/blackbox_io.o (symbol from plugin)
tfp_printf                                        obj/main/NAZE/../controller/common/printf.o (symbol from plugin)
tfp_sprintf                                       /tmp/cclQ5C5v.ltrans6.ltrans.o
                                                  obj/main/NAZE/../controller/common/printf.o (symbol from plugin)
                                                  /tmp/cclQ5C5v.ltrans19.ltrans.o
                                                  /tmp/cclQ5C5v.ltrans7.ltrans.o
                                                  obj/main/NAZE/../controller/io/display.o (symbol from plugin)
                                                  obj/main/NAZE/../controller/io/ledstrip.o (symbol from plugin)
throttleAngleScale                                /tmp/cclQ5C5v.ltrans1.ltrans.o
                                                  obj/main/NAZE/../controller/flight/imu.o (symbol from plugin)
                                                  /tmp/cclQ5C5v.ltrans6.ltrans.o
timerChCCHandlerInit                              obj/main/NAZE/drivers/timer.o (symbol from plugin)
                                                  obj/main/NAZE/drivers/serial_softserial.o (symbol from plugin)
                                                  obj/main/NAZE/drivers/pwm_rx.o (symbol from plugin)
timerChCCR                                        obj/main/NAZE/drivers/timer.o (symbol from plugin)
timerChCCRHi                                      obj/main/NAZE/drivers/timer.o (symbol from plugin)
timerChCCRLo                                      obj/main/NAZE/drivers/timer.o (symbol from plugin)
timerChClearCCFlag                                obj/main/NAZE/drivers/timer.o (symbol from plugin)
timerChConfigCallbacks                            /tmp/cclQ5C5v.ltrans17.ltrans.o
                                                  obj/main/NAZE/drivers/timer.o (symbol from plugin)
                                                  /tmp/cclQ5C5v.ltrans20.ltrans.o
                                                  /tmp/cclQ5C5v.ltrans0.ltrans.o
                                                  obj/main/NAZE/drivers/serial_softserial.o (symbol from plugin)
                                                  obj/main/NAZE/drivers/pwm_rx.o (symbol from plugin)
timerChConfigCallbacksDual                        obj/main/NAZE/drivers/timer.o (symbol from plugin)
timerChConfigGPIO                                 obj/main/NAZE/drivers/timer.o (symbol from plugin)
timerChConfigIC                                   obj/main/NAZE/drivers/timer.o (symbol from plugin)
timerChConfigICDual                               obj/main/NAZE/drivers/timer.o (symbol from plugin)
timerChConfigOC                                   obj/main/NAZE/drivers/timer.o (symbol from plugin)
timerChICPolarity                                 obj/main/NAZE/drivers/timer.o (symbol from plugin)
timerChITConfig                                   obj/main/NAZE/drivers/timer.o (symbol from plugin)
timerChITConfigDualLo                             obj/main/NAZE/drivers/timer.o (symbol from plugin)
timerChInit                                       obj/main/NAZE/drivers/timer.o (symbol from plugin)
timerChOvrHandlerInit                             obj/main/NAZE/drivers/timer.o (symbol from plugin)
                                                  obj/main/NAZE/drivers/pwm_rx.o (symbol from plugin)
timerChannelInfo                                  obj/main/NAZE/drivers/timer.o (symbol from plugin)
timerConfig                                       /tmp/cclQ5C5v.ltrans14.ltrans.o
                                                  obj/main/NAZE/drivers/timer.o (symbol from plugin)
                                                  /tmp/cclQ5C5v.ltrans17.ltrans.o
                                                  /tmp/cclQ5C5v.ltrans0.ltrans.o
timerConfigure                                    /tmp/cclQ5C5v.ltrans17.ltrans.o
                                                  obj/main/NAZE/drivers/timer.o (symbol from plugin)
                                                  /tmp/cclQ5C5v.ltrans20.ltrans.o
                                                  /tmp/cclQ5C5v.ltrans0.ltrans.o
                                                  obj/main/NAZE/drivers/serial_softserial.o (symbol from plugin)
                                                  obj/main/NAZE/drivers/pwm_rx.o (symbol from plugin)
timerForceOverflow                                obj/main/NAZE/drivers/timer.o (symbol from plugin)
                                                  obj/main/NAZE/drivers/pwm_output.o (symbol from plugin)
timerHardware                                     /tmp/cclQ5C5v.ltrans0.ltrans.o
                                                  obj/main/NAZE/drivers/timer.o (symbol from plugin)
                                                  /tmp/cclQ5C5v.ltrans20.ltrans.o
                                                  obj/main/NAZE/drivers/serial_softserial.o (symbol from plugin)
                                                  obj/main/NAZE/drivers/pwm_mapping.o (symbol from plugin)
timerInfo                                         obj/main/NAZE/drivers/timer.o (symbol from plugin)
timerInit                                         obj/main/NAZE/drivers/timer.o (symbol from plugin)
                                                  obj/main/NAZE/main.o (symbol from plugin)
timerNVICConfigure                                obj/main/NAZE/drivers/timer.o (symbol from plugin)
timerStart                                        obj/main/NAZE/drivers/timer.o (symbol from plugin)
                                                  obj/main/NAZE/main.o (symbol from plugin)
uartOpen                                          /tmp/cclQ5C5v.ltrans16.ltrans.o
                                                  obj/main/NAZE/drivers/serial_uart.o (symbol from plugin)
                                                  /tmp/cclQ5C5v.ltrans7.ltrans.o
                                                  obj/main/NAZE/../controller/io/serial.o (symbol from plugin)
uartPort1.lto_priv.590                            /tmp/cclQ5C5v.ltrans17.ltrans.o
                                                  /tmp/cclQ5C5v.ltrans16.ltrans.o
uartPort2.lto_priv.589                            /tmp/cclQ5C5v.ltrans17.ltrans.o
                                                  /tmp/cclQ5C5v.ltrans16.ltrans.o
uartPort3.lto_priv.588                            /tmp/cclQ5C5v.ltrans17.ltrans.o
                                                  /tmp/cclQ5C5v.ltrans16.ltrans.o
uartRead                                          obj/main/NAZE/drivers/serial_uart.o (symbol from plugin)
uartSetBaudRate                                   obj/main/NAZE/drivers/serial_uart.o (symbol from plugin)
uartSetMode                                       obj/main/NAZE/drivers/serial_uart.o (symbol from plugin)
uartStartTxDMA                                    /tmp/cclQ5C5v.ltrans16.ltrans.o
                                                  obj/main/NAZE/drivers/serial_uart.o (symbol from plugin)
                                                  /tmp/cclQ5C5v.ltrans17.ltrans.o
                                                  obj/main/NAZE/drivers/serial_uart_stm32f10x.o (symbol from plugin)
uartTotalRxBytesWaiting                           obj/main/NAZE/drivers/serial_uart.o (symbol from plugin)
uartTotalTxBytesFree                              obj/main/NAZE/drivers/serial_uart.o (symbol from plugin)
uartVTable                                        obj/main/NAZE/drivers/serial_uart.o (symbol from plugin)
                                                  obj/main/NAZE/drivers/serial_uart_stm32f10x.o (symbol from plugin)
uartWrite                                         obj/main/NAZE/drivers/serial_uart.o (symbol from plugin)
ubs_nav_fix_type                                  obj/main/NAZE/../controller/io/gps.o (symbol from plugin)
ubx_nav_status_bits                               obj/main/NAZE/../controller/io/gps.o (symbol from plugin)
ubx_protocol_bytes                                obj/main/NAZE/../controller/io/gps.o (symbol from plugin)
ug2864hsweg01InitI2C                              obj/main/NAZE/drivers/display_ug2864hsweg01.o (symbol from plugin)
                                                  obj/main/NAZE/../controller/io/display.o (symbol from plugin)
ug2864hsweg01InitI2C.part.0.lto_priv.528          /tmp/cclQ5C5v.ltrans15.ltrans.o
                                                  /tmp/cclQ5C5v.ltrans19.ltrans.o
                                                  /tmp/cclQ5C5v.ltrans0.ltrans.o
ui2a                                              obj/main/NAZE/../controller/common/typeconversion.o (symbol from plugin)
                                                  obj/main/NAZE/../controller/common/printf.o (symbol from plugin)
uli2a                                             obj/main/NAZE/../controller/common/typeconversion.o (symbol from plugin)
                                                  obj/main/NAZE/../controller/common/printf.o (symbol from plugin)
unregisterExtiCallbackHandler                     obj/main/NAZE/drivers/system.o (symbol from plugin)
                                                  obj/main/NAZE/drivers/barometer_bmp085.o (symbol from plugin)
updateAccelerationReadings                        obj/main/NAZE/../controller/sensors/acceleration.o (symbol from plugin)
                                                  obj/main/NAZE/../controller/flight/imu.o (symbol from plugin)
updateActivatedModes                              obj/main/NAZE/../controller/io/rc_controls.o (symbol from plugin)
                                                  obj/main/NAZE/../controller/mw.o (symbol from plugin)
updateAdjustmentStates                            obj/main/NAZE/../controller/io/rc_controls.o (symbol from plugin)
                                                  obj/main/NAZE/../controller/mw.o (symbol from plugin)
updateAltHoldState                                obj/main/NAZE/../controller/flight/altitudehold.o (symbol from plugin)
                                                  obj/main/NAZE/../controller/mw.o (symbol from plugin)
updateBattery                                     obj/main/NAZE/../controller/sensors/battery.o (symbol from plugin)
                                                  obj/main/NAZE/../controller/mw.o (symbol from plugin)
updateBatteryVoltage.lto_priv.353                 /tmp/cclQ5C5v.ltrans8.ltrans.o
                                                  /tmp/cclQ5C5v.ltrans27.ltrans.o
updateCompass                                     obj/main/NAZE/../controller/sensors/compass.o (symbol from plugin)
                                                  obj/main/NAZE/../controller/mw.o (symbol from plugin)
updateCurrentMeter                                obj/main/NAZE/../controller/sensors/battery.o (symbol from plugin)
                                                  obj/main/NAZE/../controller/mw.o (symbol from plugin)
updateDelayCycles                                 obj/main/NAZE/../controller/flight/gtune.o (symbol from plugin)
updateDisplay                                     /tmp/cclQ5C5v.ltrans19.ltrans.o
                                                  obj/main/NAZE/../controller/io/display.o (symbol from plugin)
                                                  /tmp/cclQ5C5v.ltrans22.ltrans.o
                                                  /tmp/cclQ5C5v.ltrans12.ltrans.o
                                                  /tmp/cclQ5C5v.ltrans0.ltrans.o
                                                  obj/main/NAZE/../controller/mw.o (symbol from plugin)
                                                  obj/main/NAZE/../controller/io/gps.o (symbol from plugin)
updateFailsafeStatus                              obj/main/NAZE/../controller/io/display.o (symbol from plugin)
updateGpsIndicator                                obj/main/NAZE/../controller/io/gps.o (symbol from plugin)
                                                  obj/main/NAZE/../controller/mw.o (symbol from plugin)
updateGpsStateForHomeAndHoldMode                  obj/main/NAZE/../controller/flight/navigation.o (symbol from plugin)
                                                  obj/main/NAZE/../controller/mw.o (symbol from plugin)
updateGpsWaypointsAndMode                         obj/main/NAZE/../controller/flight/navigation.o (symbol from plugin)
                                                  obj/main/NAZE/../controller/mw.o (symbol from plugin)
updateGtuneState                                  obj/main/NAZE/../controller/mw.o (symbol from plugin)
updateHardwareRevision                            obj/main/NAZE/hardware_revision.o (symbol from plugin)
                                                  obj/main/NAZE/main.o (symbol from plugin)
updateInflightCalibrationState                    obj/main/NAZE/../controller/mw.o (symbol from plugin)
updateLedCount                                    obj/main/NAZE/../controller/io/ledstrip.o (symbol from plugin)
updateLedStrip                                    obj/main/NAZE/../controller/io/ledstrip.o (symbol from plugin)
                                                  obj/main/NAZE/../controller/mw.o (symbol from plugin)
updateMagHold                                     obj/main/NAZE/../controller/mw.o (symbol from plugin)
updateRSSI                                        obj/main/NAZE/../controller/rx/rx.o (symbol from plugin)
                                                  obj/main/NAZE/../controller/mw.o (symbol from plugin)
updateRSSIADC                                     obj/main/NAZE/../controller/rx/rx.o (symbol from plugin)
updateRSSIPWM                                     obj/main/NAZE/../controller/rx/rx.o (symbol from plugin)
updateRx                                          obj/main/NAZE/../controller/rx/rx.o (symbol from plugin)
                                                  obj/main/NAZE/../controller/mw.o (symbol from plugin)
updateRxStatus                                    obj/main/NAZE/../controller/io/display.o (symbol from plugin)
updateSonarAltHoldState                           obj/main/NAZE/../controller/flight/altitudehold.o (symbol from plugin)
                                                  obj/main/NAZE/../controller/mw.o (symbol from plugin)
updateTicker                                      obj/main/NAZE/../controller/io/display.o (symbol from plugin)
usTicks.lto_priv.502                              /tmp/cclQ5C5v.ltrans14.ltrans.o
                                                  /tmp/cclQ5C5v.ltrans0.ltrans.o
usartIrqCallback                                  /tmp/cclQ5C5v.ltrans16.ltrans.o
                                                  obj/main/NAZE/drivers/serial_uart_stm32f10x.o (symbol from plugin)
                                                  /tmp/cclQ5C5v.ltrans17.ltrans.o
usb1WireInitialize                                obj/main/NAZE/../controller/io/serial_1wire.o (symbol from plugin)
                                                  obj/main/NAZE/../controller/io/serial_msp.o (symbol from plugin)
usb1WirePassthrough                               obj/main/NAZE/../controller/io/serial_1wire.o (symbol from plugin)
                                                  obj/main/NAZE/../controller/io/serial_msp.o (symbol from plugin)
useBarometerConfig                                obj/main/NAZE/../controller/sensors/barometer.o (symbol from plugin)
                                                  obj/main/NAZE/../controller/config/config.o (symbol from plugin)
useFailsafeConfig                                 obj/main/NAZE/../controller/flight/failsafe.o (symbol from plugin)
                                                  obj/main/NAZE/../controller/config/config.o (symbol from plugin)
useGyroConfig                                     obj/main/NAZE/../controller/sensors/gyro.o (symbol from plugin)
                                                  obj/main/NAZE/../controller/config/config.o (symbol from plugin)
useRcControlsConfig                               obj/main/NAZE/../controller/io/rc_controls.o (symbol from plugin)
                                                  obj/main/NAZE/../controller/io/serial_msp.o (symbol from plugin)
                                                  obj/main/NAZE/../controller/config/config.o (symbol from plugin)
useRxConfig                                       obj/main/NAZE/../controller/rx/rx.o (symbol from plugin)
                                                  obj/main/NAZE/../controller/config/config.o (symbol from plugin)
usedTimers                                        obj/main/NAZE/drivers/timer.o (symbol from plugin)
validateAndFixConfig                              obj/main/NAZE/../controller/config/config.o (symbol from plugin)
valueTable                                        /tmp/cclQ5C5v.ltrans24.ltrans.o
                                                  obj/main/NAZE/../controller/io/serial_cli.o (symbol from plugin)
                                                  /tmp/cclQ5C5v.ltrans12.ltrans.o
vario                                             /tmp/cclQ5C5v.ltrans5.ltrans.o
                                                  obj/main/NAZE/../controller/flight/altitudehold.o (symbol from plugin)
                                                  /tmp/cclQ5C5v.ltrans22.ltrans.o
                                                  /tmp/cclQ5C5v.ltrans2.ltrans.o
                                                  obj/main/NAZE/../controller/io/serial_msp.o (symbol from plugin)
                                                  obj/main/NAZE/../controller/telemetry/smartport.o (symbol from plugin)
                                                  obj/main/NAZE/../controller/telemetry/frsky.o (symbol from plugin)
vbat                                              /tmp/cclQ5C5v.ltrans8.ltrans.o
                                                  obj/main/NAZE/../controller/sensors/battery.o (symbol from plugin)
                                                  /tmp/cclQ5C5v.ltrans27.ltrans.o
                                                  /tmp/cclQ5C5v.ltrans24.ltrans.o
                                                  /tmp/cclQ5C5v.ltrans19.ltrans.o
                                                  /tmp/cclQ5C5v.ltrans5.ltrans.o
                                                  /tmp/cclQ5C5v.ltrans2.ltrans.o
                                                  obj/main/NAZE/../controller/io/serial_msp.o (symbol from plugin)
                                                  obj/main/NAZE/../controller/io/serial_cli.o (symbol from plugin)
                                                  obj/main/NAZE/../controller/telemetry/ltm.o (symbol from plugin)
                                                  obj/main/NAZE/../controller/telemetry/smartport.o (symbol from plugin)
                                                  obj/main/NAZE/../controller/telemetry/hott.o (symbol from plugin)
                                                  obj/main/NAZE/../controller/telemetry/frsky.o (symbol from plugin)
                                                  obj/main/NAZE/../controller/io/display.o (symbol from plugin)
vbatFilterState.lto_priv.440                      /tmp/cclQ5C5v.ltrans8.ltrans.o
                                                  /tmp/cclQ5C5v.ltrans0.ltrans.o
vbatLatestADC                                     /tmp/cclQ5C5v.ltrans8.ltrans.o
                                                  obj/main/NAZE/../controller/sensors/battery.o (symbol from plugin)
                                                  /tmp/cclQ5C5v.ltrans27.ltrans.o
                                                  /tmp/cclQ5C5v.ltrans18.ltrans.o
                                                  /tmp/cclQ5C5v.ltrans10.ltrans.o
                                                  obj/main/NAZE/../controller/blackbox/blackbox.o (symbol from plugin)
vbatReference.lto_priv.417                        /tmp/cclQ5C5v.ltrans1.ltrans.o
                                                  /tmp/cclQ5C5v.ltrans18.ltrans.o
                                                  /tmp/cclQ5C5v.ltrans10.ltrans.o
velocityControl                                   /tmp/cclQ5C5v.ltrans22.ltrans.o
                                                  obj/main/NAZE/../controller/flight/altitudehold.o (symbol from plugin)
                                                  /tmp/cclQ5C5v.ltrans1.ltrans.o
waitForSerialPortToFinishTransmitting             /tmp/cclQ5C5v.ltrans7.ltrans.o
                                                  obj/main/NAZE/../controller/io/serial.o (symbol from plugin)
                                                  /tmp/cclQ5C5v.ltrans24.ltrans.o
                                                  /tmp/cclQ5C5v.ltrans12.ltrans.o
                                                  /tmp/cclQ5C5v.ltrans2.ltrans.o
                                                  obj/main/NAZE/../controller/io/serial_msp.o (symbol from plugin)
                                                  obj/main/NAZE/../controller/io/serial_cli.o (symbol from plugin)
                                                  obj/main/NAZE/../controller/io/gps.o (symbol from plugin)
warningLedDisable                                 obj/main/NAZE/../controller/io/statusindicator.o (symbol from plugin)
                                                  obj/main/NAZE/../controller/io/beeper.o (symbol from plugin)
                                                  obj/main/NAZE/../controller/mw.o (symbol from plugin)
warningLedEnable                                  obj/main/NAZE/../controller/io/statusindicator.o (symbol from plugin)
                                                  obj/main/NAZE/../controller/io/beeper.o (symbol from plugin)
warningLedFlash                                   obj/main/NAZE/../controller/io/statusindicator.o (symbol from plugin)
                                                  obj/main/NAZE/../controller/mw.o (symbol from plugin)
warningLedRefresh                                 /tmp/cclQ5C5v.ltrans8.ltrans.o
                                                  obj/main/NAZE/../controller/io/statusindicator.o (symbol from plugin)
                                                  /tmp/cclQ5C5v.ltrans27.ltrans.o
                                                  /tmp/cclQ5C5v.ltrans14.ltrans.o
                                                  /tmp/cclQ5C5v.ltrans1.ltrans.o
                                                  obj/main/NAZE/../controller/io/beeper.o (symbol from plugin)
warningLedResetTimer                              obj/main/NAZE/../controller/io/statusindicator.o (symbol from plugin)
warningLedState.lto_priv.266                      /tmp/cclQ5C5v.ltrans8.ltrans.o
                                                  /tmp/cclQ5C5v.ltrans27.ltrans.o
                                                  /tmp/cclQ5C5v.ltrans14.ltrans.o
                                                  /tmp/cclQ5C5v.ltrans1.ltrans.o
warningLedTimer.lto_priv.404                      /tmp/cclQ5C5v.ltrans8.ltrans.o
                                                  /tmp/cclQ5C5v.ltrans1.ltrans.o
warningLedUpdate                                  obj/main/NAZE/../controller/io/statusindicator.o (symbol from plugin)
                                                  obj/main/NAZE/../controller/mw.o (symbol from plugin)
waypoint_speed_gov.lto_priv.578                   /tmp/cclQ5C5v.ltrans11.ltrans.o
                                                  /tmp/cclQ5C5v.ltrans17.ltrans.o
workAroundForHottTelemetryOnUsart.isra.0.lto_priv.299 /tmp/cclQ5C5v.ltrans25.ltrans.o
                                                  /tmp/cclQ5C5v.ltrans5.ltrans.o
wp_distance.lto_priv.574                          /tmp/cclQ5C5v.ltrans11.ltrans.o
                                                  /tmp/cclQ5C5v.ltrans17.ltrans.o
wrap_18000.lto_priv.414                           /tmp/cclQ5C5v.ltrans17.ltrans.o
                                                  /tmp/cclQ5C5v.ltrans11.ltrans.o
                                                  /tmp/cclQ5C5v.ltrans1.ltrans.o
writeAllMotors                                    obj/main/NAZE/../controller/flight/mixer.o (symbol from plugin)
writeEEPROM                                       /tmp/cclQ5C5v.ltrans6.ltrans.o
                                                  obj/main/NAZE/../controller/config/config.o (symbol from plugin)
                                                  /tmp/cclQ5C5v.ltrans24.ltrans.o
                                                  /tmp/cclQ5C5v.ltrans3.ltrans.o
                                                  /tmp/cclQ5C5v.ltrans2.ltrans.o
                                                  /tmp/cclQ5C5v.ltrans0.ltrans.o
                                                  obj/main/NAZE/../controller/io/serial_msp.o (symbol from plugin)
                                                  obj/main/NAZE/../controller/io/serial_cli.o (symbol from plugin)
writeMotors                                       /tmp/cclQ5C5v.ltrans14.ltrans.o
                                                  obj/main/NAZE/../controller/flight/mixer.o (symbol from plugin)
                                                  /tmp/cclQ5C5v.ltrans1.ltrans.o
                                                  obj/main/NAZE/../controller/mw.o (symbol from plugin)
writeServos                                       obj/main/NAZE/../controller/flight/mixer.o (symbol from plugin)
                                                  obj/main/NAZE/../controller/mw.o (symbol from plugin)
writer.lto_priv.355                               /tmp/cclQ5C5v.ltrans24.ltrans.o
                                                  /tmp/cclQ5C5v.ltrans2.ltrans.o
ws2811DMAHandler                                  /tmp/cclQ5C5v.ltrans15.ltrans.o
                                                  obj/main/NAZE/drivers/light_ws2811strip.o (symbol from plugin)
                                                  /tmp/cclQ5C5v.ltrans0.ltrans.o
ws2811LedDataTransferInProgress                   /tmp/cclQ5C5v.ltrans9.ltrans.o
                                                  obj/main/NAZE/drivers/light_ws2811strip.o (symbol from plugin)
                                                  /tmp/cclQ5C5v.ltrans15.ltrans.o
ws2811LedStripDMAEnable                           obj/main/NAZE/drivers/light_ws2811strip_stm32f10x.o (symbol from plugin)
                                                  obj/main/NAZE/drivers/light_ws2811strip.o (symbol from plugin)
ws2811LedStripHardwareInit                        obj/main/NAZE/drivers/light_ws2811strip_stm32f10x.o (symbol from plugin)
                                                  obj/main/NAZE/drivers/light_ws2811strip.o (symbol from plugin)
ws2811LedStripInit                                obj/main/NAZE/drivers/light_ws2811strip.o (symbol from plugin)
                                                  obj/main/NAZE/../controller/io/ledstrip.o (symbol from plugin)
ws2811UpdateStrip                                 /tmp/cclQ5C5v.ltrans15.ltrans.o
                                                  obj/main/NAZE/drivers/light_ws2811strip.o (symbol from plugin)
                                                  /tmp/cclQ5C5v.ltrans9.ltrans.o
                                                  /tmp/cclQ5C5v.ltrans0.ltrans.o
                                                  obj/main/NAZE/../controller/io/ledstrip.o (symbol from plugin)
                                                  obj/main/NAZE/drivers/light_ws2811strip_stm32f10x.o (symbol from plugin)
xBusChannelCount.lto_priv.468                     /tmp/cclQ5C5v.ltrans8.ltrans.o
                                                  /tmp/cclQ5C5v.ltrans0.ltrans.o
xBusDataIncoming.lto_priv.465                     /tmp/cclQ5C5v.ltrans8.ltrans.o
                                                  /tmp/cclQ5C5v.ltrans0.ltrans.o
xBusDataReceive.lto_priv.471                      /tmp/cclQ5C5v.ltrans8.ltrans.o
                                                  /tmp/cclQ5C5v.ltrans0.ltrans.o
xBusFrameLength.lto_priv.467                      /tmp/cclQ5C5v.ltrans8.ltrans.o
                                                  /tmp/cclQ5C5v.ltrans0.ltrans.o
xBusFramePosition.lto_priv.466                    /tmp/cclQ5C5v.ltrans8.ltrans.o
                                                  /tmp/cclQ5C5v.ltrans0.ltrans.o
xBusFrameReceived.lto_priv.328                    /tmp/cclQ5C5v.ltrans8.ltrans.o
                                                  /tmp/cclQ5C5v.ltrans3.ltrans.o
                                                  /tmp/cclQ5C5v.ltrans0.ltrans.o
xBusFrameStatus                                   obj/main/NAZE/../controller/rx/xbus.o (symbol from plugin)
                                                  obj/main/NAZE/../controller/rx/rx.o (symbol from plugin)
xBusInit                                          obj/main/NAZE/../controller/rx/xbus.o (symbol from plugin)
                                                  obj/main/NAZE/../controller/rx/rx.o (symbol from plugin)
xBusProvider.lto_priv.469                         /tmp/cclQ5C5v.ltrans8.ltrans.o
                                                  /tmp/cclQ5C5v.ltrans0.ltrans.o
xBusReadRawRC.lto_priv.470                        /tmp/cclQ5C5v.ltrans8.ltrans.o
                                                  /tmp/cclQ5C5v.ltrans0.ltrans.o
xBusRj01CRC8                                      obj/main/NAZE/../controller/rx/xbus.o (symbol from plugin)
xmitState.lto_priv.424                            /tmp/cclQ5C5v.ltrans1.ltrans.o
                                                  /tmp/cclQ5C5v.ltrans18.ltrans.o
                                                  /tmp/cclQ5C5v.ltrans10.ltrans.o
zigzagEncode                                      obj/main/NAZE/../controller/common/encoding.o (symbol from plugin)
                                                  obj/main/NAZE/../controller/blackbox/blackbox_io.o (symbol from plugin)
