Archive member included to satisfy reference by file (symbol)

/usr/lib/gcc/arm-none-eabi/4.9.3/../../../arm-none-eabi/lib/armv7-m/libc_nano.a(lib_a-atoi.o)
                              obj/main/NAZE/io/ledstrip.o (symbol from plugin) (atoi)
/usr/lib/gcc/arm-none-eabi/4.9.3/../../../arm-none-eabi/lib/armv7-m/libc_nano.a(lib_a-ctype_.o)
                              obj/main/NAZE/flight/gps_conversion.o (symbol from plugin) (__ctype_ptr__)
/usr/lib/gcc/arm-none-eabi/4.9.3/../../../arm-none-eabi/lib/armv7-m/libc_nano.a(lib_a-memcpy.o)
                              obj/main/NAZE/io/ledstrip.o (symbol from plugin) (memcpy)
/usr/lib/gcc/arm-none-eabi/4.9.3/../../../arm-none-eabi/lib/armv7-m/libc_nano.a(lib_a-strtok.o)
                              obj/main/NAZE/io/serial_cli.o (symbol from plugin) (strtok)
/usr/lib/gcc/arm-none-eabi/4.9.3/../../../arm-none-eabi/lib/armv7-m/libc_nano.a(lib_a-strtok_r.o)
                              /usr/lib/gcc/arm-none-eabi/4.9.3/../../../arm-none-eabi/lib/armv7-m/libc_nano.a(lib_a-strtok.o) (__strtok_r)
/usr/lib/gcc/arm-none-eabi/4.9.3/../../../arm-none-eabi/lib/armv7-m/libc_nano.a(lib_a-strtol.o)
                              /usr/lib/gcc/arm-none-eabi/4.9.3/../../../arm-none-eabi/lib/armv7-m/libc_nano.a(lib_a-atoi.o) (_strtol_r)
/usr/lib/gcc/arm-none-eabi/4.9.3/../../../arm-none-eabi/lib/armv7-m/libc_nano.a(lib_a-impure.o)
                              /usr/lib/gcc/arm-none-eabi/4.9.3/../../../arm-none-eabi/lib/armv7-m/libc_nano.a(lib_a-strtok.o) (_impure_ptr)
/usr/lib/gcc/arm-none-eabi/4.9.3/../../../arm-none-eabi/lib/armv7-m/libc_nano.a(lib_a-malloc.o)
                              /usr/lib/gcc/arm-none-eabi/4.9.3/../../../arm-none-eabi/lib/armv7-m/libc_nano.a(lib_a-strtok.o) (malloc)
/usr/lib/gcc/arm-none-eabi/4.9.3/../../../arm-none-eabi/lib/armv7-m/libc_nano.a(lib_a-nano-freer.o)
                              /usr/lib/gcc/arm-none-eabi/4.9.3/../../../arm-none-eabi/lib/armv7-m/libc_nano.a(lib_a-malloc.o) (_free_r)
/usr/lib/gcc/arm-none-eabi/4.9.3/../../../arm-none-eabi/lib/armv7-m/libc_nano.a(lib_a-nano-mallocr.o)
                              /usr/lib/gcc/arm-none-eabi/4.9.3/../../../arm-none-eabi/lib/armv7-m/libc_nano.a(lib_a-malloc.o) (_malloc_r)
/usr/lib/gcc/arm-none-eabi/4.9.3/../../../arm-none-eabi/lib/armv7-m/libc_nano.a(lib_a-sbrkr.o)
                              /usr/lib/gcc/arm-none-eabi/4.9.3/../../../arm-none-eabi/lib/armv7-m/libc_nano.a(lib_a-nano-mallocr.o) (_sbrk_r)
/usr/lib/gcc/arm-none-eabi/4.9.3/../../../arm-none-eabi/lib/armv7-m/libc_nano.a(lib_a-reent.o)
                              /usr/lib/gcc/arm-none-eabi/4.9.3/../../../arm-none-eabi/lib/armv7-m/libc_nano.a(lib_a-sbrkr.o) (errno)
/usr/lib/gcc/arm-none-eabi/4.9.3/../../../arm-none-eabi/lib/armv7-m/libnosys.a(sbrk.o)
                              /usr/lib/gcc/arm-none-eabi/4.9.3/../../../arm-none-eabi/lib/armv7-m/libc_nano.a(lib_a-sbrkr.o) (_sbrk)
/usr/lib/gcc/arm-none-eabi/4.9.3/../../../arm-none-eabi/lib/armv7-m/libm.a(lib_a-sf_log2.o)
                              /tmp/ccGrItoW.ltrans25.ltrans.o (log2f)
/usr/lib/gcc/arm-none-eabi/4.9.3/../../../arm-none-eabi/lib/armv7-m/libm.a(lib_a-sf_lrint.o)
                              /tmp/ccGrItoW.ltrans2.ltrans.o (lrintf)
/usr/lib/gcc/arm-none-eabi/4.9.3/../../../arm-none-eabi/lib/armv7-m/libm.a(lib_a-wf_log.o)
                              /usr/lib/gcc/arm-none-eabi/4.9.3/../../../arm-none-eabi/lib/armv7-m/libm.a(lib_a-sf_log2.o) (logf)
/usr/lib/gcc/arm-none-eabi/4.9.3/../../../arm-none-eabi/lib/armv7-m/libm.a(lib_a-wf_pow.o)
                              /tmp/ccGrItoW.ltrans16.ltrans.o (powf)
/usr/lib/gcc/arm-none-eabi/4.9.3/../../../arm-none-eabi/lib/armv7-m/libm.a(lib_a-wf_sqrt.o)
                              /tmp/ccGrItoW.ltrans14.ltrans.o (sqrtf)
/usr/lib/gcc/arm-none-eabi/4.9.3/../../../arm-none-eabi/lib/armv7-m/libm.a(lib_a-ef_log.o)
                              /usr/lib/gcc/arm-none-eabi/4.9.3/../../../arm-none-eabi/lib/armv7-m/libm.a(lib_a-wf_log.o) (__ieee754_logf)
/usr/lib/gcc/arm-none-eabi/4.9.3/../../../arm-none-eabi/lib/armv7-m/libm.a(lib_a-ef_pow.o)
                              /usr/lib/gcc/arm-none-eabi/4.9.3/../../../arm-none-eabi/lib/armv7-m/libm.a(lib_a-wf_pow.o) (__ieee754_powf)
/usr/lib/gcc/arm-none-eabi/4.9.3/../../../arm-none-eabi/lib/armv7-m/libm.a(lib_a-ef_sqrt.o)
                              /usr/lib/gcc/arm-none-eabi/4.9.3/../../../arm-none-eabi/lib/armv7-m/libm.a(lib_a-wf_sqrt.o) (__ieee754_sqrtf)
/usr/lib/gcc/arm-none-eabi/4.9.3/../../../arm-none-eabi/lib/armv7-m/libm.a(lib_a-s_lib_ver.o)
                              /usr/lib/gcc/arm-none-eabi/4.9.3/../../../arm-none-eabi/lib/armv7-m/libm.a(lib_a-wf_log.o) (__fdlib_version)
/usr/lib/gcc/arm-none-eabi/4.9.3/../../../arm-none-eabi/lib/armv7-m/libm.a(lib_a-s_matherr.o)
                              /usr/lib/gcc/arm-none-eabi/4.9.3/../../../arm-none-eabi/lib/armv7-m/libm.a(lib_a-wf_log.o) (matherr)
/usr/lib/gcc/arm-none-eabi/4.9.3/../../../arm-none-eabi/lib/armv7-m/libm.a(lib_a-s_nan.o)
                              /usr/lib/gcc/arm-none-eabi/4.9.3/../../../arm-none-eabi/lib/armv7-m/libm.a(lib_a-wf_log.o) (nan)
/usr/lib/gcc/arm-none-eabi/4.9.3/../../../arm-none-eabi/lib/armv7-m/libm.a(lib_a-s_rint.o)
                              /usr/lib/gcc/arm-none-eabi/4.9.3/../../../arm-none-eabi/lib/armv7-m/libm.a(lib_a-wf_pow.o) (rint)
/usr/lib/gcc/arm-none-eabi/4.9.3/../../../arm-none-eabi/lib/armv7-m/libm.a(lib_a-sf_fabs.o)
                              /usr/lib/gcc/arm-none-eabi/4.9.3/../../../arm-none-eabi/lib/armv7-m/libm.a(lib_a-ef_pow.o) (fabsf)
/usr/lib/gcc/arm-none-eabi/4.9.3/../../../arm-none-eabi/lib/armv7-m/libm.a(lib_a-sf_finite.o)
                              /usr/lib/gcc/arm-none-eabi/4.9.3/../../../arm-none-eabi/lib/armv7-m/libm.a(lib_a-wf_pow.o) (finitef)
/usr/lib/gcc/arm-none-eabi/4.9.3/../../../arm-none-eabi/lib/armv7-m/libm.a(lib_a-sf_fpclassify.o)
                              /usr/lib/gcc/arm-none-eabi/4.9.3/../../../arm-none-eabi/lib/armv7-m/libm.a(lib_a-wf_log.o) (__fpclassifyf)
/usr/lib/gcc/arm-none-eabi/4.9.3/../../../arm-none-eabi/lib/armv7-m/libm.a(lib_a-sf_nan.o)
                              /usr/lib/gcc/arm-none-eabi/4.9.3/../../../arm-none-eabi/lib/armv7-m/libm.a(lib_a-ef_pow.o) (nanf)
/usr/lib/gcc/arm-none-eabi/4.9.3/../../../arm-none-eabi/lib/armv7-m/libm.a(lib_a-sf_scalbn.o)
                              /usr/lib/gcc/arm-none-eabi/4.9.3/../../../arm-none-eabi/lib/armv7-m/libm.a(lib_a-ef_pow.o) (scalbnf)
/usr/lib/gcc/arm-none-eabi/4.9.3/../../../arm-none-eabi/lib/armv7-m/libm.a(lib_a-sf_copysign.o)
                              /usr/lib/gcc/arm-none-eabi/4.9.3/../../../arm-none-eabi/lib/armv7-m/libm.a(lib_a-sf_scalbn.o) (copysignf)
/usr/lib/gcc/arm-none-eabi/4.9.3/../../../arm-none-eabi/lib/armv7-m/libc_nano.a(lib_a-errno.o)
                              /usr/lib/gcc/arm-none-eabi/4.9.3/../../../arm-none-eabi/lib/armv7-m/libm.a(lib_a-wf_log.o) (__errno)
/usr/lib/gcc/arm-none-eabi/4.9.3/../../../arm-none-eabi/lib/armv7-m/libc_nano.a(lib_a-memcmp.o)
                              /tmp/ccGrItoW.ltrans12.ltrans.o (memcmp)
/usr/lib/gcc/arm-none-eabi/4.9.3/../../../arm-none-eabi/lib/armv7-m/libc_nano.a(lib_a-memmove.o)
                              /tmp/ccGrItoW.ltrans3.ltrans.o (memmove)
/usr/lib/gcc/arm-none-eabi/4.9.3/../../../arm-none-eabi/lib/armv7-m/libc_nano.a(lib_a-memset.o)
                              /tmp/ccGrItoW.ltrans0.ltrans.o (memset)
/usr/lib/gcc/arm-none-eabi/4.9.3/../../../arm-none-eabi/lib/armv7-m/libc_nano.a(lib_a-strcasecmp.o)
                              /tmp/ccGrItoW.ltrans7.ltrans.o (strcasecmp)
/usr/lib/gcc/arm-none-eabi/4.9.3/../../../arm-none-eabi/lib/armv7-m/libc_nano.a(lib_a-strcat.o)
                              /tmp/ccGrItoW.ltrans18.ltrans.o (strcat)
/usr/lib/gcc/arm-none-eabi/4.9.3/../../../arm-none-eabi/lib/armv7-m/libc_nano.a(lib_a-strchr.o)
                              /tmp/ccGrItoW.ltrans7.ltrans.o (strchr)
/usr/lib/gcc/arm-none-eabi/4.9.3/../../../arm-none-eabi/lib/armv7-m/libc_nano.a(lib_a-strlen.o)
                              /tmp/ccGrItoW.ltrans1.ltrans.o (strlen)
/usr/lib/gcc/arm-none-eabi/4.9.3/../../../arm-none-eabi/lib/armv7-m/libc_nano.a(lib_a-strncasecmp.o)
                              /tmp/ccGrItoW.ltrans7.ltrans.o (strncasecmp)
/usr/lib/gcc/arm-none-eabi/4.9.3/../../../arm-none-eabi/lib/armv7-m/libc_nano.a(lib_a-strncpy.o)
                              /tmp/ccGrItoW.ltrans18.ltrans.o (strncpy)
/usr/lib/gcc/arm-none-eabi/4.9.3/../../../arm-none-eabi/lib/armv7-m/libc_nano.a(lib_a-strstr.o)
                              /tmp/ccGrItoW.ltrans17.ltrans.o (strstr)
/usr/lib/gcc/arm-none-eabi/4.9.3/armv7-m/libgcc.a(_arm_addsubdf3.o)
                              /usr/lib/gcc/arm-none-eabi/4.9.3/../../../arm-none-eabi/lib/armv7-m/libm.a(lib_a-s_rint.o) (__aeabi_dsub)
/usr/lib/gcc/arm-none-eabi/4.9.3/armv7-m/libgcc.a(_arm_muldivdf3.o)
                              /tmp/ccGrItoW.ltrans3.ltrans.o (__aeabi_ddiv)
/usr/lib/gcc/arm-none-eabi/4.9.3/armv7-m/libgcc.a(_arm_cmpdf2.o)
                              /usr/lib/gcc/arm-none-eabi/4.9.3/../../../arm-none-eabi/lib/armv7-m/libm.a(lib_a-wf_pow.o) (__aeabi_dcmpeq)
/usr/lib/gcc/arm-none-eabi/4.9.3/armv7-m/libgcc.a(_arm_truncdfsf2.o)
                              /tmp/ccGrItoW.ltrans3.ltrans.o (__aeabi_d2f)
/usr/lib/gcc/arm-none-eabi/4.9.3/armv7-m/libgcc.a(_arm_addsubsf3.o)
                              /tmp/ccGrItoW.ltrans0.ltrans.o (__aeabi_fsub)
/usr/lib/gcc/arm-none-eabi/4.9.3/armv7-m/libgcc.a(_arm_muldivsf3.o)
                              /tmp/ccGrItoW.ltrans0.ltrans.o (__aeabi_fmul)
/usr/lib/gcc/arm-none-eabi/4.9.3/armv7-m/libgcc.a(_arm_cmpsf2.o)
                              /tmp/ccGrItoW.ltrans0.ltrans.o (__aeabi_fcmpeq)
/usr/lib/gcc/arm-none-eabi/4.9.3/armv7-m/libgcc.a(_arm_fixsfsi.o)
                              /tmp/ccGrItoW.ltrans2.ltrans.o (__aeabi_f2iz)
/usr/lib/gcc/arm-none-eabi/4.9.3/armv7-m/libgcc.a(_arm_fixunssfsi.o)
                              /tmp/ccGrItoW.ltrans4.ltrans.o (__aeabi_f2uiz)
/usr/lib/gcc/arm-none-eabi/4.9.3/armv7-m/libgcc.a(_aeabi_ldivmod.o)
                              /tmp/ccGrItoW.ltrans6.ltrans.o (__aeabi_ldivmod)
/usr/lib/gcc/arm-none-eabi/4.9.3/armv7-m/libgcc.a(_popcountsi2.o)
                              /tmp/ccGrItoW.ltrans19.ltrans.o (__popcountsi2)
/usr/lib/gcc/arm-none-eabi/4.9.3/armv7-m/libgcc.a(bpabi.o)
                              /usr/lib/gcc/arm-none-eabi/4.9.3/armv7-m/libgcc.a(_aeabi_ldivmod.o) (__gnu_ldivmod_helper)
/usr/lib/gcc/arm-none-eabi/4.9.3/armv7-m/libgcc.a(_dvmd_tls.o)
                              /usr/lib/gcc/arm-none-eabi/4.9.3/armv7-m/libgcc.a(_aeabi_ldivmod.o) (__aeabi_ldiv0)
/usr/lib/gcc/arm-none-eabi/4.9.3/armv7-m/libgcc.a(_divdi3.o)
                              /usr/lib/gcc/arm-none-eabi/4.9.3/armv7-m/libgcc.a(bpabi.o) (__divdi3)
/usr/lib/gcc/arm-none-eabi/4.9.3/armv7-m/libgcc.a(_udivdi3.o)
                              /usr/lib/gcc/arm-none-eabi/4.9.3/armv7-m/libgcc.a(bpabi.o) (__udivdi3)

Allocating common symbols
Common symbol       size              file

airplaneConfig_System
                    0x1               obj/main/NAZE/flight/altitudehold.o (symbol from plugin)
timerChannelInfo    0xe               obj/main/NAZE/drivers/timer.o (symbol from plugin)
debugConfig_System  0x1               obj/main/NAZE/fc/fc_debug.o (symbol from plugin)
ITermLimit          0xc               obj/main/NAZE/flight/pid.o (symbol from plugin)
rateProfileSelection_ProfileCurrent
                    0x4               obj/main/NAZE/fc/rate_profile.o (symbol from plugin)
yawFilter           0xc               obj/main/NAZE/flight/pid.o (symbol from plugin)
baro_cf_alt         0x4               obj/main/NAZE/sensors/sonar.o (symbol from plugin)
ubx_nav_status_bits
                    0x1               obj/main/NAZE/io/gps.o (symbol from plugin)
softSerialPorts     0x4a0             obj/main/NAZE/drivers/serial_softserial.o (symbol from plugin)
telemTemperature1   0x2               obj/main/NAZE/fc/cleanflight_fc.o (symbol from plugin)
sonarMaxRangeCm     0x2               obj/main/NAZE/sensors/sonar.o (symbol from plugin)
errno               0x4               /usr/lib/gcc/arm-none-eabi/4.9.3/../../../arm-none-eabi/lib/armv7-m/libc_nano.a(lib_a-reent.o)
rcRaw               0x24              obj/main/NAZE/rx/rx.o (symbol from plugin)
ubx_protocol_bytes  0x1               obj/main/NAZE/io/gps.o (symbol from plugin)
gimbalConfig_ProfileCurrent
                    0x4               obj/main/NAZE/io/gimbal.o (symbol from plugin)
hottTelemetryConfig_System
                    0x1               obj/main/NAZE/telemetry/hott.o (symbol from plugin)
inputSource_e       0x1               obj/main/NAZE/blackbox/blackbox.o (symbol from plugin)
timerInfo           0x4               obj/main/NAZE/drivers/timer.o (symbol from plugin)
ITermLimitf         0xc               obj/main/NAZE/flight/pid.o (symbol from plugin)
accADC              0xc               obj/main/NAZE/sensors/acceleration.o (symbol from plugin)
ibusTelemetryConfig_System
                    0x1               obj/main/NAZE/telemetry/ibus.o (symbol from plugin)
deltaFilter         0x24              obj/main/NAZE/flight/pid.o (symbol from plugin)
sensorSelectionConfig_System
                    0x3               obj/main/NAZE/sensors/sensors.o (symbol from plugin)
magADCRaw           0x6               obj/main/NAZE/sensors/compass.o (symbol from plugin)
mspServerConfig_System
                    0x1               obj/main/NAZE/msp/msp_server.o (symbol from plugin)
hcsr04_extiCallbackRec
                    0x4               obj/main/NAZE/drivers/sonar_hcsr04.o (symbol from plugin)
mpuIntCallbackRec   0x4               obj/main/NAZE/drivers/accgyro_mpu.o (symbol from plugin)
flashchipConfig_System
                    0x8               obj/main/NAZE/fc/boot.o (symbol from plugin)
servoConfig_System  0x4               obj/main/NAZE/io/servos.o (symbol from plugin)
barometerConfig_ProfileCurrent
                    0x4               obj/main/NAZE/sensors/barometer.o (symbol from plugin)
pwmRxConfig_System  0x1               obj/main/NAZE/fc/boot.o (symbol from plugin)
dynI8               0x3               obj/main/NAZE/flight/pid_mw23.o (symbol from plugin)
mpuIntDenominator   0x1               obj/main/NAZE/drivers/accgyro_mpu.o (symbol from plugin)
sectionTimes        0x20              obj/main/NAZE/build/debug.o (symbol from plugin)
systemConfig_System
                    0x2               obj/main/NAZE/fc/boot.o (symbol from plugin)
customMixers        0x4               obj/main/NAZE/flight/mixer.o (symbol from plugin)
baro_cf_vel         0x4               obj/main/NAZE/sensors/sonar.o (symbol from plugin)
ubs_nav_fix_type    0x1               obj/main/NAZE/io/gps.o (symbol from plugin)

Discarded input sections

 .text          0x00000000       0x14 obj/main/NAZE/startup_stm32f10x_md_gcc.o
 .data          0x00000000        0x0 obj/main/NAZE/startup_stm32f10x_md_gcc.o
 .bss           0x00000000        0x0 obj/main/NAZE/startup_stm32f10x_md_gcc.o
 .text          0x00000000        0x0 obj/main/NAZE/drivers/adc.o (symbol from plugin)
 .text          0x00000000        0x0 /tmp/ccGrItoW.ltrans0.ltrans.o
 .data          0x00000000        0x0 /tmp/ccGrItoW.ltrans0.ltrans.o
 .data          0x00000000        0x0 /tmp/ccGrItoW.ltrans2.ltrans.o
 .data          0x00000000        0x0 /tmp/ccGrItoW.ltrans5.ltrans.o
 .data          0x00000000        0x0 /tmp/ccGrItoW.ltrans7.ltrans.o
 .data          0x00000000        0x0 /tmp/ccGrItoW.ltrans12.ltrans.o
 .data          0x00000000        0x0 /tmp/ccGrItoW.ltrans14.ltrans.o
 .data          0x00000000        0x0 /tmp/ccGrItoW.ltrans15.ltrans.o
 .data          0x00000000        0x0 /tmp/ccGrItoW.ltrans16.ltrans.o
 .data          0x00000000        0x0 /tmp/ccGrItoW.ltrans17.ltrans.o
 .data          0x00000000        0x0 /tmp/ccGrItoW.ltrans20.ltrans.o
 .data          0x00000000        0x0 /tmp/ccGrItoW.ltrans21.ltrans.o
 .data          0x00000000        0x0 /tmp/ccGrItoW.ltrans23.ltrans.o
 .data          0x00000000        0x0 /tmp/ccGrItoW.ltrans24.ltrans.o
 .data          0x00000000        0x0 /tmp/ccGrItoW.ltrans25.ltrans.o
 .data          0x00000000        0x0 /tmp/ccGrItoW.ltrans26.ltrans.o
 .data          0x00000000        0x0 /tmp/ccGrItoW.ltrans27.ltrans.o
 .data          0x00000000        0x0 /tmp/ccGrItoW.ltrans28.ltrans.o
 .data          0x00000000        0x0 /tmp/ccGrItoW.ltrans30.ltrans.o
 .bss           0x00000000        0x0 /tmp/ccGrItoW.ltrans31.ltrans.o
 .text          0x00000000        0x0 obj/main/NAZE/drivers/adc_stm32f10x.o (symbol from plugin)
 .text          0x00000000        0x0 obj/main/NAZE/drivers/bus_i2c_stm32f10x.o (symbol from plugin)
 .text          0x00000000        0x0 obj/main/NAZE/drivers/gpio_stm32f10x.o (symbol from plugin)
 .text          0x00000000        0x0 obj/main/NAZE/drivers/light_led_stm32f10x.o (symbol from plugin)
 .text          0x00000000        0x0 obj/main/NAZE/drivers/serial_uart.o (symbol from plugin)
 .text          0x00000000        0x0 obj/main/NAZE/drivers/serial_uart_stm32f10x.o (symbol from plugin)
 .text          0x00000000        0x0 obj/main/NAZE/drivers/system_stm32f10x.o (symbol from plugin)
 .text          0x00000000        0x0 obj/main/NAZE/drivers/accgyro_adxl345.o (symbol from plugin)
 .text          0x00000000        0x0 obj/main/NAZE/drivers/accgyro_bma280.o (symbol from plugin)
 .text          0x00000000        0x0 obj/main/NAZE/drivers/accgyro_l3g4200d.o (symbol from plugin)
 .text          0x00000000        0x0 obj/main/NAZE/drivers/accgyro_mma845x.o (symbol from plugin)
 .text          0x00000000        0x0 obj/main/NAZE/drivers/accgyro_mpu.o (symbol from plugin)
 .text          0x00000000        0x0 obj/main/NAZE/drivers/accgyro_mpu3050.o (symbol from plugin)
 .text          0x00000000        0x0 obj/main/NAZE/drivers/accgyro_mpu6050.o (symbol from plugin)
 .text          0x00000000        0x0 obj/main/NAZE/drivers/accgyro_mpu6500.o (symbol from plugin)
 .text          0x00000000        0x0 obj/main/NAZE/drivers/accgyro_spi_mpu6500.o (symbol from plugin)
 .text          0x00000000        0x0 obj/main/NAZE/drivers/barometer_bmp085.o (symbol from plugin)
 .text          0x00000000        0x0 obj/main/NAZE/drivers/barometer_ms5611.o (symbol from plugin)
 .text          0x00000000        0x0 obj/main/NAZE/drivers/barometer_bmp280.o (symbol from plugin)
 .text          0x00000000        0x0 obj/main/NAZE/drivers/bus_spi.o (symbol from plugin)
 .text          0x00000000        0x0 obj/main/NAZE/drivers/compass_hmc5883l.o (symbol from plugin)
 .text          0x00000000        0x0 obj/main/NAZE/drivers/display_ug2864hsweg01.o (symbol from plugin)
 .text          0x00000000        0x0 obj/main/NAZE/drivers/flash_m25p16.o (symbol from plugin)
 .text          0x00000000        0x0 obj/main/NAZE/drivers/inverter.o (symbol from plugin)
 .text          0x00000000        0x0 obj/main/NAZE/drivers/light_ws2811strip.o (symbol from plugin)
 .text          0x00000000        0x0 obj/main/NAZE/drivers/light_ws2811strip_stm32f10x.o (symbol from plugin)
 .text          0x00000000        0x0 obj/main/NAZE/drivers/sonar_hcsr04.o (symbol from plugin)
 .text          0x00000000        0x0 obj/main/NAZE/drivers/pwm_mapping.o (symbol from plugin)
 .text          0x00000000        0x0 obj/main/NAZE/drivers/pwm_output.o (symbol from plugin)
 .text          0x00000000        0x0 obj/main/NAZE/drivers/pwm_rx.o (symbol from plugin)
 .text          0x00000000        0x0 obj/main/NAZE/drivers/serial_softserial.o (symbol from plugin)
 .text          0x00000000        0x0 obj/main/NAZE/drivers/sound_beeper_stm32f10x.o (symbol from plugin)
 .text          0x00000000        0x0 obj/main/NAZE/drivers/timer.o (symbol from plugin)
 .text          0x00000000        0x0 obj/main/NAZE/drivers/timer_stm32f10x.o (symbol from plugin)
 .text          0x00000000        0x0 obj/main/NAZE/io/flashfs.o (symbol from plugin)
 .text          0x00000000        0x0 obj/main/NAZE/hardware_revision.o (symbol from plugin)
 .text          0x00000000        0x0 obj/main/NAZE/flight/gtune.o (symbol from plugin)
 .text          0x00000000        0x0 obj/main/NAZE/flight/navigation.o (symbol from plugin)
 .text          0x00000000        0x0 obj/main/NAZE/flight/gps_conversion.o (symbol from plugin)
 .text          0x00000000        0x0 obj/main/NAZE/common/colorconversion.o (symbol from plugin)
 .text          0x00000000        0x0 obj/main/NAZE/io/gps.o (symbol from plugin)
 .text          0x00000000        0x0 obj/main/NAZE/io/ledstrip.o (symbol from plugin)
 .text          0x00000000        0x0 obj/main/NAZE/io/display.o (symbol from plugin)
 .text          0x00000000        0x0 obj/main/NAZE/telemetry/telemetry.o (symbol from plugin)
 .text          0x00000000        0x0 obj/main/NAZE/telemetry/frsky.o (symbol from plugin)
 .text          0x00000000        0x0 obj/main/NAZE/telemetry/hott.o (symbol from plugin)
 .text          0x00000000        0x0 obj/main/NAZE/telemetry/smartport.o (symbol from plugin)
 .text          0x00000000        0x0 obj/main/NAZE/telemetry/ltm.o (symbol from plugin)
 .text          0x00000000        0x0 obj/main/NAZE/telemetry/mavlink.o (symbol from plugin)
 .text          0x00000000        0x0 obj/main/NAZE/telemetry/ibus.o (symbol from plugin)
 .text          0x00000000        0x0 obj/main/NAZE/sensors/sonar.o (symbol from plugin)
 .text          0x00000000        0x0 obj/main/NAZE/sensors/barometer.o (symbol from plugin)
 .text          0x00000000        0x0 obj/main/NAZE/blackbox/blackbox.o (symbol from plugin)
 .text          0x00000000        0x0 obj/main/NAZE/blackbox/blackbox_io.o (symbol from plugin)
 .text          0x00000000        0x0 obj/main/NAZE/config/feature.o (symbol from plugin)
 .text          0x00000000        0x0 obj/main/NAZE/config/profile.o (symbol from plugin)
 .text          0x00000000        0x0 obj/main/NAZE/fc/boot.o (symbol from plugin)
 .text          0x00000000        0x0 obj/main/NAZE/fc/fc_debug.o (symbol from plugin)
 .text          0x00000000        0x0 obj/main/NAZE/fc/cleanflight_fc.o (symbol from plugin)
 .text          0x00000000        0x0 obj/main/NAZE/fc/fc_tasks.o (symbol from plugin)
 .text          0x00000000        0x0 obj/main/NAZE/fc/rate_profile.o (symbol from plugin)
 .text          0x00000000        0x0 obj/main/NAZE/fc/rc_adjustments.o (symbol from plugin)
 .text          0x00000000        0x0 obj/main/NAZE/fc/rc_controls.o (symbol from plugin)
 .text          0x00000000        0x0 obj/main/NAZE/fc/rc_curves.o (symbol from plugin)
 .text          0x00000000        0x0 obj/main/NAZE/fc/fc_serial.o (symbol from plugin)
 .text          0x00000000        0x0 obj/main/NAZE/fc/config.o (symbol from plugin)
 .text          0x00000000        0x0 obj/main/NAZE/fc/runtime_config.o (symbol from plugin)
 .text          0x00000000        0x0 obj/main/NAZE/fc/msp_server_fc.o (symbol from plugin)
 .text          0x00000000        0x0 obj/main/NAZE/flight/altitudehold.o (symbol from plugin)
 .text          0x00000000        0x0 obj/main/NAZE/flight/failsafe.o (symbol from plugin)
 .text          0x00000000        0x0 obj/main/NAZE/flight/pid.o (symbol from plugin)
 .text          0x00000000        0x0 obj/main/NAZE/flight/pid_luxfloat.o (symbol from plugin)
 .text          0x00000000        0x0 obj/main/NAZE/flight/pid_mwrewrite.o (symbol from plugin)
 .text          0x00000000        0x0 obj/main/NAZE/flight/pid_mw23.o (symbol from plugin)
 .text          0x00000000        0x0 obj/main/NAZE/flight/imu.o (symbol from plugin)
 .text          0x00000000        0x0 obj/main/NAZE/flight/mixer.o (symbol from plugin)
 .text          0x00000000        0x0 obj/main/NAZE/flight/servos.o (symbol from plugin)
 .text          0x00000000        0x0 obj/main/NAZE/drivers/bus_i2c_soft.o (symbol from plugin)
 .text          0x00000000        0x0 obj/main/NAZE/drivers/exti.o (symbol from plugin)
 .text          0x00000000        0x0 obj/main/NAZE/drivers/io.o (symbol from plugin)
 .text          0x00000000        0x0 obj/main/NAZE/drivers/rcc.o (symbol from plugin)
 .text          0x00000000        0x0 obj/main/NAZE/drivers/sound_beeper.o (symbol from plugin)
 .text          0x00000000        0x0 obj/main/NAZE/drivers/gyro_sync.o (symbol from plugin)
 .text          0x00000000        0x0 obj/main/NAZE/io/beeper.o (symbol from plugin)
 .text          0x00000000        0x0 obj/main/NAZE/io/gimbal.o (symbol from plugin)
 .text          0x00000000        0x0 obj/main/NAZE/io/servos.o (symbol from plugin)
 .text          0x00000000        0x0 obj/main/NAZE/io/motors.o (symbol from plugin)
 .text          0x00000000        0x0 obj/main/NAZE/io/serial_4way.o (symbol from plugin)
 .text          0x00000000        0x0 obj/main/NAZE/io/serial_4way_avrootloader.o (symbol from plugin)
 .text          0x00000000        0x0 obj/main/NAZE/io/serial_4way_stk500v2.o (symbol from plugin)
 .text          0x00000000        0x0 obj/main/NAZE/io/serial_cli.o (symbol from plugin)
 .text          0x00000000        0x0 obj/main/NAZE/io/statusindicator.o (symbol from plugin)
 .text          0x00000000        0x0 obj/main/NAZE/rx/rx.o (symbol from plugin)
 .text          0x00000000        0x0 obj/main/NAZE/rx/pwm.o (symbol from plugin)
 .text          0x00000000        0x0 obj/main/NAZE/rx/msp.o (symbol from plugin)
 .text          0x00000000        0x0 obj/main/NAZE/rx/sbus.o (symbol from plugin)
 .text          0x00000000        0x0 obj/main/NAZE/rx/sumd.o (symbol from plugin)
 .text          0x00000000        0x0 obj/main/NAZE/rx/sumh.o (symbol from plugin)
 .text          0x00000000        0x0 obj/main/NAZE/rx/spektrum.o (symbol from plugin)
 .text          0x00000000        0x0 obj/main/NAZE/rx/xbus.o (symbol from plugin)
 .text          0x00000000        0x0 obj/main/NAZE/rx/ibus.o (symbol from plugin)
 .text          0x00000000        0x0 obj/main/NAZE/rx/srxl.o (symbol from plugin)
 .text          0x00000000        0x0 obj/main/NAZE/sensors/sensors.o (symbol from plugin)
 .text          0x00000000        0x0 obj/main/NAZE/sensors/acceleration.o (symbol from plugin)
 .text          0x00000000        0x0 obj/main/NAZE/sensors/battery.o (symbol from plugin)
 .text          0x00000000        0x0 obj/main/NAZE/sensors/voltage.o (symbol from plugin)
 .text          0x00000000        0x0 obj/main/NAZE/sensors/amperage.o (symbol from plugin)
 .text          0x00000000        0x0 obj/main/NAZE/sensors/boardalignment.o (symbol from plugin)
 .text          0x00000000        0x0 obj/main/NAZE/sensors/compass.o (symbol from plugin)
 .text          0x00000000        0x0 obj/main/NAZE/sensors/gyro.o (symbol from plugin)
 .text          0x00000000        0x0 obj/main/NAZE/sensors/initialisation.o (symbol from plugin)
 .text          0x00000000        0x0 obj/main/NAZE/build/build_config.o (symbol from plugin)
 .text          0x00000000        0x0 obj/main/NAZE/build/debug.o (symbol from plugin)
 .text          0x00000000        0x0 obj/main/NAZE/build/version.o (symbol from plugin)
 .text          0x00000000        0x0 obj/main/NAZE/config/config_streamer.o (symbol from plugin)
 .text          0x00000000        0x0 obj/main/NAZE/config/parameter_group.o (symbol from plugin)
 .text          0x00000000        0x0 obj/main/NAZE/config/config_eeprom.o (symbol from plugin)
 .text          0x00000000        0x0 obj/main/NAZE/common/encoding.o (symbol from plugin)
 .text          0x00000000        0x0 obj/main/NAZE/common/filter.o (symbol from plugin)
 .text          0x00000000        0x0 obj/main/NAZE/common/maths.o (symbol from plugin)
 .text          0x00000000        0x0 obj/main/NAZE/common/printf.o (symbol from plugin)
 .text          0x00000000        0x0 obj/main/NAZE/common/streambuf.o (symbol from plugin)
 .text          0x00000000        0x0 obj/main/NAZE/common/typeconversion.o (symbol from plugin)
 .text          0x00000000        0x0 obj/main/NAZE/common/crc.o (symbol from plugin)
 .text          0x00000000        0x0 obj/main/NAZE/common/pilot.o (symbol from plugin)
 .text          0x00000000        0x0 obj/main/NAZE/drivers/buf_writer.o (symbol from plugin)
 .text          0x00000000        0x0 obj/main/NAZE/drivers/dma.o (symbol from plugin)
 .text          0x00000000        0x0 obj/main/NAZE/drivers/serial.o (symbol from plugin)
 .text          0x00000000        0x0 obj/main/NAZE/drivers/system.o (symbol from plugin)
 .text          0x00000000        0x0 obj/main/NAZE/scheduler/scheduler.o (symbol from plugin)
 .text          0x00000000        0x0 obj/main/NAZE/io/serial.o (symbol from plugin)
 .text          0x00000000        0x0 obj/main/NAZE/msp/msp.o (symbol from plugin)
 .text          0x00000000        0x0 obj/main/NAZE/msp/msp_serial.o (symbol from plugin)
 .text          0x00000000        0x0 obj/main/NAZE/msp/msp_server.o (symbol from plugin)
 .text          0x00000000        0x0 obj/main/NAZE/core_cm3.o (symbol from plugin)
 .text          0x00000000        0x0 obj/main/NAZE/system_stm32f10x.o (symbol from plugin)
 .text          0x00000000        0x0 obj/main/NAZE/stm32f10x_dma.o (symbol from plugin)
 .text          0x00000000        0x0 obj/main/NAZE/stm32f10x_dbgmcu.o (symbol from plugin)
 .text          0x00000000        0x0 obj/main/NAZE/stm32f10x_dac.o (symbol from plugin)
 .text          0x00000000        0x0 obj/main/NAZE/stm32f10x_rtc.o (symbol from plugin)
 .text          0x00000000        0x0 obj/main/NAZE/stm32f10x_pwr.o (symbol from plugin)
 .text          0x00000000        0x0 obj/main/NAZE/stm32f10x_i2c.o (symbol from plugin)
 .text          0x00000000        0x0 obj/main/NAZE/stm32f10x_sdio.o (symbol from plugin)
 .text          0x00000000        0x0 obj/main/NAZE/stm32f10x_rcc.o (symbol from plugin)
 .text          0x00000000        0x0 obj/main/NAZE/stm32f10x_flash.o (symbol from plugin)
 .text          0x00000000        0x0 obj/main/NAZE/stm32f10x_usart.o (symbol from plugin)
 .text          0x00000000        0x0 obj/main/NAZE/stm32f10x_tim.o (symbol from plugin)
 .text          0x00000000        0x0 obj/main/NAZE/stm32f10x_wwdg.o (symbol from plugin)
 .text          0x00000000        0x0 obj/main/NAZE/misc.o (symbol from plugin)
 .text          0x00000000        0x0 obj/main/NAZE/stm32f10x_iwdg.o (symbol from plugin)
 .text          0x00000000        0x0 obj/main/NAZE/stm32f10x_adc.o (symbol from plugin)
 .text          0x00000000        0x0 obj/main/NAZE/stm32f10x_spi.o (symbol from plugin)
 .text          0x00000000        0x0 obj/main/NAZE/stm32f10x_bkp.o (symbol from plugin)
 .text          0x00000000        0x0 obj/main/NAZE/stm32f10x_exti.o (symbol from plugin)
 .text          0x00000000        0x0 obj/main/NAZE/stm32f10x_fsmc.o (symbol from plugin)
 .text          0x00000000        0x0 obj/main/NAZE/stm32f10x_gpio.o (symbol from plugin)
 .text          0x00000000        0x0 /usr/lib/gcc/arm-none-eabi/4.9.3/../../../arm-none-eabi/lib/armv7-m/libc_nano.a(lib_a-atoi.o)
 .data          0x00000000        0x0 /usr/lib/gcc/arm-none-eabi/4.9.3/../../../arm-none-eabi/lib/armv7-m/libc_nano.a(lib_a-atoi.o)
 .bss           0x00000000        0x0 /usr/lib/gcc/arm-none-eabi/4.9.3/../../../arm-none-eabi/lib/armv7-m/libc_nano.a(lib_a-atoi.o)
 .text._atoi_r  0x00000000        0x8 /usr/lib/gcc/arm-none-eabi/4.9.3/../../../arm-none-eabi/lib/armv7-m/libc_nano.a(lib_a-atoi.o)
 .text          0x00000000        0x0 /usr/lib/gcc/arm-none-eabi/4.9.3/../../../arm-none-eabi/lib/armv7-m/libc_nano.a(lib_a-ctype_.o)
 .data          0x00000000        0x0 /usr/lib/gcc/arm-none-eabi/4.9.3/../../../arm-none-eabi/lib/armv7-m/libc_nano.a(lib_a-ctype_.o)
 .bss           0x00000000        0x0 /usr/lib/gcc/arm-none-eabi/4.9.3/../../../arm-none-eabi/lib/armv7-m/libc_nano.a(lib_a-ctype_.o)
 .text          0x00000000        0x0 /usr/lib/gcc/arm-none-eabi/4.9.3/../../../arm-none-eabi/lib/armv7-m/libc_nano.a(lib_a-memcpy.o)
 .data          0x00000000        0x0 /usr/lib/gcc/arm-none-eabi/4.9.3/../../../arm-none-eabi/lib/armv7-m/libc_nano.a(lib_a-memcpy.o)
 .bss           0x00000000        0x0 /usr/lib/gcc/arm-none-eabi/4.9.3/../../../arm-none-eabi/lib/armv7-m/libc_nano.a(lib_a-memcpy.o)
 .text          0x00000000        0x0 /usr/lib/gcc/arm-none-eabi/4.9.3/../../../arm-none-eabi/lib/armv7-m/libc_nano.a(lib_a-strtok.o)
 .data          0x00000000        0x0 /usr/lib/gcc/arm-none-eabi/4.9.3/../../../arm-none-eabi/lib/armv7-m/libc_nano.a(lib_a-strtok.o)
 .bss           0x00000000        0x0 /usr/lib/gcc/arm-none-eabi/4.9.3/../../../arm-none-eabi/lib/armv7-m/libc_nano.a(lib_a-strtok.o)
 .text          0x00000000        0x0 /usr/lib/gcc/arm-none-eabi/4.9.3/../../../arm-none-eabi/lib/armv7-m/libc_nano.a(lib_a-strtok_r.o)
 .data          0x00000000        0x0 /usr/lib/gcc/arm-none-eabi/4.9.3/../../../arm-none-eabi/lib/armv7-m/libc_nano.a(lib_a-strtok_r.o)
 .bss           0x00000000        0x0 /usr/lib/gcc/arm-none-eabi/4.9.3/../../../arm-none-eabi/lib/armv7-m/libc_nano.a(lib_a-strtok_r.o)
 .text          0x00000000        0x0 /usr/lib/gcc/arm-none-eabi/4.9.3/../../../arm-none-eabi/lib/armv7-m/libc_nano.a(lib_a-strtol.o)
 .data          0x00000000        0x0 /usr/lib/gcc/arm-none-eabi/4.9.3/../../../arm-none-eabi/lib/armv7-m/libc_nano.a(lib_a-strtol.o)
 .bss           0x00000000        0x0 /usr/lib/gcc/arm-none-eabi/4.9.3/../../../arm-none-eabi/lib/armv7-m/libc_nano.a(lib_a-strtol.o)
 .text          0x00000000        0x0 /usr/lib/gcc/arm-none-eabi/4.9.3/../../../arm-none-eabi/lib/armv7-m/libc_nano.a(lib_a-impure.o)
 .data          0x00000000        0x0 /usr/lib/gcc/arm-none-eabi/4.9.3/../../../arm-none-eabi/lib/armv7-m/libc_nano.a(lib_a-impure.o)
 .bss           0x00000000        0x0 /usr/lib/gcc/arm-none-eabi/4.9.3/../../../arm-none-eabi/lib/armv7-m/libc_nano.a(lib_a-impure.o)
 .rodata._global_impure_ptr
                0x00000000        0x4 /usr/lib/gcc/arm-none-eabi/4.9.3/../../../arm-none-eabi/lib/armv7-m/libc_nano.a(lib_a-impure.o)
 .text          0x00000000        0x0 /usr/lib/gcc/arm-none-eabi/4.9.3/../../../arm-none-eabi/lib/armv7-m/libc_nano.a(lib_a-malloc.o)
 .data          0x00000000        0x0 /usr/lib/gcc/arm-none-eabi/4.9.3/../../../arm-none-eabi/lib/armv7-m/libc_nano.a(lib_a-malloc.o)
 .bss           0x00000000        0x0 /usr/lib/gcc/arm-none-eabi/4.9.3/../../../arm-none-eabi/lib/armv7-m/libc_nano.a(lib_a-malloc.o)
 .text.free     0x00000000       0x10 /usr/lib/gcc/arm-none-eabi/4.9.3/../../../arm-none-eabi/lib/armv7-m/libc_nano.a(lib_a-malloc.o)
 .text          0x00000000        0x0 /usr/lib/gcc/arm-none-eabi/4.9.3/../../../arm-none-eabi/lib/armv7-m/libc_nano.a(lib_a-nano-freer.o)
 .data          0x00000000        0x0 /usr/lib/gcc/arm-none-eabi/4.9.3/../../../arm-none-eabi/lib/armv7-m/libc_nano.a(lib_a-nano-freer.o)
 .bss           0x00000000        0x0 /usr/lib/gcc/arm-none-eabi/4.9.3/../../../arm-none-eabi/lib/armv7-m/libc_nano.a(lib_a-nano-freer.o)
 .text._free_r  0x00000000       0x88 /usr/lib/gcc/arm-none-eabi/4.9.3/../../../arm-none-eabi/lib/armv7-m/libc_nano.a(lib_a-nano-freer.o)
 .debug_info    0x00000000      0x81a /usr/lib/gcc/arm-none-eabi/4.9.3/../../../arm-none-eabi/lib/armv7-m/libc_nano.a(lib_a-nano-freer.o)
 .debug_abbrev  0x00000000      0x1b6 /usr/lib/gcc/arm-none-eabi/4.9.3/../../../arm-none-eabi/lib/armv7-m/libc_nano.a(lib_a-nano-freer.o)
 .debug_loc     0x00000000      0x172 /usr/lib/gcc/arm-none-eabi/4.9.3/../../../arm-none-eabi/lib/armv7-m/libc_nano.a(lib_a-nano-freer.o)
 .debug_aranges
                0x00000000       0x20 /usr/lib/gcc/arm-none-eabi/4.9.3/../../../arm-none-eabi/lib/armv7-m/libc_nano.a(lib_a-nano-freer.o)
 .debug_ranges  0x00000000       0x28 /usr/lib/gcc/arm-none-eabi/4.9.3/../../../arm-none-eabi/lib/armv7-m/libc_nano.a(lib_a-nano-freer.o)
 .debug_line    0x00000000      0x145 /usr/lib/gcc/arm-none-eabi/4.9.3/../../../arm-none-eabi/lib/armv7-m/libc_nano.a(lib_a-nano-freer.o)
 .debug_str     0x00000000      0x593 /usr/lib/gcc/arm-none-eabi/4.9.3/../../../arm-none-eabi/lib/armv7-m/libc_nano.a(lib_a-nano-freer.o)
 .comment       0x00000000       0x39 /usr/lib/gcc/arm-none-eabi/4.9.3/../../../arm-none-eabi/lib/armv7-m/libc_nano.a(lib_a-nano-freer.o)
 .debug_frame   0x00000000       0x2c /usr/lib/gcc/arm-none-eabi/4.9.3/../../../arm-none-eabi/lib/armv7-m/libc_nano.a(lib_a-nano-freer.o)
 .ARM.attributes
                0x00000000       0x2d /usr/lib/gcc/arm-none-eabi/4.9.3/../../../arm-none-eabi/lib/armv7-m/libc_nano.a(lib_a-nano-freer.o)
 .text          0x00000000        0x0 /usr/lib/gcc/arm-none-eabi/4.9.3/../../../arm-none-eabi/lib/armv7-m/libc_nano.a(lib_a-nano-mallocr.o)
 .data          0x00000000        0x0 /usr/lib/gcc/arm-none-eabi/4.9.3/../../../arm-none-eabi/lib/armv7-m/libc_nano.a(lib_a-nano-mallocr.o)
 .bss           0x00000000        0x0 /usr/lib/gcc/arm-none-eabi/4.9.3/../../../arm-none-eabi/lib/armv7-m/libc_nano.a(lib_a-nano-mallocr.o)
 .text          0x00000000        0x0 /usr/lib/gcc/arm-none-eabi/4.9.3/../../../arm-none-eabi/lib/armv7-m/libc_nano.a(lib_a-sbrkr.o)
 .data          0x00000000        0x0 /usr/lib/gcc/arm-none-eabi/4.9.3/../../../arm-none-eabi/lib/armv7-m/libc_nano.a(lib_a-sbrkr.o)
 .bss           0x00000000        0x0 /usr/lib/gcc/arm-none-eabi/4.9.3/../../../arm-none-eabi/lib/armv7-m/libc_nano.a(lib_a-sbrkr.o)
 .text          0x00000000        0x0 /usr/lib/gcc/arm-none-eabi/4.9.3/../../../arm-none-eabi/lib/armv7-m/libc_nano.a(lib_a-reent.o)
 .data          0x00000000        0x0 /usr/lib/gcc/arm-none-eabi/4.9.3/../../../arm-none-eabi/lib/armv7-m/libc_nano.a(lib_a-reent.o)
 .bss           0x00000000        0x0 /usr/lib/gcc/arm-none-eabi/4.9.3/../../../arm-none-eabi/lib/armv7-m/libc_nano.a(lib_a-reent.o)
 .text.cleanup_glue
                0x00000000       0x1a /usr/lib/gcc/arm-none-eabi/4.9.3/../../../arm-none-eabi/lib/armv7-m/libc_nano.a(lib_a-reent.o)
 .text._reclaim_reent
                0x00000000       0xb4 /usr/lib/gcc/arm-none-eabi/4.9.3/../../../arm-none-eabi/lib/armv7-m/libc_nano.a(lib_a-reent.o)
 .text          0x00000000        0x0 /usr/lib/gcc/arm-none-eabi/4.9.3/../../../arm-none-eabi/lib/armv7-m/libnosys.a(sbrk.o)
 .data          0x00000000        0x0 /usr/lib/gcc/arm-none-eabi/4.9.3/../../../arm-none-eabi/lib/armv7-m/libnosys.a(sbrk.o)
 .bss           0x00000000        0x0 /usr/lib/gcc/arm-none-eabi/4.9.3/../../../arm-none-eabi/lib/armv7-m/libnosys.a(sbrk.o)
 .text          0x00000000        0x0 /usr/lib/gcc/arm-none-eabi/4.9.3/../../../arm-none-eabi/lib/armv7-m/libm.a(lib_a-sf_log2.o)
 .data          0x00000000        0x0 /usr/lib/gcc/arm-none-eabi/4.9.3/../../../arm-none-eabi/lib/armv7-m/libm.a(lib_a-sf_log2.o)
 .bss           0x00000000        0x0 /usr/lib/gcc/arm-none-eabi/4.9.3/../../../arm-none-eabi/lib/armv7-m/libm.a(lib_a-sf_log2.o)
 .text          0x00000000        0x0 /usr/lib/gcc/arm-none-eabi/4.9.3/../../../arm-none-eabi/lib/armv7-m/libm.a(lib_a-sf_lrint.o)
 .data          0x00000000        0x0 /usr/lib/gcc/arm-none-eabi/4.9.3/../../../arm-none-eabi/lib/armv7-m/libm.a(lib_a-sf_lrint.o)
 .bss           0x00000000        0x0 /usr/lib/gcc/arm-none-eabi/4.9.3/../../../arm-none-eabi/lib/armv7-m/libm.a(lib_a-sf_lrint.o)
 .text          0x00000000        0x0 /usr/lib/gcc/arm-none-eabi/4.9.3/../../../arm-none-eabi/lib/armv7-m/libm.a(lib_a-wf_log.o)
 .data          0x00000000        0x0 /usr/lib/gcc/arm-none-eabi/4.9.3/../../../arm-none-eabi/lib/armv7-m/libm.a(lib_a-wf_log.o)
 .bss           0x00000000        0x0 /usr/lib/gcc/arm-none-eabi/4.9.3/../../../arm-none-eabi/lib/armv7-m/libm.a(lib_a-wf_log.o)
 .text          0x00000000        0x0 /usr/lib/gcc/arm-none-eabi/4.9.3/../../../arm-none-eabi/lib/armv7-m/libm.a(lib_a-wf_pow.o)
 .data          0x00000000        0x0 /usr/lib/gcc/arm-none-eabi/4.9.3/../../../arm-none-eabi/lib/armv7-m/libm.a(lib_a-wf_pow.o)
 .bss           0x00000000        0x0 /usr/lib/gcc/arm-none-eabi/4.9.3/../../../arm-none-eabi/lib/armv7-m/libm.a(lib_a-wf_pow.o)
 .text          0x00000000        0x0 /usr/lib/gcc/arm-none-eabi/4.9.3/../../../arm-none-eabi/lib/armv7-m/libm.a(lib_a-wf_sqrt.o)
 .data          0x00000000        0x0 /usr/lib/gcc/arm-none-eabi/4.9.3/../../../arm-none-eabi/lib/armv7-m/libm.a(lib_a-wf_sqrt.o)
 .bss           0x00000000        0x0 /usr/lib/gcc/arm-none-eabi/4.9.3/../../../arm-none-eabi/lib/armv7-m/libm.a(lib_a-wf_sqrt.o)
 .text          0x00000000        0x0 /usr/lib/gcc/arm-none-eabi/4.9.3/../../../arm-none-eabi/lib/armv7-m/libm.a(lib_a-ef_log.o)
 .data          0x00000000        0x0 /usr/lib/gcc/arm-none-eabi/4.9.3/../../../arm-none-eabi/lib/armv7-m/libm.a(lib_a-ef_log.o)
 .bss           0x00000000        0x0 /usr/lib/gcc/arm-none-eabi/4.9.3/../../../arm-none-eabi/lib/armv7-m/libm.a(lib_a-ef_log.o)
 .text          0x00000000        0x0 /usr/lib/gcc/arm-none-eabi/4.9.3/../../../arm-none-eabi/lib/armv7-m/libm.a(lib_a-ef_pow.o)
 .data          0x00000000        0x0 /usr/lib/gcc/arm-none-eabi/4.9.3/../../../arm-none-eabi/lib/armv7-m/libm.a(lib_a-ef_pow.o)
 .bss           0x00000000        0x0 /usr/lib/gcc/arm-none-eabi/4.9.3/../../../arm-none-eabi/lib/armv7-m/libm.a(lib_a-ef_pow.o)
 .text          0x00000000        0x0 /usr/lib/gcc/arm-none-eabi/4.9.3/../../../arm-none-eabi/lib/armv7-m/libm.a(lib_a-ef_sqrt.o)
 .data          0x00000000        0x0 /usr/lib/gcc/arm-none-eabi/4.9.3/../../../arm-none-eabi/lib/armv7-m/libm.a(lib_a-ef_sqrt.o)
 .bss           0x00000000        0x0 /usr/lib/gcc/arm-none-eabi/4.9.3/../../../arm-none-eabi/lib/armv7-m/libm.a(lib_a-ef_sqrt.o)
 .text          0x00000000        0x0 /usr/lib/gcc/arm-none-eabi/4.9.3/../../../arm-none-eabi/lib/armv7-m/libm.a(lib_a-s_lib_ver.o)
 .data          0x00000000        0x0 /usr/lib/gcc/arm-none-eabi/4.9.3/../../../arm-none-eabi/lib/armv7-m/libm.a(lib_a-s_lib_ver.o)
 .bss           0x00000000        0x0 /usr/lib/gcc/arm-none-eabi/4.9.3/../../../arm-none-eabi/lib/armv7-m/libm.a(lib_a-s_lib_ver.o)
 .text          0x00000000        0x0 /usr/lib/gcc/arm-none-eabi/4.9.3/../../../arm-none-eabi/lib/armv7-m/libm.a(lib_a-s_matherr.o)
 .data          0x00000000        0x0 /usr/lib/gcc/arm-none-eabi/4.9.3/../../../arm-none-eabi/lib/armv7-m/libm.a(lib_a-s_matherr.o)
 .bss           0x00000000        0x0 /usr/lib/gcc/arm-none-eabi/4.9.3/../../../arm-none-eabi/lib/armv7-m/libm.a(lib_a-s_matherr.o)
 .text          0x00000000        0x0 /usr/lib/gcc/arm-none-eabi/4.9.3/../../../arm-none-eabi/lib/armv7-m/libm.a(lib_a-s_nan.o)
 .data          0x00000000        0x0 /usr/lib/gcc/arm-none-eabi/4.9.3/../../../arm-none-eabi/lib/armv7-m/libm.a(lib_a-s_nan.o)
 .bss           0x00000000        0x0 /usr/lib/gcc/arm-none-eabi/4.9.3/../../../arm-none-eabi/lib/armv7-m/libm.a(lib_a-s_nan.o)
 .text          0x00000000        0x0 /usr/lib/gcc/arm-none-eabi/4.9.3/../../../arm-none-eabi/lib/armv7-m/libm.a(lib_a-s_rint.o)
 .data          0x00000000        0x0 /usr/lib/gcc/arm-none-eabi/4.9.3/../../../arm-none-eabi/lib/armv7-m/libm.a(lib_a-s_rint.o)
 .bss           0x00000000        0x0 /usr/lib/gcc/arm-none-eabi/4.9.3/../../../arm-none-eabi/lib/armv7-m/libm.a(lib_a-s_rint.o)
 .text          0x00000000        0x0 /usr/lib/gcc/arm-none-eabi/4.9.3/../../../arm-none-eabi/lib/armv7-m/libm.a(lib_a-sf_fabs.o)
 .data          0x00000000        0x0 /usr/lib/gcc/arm-none-eabi/4.9.3/../../../arm-none-eabi/lib/armv7-m/libm.a(lib_a-sf_fabs.o)
 .bss           0x00000000        0x0 /usr/lib/gcc/arm-none-eabi/4.9.3/../../../arm-none-eabi/lib/armv7-m/libm.a(lib_a-sf_fabs.o)
 .text          0x00000000        0x0 /usr/lib/gcc/arm-none-eabi/4.9.3/../../../arm-none-eabi/lib/armv7-m/libm.a(lib_a-sf_finite.o)
 .data          0x00000000        0x0 /usr/lib/gcc/arm-none-eabi/4.9.3/../../../arm-none-eabi/lib/armv7-m/libm.a(lib_a-sf_finite.o)
 .bss           0x00000000        0x0 /usr/lib/gcc/arm-none-eabi/4.9.3/../../../arm-none-eabi/lib/armv7-m/libm.a(lib_a-sf_finite.o)
 .text          0x00000000        0x0 /usr/lib/gcc/arm-none-eabi/4.9.3/../../../arm-none-eabi/lib/armv7-m/libm.a(lib_a-sf_fpclassify.o)
 .data          0x00000000        0x0 /usr/lib/gcc/arm-none-eabi/4.9.3/../../../arm-none-eabi/lib/armv7-m/libm.a(lib_a-sf_fpclassify.o)
 .bss           0x00000000        0x0 /usr/lib/gcc/arm-none-eabi/4.9.3/../../../arm-none-eabi/lib/armv7-m/libm.a(lib_a-sf_fpclassify.o)
 .text          0x00000000        0x0 /usr/lib/gcc/arm-none-eabi/4.9.3/../../../arm-none-eabi/lib/armv7-m/libm.a(lib_a-sf_nan.o)
 .data          0x00000000        0x0 /usr/lib/gcc/arm-none-eabi/4.9.3/../../../arm-none-eabi/lib/armv7-m/libm.a(lib_a-sf_nan.o)
 .bss           0x00000000        0x0 /usr/lib/gcc/arm-none-eabi/4.9.3/../../../arm-none-eabi/lib/armv7-m/libm.a(lib_a-sf_nan.o)
 .text          0x00000000        0x0 /usr/lib/gcc/arm-none-eabi/4.9.3/../../../arm-none-eabi/lib/armv7-m/libm.a(lib_a-sf_scalbn.o)
 .data          0x00000000        0x0 /usr/lib/gcc/arm-none-eabi/4.9.3/../../../arm-none-eabi/lib/armv7-m/libm.a(lib_a-sf_scalbn.o)
 .bss           0x00000000        0x0 /usr/lib/gcc/arm-none-eabi/4.9.3/../../../arm-none-eabi/lib/armv7-m/libm.a(lib_a-sf_scalbn.o)
 .text          0x00000000        0x0 /usr/lib/gcc/arm-none-eabi/4.9.3/../../../arm-none-eabi/lib/armv7-m/libm.a(lib_a-sf_copysign.o)
 .data          0x00000000        0x0 /usr/lib/gcc/arm-none-eabi/4.9.3/../../../arm-none-eabi/lib/armv7-m/libm.a(lib_a-sf_copysign.o)
 .bss           0x00000000        0x0 /usr/lib/gcc/arm-none-eabi/4.9.3/../../../arm-none-eabi/lib/armv7-m/libm.a(lib_a-sf_copysign.o)
 .text          0x00000000        0x0 /usr/lib/gcc/arm-none-eabi/4.9.3/../../../arm-none-eabi/lib/armv7-m/libc_nano.a(lib_a-errno.o)
 .data          0x00000000        0x0 /usr/lib/gcc/arm-none-eabi/4.9.3/../../../arm-none-eabi/lib/armv7-m/libc_nano.a(lib_a-errno.o)
 .bss           0x00000000        0x0 /usr/lib/gcc/arm-none-eabi/4.9.3/../../../arm-none-eabi/lib/armv7-m/libc_nano.a(lib_a-errno.o)
 .text          0x00000000        0x0 /usr/lib/gcc/arm-none-eabi/4.9.3/../../../arm-none-eabi/lib/armv7-m/libc_nano.a(lib_a-memcmp.o)
 .data          0x00000000        0x0 /usr/lib/gcc/arm-none-eabi/4.9.3/../../../arm-none-eabi/lib/armv7-m/libc_nano.a(lib_a-memcmp.o)
 .bss           0x00000000        0x0 /usr/lib/gcc/arm-none-eabi/4.9.3/../../../arm-none-eabi/lib/armv7-m/libc_nano.a(lib_a-memcmp.o)
 .text          0x00000000        0x0 /usr/lib/gcc/arm-none-eabi/4.9.3/../../../arm-none-eabi/lib/armv7-m/libc_nano.a(lib_a-memmove.o)
 .data          0x00000000        0x0 /usr/lib/gcc/arm-none-eabi/4.9.3/../../../arm-none-eabi/lib/armv7-m/libc_nano.a(lib_a-memmove.o)
 .bss           0x00000000        0x0 /usr/lib/gcc/arm-none-eabi/4.9.3/../../../arm-none-eabi/lib/armv7-m/libc_nano.a(lib_a-memmove.o)
 .text          0x00000000        0x0 /usr/lib/gcc/arm-none-eabi/4.9.3/../../../arm-none-eabi/lib/armv7-m/libc_nano.a(lib_a-memset.o)
 .data          0x00000000        0x0 /usr/lib/gcc/arm-none-eabi/4.9.3/../../../arm-none-eabi/lib/armv7-m/libc_nano.a(lib_a-memset.o)
 .bss           0x00000000        0x0 /usr/lib/gcc/arm-none-eabi/4.9.3/../../../arm-none-eabi/lib/armv7-m/libc_nano.a(lib_a-memset.o)
 .text          0x00000000        0x0 /usr/lib/gcc/arm-none-eabi/4.9.3/../../../arm-none-eabi/lib/armv7-m/libc_nano.a(lib_a-strcasecmp.o)
 .data          0x00000000        0x0 /usr/lib/gcc/arm-none-eabi/4.9.3/../../../arm-none-eabi/lib/armv7-m/libc_nano.a(lib_a-strcasecmp.o)
 .bss           0x00000000        0x0 /usr/lib/gcc/arm-none-eabi/4.9.3/../../../arm-none-eabi/lib/armv7-m/libc_nano.a(lib_a-strcasecmp.o)
 .text          0x00000000        0x0 /usr/lib/gcc/arm-none-eabi/4.9.3/../../../arm-none-eabi/lib/armv7-m/libc_nano.a(lib_a-strcat.o)
 .data          0x00000000        0x0 /usr/lib/gcc/arm-none-eabi/4.9.3/../../../arm-none-eabi/lib/armv7-m/libc_nano.a(lib_a-strcat.o)
 .bss           0x00000000        0x0 /usr/lib/gcc/arm-none-eabi/4.9.3/../../../arm-none-eabi/lib/armv7-m/libc_nano.a(lib_a-strcat.o)
 .text          0x00000000        0x0 /usr/lib/gcc/arm-none-eabi/4.9.3/../../../arm-none-eabi/lib/armv7-m/libc_nano.a(lib_a-strchr.o)
 .data          0x00000000        0x0 /usr/lib/gcc/arm-none-eabi/4.9.3/../../../arm-none-eabi/lib/armv7-m/libc_nano.a(lib_a-strchr.o)
 .bss           0x00000000        0x0 /usr/lib/gcc/arm-none-eabi/4.9.3/../../../arm-none-eabi/lib/armv7-m/libc_nano.a(lib_a-strchr.o)
 .text          0x00000000        0x0 /usr/lib/gcc/arm-none-eabi/4.9.3/../../../arm-none-eabi/lib/armv7-m/libc_nano.a(lib_a-strlen.o)
 .data          0x00000000        0x0 /usr/lib/gcc/arm-none-eabi/4.9.3/../../../arm-none-eabi/lib/armv7-m/libc_nano.a(lib_a-strlen.o)
 .bss           0x00000000        0x0 /usr/lib/gcc/arm-none-eabi/4.9.3/../../../arm-none-eabi/lib/armv7-m/libc_nano.a(lib_a-strlen.o)
 .text          0x00000000        0x0 /usr/lib/gcc/arm-none-eabi/4.9.3/../../../arm-none-eabi/lib/armv7-m/libc_nano.a(lib_a-strncasecmp.o)
 .data          0x00000000        0x0 /usr/lib/gcc/arm-none-eabi/4.9.3/../../../arm-none-eabi/lib/armv7-m/libc_nano.a(lib_a-strncasecmp.o)
 .bss           0x00000000        0x0 /usr/lib/gcc/arm-none-eabi/4.9.3/../../../arm-none-eabi/lib/armv7-m/libc_nano.a(lib_a-strncasecmp.o)
 .text          0x00000000        0x0 /usr/lib/gcc/arm-none-eabi/4.9.3/../../../arm-none-eabi/lib/armv7-m/libc_nano.a(lib_a-strncpy.o)
 .data          0x00000000        0x0 /usr/lib/gcc/arm-none-eabi/4.9.3/../../../arm-none-eabi/lib/armv7-m/libc_nano.a(lib_a-strncpy.o)
 .bss           0x00000000        0x0 /usr/lib/gcc/arm-none-eabi/4.9.3/../../../arm-none-eabi/lib/armv7-m/libc_nano.a(lib_a-strncpy.o)
 .text          0x00000000        0x0 /usr/lib/gcc/arm-none-eabi/4.9.3/../../../arm-none-eabi/lib/armv7-m/libc_nano.a(lib_a-strstr.o)
 .data          0x00000000        0x0 /usr/lib/gcc/arm-none-eabi/4.9.3/../../../arm-none-eabi/lib/armv7-m/libc_nano.a(lib_a-strstr.o)
 .bss           0x00000000        0x0 /usr/lib/gcc/arm-none-eabi/4.9.3/../../../arm-none-eabi/lib/armv7-m/libc_nano.a(lib_a-strstr.o)
 .data          0x00000000        0x0 /usr/lib/gcc/arm-none-eabi/4.9.3/armv7-m/libgcc.a(_arm_addsubdf3.o)
 .bss           0x00000000        0x0 /usr/lib/gcc/arm-none-eabi/4.9.3/armv7-m/libgcc.a(_arm_addsubdf3.o)
 .data          0x00000000        0x0 /usr/lib/gcc/arm-none-eabi/4.9.3/armv7-m/libgcc.a(_arm_muldivdf3.o)
 .bss           0x00000000        0x0 /usr/lib/gcc/arm-none-eabi/4.9.3/armv7-m/libgcc.a(_arm_muldivdf3.o)
 .data          0x00000000        0x0 /usr/lib/gcc/arm-none-eabi/4.9.3/armv7-m/libgcc.a(_arm_cmpdf2.o)
 .bss           0x00000000        0x0 /usr/lib/gcc/arm-none-eabi/4.9.3/armv7-m/libgcc.a(_arm_cmpdf2.o)
 .data          0x00000000        0x0 /usr/lib/gcc/arm-none-eabi/4.9.3/armv7-m/libgcc.a(_arm_truncdfsf2.o)
 .bss           0x00000000        0x0 /usr/lib/gcc/arm-none-eabi/4.9.3/armv7-m/libgcc.a(_arm_truncdfsf2.o)
 .data          0x00000000        0x0 /usr/lib/gcc/arm-none-eabi/4.9.3/armv7-m/libgcc.a(_arm_addsubsf3.o)
 .bss           0x00000000        0x0 /usr/lib/gcc/arm-none-eabi/4.9.3/armv7-m/libgcc.a(_arm_addsubsf3.o)
 .data          0x00000000        0x0 /usr/lib/gcc/arm-none-eabi/4.9.3/armv7-m/libgcc.a(_arm_muldivsf3.o)
 .bss           0x00000000        0x0 /usr/lib/gcc/arm-none-eabi/4.9.3/armv7-m/libgcc.a(_arm_muldivsf3.o)
 .data          0x00000000        0x0 /usr/lib/gcc/arm-none-eabi/4.9.3/armv7-m/libgcc.a(_arm_cmpsf2.o)
 .bss           0x00000000        0x0 /usr/lib/gcc/arm-none-eabi/4.9.3/armv7-m/libgcc.a(_arm_cmpsf2.o)
 .data          0x00000000        0x0 /usr/lib/gcc/arm-none-eabi/4.9.3/armv7-m/libgcc.a(_arm_fixsfsi.o)
 .bss           0x00000000        0x0 /usr/lib/gcc/arm-none-eabi/4.9.3/armv7-m/libgcc.a(_arm_fixsfsi.o)
 .data          0x00000000        0x0 /usr/lib/gcc/arm-none-eabi/4.9.3/armv7-m/libgcc.a(_arm_fixunssfsi.o)
 .bss           0x00000000        0x0 /usr/lib/gcc/arm-none-eabi/4.9.3/armv7-m/libgcc.a(_arm_fixunssfsi.o)
 .data          0x00000000        0x0 /usr/lib/gcc/arm-none-eabi/4.9.3/armv7-m/libgcc.a(_aeabi_ldivmod.o)
 .bss           0x00000000        0x0 /usr/lib/gcc/arm-none-eabi/4.9.3/armv7-m/libgcc.a(_aeabi_ldivmod.o)
 .data          0x00000000        0x0 /usr/lib/gcc/arm-none-eabi/4.9.3/armv7-m/libgcc.a(_popcountsi2.o)
 .bss           0x00000000        0x0 /usr/lib/gcc/arm-none-eabi/4.9.3/armv7-m/libgcc.a(_popcountsi2.o)
 .data          0x00000000        0x0 /usr/lib/gcc/arm-none-eabi/4.9.3/armv7-m/libgcc.a(bpabi.o)
 .bss           0x00000000        0x0 /usr/lib/gcc/arm-none-eabi/4.9.3/armv7-m/libgcc.a(bpabi.o)
 .data          0x00000000        0x0 /usr/lib/gcc/arm-none-eabi/4.9.3/armv7-m/libgcc.a(_dvmd_tls.o)
 .bss           0x00000000        0x0 /usr/lib/gcc/arm-none-eabi/4.9.3/armv7-m/libgcc.a(_dvmd_tls.o)
 .data          0x00000000        0x0 /usr/lib/gcc/arm-none-eabi/4.9.3/armv7-m/libgcc.a(_divdi3.o)
 .bss           0x00000000        0x0 /usr/lib/gcc/arm-none-eabi/4.9.3/armv7-m/libgcc.a(_divdi3.o)
 .ARM.extab     0x00000000        0x0 /usr/lib/gcc/arm-none-eabi/4.9.3/armv7-m/libgcc.a(_divdi3.o)
 .data          0x00000000        0x0 /usr/lib/gcc/arm-none-eabi/4.9.3/armv7-m/libgcc.a(_udivdi3.o)
 .bss           0x00000000        0x0 /usr/lib/gcc/arm-none-eabi/4.9.3/armv7-m/libgcc.a(_udivdi3.o)
 .ARM.extab     0x00000000        0x0 /usr/lib/gcc/arm-none-eabi/4.9.3/armv7-m/libgcc.a(_udivdi3.o)

Memory Configuration

Name             Origin             Length             Attributes
FLASH            0x08000000         0x0001f000         xr
FLASH_CONFIG     0x0801f000         0x00001000         r
RAM              0x20000000         0x00005000         xrw
MEMORY_B1        0x60000000         0x00000000         xr
*default*        0x00000000         0xffffffff

Linker script and memory map

LOAD obj/main/NAZE/startup_stm32f10x_md_gcc.o
LOAD obj/main/NAZE/drivers/adc.o
LOAD /tmp/ccGrItoW.ltrans0.ltrans.o
LOAD /tmp/ccGrItoW.ltrans1.ltrans.o
LOAD /tmp/ccGrItoW.ltrans2.ltrans.o
LOAD /tmp/ccGrItoW.ltrans3.ltrans.o
LOAD /tmp/ccGrItoW.ltrans4.ltrans.o
LOAD /tmp/ccGrItoW.ltrans5.ltrans.o
LOAD /tmp/ccGrItoW.ltrans6.ltrans.o
LOAD /tmp/ccGrItoW.ltrans7.ltrans.o
LOAD /tmp/ccGrItoW.ltrans8.ltrans.o
LOAD /tmp/ccGrItoW.ltrans9.ltrans.o
LOAD /tmp/ccGrItoW.ltrans10.ltrans.o
LOAD /tmp/ccGrItoW.ltrans11.ltrans.o
LOAD /tmp/ccGrItoW.ltrans12.ltrans.o
LOAD /tmp/ccGrItoW.ltrans13.ltrans.o
LOAD /tmp/ccGrItoW.ltrans14.ltrans.o
LOAD /tmp/ccGrItoW.ltrans15.ltrans.o
LOAD /tmp/ccGrItoW.ltrans16.ltrans.o
LOAD /tmp/ccGrItoW.ltrans17.ltrans.o
LOAD /tmp/ccGrItoW.ltrans18.ltrans.o
LOAD /tmp/ccGrItoW.ltrans19.ltrans.o
LOAD /tmp/ccGrItoW.ltrans20.ltrans.o
LOAD /tmp/ccGrItoW.ltrans21.ltrans.o
LOAD /tmp/ccGrItoW.ltrans22.ltrans.o
LOAD /tmp/ccGrItoW.ltrans23.ltrans.o
LOAD /tmp/ccGrItoW.ltrans24.ltrans.o
LOAD /tmp/ccGrItoW.ltrans25.ltrans.o
LOAD /tmp/ccGrItoW.ltrans26.ltrans.o
LOAD /tmp/ccGrItoW.ltrans27.ltrans.o
LOAD /tmp/ccGrItoW.ltrans28.ltrans.o
LOAD /tmp/ccGrItoW.ltrans29.ltrans.o
LOAD /tmp/ccGrItoW.ltrans30.ltrans.o
LOAD /tmp/ccGrItoW.ltrans31.ltrans.o
LOAD obj/main/NAZE/drivers/adc_stm32f10x.o
LOAD obj/main/NAZE/drivers/bus_i2c_stm32f10x.o
LOAD obj/main/NAZE/drivers/gpio_stm32f10x.o
LOAD obj/main/NAZE/drivers/light_led_stm32f10x.o
LOAD obj/main/NAZE/drivers/serial_uart.o
LOAD obj/main/NAZE/drivers/serial_uart_stm32f10x.o
LOAD obj/main/NAZE/drivers/system_stm32f10x.o
LOAD obj/main/NAZE/drivers/accgyro_adxl345.o
LOAD obj/main/NAZE/drivers/accgyro_bma280.o
LOAD obj/main/NAZE/drivers/accgyro_l3g4200d.o
LOAD obj/main/NAZE/drivers/accgyro_mma845x.o
LOAD obj/main/NAZE/drivers/accgyro_mpu.o
LOAD obj/main/NAZE/drivers/accgyro_mpu3050.o
LOAD obj/main/NAZE/drivers/accgyro_mpu6050.o
LOAD obj/main/NAZE/drivers/accgyro_mpu6500.o
LOAD obj/main/NAZE/drivers/accgyro_spi_mpu6500.o
LOAD obj/main/NAZE/drivers/barometer_bmp085.o
LOAD obj/main/NAZE/drivers/barometer_ms5611.o
LOAD obj/main/NAZE/drivers/barometer_bmp280.o
LOAD obj/main/NAZE/drivers/bus_spi.o
LOAD obj/main/NAZE/drivers/compass_hmc5883l.o
LOAD obj/main/NAZE/drivers/display_ug2864hsweg01.o
LOAD obj/main/NAZE/drivers/flash_m25p16.o
LOAD obj/main/NAZE/drivers/inverter.o
LOAD obj/main/NAZE/drivers/light_ws2811strip.o
LOAD obj/main/NAZE/drivers/light_ws2811strip_stm32f10x.o
LOAD obj/main/NAZE/drivers/sonar_hcsr04.o
LOAD obj/main/NAZE/drivers/pwm_mapping.o
LOAD obj/main/NAZE/drivers/pwm_output.o
LOAD obj/main/NAZE/drivers/pwm_rx.o
LOAD obj/main/NAZE/drivers/serial_softserial.o
LOAD obj/main/NAZE/drivers/sound_beeper_stm32f10x.o
LOAD obj/main/NAZE/drivers/timer.o
LOAD obj/main/NAZE/drivers/timer_stm32f10x.o
LOAD obj/main/NAZE/io/flashfs.o
LOAD obj/main/NAZE/hardware_revision.o
LOAD obj/main/NAZE/flight/gtune.o
LOAD obj/main/NAZE/flight/navigation.o
LOAD obj/main/NAZE/flight/gps_conversion.o
LOAD obj/main/NAZE/common/colorconversion.o
LOAD obj/main/NAZE/io/gps.o
LOAD obj/main/NAZE/io/ledstrip.o
LOAD obj/main/NAZE/io/display.o
LOAD obj/main/NAZE/telemetry/telemetry.o
LOAD obj/main/NAZE/telemetry/frsky.o
LOAD obj/main/NAZE/telemetry/hott.o
LOAD obj/main/NAZE/telemetry/smartport.o
LOAD obj/main/NAZE/telemetry/ltm.o
LOAD obj/main/NAZE/telemetry/mavlink.o
LOAD obj/main/NAZE/telemetry/ibus.o
LOAD obj/main/NAZE/sensors/sonar.o
LOAD obj/main/NAZE/sensors/barometer.o
LOAD obj/main/NAZE/blackbox/blackbox.o
LOAD obj/main/NAZE/blackbox/blackbox_io.o
LOAD obj/main/NAZE/config/feature.o
LOAD obj/main/NAZE/config/profile.o
LOAD obj/main/NAZE/fc/boot.o
LOAD obj/main/NAZE/fc/fc_debug.o
LOAD obj/main/NAZE/fc/cleanflight_fc.o
LOAD obj/main/NAZE/fc/fc_tasks.o
LOAD obj/main/NAZE/fc/rate_profile.o
LOAD obj/main/NAZE/fc/rc_adjustments.o
LOAD obj/main/NAZE/fc/rc_controls.o
LOAD obj/main/NAZE/fc/rc_curves.o
LOAD obj/main/NAZE/fc/fc_serial.o
LOAD obj/main/NAZE/fc/config.o
LOAD obj/main/NAZE/fc/runtime_config.o
LOAD obj/main/NAZE/fc/msp_server_fc.o
LOAD obj/main/NAZE/flight/altitudehold.o
LOAD obj/main/NAZE/flight/failsafe.o
LOAD obj/main/NAZE/flight/pid.o
LOAD obj/main/NAZE/flight/pid_luxfloat.o
LOAD obj/main/NAZE/flight/pid_mwrewrite.o
LOAD obj/main/NAZE/flight/pid_mw23.o
LOAD obj/main/NAZE/flight/imu.o
LOAD obj/main/NAZE/flight/mixer.o
LOAD obj/main/NAZE/flight/servos.o
LOAD obj/main/NAZE/drivers/bus_i2c_soft.o
LOAD obj/main/NAZE/drivers/exti.o
LOAD obj/main/NAZE/drivers/io.o
LOAD obj/main/NAZE/drivers/rcc.o
LOAD obj/main/NAZE/drivers/sound_beeper.o
LOAD obj/main/NAZE/drivers/gyro_sync.o
LOAD obj/main/NAZE/io/beeper.o
LOAD obj/main/NAZE/io/gimbal.o
LOAD obj/main/NAZE/io/servos.o
LOAD obj/main/NAZE/io/motors.o
LOAD obj/main/NAZE/io/serial_4way.o
LOAD obj/main/NAZE/io/serial_4way_avrootloader.o
LOAD obj/main/NAZE/io/serial_4way_stk500v2.o
LOAD obj/main/NAZE/io/serial_cli.o
LOAD obj/main/NAZE/io/statusindicator.o
LOAD obj/main/NAZE/rx/rx.o
LOAD obj/main/NAZE/rx/pwm.o
LOAD obj/main/NAZE/rx/msp.o
LOAD obj/main/NAZE/rx/sbus.o
LOAD obj/main/NAZE/rx/sumd.o
LOAD obj/main/NAZE/rx/sumh.o
LOAD obj/main/NAZE/rx/spektrum.o
LOAD obj/main/NAZE/rx/xbus.o
LOAD obj/main/NAZE/rx/ibus.o
LOAD obj/main/NAZE/rx/srxl.o
LOAD obj/main/NAZE/sensors/sensors.o
LOAD obj/main/NAZE/sensors/acceleration.o
LOAD obj/main/NAZE/sensors/battery.o
LOAD obj/main/NAZE/sensors/voltage.o
LOAD obj/main/NAZE/sensors/amperage.o
LOAD obj/main/NAZE/sensors/boardalignment.o
LOAD obj/main/NAZE/sensors/compass.o
LOAD obj/main/NAZE/sensors/gyro.o
LOAD obj/main/NAZE/sensors/initialisation.o
LOAD obj/main/NAZE/build/build_config.o
LOAD obj/main/NAZE/build/debug.o
LOAD obj/main/NAZE/build/version.o
LOAD obj/main/NAZE/config/config_streamer.o
LOAD obj/main/NAZE/config/parameter_group.o
LOAD obj/main/NAZE/config/config_eeprom.o
LOAD obj/main/NAZE/common/encoding.o
LOAD obj/main/NAZE/common/filter.o
LOAD obj/main/NAZE/common/maths.o
LOAD obj/main/NAZE/common/printf.o
LOAD obj/main/NAZE/common/streambuf.o
LOAD obj/main/NAZE/common/typeconversion.o
LOAD obj/main/NAZE/common/crc.o
LOAD obj/main/NAZE/common/pilot.o
LOAD obj/main/NAZE/drivers/buf_writer.o
LOAD obj/main/NAZE/drivers/dma.o
LOAD obj/main/NAZE/drivers/serial.o
LOAD obj/main/NAZE/drivers/system.o
LOAD obj/main/NAZE/scheduler/scheduler.o
LOAD obj/main/NAZE/io/serial.o
LOAD obj/main/NAZE/msp/msp.o
LOAD obj/main/NAZE/msp/msp_serial.o
LOAD obj/main/NAZE/msp/msp_server.o
LOAD obj/main/NAZE/core_cm3.o
LOAD obj/main/NAZE/system_stm32f10x.o
LOAD obj/main/NAZE/stm32f10x_dma.o
LOAD obj/main/NAZE/stm32f10x_dbgmcu.o
LOAD obj/main/NAZE/stm32f10x_dac.o
LOAD obj/main/NAZE/stm32f10x_rtc.o
LOAD obj/main/NAZE/stm32f10x_pwr.o
LOAD obj/main/NAZE/stm32f10x_i2c.o
LOAD obj/main/NAZE/stm32f10x_sdio.o
LOAD obj/main/NAZE/stm32f10x_rcc.o
LOAD obj/main/NAZE/stm32f10x_flash.o
LOAD obj/main/NAZE/stm32f10x_usart.o
LOAD obj/main/NAZE/stm32f10x_tim.o
LOAD obj/main/NAZE/stm32f10x_wwdg.o
LOAD obj/main/NAZE/misc.o
LOAD obj/main/NAZE/stm32f10x_iwdg.o
LOAD obj/main/NAZE/stm32f10x_adc.o
LOAD obj/main/NAZE/stm32f10x_spi.o
LOAD obj/main/NAZE/stm32f10x_bkp.o
LOAD obj/main/NAZE/stm32f10x_exti.o
LOAD obj/main/NAZE/stm32f10x_fsmc.o
LOAD obj/main/NAZE/stm32f10x_gpio.o
LOAD /usr/lib/gcc/arm-none-eabi/4.9.3/../../../arm-none-eabi/lib/armv7-m/libm.a
LOAD /usr/lib/gcc/arm-none-eabi/4.9.3/../../../arm-none-eabi/lib/armv7-m/libc_nano.a
LOAD /usr/lib/gcc/arm-none-eabi/4.9.3/../../../arm-none-eabi/lib/armv7-m/libnosys.a
START GROUP
LOAD /usr/lib/gcc/arm-none-eabi/4.9.3/armv7-m/libgcc.a
LOAD /usr/lib/gcc/arm-none-eabi/4.9.3/../../../arm-none-eabi/lib/armv7-m/libg_nano.a
LOAD /usr/lib/gcc/arm-none-eabi/4.9.3/../../../arm-none-eabi/lib/armv7-m/libc_nano.a
END GROUP
START GROUP
LOAD /usr/lib/gcc/arm-none-eabi/4.9.3/armv7-m/libgcc.a
LOAD /usr/lib/gcc/arm-none-eabi/4.9.3/../../../arm-none-eabi/lib/armv7-m/libc_nano.a
END GROUP
                0x20005000                _estack = (ORIGIN (RAM) + LENGTH (RAM))
                0x0801f000                __config_start = (ORIGIN (FLASH) + LENGTH (FLASH))
                0x08020000                __config_end = (ORIGIN (FLASH_CONFIG) + LENGTH (FLASH_CONFIG))
                0x00000000                _Min_Heap_Size = 0x0
                0x00000400                _Min_Stack_Size = 0x400

.isr_vector     0x08000000      0x10c
                0x08000000                . = ALIGN (0x4)
                [!provide]                PROVIDE (isr_vector_table_base, .)
 *(.isr_vector)
 .isr_vector    0x08000000      0x10c obj/main/NAZE/startup_stm32f10x_md_gcc.o
                0x08000000                g_pfnVectors
                0x0800010c                . = ALIGN (0x4)

.text           0x08000110    0x1e1c0
                0x08000110                . = ALIGN (0x4)
 *(.text)
 .text          0x08000110     0x1a00 /tmp/ccGrItoW.ltrans1.ltrans.o
                0x08000110                mspSerialProcess
 .text          0x08001b10     0x1634 /tmp/ccGrItoW.ltrans2.ltrans.o
                0x08001b10                taskPid
 .text          0x08003144     0x15d0 /tmp/ccGrItoW.ltrans3.ltrans.o
                0x08003144                taskTelemetry
 .text          0x08004714     0x1280 /tmp/ccGrItoW.ltrans4.ltrans.o
                0x08004714                taskUpdateRxMain
 .text          0x08005994      0xca4 /tmp/ccGrItoW.ltrans5.ltrans.o
                0x08005d94                usartIrqHandler
                0x08005df8                uartStartTxDMA
                0x08005e5a                gpioInit
                0x08005ebe                uartOpen
                0x0800624e                i2cInit
                0x0800651c                i2cRead
                0x080065a0                i2cWrite
                0x0800662c                I2C2_EV_IRQHandler
                0x08006630                I2C2_ER_IRQHandler
                0x08006632                I2C1_EV_IRQHandler
                0x08006636                I2C1_ER_IRQHandler
 .text          0x08006638      0xd50 /tmp/ccGrItoW.ltrans6.ltrans.o
                0x08006638                ws2811DMAHandler
                0x0800666e                bmp280_calculate.lto_priv.194
                0x08006830                bmp280_get_ut.lto_priv.190
                0x08006832                bmp280_start_ut.lto_priv.191
                0x08006834                ms5611_calculate.lto_priv.199
                0x080069f0                bmp085_calculate.lto_priv.204
                0x08006acc                hcsr04_extiHandler
                0x08006b04                hmc5883lRead
                0x08006b7c                bmp280_get_up.lto_priv.193
                0x08006bf0                ms5611_get_up.lto_priv.198
                0x08006c00                ms5611_get_ut.lto_priv.196
                0x08006c10                bmp085_get_up.lto_priv.203
                0x08006c5c                bmp085_get_ut.lto_priv.201
                0x08006c90                bmp280_start_up.lto_priv.192
                0x08006c9a                ms5611_start_up.lto_priv.197
                0x08006ca4                ms5611_start_ut.lto_priv.195
                0x08006cae                bmp085_start_up.lto_priv.202
                0x08006cd4                bmp085_start_ut.lto_priv.200
                0x08006ce8                hmc5883lInit
                0x08006f0c                pwmOutConfig.lto_priv.491
                0x080071b8                ws2811UpdateStrip
                0x080072a4                m25p16_isReady
                0x080072ec                m25p16_waitForReady
                0x0800730c                m25p16_readBytes
                0x08007358                bmp085InitXCLRGpio
 .text          0x08007388      0xdbc /tmp/ccGrItoW.ltrans7.ltrans.o
                0x08007388                cliFeature.lto_priv.233
                0x08007480                cliExit.lto_priv.232
                0x08007500                cliFlashErase.lto_priv.234
                0x0800752c                cliFlashInfo.lto_priv.235
                0x08007564                cliServo.lto_priv.242
                0x08007670                cliModeColor.lto_priv.230
                0x0800772c                cliServoMix.lto_priv.243
                0x08007a2c                cliColor.lto_priv.229
                0x08007af8                cliLed.lto_priv.236
                0x08007d1c                cliRxRange.lto_priv.238
                0x08007ddc                cliDump.lto_priv.231
 .text          0x08008144      0xac8 /tmp/ccGrItoW.ltrans8.ltrans.o
                0x08008144                mspSerialPassthroughFn
                0x08008154                msp4WayIfFn
                0x08008168                pgResetFn_serialConfig
                0x080081b4                calcHorizonLevelStrength
                0x080082b0                pidSetController
                0x080082d4                pidInitFilters
                0x08008364                getdT
                0x08008394                findBoxByBoxId.lto_priv.175
                0x080083b4                disableFlightMode
                0x080083d4                enableFlightMode
                0x080083f4                failsafeActivate.lto_priv.333
                0x08008430                handleOneshotFeatureChangeOnRestart
                0x08008484                mspRebootFn
                0x080084a4                writeEEPROM
                0x08008688                resetConf.lto_priv.176
                0x08008740                generateThrottleCurve
                0x080087d4                generateYawCurve
                0x08008808                generatePitchRollCurve
                0x08008844                readEEPROM
                0x08008bdc                changeProfile
                0x08008bf8                saveConfigAndNotify
 .text          0x08008c0c      0xe3c /tmp/ccGrItoW.ltrans9.ltrans.o
                0x08008c0c                pgResetFn_servoProfile
                0x08008c2c                pidMultiWii23
                0x08008f58                pidMultiWiiRewrite
                0x08009218                pidLuxFloat
                0x08009608                EXTI_IRQHandler
                0x08009640                EXTIEnable
                0x0800966c                EXTIConfig
                0x0800976c                loadCustomServoMixer
                0x080097bc                determineServoMiddleOrForwardFromChannel
                0x080097f0                writeMotors
                0x080098a0                calculateMotorOff
                0x080098c4                stopMotors
                0x080098f8                mixerResetDisarmedMotors
                0x08009914                imuComputeRotationMatrix.lto_priv.364
 .text          0x08009a48      0xeb8 /tmp/ccGrItoW.ltrans10.ltrans.o
                0x08009a48                pgResetFn_voltageMeterConfig
                0x08009a58                pgResetFn_accelerometerConfig
                0x08009a84                srxlReadRawRC.lto_priv.436
                0x08009a90                srxlFrameStatus
                0x08009b24                ibusReadRawRC.lto_priv.444
                0x08009b34                ibusFrameStatus
                0x08009b9c                xBusReadRawRC.lto_priv.438
                0x08009bb4                xBusFrameStatus
                0x08009ca0                spektrumReadRawRC.lto_priv.171
                0x08009ccc                spektrumFrameStatus
                0x08009d3c                sumhReadRawRC.lto_priv.429
                0x08009d54                sumhFrameStatus
                0x08009dbc                sumdReadRawRC.lto_priv.427
                0x08009dd0                sumdFrameStatus
                0x08009e58                sbusReadRawRC.lto_priv.425
                0x08009e88                sbusFrameStatus
                0x0800a008                rxMspFrameStatus
                0x0800a01c                rxMspReadRawRC.lto_priv.423
                0x0800a028                ppmReadRawRC.lto_priv.422
                0x0800a038                pwmReadRawRC.lto_priv.421
                0x0800a048                nullFrameStatus.lto_priv.419
                0x0800a04c                nullReadRawRC.lto_priv.418
                0x0800a050                pgResetFn_failsafeChannelConfigs
                0x0800a0bc                pgResetFn_channelRanges
                0x0800a0d4                pgResetFn_amperageMeterConfig
                0x0800a0e0                srxlDataReceive.lto_priv.437
                0x0800a178                ibusDataReceive.lto_priv.445
                0x0800a1c4                xBusDataReceive.lto_priv.443
                0x0800a258                spektrumDataReceive.lto_priv.172
                0x0800a2a8                sumhDataReceive.lto_priv.430
                0x0800a2f4                sumdDataReceive.lto_priv.428
                0x0800a3a0                sbusDataReceive.lto_priv.426
                0x0800a3f8                cliVersion.lto_priv.246
                0x0800a42c                cliTasks.lto_priv.245
                0x0800a4f8                cliStatus.lto_priv.244
                0x0800a614                alignSensors
                0x0800a790                voltageMeterUpdate
                0x0800a7ec                batteryCapacityRemainingPercentage
                0x0800a83c                getRxfailValue.lto_priv.334
                0x0800a8a8                resumeRxSignal
                0x0800a8d4                suspendRxSignal
 .text          0x0800a900      0xb54 /tmp/ccGrItoW.ltrans11.ltrans.o
                0x0800a988                pgResetFn_colors
                0x0800a9a0                applyLedBlinkLayer.lto_priv.292
                0x0800aa20                applyLarsonScannerLayer.lto_priv.293
                0x0800aacc                applyLedThrustRingLayer.lto_priv.299
                0x0800abdc                pgResetFn_specialColors
                0x0800abe8                pgResetFn_modeColors
                0x0800abf4                pgResetFn_ledConfigs
                0x0800ac00                applyLedIndicatorLayer.lto_priv.298
                0x0800acd0                applyLedGpsLayer.lto_priv.296
                0x0800ad64                applyLedRssiLayer.lto_priv.295
                0x0800adcc                applyLedBatteryLayer.lto_priv.294
                0x0800ae28                sonarRead
                0x0800aeb0                transmitIbusPacket.lto_priv.305
                0x0800af08                sendIbusMeasurement.lto_priv.306
                0x0800af30                mavlinkStreamTrigger.lto_priv.307
                0x0800af6c                crc_accumulate.lto_priv.173
                0x0800af88                ltm_finalise.lto_priv.308
                0x0800afa0                ltm_serialise_8.lto_priv.309
                0x0800afc4                ltm_serialise_32.lto_priv.310
                0x0800afe6                ltm_serialise_16.lto_priv.312
                0x0800aff8                ltm_initialise_packet.lto_priv.311
                0x0800b02c                smartPortSendPackage.lto_priv.313
                0x0800b094                workAroundForHottTelemetryOnUsart.isra.0.lto_priv.315
                0x0800b0c0                flushHottRxBuffer.lto_priv.314
                0x0800b0dc                serialize16.lto_priv.317
                0x0800b0f0                sendTelemetryTail.lto_priv.316
                0x0800b100                sendDataHead.lto_priv.318
                0x0800b120                sendLatLong.lto_priv.319
                0x0800b198                telemetryCheckState
 .text          0x0800b454      0x990 /tmp/ccGrItoW.ltrans12.ltrans.o
                0x0800b6e4                blackboxLogIteration.lto_priv.376
                0x0800bc4c                blackboxAdvanceIterationTimers.lto_priv.375
                0x0800bc88                sendFieldDefinition.lto_priv.377
 .text          0x0800bde4      0x9cc /tmp/ccGrItoW.ltrans13.ltrans.o
                0x0800bde4                sensorsAutodetect
 .text          0x0800c7b0      0xb90 /tmp/ccGrItoW.ltrans14.ltrans.o
                0x0800c7c8                pgResetFn_gpsConfig
                0x0800c808                gpsNewFrame
                0x0800cde4                gpsSetState.lto_priv.325
                0x0800ce00                GPS_distance_cm_bearing.isra.3.lto_priv.526
                0x0800ce84                wrap_18000.lto_priv.379
                0x0800cea8                GPS_set_next_wp
                0x0800cf34                gpsUsePIDs
                0x0800cfd4                GPS_reset_home_position
                0x0800d028                flashfsAdvanceTailInBuffer.lto_priv.495
                0x0800d058                flashfsGetDirtyDataBuffers.lto_priv.493
                0x0800d090                flashfsGetOffset
                0x0800d0b0                flashfsWriteBuffers.lto_priv.494
                0x0800d204                flashfsFlushSync
                0x0800d23c                flashfsFlushAsync
                0x0800d280                flashfsTransmitBufferUsed.lto_priv.378
                0x0800d2a0                flashfsEraseCompletely
                0x0800d2f0                TIM4_IRQHandler
                0x0800d300                TIM3_IRQHandler
                0x0800d310                TIM2_IRQHandler
                0x0800d320                TIM1_UP_IRQHandler
                0x0800d330                TIM1_CC_IRQHandler
 .text          0x0800d340      0x998 /tmp/ccGrItoW.ltrans15.ltrans.o
                0x0800d422                pwmOverflowCallback.lto_priv.455
                0x0800d44c                ppmEdgeCallback.lto_priv.456
                0x0800d5cc                ppmOverflowCallback.lto_priv.457
                0x0800d60c                pwmWriteStandard.lto_priv.452
                0x0800d61c                pwmWriteBrushed.lto_priv.453
                0x0800d810                timCCxHandler.lto_priv.544
                0x0800d898                configTimeBase
                0x0800d940                timerConfigure
                0x0800d992                lookupTimerIndex.lto_priv.281
                0x0800d9cc                timerChConfigCallbacks
                0x0800da84                openSoftSerial
                0x0800dc2a                pwmICConfig
                0x0800dc68                pwmEdgeCallback.lto_priv.454
                0x0800dcc0                pwmWriteServo
 .text          0x0800dcd8      0xa24 /tmp/ccGrItoW.ltrans16.ltrans.o
                0x0800dcd8                taskUpdateBaro
                0x0800ddb8                taskCalculateAltitude
                0x0800e290                taskUpdateSonar
                0x0800e2d4                taskUpdateCompass
                0x0800e424                taskProcessGPS
 .text          0x0800e6fc      0xa78 /tmp/ccGrItoW.ltrans17.ltrans.o
                0x0800e784                cliShowArgumentRangeError.lto_priv.247
                0x0800e7a0                cliAux.lto_priv.228
                0x0800e87c                cliShowParseError.lto_priv.248
                0x0800e888                cliMotorMix.lto_priv.237
                0x0800ea80                cliAdjustmentRange.lto_priv.227
                0x0800ebc0                cliSerialPassthrough.lto_priv.241
                0x0800ecf8                cliSerial.lto_priv.240
                0x0800ee3c                cliRxFail.lto_priv.239
                0x0800ef58                cliPrompt.lto_priv.177
                0x0800ef74                StkRcvPacket.lto_priv.274
                0x0800f048                _CMD_LOAD_ADDRESS.isra.1.lto_priv.266
                0x0800f09c                Stk_SignOn
                0x0800f0c4                _CMD_PROGRAM_MEM_ISP.lto_priv.267
                0x0800f13c                _CMD_READ_MEM_ISP.lto_priv.269
 .text          0x0800f174      0x92c /tmp/ccGrItoW.ltrans18.ltrans.o
                0x0800f174                nopConsumer.lto_priv.169
                0x0800f1ba                serialRemovePort
                0x0800f1ec                closeSerialPort
                0x0800f214                mspSerialReleasePortIfAllocated
                0x0800f250                doesConfigurationUsePort
                0x0800f278                determinePortSharing
                0x0800f28c                findSerialPortConfig
                0x0800f2bc                findSerialPortUsageByIdentifier
                0x0800f2e0                setTaskEnabled
                0x0800f394                micros
                0x0800f3cc                delayMicroseconds
                0x0800f3e2                delay
                0x0800f3f6                failureMode
                0x0800f494                SysTick_Handler
                0x0800f4a4                serialEndWrite
                0x0800f4ae                serialBeginWrite
                0x0800f4b8                serialSetMode
                0x0800f4be                openSerialPort
                0x0800f54c                mspSerialAllocatePorts
                0x0800f604                isSerialTransmitBufferEmpty
                0x0800f60a                waitForSerialPortToFinishTransmitting
                0x0800f620                serialSetBaudRate
                0x0800f626                serialRead
                0x0800f62c                serialRxBytesWaiting
                0x0800f632                serialWrite
                0x0800f674                mspSerialEncode
                0x0800f6fc                serialWriteBufShim
                0x0800f6fe                DMA1_Channel7_IRQHandler
                0x0800f708                DMA1_Channel6_IRQHandler
                0x0800f710                DMA1_Channel5_IRQHandler
                0x0800f718                DMA1_Channel4_IRQHandler
                0x0800f720                DMA1_Channel3_IRQHandler
                0x0800f728                DMA1_Channel2_IRQHandler
                0x0800f730                DMA1_Channel1_IRQHandler
                0x0800f738                bufWriterFlush
                0x0800f750                fastA2F
                0x0800f87c                ftoa
                0x0800f948                _i2a.lto_priv.174
                0x0800f970                ui2a
                0x0800f9be                uli2a
                0x0800fa0c                sbufReadU32
                0x0800fa38                sbufReadU16
                0x0800fa4e                sbufWriteData
                0x0800fa62                sbufWriteU32
                0x0800fa8a                sbufWriteU16
 .text          0x0800faa0      0x7cc /tmp/ccGrItoW.ltrans19.ltrans.o
                0x0800faa0                beepInverted.lto_priv.460
                0x0800fab4                beepNormal.lto_priv.461
                0x0800fb40                systemBeep
                0x0800fb4c                beeperSilence
                0x0800fb78                esc4wayProcess
                0x08010180                beeper
                0x080101cc                beeperConfirmationBeeps
                0x08010204                IOGetByTag
                0x08010250                EXTI15_10_IRQHandler
                0x08010254                EXTI9_5_IRQHandler
                0x08010258                EXTI4_IRQHandler
                0x0801025c                EXTI3_IRQHandler
                0x08010260                EXTI2_IRQHandler
                0x08010264                EXTI1_IRQHandler
                0x08010268                EXTI0_IRQHandler
 .text          0x0801026c      0x928 /tmp/ccGrItoW.ltrans20.ltrans.o
                0x0801026c                spiTransfer.constprop.139
                0x080102c8                spiTransferByte.constprop.137
                0x08010300                GPS_coord_to_degrees.constprop.95
                0x080103c0                grab_fields.constprop.94
                0x08010404                serialPassthrough.constprop.93
                0x0801053c                tfp_sprintf.constprop.89
                0x08010568                mavlinkSerialWrite.constprop.82
                0x0801058c                mavlink_msg_to_send_buffer.constprop.81
                0x080105bc                mavlink_finalize_message_chan.constprop.79
                0x0801066c                calculateThrottleStatus.constprop.60
                0x080106a0                blackboxWriteSigned16VBArray.constprop.56
                0x080106c0                blackboxWriteSignedVBArray.constprop.55
                0x080106da                getLatestVoltageForADCChannel.constprop.54
                0x0801070c                spektrumInit.constprop.41
                0x080107a4                parseRcChannels.constprop.25
                0x080107e0                findNextSharedSerialPort.constprop.20
                0x08010820                setAdjustment.constprop.18
                0x08010840                itoa.constprop.0
                0x08010862                GPIO_Init
                0x080108fe                NVIC_Init.part.0.lto_priv.280
                0x08010948                TIM_ICInit
                0x08010b70                FLASH_WaitForLastOperation
 .text          0x08010b94      0x7b8 /tmp/ccGrItoW.ltrans21.ltrans.o
                0x08010b94                taskPidCheck
                0x08010bd0                taskGyroCheck
                0x08010c20                taskGyro
                0x08010f28                mwArm
                0x08011274                mwDisarm
                0x080112f8                isCalibrating
                0x08011330                HardFault_Handler
 .text          0x0801134c      0x920 /tmp/ccGrItoW.ltrans22.ltrans.o
                0x0801134c                applyLedHsv.lto_priv.523
                0x08011380                applyLedWarningLayer.lto_priv.297
                0x0801143c                getLedQuadrant.lto_priv.300
                0x080114b8                reevaluateLedConfig
                0x08011568                gpsNewData.part.2.lto_priv.326
                0x08011c5c                gpsHandlePassthrough.lto_priv.226
 .text          0x08011c6c      0x6c0 /tmp/ccGrItoW.ltrans23.ltrans.o
                0x08011c6c                taskUpdateRxCheck
                0x08011db8                taskUpdateBattery
                0x08011fdc                taskUpdateBeeper
                0x08012108                taskHandleSerial
 .text          0x0801232c      0xbf4 /tmp/ccGrItoW.ltrans24.ltrans.o
                0x0801232c                taskUpdateAttitude
                0x08012cfc                taskUpdateAccelerometer
 .text          0x08012f20      0x910 /tmp/ccGrItoW.ltrans25.ltrans.o
                0x08012f20                putcp.lto_priv.170
                0x08012f7e                _putc.lto_priv.466
                0x08012f8c                tfp_format
                0x08013162                tfp_printf
                0x08013198                applyDeadband
                0x080131b6                acosf
                0x08013230                atan2f
                0x08013334                sinf
                0x0801341c                cosf
                0x08013430                biquadFilterApply
                0x08013488                biquadFilterCalculateNotchQ.lto_priv.212
                0x080134d0                biquadFilterInit.lto_priv.211
                0x080135d4                pt1FilterApply4
                0x08013638                scanEEPROM.part.4.lto_priv.288
                0x08013680                pgActivateProfile
                0x080136b4                pgResetInstance.lto_priv.290
                0x080136fc                pgResetCurrent
                0x0801370e                pgReset
                0x08013726                write_word.lto_priv.289
                0x080137f8                config_streamer_write
 .text          0x08013830      0x6a8 /tmp/ccGrItoW.ltrans26.ltrans.o
                0x08013830                bmp085_extiHandler
                0x0801383c                mpu6500ReadTemp.lto_priv.205
                0x08013874                mpu3050ReadTemp.lto_priv.207
                0x080138ac                mpuGyroRead
                0x080138f4                mpuAccRead
                0x08013964                mpu6500ReadRegister
                0x08013990                mpu6500WriteRegister
                0x080139b0                mpu3050Init.lto_priv.206
                0x080139f8                mpuWriteRegisterI2C.lto_priv.210
                0x08013a04                bma280Init.lto_priv.183
                0x08013a24                adxl345Init.lto_priv.188
                0x08013a78                mpuReadRegisterI2C.lto_priv.209
                0x08013a8e                mma8452Read.lto_priv.186
                0x08013ae8                bma280Read.lto_priv.184
                0x08013b2e                adxl345Read.lto_priv.189
                0x08013c70                mpu6500GyroInit
                0x08013d30                mpu6500AccInit
                0x08013d40                mpu6050GyroInit.lto_priv.208
                0x08013dc4                mpu6050AccInit.lto_priv.187
                0x08013dec                mma8452Init.lto_priv.185
                0x08013e78                UART_TX_DMA_IRQHandler
                0x08013eb4                USART3_IRQHandler
                0x08013ec0                USART2_IRQHandler
                0x08013ecc                USART1_IRQHandler
 .text          0x08013ed8      0x74c /tmp/ccGrItoW.ltrans27.ltrans.o
                0x08013f5e                cliGpsPassthrough.lto_priv.350
                0x08013f9c                cliWrite.lto_priv.254
                0x08013fc0                cliPrintf.lto_priv.223
                0x08013fe8                cliPrintVar.lto_priv.255
                0x080140b8                cliRateProfile.lto_priv.252
                0x08014104                cliProfile.lto_priv.253
                0x08014138                cliMotor.lto_priv.354
                0x080141d4                cliPrint.lto_priv.178
                0x08014200                cliGet.lto_priv.349
                0x08014260                cliSet.lto_priv.356
                0x08014430                cliMixer.lto_priv.353
                0x080144d0                cliMap.lto_priv.352
                0x08014570                cliHelp.lto_priv.351
                0x080145b4                cliReboot.lto_priv.251
                0x080145f0                cliDefaults.lto_priv.348
                0x0801460c                cliSave.lto_priv.355
 .text          0x08014624      0x48c /tmp/ccGrItoW.ltrans28.ltrans.o
                0x08014670                ReadBit.lto_priv.259
                0x08014714                StkSendByte.lto_priv.257
                0x0801479c                StkSendPacketFooter.lto_priv.258
                0x080147d4                StkSendPacketHeader.lto_priv.256
                0x08014834                crc16Byte.lto_priv.276
                0x08014858                BL_SendBuf.lto_priv.272
                0x080148c4                suart_getc.lto_priv.275
                0x08014948                BL_GetACK.lto_priv.273
                0x08014960                BL_SendCMDSetAddress.isra.1.lto_priv.271
                0x080149a2                BL_ReadA.lto_priv.270
                0x08014a38                BL_WriteA.lto_priv.268
 .text          0x08014ab0      0x3a0 /tmp/ccGrItoW.ltrans29.ltrans.o
                0x08014ab0                pgResetFn_controlRateProfiles
                0x08014ad0                taskLedStrip
                0x08014d90                isRangeActive.part.0.lto_priv.332
                0x08014dd8                rcModeIsActivationConditionPresent
                0x08014dfa                blackboxLogInflightAdjustmentEvent
 .text          0x08014e50      0x39c /tmp/ccGrItoW.ltrans30.ltrans.o
                0x08014e50                featureClear
                0x08014e60                blackboxDeviceReserveBufferSpace
                0x08014ebc                isBlackboxDeviceFull
                0x08014ee8                blackboxDeviceFlushForce
                0x08014f0c                blackboxPrint
                0x08014fe0                blackboxPrintf
                0x08015004                blackboxWrite
                0x08015054                blackboxWriteTag2_3S32
                0x08015172                blackboxWriteUnsignedVB
                0x08015190                blackboxWriteSignedVB
                0x08015198                blackboxPrintfHeaderLine
 .text          0x080151ec      0x250 /tmp/ccGrItoW.ltrans31.ltrans.o
                0x080151ec                FLASH_GetBank1Status
                0x08015214                RCC_GetClocksFreq
                0x080152a8                DMA_StructInit
                0x080152c2                DMA_Init
                0x080152fe                DMA_DeInit
                0x080153f0                SystemInit
 .text          0x0801543c      0x370 /usr/lib/gcc/arm-none-eabi/4.9.3/armv7-m/libgcc.a(_arm_addsubdf3.o)
                0x0801543c                __aeabi_drsub
                0x08015444                __aeabi_dsub
                0x08015444                __subdf3
                0x08015448                __adddf3
                0x08015448                __aeabi_dadd
                0x080156c0                __aeabi_ui2d
                0x080156c0                __floatunsidf
                0x080156e0                __floatsidf
                0x080156e0                __aeabi_i2d
                0x08015704                __extendsfdf2
                0x08015704                __aeabi_f2d
                0x08015740                __aeabi_ul2d
                0x08015740                __floatundidf
                0x08015750                __floatdidf
                0x08015750                __aeabi_l2d
 .text          0x080157ac      0x424 /usr/lib/gcc/arm-none-eabi/4.9.3/armv7-m/libgcc.a(_arm_muldivdf3.o)
                0x080157ac                __aeabi_dmul
                0x080157ac                __muldf3
                0x08015a00                __aeabi_ddiv
                0x08015a00                __divdf3
 .text          0x08015bd0      0x110 /usr/lib/gcc/arm-none-eabi/4.9.3/armv7-m/libgcc.a(_arm_cmpdf2.o)
                0x08015bd0                __gtdf2
                0x08015bd0                __gedf2
                0x08015bd8                __ltdf2
                0x08015bd8                __ledf2
                0x08015be0                __cmpdf2
                0x08015be0                __eqdf2
                0x08015be0                __nedf2
                0x08015c5c                __aeabi_cdrcmple
                0x08015c6c                __aeabi_cdcmple
                0x08015c6c                __aeabi_cdcmpeq
                0x08015c7c                __aeabi_dcmpeq
                0x08015c90                __aeabi_dcmplt
                0x08015ca4                __aeabi_dcmple
                0x08015cb8                __aeabi_dcmpge
                0x08015ccc                __aeabi_dcmpgt
 .text          0x08015ce0       0xa0 /usr/lib/gcc/arm-none-eabi/4.9.3/armv7-m/libgcc.a(_arm_truncdfsf2.o)
                0x08015ce0                __aeabi_d2f
                0x08015ce0                __truncdfsf2
 .text          0x08015d80      0x21c /usr/lib/gcc/arm-none-eabi/4.9.3/armv7-m/libgcc.a(_arm_addsubsf3.o)
                0x08015d80                __aeabi_frsub
                0x08015d88                __subsf3
                0x08015d88                __aeabi_fsub
                0x08015d8c                __aeabi_fadd
                0x08015d8c                __addsf3
                0x08015eec                __aeabi_ui2f
                0x08015eec                __floatunsisf
                0x08015ef4                __aeabi_i2f
                0x08015ef4                __floatsisf
                0x08015f10                __floatundisf
                0x08015f10                __aeabi_ul2f
                0x08015f20                __floatdisf
                0x08015f20                __aeabi_l2f
 .text          0x08015f9c      0x2a0 /usr/lib/gcc/arm-none-eabi/4.9.3/armv7-m/libgcc.a(_arm_muldivsf3.o)
                0x08015f9c                __mulsf3
                0x08015f9c                __aeabi_fmul
                0x08016104                __divsf3
                0x08016104                __aeabi_fdiv
 .text          0x0801623c       0xec /usr/lib/gcc/arm-none-eabi/4.9.3/armv7-m/libgcc.a(_arm_cmpsf2.o)
                0x0801623c                __gtsf2
                0x0801623c                __gesf2
                0x08016244                __lesf2
                0x08016244                __ltsf2
                0x0801624c                __nesf2
                0x0801624c                __eqsf2
                0x0801624c                __cmpsf2
                0x080162ac                __aeabi_cfrcmple
                0x080162b4                __aeabi_cfcmple
                0x080162b4                __aeabi_cfcmpeq
                0x080162c4                __aeabi_fcmpeq
                0x080162d8                __aeabi_fcmplt
                0x080162ec                __aeabi_fcmple
                0x08016300                __aeabi_fcmpge
                0x08016314                __aeabi_fcmpgt
 .text          0x08016328       0x4c /usr/lib/gcc/arm-none-eabi/4.9.3/armv7-m/libgcc.a(_arm_fixsfsi.o)
                0x08016328                __fixsfsi
                0x08016328                __aeabi_f2iz
 .text          0x08016374       0x40 /usr/lib/gcc/arm-none-eabi/4.9.3/armv7-m/libgcc.a(_arm_fixunssfsi.o)
                0x08016374                __aeabi_f2uiz
                0x08016374                __fixunssfsi
 .text          0x080163b4       0x38 /usr/lib/gcc/arm-none-eabi/4.9.3/armv7-m/libgcc.a(_aeabi_ldivmod.o)
                0x080163b4                __aeabi_ldivmod
 .text          0x080163ec       0x28 /usr/lib/gcc/arm-none-eabi/4.9.3/armv7-m/libgcc.a(_popcountsi2.o)
                0x080163ec                __popcountsi2
 .text          0x08016414       0x60 /usr/lib/gcc/arm-none-eabi/4.9.3/armv7-m/libgcc.a(bpabi.o)
                0x08016414                __gnu_ldivmod_helper
                0x08016444                __gnu_uldivmod_helper
 .text          0x08016474        0x4 /usr/lib/gcc/arm-none-eabi/4.9.3/armv7-m/libgcc.a(_dvmd_tls.o)
                0x08016474                __aeabi_ldiv0
                0x08016474                __aeabi_idiv0
 .text          0x08016478      0x2ac /usr/lib/gcc/arm-none-eabi/4.9.3/armv7-m/libgcc.a(_divdi3.o)
                0x08016478                __divdi3
 .text          0x08016724      0x270 /usr/lib/gcc/arm-none-eabi/4.9.3/armv7-m/libgcc.a(_udivdi3.o)
                0x08016724                __udivdi3
 *(.text*)
 .text.Reset_Handler
                0x08016994       0x9c obj/main/NAZE/startup_stm32f10x_md_gcc.o
                0x08016994                Reset_Handler
 .text.Default_Handler
                0x08016a30        0x2 obj/main/NAZE/startup_stm32f10x_md_gcc.o
                0x08016a30                DebugMon_Handler
                0x08016a30                PVD_IRQHandler
                0x08016a30                PendSV_Handler
                0x08016a30                NMI_Handler
                0x08016a30                UsageFault_Handler
                0x08016a30                ADC1_2_IRQHandler
                0x08016a30                SPI1_IRQHandler
                0x08016a30                TAMPER_IRQHandler
                0x08016a30                RTC_IRQHandler
                0x08016a30                CAN1_RX1_IRQHandler
                0x08016a30                RCC_IRQHandler
                0x08016a30                TIM1_TRG_COM_IRQHandler
                0x08016a30                Default_Handler
                0x08016a30                SPI2_IRQHandler
                0x08016a30                MemManage_Handler
                0x08016a30                SVC_Handler
                0x08016a30                USB_LP_CAN1_RX0_IRQHandler
                0x08016a30                USB_HP_CAN1_TX_IRQHandler
                0x08016a30                WWDG_IRQHandler
                0x08016a30                TIM1_BRK_IRQHandler
                0x08016a30                RTCAlarm_IRQHandler
                0x08016a30                CAN1_SCE_IRQHandler
                0x08016a30                FLASH_IRQHandler
                0x08016a30                BusFault_Handler
                0x08016a30                USBWakeUp_IRQHandler
 *fill*         0x08016a32        0x2 
 .text.startup  0x08016a34     0x20c4 /tmp/ccGrItoW.ltrans0.ltrans.o
                0x08016a34                main
 .text.atoi     0x08018af8        0x8 /usr/lib/gcc/arm-none-eabi/4.9.3/../../../arm-none-eabi/lib/armv7-m/libc_nano.a(lib_a-atoi.o)
                0x08018af8                atoi
 .text.memcpy   0x08018b00       0x16 /usr/lib/gcc/arm-none-eabi/4.9.3/../../../arm-none-eabi/lib/armv7-m/libc_nano.a(lib_a-memcpy.o)
                0x08018b00                memcpy
 *fill*         0x08018b16        0x2 
 .text.strtok   0x08018b18       0x64 /usr/lib/gcc/arm-none-eabi/4.9.3/../../../arm-none-eabi/lib/armv7-m/libc_nano.a(lib_a-strtok.o)
                0x08018b18                strtok
 .text.__strtok_r
                0x08018b7c       0x56 /usr/lib/gcc/arm-none-eabi/4.9.3/../../../arm-none-eabi/lib/armv7-m/libc_nano.a(lib_a-strtok_r.o)
                0x08018b7c                __strtok_r
 .text.strtok_r
                0x08018bd2        0x6 /usr/lib/gcc/arm-none-eabi/4.9.3/../../../arm-none-eabi/lib/armv7-m/libc_nano.a(lib_a-strtok_r.o)
                0x08018bd2                strtok_r
 .text._strtol_r
                0x08018bd8      0x10c /usr/lib/gcc/arm-none-eabi/4.9.3/../../../arm-none-eabi/lib/armv7-m/libc_nano.a(lib_a-strtol.o)
                0x08018bd8                _strtol_r
 .text.strtol   0x08018ce4       0x1c /usr/lib/gcc/arm-none-eabi/4.9.3/../../../arm-none-eabi/lib/armv7-m/libc_nano.a(lib_a-strtol.o)
                0x08018ce4                strtol
 .text.malloc   0x08018d00       0x10 /usr/lib/gcc/arm-none-eabi/4.9.3/../../../arm-none-eabi/lib/armv7-m/libc_nano.a(lib_a-malloc.o)
                0x08018d00                malloc
 .text._malloc_r
                0x08018d10       0xac /usr/lib/gcc/arm-none-eabi/4.9.3/../../../arm-none-eabi/lib/armv7-m/libc_nano.a(lib_a-nano-mallocr.o)
                0x08018d10                _malloc_r
 .text._sbrk_r  0x08018dbc       0x20 /usr/lib/gcc/arm-none-eabi/4.9.3/../../../arm-none-eabi/lib/armv7-m/libc_nano.a(lib_a-sbrkr.o)
                0x08018dbc                _sbrk_r
 .text._sbrk    0x08018ddc       0x1c /usr/lib/gcc/arm-none-eabi/4.9.3/../../../arm-none-eabi/lib/armv7-m/libnosys.a(sbrk.o)
                0x08018ddc                _sbrk
 .text.log2f    0x08018df8       0x14 /usr/lib/gcc/arm-none-eabi/4.9.3/../../../arm-none-eabi/lib/armv7-m/libm.a(lib_a-sf_log2.o)
                0x08018df8                log2f
 .text.lrintf   0x08018e0c       0x78 /usr/lib/gcc/arm-none-eabi/4.9.3/../../../arm-none-eabi/lib/armv7-m/libm.a(lib_a-sf_lrint.o)
                0x08018e0c                lrintf
 .text.logf     0x08018e84       0xe8 /usr/lib/gcc/arm-none-eabi/4.9.3/../../../arm-none-eabi/lib/armv7-m/libm.a(lib_a-wf_log.o)
                0x08018e84                logf
 .text.powf     0x08018f6c      0x314 /usr/lib/gcc/arm-none-eabi/4.9.3/../../../arm-none-eabi/lib/armv7-m/libm.a(lib_a-wf_pow.o)
                0x08018f6c                powf
 .text.sqrtf    0x08019280       0x9c /usr/lib/gcc/arm-none-eabi/4.9.3/../../../arm-none-eabi/lib/armv7-m/libm.a(lib_a-wf_sqrt.o)
                0x08019280                sqrtf
 .text.__ieee754_logf
                0x0801931c      0x280 /usr/lib/gcc/arm-none-eabi/4.9.3/../../../arm-none-eabi/lib/armv7-m/libm.a(lib_a-ef_log.o)
                0x0801931c                __ieee754_logf
 .text.__ieee754_powf
                0x0801959c      0x6ec /usr/lib/gcc/arm-none-eabi/4.9.3/../../../arm-none-eabi/lib/armv7-m/libm.a(lib_a-ef_pow.o)
                0x0801959c                __ieee754_powf
 .text.__ieee754_sqrtf
                0x08019c88       0xa8 /usr/lib/gcc/arm-none-eabi/4.9.3/../../../arm-none-eabi/lib/armv7-m/libm.a(lib_a-ef_sqrt.o)
                0x08019c88                __ieee754_sqrtf
 .text.matherr  0x08019d30        0x4 /usr/lib/gcc/arm-none-eabi/4.9.3/../../../arm-none-eabi/lib/armv7-m/libm.a(lib_a-s_matherr.o)
                0x08019d30                matherr
 .text.nan      0x08019d34        0xc /usr/lib/gcc/arm-none-eabi/4.9.3/../../../arm-none-eabi/lib/armv7-m/libm.a(lib_a-s_nan.o)
                0x08019d34                nan
 .text.rint     0x08019d40      0x11c /usr/lib/gcc/arm-none-eabi/4.9.3/../../../arm-none-eabi/lib/armv7-m/libm.a(lib_a-s_rint.o)
                0x08019d40                rint
 .text.fabsf    0x08019e5c        0x8 /usr/lib/gcc/arm-none-eabi/4.9.3/../../../arm-none-eabi/lib/armv7-m/libm.a(lib_a-sf_fabs.o)
                0x08019e5c                fabsf
 .text.finitef  0x08019e64       0x10 /usr/lib/gcc/arm-none-eabi/4.9.3/../../../arm-none-eabi/lib/armv7-m/libm.a(lib_a-sf_finite.o)
                0x08019e64                finitef
 .text.__fpclassifyf
                0x08019e74       0x34 /usr/lib/gcc/arm-none-eabi/4.9.3/../../../arm-none-eabi/lib/armv7-m/libm.a(lib_a-sf_fpclassify.o)
                0x08019e74                __fpclassifyf
 .text.nanf     0x08019ea8        0x8 /usr/lib/gcc/arm-none-eabi/4.9.3/../../../arm-none-eabi/lib/armv7-m/libm.a(lib_a-sf_nan.o)
                0x08019ea8                nanf
 .text.scalbnf  0x08019eb0       0xb0 /usr/lib/gcc/arm-none-eabi/4.9.3/../../../arm-none-eabi/lib/armv7-m/libm.a(lib_a-sf_scalbn.o)
                0x08019eb0                scalbnf
 .text.copysignf
                0x08019f60        0xc /usr/lib/gcc/arm-none-eabi/4.9.3/../../../arm-none-eabi/lib/armv7-m/libm.a(lib_a-sf_copysign.o)
                0x08019f60                copysignf
 .text.__errno  0x08019f6c        0xc /usr/lib/gcc/arm-none-eabi/4.9.3/../../../arm-none-eabi/lib/armv7-m/libc_nano.a(lib_a-errno.o)
                0x08019f6c                __errno
 .text.memcmp   0x08019f78       0x20 /usr/lib/gcc/arm-none-eabi/4.9.3/../../../arm-none-eabi/lib/armv7-m/libc_nano.a(lib_a-memcmp.o)
                0x08019f78                memcmp
 .text.memmove  0x08019f98       0x36 /usr/lib/gcc/arm-none-eabi/4.9.3/../../../arm-none-eabi/lib/armv7-m/libc_nano.a(lib_a-memmove.o)
                0x08019f98                memmove
 .text.memset   0x08019fce       0x10 /usr/lib/gcc/arm-none-eabi/4.9.3/../../../arm-none-eabi/lib/armv7-m/libc_nano.a(lib_a-memset.o)
                0x08019fce                memset
 *fill*         0x08019fde        0x2 
 .text.strcasecmp
                0x08019fe0       0x3c /usr/lib/gcc/arm-none-eabi/4.9.3/../../../arm-none-eabi/lib/armv7-m/libc_nano.a(lib_a-strcasecmp.o)
                0x08019fe0                strcasecmp
 .text.strcat   0x0801a01c       0x1e /usr/lib/gcc/arm-none-eabi/4.9.3/../../../arm-none-eabi/lib/armv7-m/libc_nano.a(lib_a-strcat.o)
                0x0801a01c                strcat
 .text.strchr   0x0801a03a       0x1c /usr/lib/gcc/arm-none-eabi/4.9.3/../../../arm-none-eabi/lib/armv7-m/libc_nano.a(lib_a-strchr.o)
                0x0801a03a                strchr
 .text.strlen   0x0801a056       0x10 /usr/lib/gcc/arm-none-eabi/4.9.3/../../../arm-none-eabi/lib/armv7-m/libc_nano.a(lib_a-strlen.o)
                0x0801a056                strlen
 *fill*         0x0801a066        0x2 
 .text.strncasecmp
                0x0801a068       0x44 /usr/lib/gcc/arm-none-eabi/4.9.3/../../../arm-none-eabi/lib/armv7-m/libc_nano.a(lib_a-strncasecmp.o)
                0x0801a068                strncasecmp
 .text.strncpy  0x0801a0ac       0x24 /usr/lib/gcc/arm-none-eabi/4.9.3/../../../arm-none-eabi/lib/armv7-m/libc_nano.a(lib_a-strncpy.o)
                0x0801a0ac                strncpy
 .text.strstr   0x0801a0d0       0x30 /usr/lib/gcc/arm-none-eabi/4.9.3/../../../arm-none-eabi/lib/armv7-m/libc_nano.a(lib_a-strstr.o)
                0x0801a0d0                strstr
 *(.rodata)
 .rodata        0x0801a100       0xc0 /tmp/ccGrItoW.ltrans0.ltrans.o
 .rodata        0x0801a1c0      0x128 /tmp/ccGrItoW.ltrans1.ltrans.o
                0x0801a1fc                boxes.lto_priv.283
                0x0801a2dc                shortGitRevision
                0x0801a2e0                buildTime
                0x0801a2e4                buildDate
 .rodata        0x0801a2e8      0x2b4 /tmp/ccGrItoW.ltrans2.ltrans.o
 .rodata        0x0801a59c       0x1c /tmp/ccGrItoW.ltrans3.ltrans.o
 .rodata        0x0801a5b8       0x50 /tmp/ccGrItoW.ltrans5.ltrans.o
 .rodata        0x0801a608      0x207 /tmp/ccGrItoW.ltrans7.ltrans.o
                0x0801a664                servoMixers
                0x0801a752                servoMixerSingle.lto_priv.490
                0x0801a78a                servoMixerDual.lto_priv.489
                0x0801a798                servoMixerAirplane.lto_priv.488
                0x0801a7bb                servoMixerFlyingWing.lto_priv.487
                0x0801a7de                servoMixerGimbal.lto_priv.486
                0x0801a7ec                servoMixerBI.lto_priv.485
                0x0801a808                servoMixerTri.lto_priv.484
 .rodata        0x0801a80f       0x23 /tmp/ccGrItoW.ltrans9.ltrans.o
 *fill*         0x0801a832        0x2 
 .rodata        0x0801a834       0xe8 /tmp/ccGrItoW.ltrans10.ltrans.o
 .rodata        0x0801a91c       0xac /tmp/ccGrItoW.ltrans11.ltrans.o
 .rodata        0x0801a9c8       0x18 /tmp/ccGrItoW.ltrans12.ltrans.o
 .rodata        0x0801a9e0       0x58 /tmp/ccGrItoW.ltrans13.ltrans.o
 .rodata        0x0801aa38       0x28 /tmp/ccGrItoW.ltrans15.ltrans.o
 .rodata        0x0801aa60      0x144 /tmp/ccGrItoW.ltrans16.ltrans.o
                0x0801aa60                gpsInitData.lto_priv.417
 .rodata        0x0801aba4      0x59c /tmp/ccGrItoW.ltrans17.ltrans.o
                0x0801aba4                mixers
                0x0801ac80                mixerAtail4.lto_priv.483
                0x0801acc0                mixerDualcopter.lto_priv.482
                0x0801ace0                mixerHex6H.lto_priv.481
                0x0801ad40                mixerVtail4.lto_priv.480
                0x0801ad80                mixerOctoFlatX.lto_priv.479
                0x0801ae00                mixerOctoFlatP.lto_priv.478
                0x0801ae80                mixerOctoX8.lto_priv.477
                0x0801af00                mixerHex6X.lto_priv.476
                0x0801af60                mixerY4.lto_priv.475
                0x0801afa0                mixerSingleProp.lto_priv.474
                0x0801afb0                mixerHex6P.lto_priv.473
                0x0801b010                mixerY6.lto_priv.472
                0x0801b070                mixerBicopter.lto_priv.471
                0x0801b090                mixerQuadX.lto_priv.470
                0x0801b0d0                mixerQuadP.lto_priv.469
                0x0801b110                mixerTricopter.lto_priv.468
 .rodata        0x0801b140       0x24 /tmp/ccGrItoW.ltrans18.ltrans.o
                0x0801b140                baudRates
                0x0801b160                taskCount
 .rodata        0x0801b164      0x140 /tmp/ccGrItoW.ltrans19.ltrans.o
                0x0801b240                ioDefUsedMask.lto_priv.463
 .rodata        0x0801b2a4      0xf14 /tmp/ccGrItoW.ltrans27.ltrans.o
                0x0801b324                valueTable
                0x0801be70                mixerNames.lto_priv.249
                0x0801bed8                cmdTable
 .rodata        0x0801c1b8       0x94 /tmp/ccGrItoW.ltrans29.ltrans.o
                0x0801c1c4                hsv
 .rodata        0x0801c24c       0x14 /tmp/ccGrItoW.ltrans31.ltrans.o
 *(.rodata*)
 .rodata.timerHardware
                0x0801c260       0xe0 /tmp/ccGrItoW.ltrans0.ltrans.o
                0x0801c260                timerHardware
 .rodata.str1.1
                0x0801c340      0x12b /tmp/ccGrItoW.ltrans1.ltrans.o
                                0x12f (size before relaxing)
 .rodata.str1.1
                0x0801c46b      0x1fe /tmp/ccGrItoW.ltrans2.ltrans.o
                                0x227 (size before relaxing)
 *fill*         0x0801c669        0x1 
 .rodata.frSkyDataIdTable
                0x0801c66a       0x24 /tmp/ccGrItoW.ltrans3.ltrans.o
 .rodata.str1.1
                0x0801c68e      0x426 /tmp/ccGrItoW.ltrans7.ltrans.o
                                0x475 (size before relaxing)
 .rodata.serialPortIdentifiers
                0x0801cab4        0x5 /tmp/ccGrItoW.ltrans8.ltrans.o
                0x0801cab4                serialPortIdentifiers
 .rodata.str1.1
                0x0801cab9        0x9 /tmp/ccGrItoW.ltrans8.ltrans.o
 .rodata.str1.1
                0x0801cac2      0x213 /tmp/ccGrItoW.ltrans10.ltrans.o
                                0x247 (size before relaxing)
 .rodata.str1.1
                0x0801ccd5       0x33 /tmp/ccGrItoW.ltrans12.ltrans.o
                                 0x36 (size before relaxing)
 .rodata.str1.1
                0x0801cd08       0xfb /tmp/ccGrItoW.ltrans16.ltrans.o
                                 0xfc (size before relaxing)
 .rodata.str1.1
                0x0801ce03      0x1d9 /tmp/ccGrItoW.ltrans17.ltrans.o
                                0x218 (size before relaxing)
 .rodata.str1.1
                0x0801cfdc       0x63 /tmp/ccGrItoW.ltrans18.ltrans.o
                                 0x92 (size before relaxing)
 .rodata.str1.1
                0x0801d03f       0xab /tmp/ccGrItoW.ltrans19.ltrans.o
                                 0xb2 (size before relaxing)
 .rodata.str1.1
                0x0801d0ea        0xf /tmp/ccGrItoW.ltrans20.ltrans.o
 .rodata.rcChannelLetters
                0x0801d0ea       0x15 /tmp/ccGrItoW.ltrans20.ltrans.o
                0x0801d0ea                rcChannelLetters
 .rodata.str1.1
                0x0801d0ff        0xb /tmp/ccGrItoW.ltrans21.ltrans.o
 .rodata.str1.1
                0x0801d10a       0x30 /tmp/ccGrItoW.ltrans23.ltrans.o
                                 0x33 (size before relaxing)
 .rodata.str1.1
                0x0801d13a     0x1047 /tmp/ccGrItoW.ltrans27.ltrans.o
                               0x1135 (size before relaxing)
 .rodata._ctype_
                0x0801e181      0x101 /usr/lib/gcc/arm-none-eabi/4.9.3/../../../arm-none-eabi/lib/armv7-m/libc_nano.a(lib_a-ctype_.o)
                0x0801e181                _ctype_
 .rodata.str1.1
                0x0801e282        0x0 /usr/lib/gcc/arm-none-eabi/4.9.3/../../../arm-none-eabi/lib/armv7-m/libc_nano.a(lib_a-impure.o)
                                  0x2 (size before relaxing)
 *fill*         0x0801e282        0x2 
 .rodata.TWO23  0x0801e284        0x8 /usr/lib/gcc/arm-none-eabi/4.9.3/../../../arm-none-eabi/lib/armv7-m/libm.a(lib_a-sf_lrint.o)
 .rodata.str1.4
                0x0801e28c        0x5 /usr/lib/gcc/arm-none-eabi/4.9.3/../../../arm-none-eabi/lib/armv7-m/libm.a(lib_a-wf_log.o)
                                  0xc (size before relaxing)
 *fill*         0x0801e291        0x3 
 .rodata.str1.4
                0x0801e294        0x5 /usr/lib/gcc/arm-none-eabi/4.9.3/../../../arm-none-eabi/lib/armv7-m/libm.a(lib_a-wf_pow.o)
                                  0x8 (size before relaxing)
 *fill*         0x0801e299        0x3 
 .rodata.str1.4
                0x0801e29c        0x8 /usr/lib/gcc/arm-none-eabi/4.9.3/../../../arm-none-eabi/lib/armv7-m/libm.a(lib_a-wf_sqrt.o)
 .rodata.dp_h   0x0801e2a4        0x8 /usr/lib/gcc/arm-none-eabi/4.9.3/../../../arm-none-eabi/lib/armv7-m/libm.a(lib_a-ef_pow.o)
 .rodata.dp_l   0x0801e2ac        0x8 /usr/lib/gcc/arm-none-eabi/4.9.3/../../../arm-none-eabi/lib/armv7-m/libm.a(lib_a-ef_pow.o)
 .rodata.bp     0x0801e2b4        0x8 /usr/lib/gcc/arm-none-eabi/4.9.3/../../../arm-none-eabi/lib/armv7-m/libm.a(lib_a-ef_pow.o)
 .rodata.str1.4
                0x0801e2bc        0x4 /usr/lib/gcc/arm-none-eabi/4.9.3/../../../arm-none-eabi/lib/armv7-m/libm.a(lib_a-ef_pow.o)
 *fill*         0x0801e2bc        0x4 
 .rodata.TWO52  0x0801e2c0       0x10 /usr/lib/gcc/arm-none-eabi/4.9.3/../../../arm-none-eabi/lib/armv7-m/libm.a(lib_a-s_rint.o)
 *(.glue_7)
 .glue_7        0x0801e2d0        0x0 linker stubs
 *(.glue_7t)
 .glue_7t       0x0801e2d0        0x0 linker stubs
 *(.eh_frame)
 *(.init)
 *(.fini)
                0x0801e2d0                . = ALIGN (0x4)
                0x0801e2d0                _etext = .

.vfp11_veneer   0x0801e2d0        0x0
 .vfp11_veneer  0x0801e2d0        0x0 linker stubs

.v4_bx          0x0801e2d0        0x0
 .v4_bx         0x0801e2d0        0x0 linker stubs

.iplt           0x0801e2d0        0x0
 .iplt          0x0801e2d0        0x0 obj/main/NAZE/startup_stm32f10x_md_gcc.o

.ARM.extab
 *(.ARM.extab* .gnu.linkonce.armextab.*)

.ARM            0x0801e2d0        0x8
                0x0801e2d0                __exidx_start = .
 *(.ARM.exidx*)
 .ARM.exidx     0x0801e2d0        0x8 /usr/lib/gcc/arm-none-eabi/4.9.3/armv7-m/libgcc.a(_divdi3.o)
 .ARM.exidx     0x0801e2d8        0x0 /usr/lib/gcc/arm-none-eabi/4.9.3/armv7-m/libgcc.a(_udivdi3.o)
                                  0x8 (size before relaxing)
                0x0801e2d8                __exidx_end = .

.preinit_array  0x0801e2d8        0x0
                [!provide]                PROVIDE (__preinit_array_start, .)
 *(.preinit_array*)
                [!provide]                PROVIDE (__preinit_array_end, .)

.init_array     0x0801e2d8        0x0
                [!provide]                PROVIDE (__init_array_start, .)
 *(SORT(.init_array.*))
 *(.init_array*)
                [!provide]                PROVIDE (__init_array_end, .)

.fini_array     0x0801e2d8        0x0
                [!provide]                PROVIDE (__fini_array_start, .)
 *(.fini_array*)
 *(SORT(.fini_array.*))
                [!provide]                PROVIDE (__fini_array_end, .)

.pg_registry    0x0801e2d8      0x340
                0x0801e2d8                PROVIDE (__pg_registry_start, .)
 *(.pg_registry)
 .pg_registry   0x0801e2d8       0x40 /tmp/ccGrItoW.ltrans0.ltrans.o
                0x0801e2d8                flashchipConfig_Registry
                0x0801e2e8                servoConfig_Registry
                0x0801e2f8                debugConfig_Registry
                0x0801e308                systemConfig_Registry
 .pg_registry   0x0801e318      0x1b0 /tmp/ccGrItoW.ltrans1.ltrans.o
                0x0801e318                pidProfile_Registry
                0x0801e328                profileSelection_Registry
                0x0801e338                featureConfig_Registry
                0x0801e348                sensorAlignmentConfig_Registry
                0x0801e358                rcControlsConfig_Registry
                0x0801e368                motor3DConfig_Registry
                0x0801e378                blackboxConfig_Registry
                0x0801e388                specialColors_Registry
                0x0801e398                modeColors_Registry
                0x0801e3a8                ledConfigs_Registry
                0x0801e3b8                colors_Registry
                0x0801e3c8                failsafeChannelConfigs_Registry
                0x0801e3d8                amperageMeterConfig_Registry
                0x0801e3e8                boardAlignment_Registry
                0x0801e3f8                accelerometerConfig_Registry
                0x0801e408                compassConfig_Registry
                0x0801e418                gpsConfig_Registry
                0x0801e428                failsafeConfig_Registry
                0x0801e438                motorConfig_Registry
                0x0801e448                adjustmentProfile_Registry
                0x0801e458                modeActivationProfile_Registry
                0x0801e468                armingConfig_Registry
                0x0801e478                mspServerConfig_Registry
                0x0801e488                batteryConfig_Registry
                0x0801e498                customServoMixer_Registry
                0x0801e4a8                servoProfile_Registry
                0x0801e4b8                mixerConfig_Registry
 .pg_registry   0x0801e4c8       0x20 /tmp/ccGrItoW.ltrans2.ltrans.o
                0x0801e4c8                gimbalConfig_Registry
                0x0801e4d8                airplaneConfig_Registry
 .pg_registry   0x0801e4e8       0x40 /tmp/ccGrItoW.ltrans3.ltrans.o
                0x0801e4e8                frskyTelemetryConfig_Registry
                0x0801e4f8                hottTelemetryConfig_Registry
                0x0801e508                telemetryConfig_Registry
                0x0801e518                ibusTelemetryConfig_Registry
 .pg_registry   0x0801e528       0x10 /tmp/ccGrItoW.ltrans4.ltrans.o
                0x0801e528                gpsProfile_Registry
 .pg_registry   0x0801e538       0x10 /tmp/ccGrItoW.ltrans7.ltrans.o
                0x0801e538                customMotorMixer_Registry
 .pg_registry   0x0801e548       0x40 /tmp/ccGrItoW.ltrans8.ltrans.o
                0x0801e548                throttleCorrectionConfig_Registry
                0x0801e558                imuConfig_Registry
                0x0801e568                sensorTrims_Registry
                0x0801e578                rateProfileSelection_Registry
 .pg_registry   0x0801e588       0x10 /tmp/ccGrItoW.ltrans10.ltrans.o
                0x0801e588                channelRanges_Registry
 .pg_registry   0x0801e598       0x20 /tmp/ccGrItoW.ltrans13.ltrans.o
                0x0801e598                sensorSelectionConfig_Registry
                0x0801e5a8                gyroConfig_Registry
 .pg_registry   0x0801e5b8       0x10 /tmp/ccGrItoW.ltrans15.ltrans.o
                0x0801e5b8                pwmRxConfig_Registry
 .pg_registry   0x0801e5c8       0x10 /tmp/ccGrItoW.ltrans16.ltrans.o
                0x0801e5c8                barometerConfig_Registry
 .pg_registry   0x0801e5d8       0x30 /tmp/ccGrItoW.ltrans20.ltrans.o
                0x0801e5d8                serialConfig_Registry
                0x0801e5e8                voltageMeterConfig_Registry
                0x0801e5f8                rxConfig_Registry
 .pg_registry   0x0801e608       0x10 /tmp/ccGrItoW.ltrans27.ltrans.o
                0x0801e608                controlRateProfiles_Registry
 *(SORT(.pg_registry.*))
                0x0801e618                PROVIDE (__pg_registry_end, .)

.pg_resetdata   0x0801e618       0xde
                0x0801e618                PROVIDE (__pg_resetdata_start, .)
 *(.pg_resetdata)
 .pg_resetdata  0x0801e618        0x6 /tmp/ccGrItoW.ltrans0.ltrans.o
                0x0801e618                pgResetTemplate_servoConfig
                0x0801e61c                pgResetTemplate_systemConfig
 *fill*         0x0801e61e        0x2 
 .pg_resetdata  0x0801e620       0x72 /tmp/ccGrItoW.ltrans1.ltrans.o
                0x0801e620                pgResetTemplate_rcControlsConfig
                0x0801e628                pgResetTemplate_motor3DConfig
                0x0801e62e                pgResetTemplate_blackboxConfig
                0x0801e632                pgResetTemplate_compassConfig
                0x0801e634                pgResetTemplate_failsafeConfig
                0x0801e63c                pgResetTemplate_motorConfig
                0x0801e648                pgResetTemplate_armingConfig
                0x0801e64c                pgResetTemplate_batteryConfig
                0x0801e654                pgResetTemplate_mixerConfig
                0x0801e664                pgResetTemplate_pidProfile
 .pg_resetdata  0x0801e692        0x1 /tmp/ccGrItoW.ltrans2.ltrans.o
                0x0801e692                pgResetTemplate_airplaneConfig
 *fill*         0x0801e693        0x1 
 .pg_resetdata  0x0801e694        0x7 /tmp/ccGrItoW.ltrans3.ltrans.o
                0x0801e694                pgResetTemplate_hottTelemetryConfig
                0x0801e696                pgResetTemplate_telemetryConfig
                0x0801e69a                pgResetTemplate_ibusTelemetryConfig
 *fill*         0x0801e69b        0x1 
 .pg_resetdata  0x0801e69c        0xc /tmp/ccGrItoW.ltrans4.ltrans.o
                0x0801e69c                pgResetTemplate_gpsProfile
 .pg_resetdata  0x0801e6a8        0x8 /tmp/ccGrItoW.ltrans5.ltrans.o
                0x0801e6a8                pgResetTemplate_flashchipConfig
 .pg_resetdata  0x0801e6b0        0xc /tmp/ccGrItoW.ltrans8.ltrans.o
                0x0801e6b0                pgResetTemplate_throttleCorrectionConfig
                0x0801e6b4                pgResetTemplate_imuConfig
 .pg_resetdata  0x0801e6bc        0xe /tmp/ccGrItoW.ltrans13.ltrans.o
                0x0801e6bc                pgResetTemplate_gyroConfig
 *fill*         0x0801e6ca        0x2 
 .pg_resetdata  0x0801e6cc       0x10 /tmp/ccGrItoW.ltrans16.ltrans.o
                0x0801e6cc                pgResetTemplate_barometerConfig
 .pg_resetdata  0x0801e6dc       0x1a /tmp/ccGrItoW.ltrans20.ltrans.o
                0x0801e6dc                pgResetTemplate_rxConfig
                0x0801e6f6                PROVIDE (__pg_resetdata_end, .)
                0x0801e6f6                _sidata = .

.rel.dyn        0x0801e6f8        0x0
 .rel.iplt      0x0801e6f8        0x0 obj/main/NAZE/startup_stm32f10x_md_gcc.o

.data           0x20000000      0x46c load address 0x0801e6f6
                0x20000000                . = ALIGN (0x4)
                0x20000000                _sdata = .
 *(.data)
 .data          0x20000000       0x11 /tmp/ccGrItoW.ltrans1.ltrans.o
                0x20000000                geometry.lto_priv.250
                0x20000010                isUsingSticksToArm.lto_priv.286
 *fill*         0x20000011        0x1 
 .data          0x20000012        0x3 /tmp/ccGrItoW.ltrans3.ltrans.o
                0x20000012                GPS_hdop
 .data          0x20000015        0x2 /tmp/ccGrItoW.ltrans4.ltrans.o
                0x20000015                rxIsInFailsafeMode.lto_priv.336
                0x20000016                rxIsInFailsafeModeNotDataDriven.lto_priv.339
 *fill*         0x20000017        0x1 
 .data          0x20000018        0xc /tmp/ccGrItoW.ltrans6.ltrans.o
 .data          0x20000024        0x4 /tmp/ccGrItoW.ltrans8.ltrans.o
                0x20000024                pid_controller
 .data          0x20000028        0x4 /tmp/ccGrItoW.ltrans9.ltrans.o
                0x20000028                q0.lto_priv.359
 .data          0x2000002c        0x1 /tmp/ccGrItoW.ltrans10.ltrans.o
                0x2000002c                standardBoardAlignment.lto_priv.449
 *fill*         0x2000002d        0x3 
 .data          0x20000030        0x8 /tmp/ccGrItoW.ltrans11.ltrans.o
                0x20000034                measurement.lto_priv.547
 .data          0x20000038        0x1 /tmp/ccGrItoW.ltrans13.ltrans.o
                0x20000038                isEOCConnected.lto_priv.552
 *fill*         0x20000039        0x3 
 .data          0x2000003c      0x304 /tmp/ccGrItoW.ltrans18.ltrans.o
                0x2000003c                realtimeGuardInterval.lto_priv.397
                0x20000040                cfTasks
 .data          0x20000340       0x1c /tmp/ccGrItoW.ltrans19.ltrans.o
                0x20000340                pwmMotorsEnabled.lto_priv.278
 .data          0x2000035c        0x4 /tmp/ccGrItoW.ltrans22.ltrans.o
                0x2000035c                GPS_scaleLonDown.lto_priv.528
 .data          0x20000360        0x1 /tmp/ccGrItoW.ltrans29.ltrans.o
 *fill*         0x20000361        0x3 
 .data          0x20000364        0x4 /tmp/ccGrItoW.ltrans31.ltrans.o
                0x20000364                hse_value
 *(.data*)
 .data.batteryCellCount
                0x20000368        0x1 /tmp/ccGrItoW.ltrans10.ltrans.o
                0x20000368                batteryCellCount
 *fill*         0x20000369        0x3 
 .data.SystemCoreClock
                0x2000036c        0x4 /tmp/ccGrItoW.ltrans10.ltrans.o
                0x2000036c                SystemCoreClock
 .data.detectedSensors
                0x20000370        0x4 /tmp/ccGrItoW.ltrans13.ltrans.o
                0x20000370                detectedSensors
 .data.dmaChannels
                0x20000374       0x8c /tmp/ccGrItoW.ltrans18.ltrans.o
                0x20000374                dmaChannels
 .data.__ctype_ptr__
                0x20000400        0x4 /usr/lib/gcc/arm-none-eabi/4.9.3/../../../arm-none-eabi/lib/armv7-m/libc_nano.a(lib_a-ctype_.o)
                0x20000400                __ctype_ptr__
 .data.impure_data
                0x20000404       0x60 /usr/lib/gcc/arm-none-eabi/4.9.3/../../../arm-none-eabi/lib/armv7-m/libc_nano.a(lib_a-impure.o)
 .data._impure_ptr
                0x20000464        0x4 /usr/lib/gcc/arm-none-eabi/4.9.3/../../../arm-none-eabi/lib/armv7-m/libc_nano.a(lib_a-impure.o)
                0x20000464                _impure_ptr
 .data.__fdlib_version
                0x20000468        0x1 /usr/lib/gcc/arm-none-eabi/4.9.3/../../../arm-none-eabi/lib/armv7-m/libm.a(lib_a-s_lib_ver.o)
                0x20000468                __fdlib_version
                0x2000046c                . = ALIGN (0x4)
 *fill*         0x20000469        0x3 
                0x2000046c                _edata = .

.igot.plt       0x2000046c        0x0 load address 0x0801eb62
 .igot.plt      0x2000046c        0x0 obj/main/NAZE/startup_stm32f10x_md_gcc.o
                0x2000046c                . = ALIGN (0x4)

.bss            0x20000470     0x3838 load address 0x0801eb62
                0x20000470                _sbss = .
                0x20000470                __bss_start__ = _sbss
 *(.bss)
 .bss           0x20000470      0x50c /tmp/ccGrItoW.ltrans0.ltrans.o
                0x20000472                i2cOverClock.lto_priv.559
                0x20000494                ppmDev
                0x200005c0                servos.lto_priv.546
                0x200005e8                gpsPacketLog
                0x2000060c                ledStripDMABuffer
                0x20000940                portConfig.lto_priv.406
                0x20000944                frskyPortSharing.lto_priv.519
                0x20000945                hottPortSharing.lto_priv.517
                0x20000948                portConfig.lto_priv.408
                0x2000094c                smartPortPortSharing.lto_priv.514
                0x20000950                portConfig.lto_priv.409
                0x20000954                ltmPortSharing.lto_priv.512
                0x20000958                portConfig.lto_priv.410
                0x2000095c                mavlinkPortSharing.lto_priv.510
                0x20000960                ibusSerialPortConfig.lto_priv.509
                0x20000964                ibusPortSharing.lto_priv.507
                0x20000970                couldBeBusy.lto_priv.543
                0x20000974                tailAddress.lto_priv.492
 .bss           0x2000097c      0x958 /tmp/ccGrItoW.ltrans1.ltrans.o
                0x2000097c                mspPorts
                0x20000a1c                cliPort.lto_priv.225
                0x20000a20                printfSerialPort.lto_priv.181
                0x20000a40                cliWriter.lto_priv.224
                0x20000a44                colors_SystemArray
                0x20000a84                mixerConfig_System
                0x20000a94                i2cErrorCount.lto_priv.221
                0x20000a98                enabledSensors.lto_priv.182
                0x20000a9c                flightModeFlags
                0x20000aa0                rcModeActivationMask.lto_priv.279
                0x20000aa4                activeBoxIds.lto_priv.448
                0x20000aa8                profileSelection_System
                0x20000aaa                averageSystemLoadPercent
                0x20000aac                gyroDeltaUs
                0x20000ab0                acc
                0x20000abc                accSmooth
                0x20000ac4                gyroADC
                0x20000ad0                magADC
                0x20000adc                servo
                0x20000aec                servoProfile_ProfileCurrent
                0x20000af0                customServoMixer_SystemArray
                0x20000b60                motor
                0x20000b78                attitude
                0x20000b80                EstAlt.lto_priv.304
                0x20000b84                vario
                0x20000b88                calculatedAltitude.lto_priv.320
                0x20000b8c                batteryConfig_System
                0x20000b94                vbat
                0x20000b98                amperageMeters
                0x20000ba8                rssi
                0x20000bab                armingConfig_System
                0x20000bb0                currentControlRateProfile
                0x20000bb4                pidProfile_ProfileCurrent
                0x20000bb8                modeActivationProfile_ProfileCurrent
                0x20000bbc                adjustmentProfile_ProfileCurrent
                0x20000bc0                motorConfig_System
                0x20000bcc                failsafeConfig_System
                0x20000bd4                gpsConfig_System
                0x20000bd8                compassConfig_ProfileCurrent
                0x20000bdc                stateFlags
                0x20000bdd                GPS_numSat
                0x20000be0                GPS_coord
                0x20000be8                GPS_altitude
                0x20000bea                GPS_speed
                0x20000bec                GPS_ground_course
                0x20000bee                GPS_distanceToHome
                0x20000bf0                GPS_directionToHome
                0x20000bf2                GPS_update
                0x20000bf4                GPS_home
                0x20000bfc                GPS_hold
                0x20000c04                AltHold
                0x20000c08                GPS_numCh
                0x20000c09                GPS_svinfo_chn
                0x20000c19                GPS_svinfo_svid
                0x20000c29                GPS_svinfo_quality
                0x20000c39                GPS_svinfo_cno
                0x20000c4a                debug
                0x20000c54                accelerometerConfig_ProfileCurrent
                0x20000c58                featureConfig_System
                0x20000c5c                boardAlignment_System
                0x20000c62                amperageMeterConfig_SystemArray
                0x20000c6a                failsafeChannelConfigs_SystemArray
                0x20000c90                serialPortUsageList.lto_priv.179
                0x20000ccc                ledConfigs_SystemArray
                0x20000d4c                modeColors_SystemArray
                0x20000d70                specialColors_System
                0x20000d7b                blackboxConfig_System
                0x20000d7e                batteryState.lto_priv.222
                0x20000d80                motor3DConfig_System
                0x20000d88                rcControlsConfig_ProfileCurrent
                0x20000d8c                sensorAlignmentConfig_System
                0x20000d90                escHardware
                0x20000e50                pwmIOConfiguration.lto_priv.451
                0x20000ec8                escCount.lto_priv.263
                0x20000eca                magHold
                0x20000ecc                mspFrame.lto_priv.218
                0x20000ef0                rxMspFrameDone.lto_priv.217
                0x20000ef2                motor_disarmed
                0x20000f0a                calibratingA
                0x20000f0c                blackboxState.lto_priv.291
                0x20000f0d                nav_mode
                0x20000f10                passThroughPort.lto_priv.284
 .bss           0x200012d4      0x222 /tmp/ccGrItoW.ltrans2.ltrans.o
                0x200012d4                gyroReadyCounter
                0x200012dc                debugMode
                0x200012e4                currentMixer
                0x200013cc                servoFilterState.lto_priv.447
                0x200014ac                motorControlEnable
                0x200014cc                blackboxPort.lto_priv.396
                0x200014d0                blackboxHeaderBudget
                0x200014d4                blackboxMaxHeaderBytesPerIteration.lto_priv.394
                0x200014d8                xmitState.lto_priv.392
                0x200014e0                blackboxConditionCache.lto_priv.389
                0x200014e4                vbatReference.lto_priv.385
                0x200014e6                blackboxSlowFrameIterationTimer.lto_priv.393
                0x200014e8                blackboxPFrameIndex.lto_priv.388
                0x200014ec                blackboxIteration.lto_priv.387
                0x200014f0                blackboxModeActivationConditionPresent.lto_priv.386
                0x200014f1                blackboxPortSharing.lto_priv.395
                0x200014f5                blackboxLoggedAnyFrames.lto_priv.391
 *fill*         0x200014f6        0x2 
 .bss           0x200014f8       0xdb /tmp/ccGrItoW.ltrans3.ltrans.o
                0x200014f8                frskyTelemetryEnabled.lto_priv.520
                0x20001504                BaroAlt
                0x20001508                baroTemperature
                0x2000150c                telemetryConfig_System
                0x20001514                frskyTelemetryConfig_System
                0x20001521                hottTelemetryEnabled.lto_priv.518
                0x20001528                hottEAMMessage.lto_priv.411
                0x20001559                hottGPSMessage.lto_priv.412
                0x2000158c                hottPort.lto_priv.506
                0x2000159c                portConfig.lto_priv.407
                0x200015a2                smartPortTelemetryEnabled.lto_priv.515
                0x200015a4                smartPortSerialPort.lto_priv.505
                0x200015a8                smartPortState
                0x200015ac                smartPortLastRequestTime.lto_priv.516
                0x200015b3                ltmEnabled.lto_priv.513
                0x200015b4                ltmPort.lto_priv.504
                0x200015bd                mavlinkTelemetryEnabled.lto_priv.511
                0x200015c4                ibusTelemetryEnabled.lto_priv.508
                0x200015c8                ibusSerialPort.lto_priv.502
                0x200015cc                outboundBytesToIgnoreOnRxCount.lto_priv.503
                0x200015d1                ibusBaseAddress.lto_priv.405
 *fill*         0x200015d3        0x1 
 .bss           0x200015d4      0x1a8 /tmp/ccGrItoW.ltrans4.ltrans.o
                0x200015d4                rxUpdateAt.lto_priv.335
                0x200015fc                rxSignalReceived.lto_priv.337
                0x200015fd                rxSignalReceivedNotDataDriven.lto_priv.338
                0x200015ff                rcSampleIndex.lto_priv.420
                0x20001648                rcInvalidPulsPeriod
                0x20001691                rxFlightChannelsValid.lto_priv.501
                0x200016ac                disarmAt.lto_priv.384
                0x200016b4                calibratingG.lto_priv.380
                0x200016b6                AccInflightCalibrationMeasurementDone
                0x200016b7                AccInflightCalibrationSavetoEEProm
                0x200016ba                InflightcalibratingA
                0x200016bc                AccInflightCalibrationActive
                0x200016be                headFreeModeHold
                0x200016c0                gpsProfile_ProfileCurrent
                0x200016c6                nav_rated.lto_priv.366
                0x200016ca                nav.lto_priv.365
                0x200016f8                poshold_ratePID.lto_priv.524
                0x20001720                navPID.lto_priv.525
                0x20001748                isRXDataNew.lto_priv.367
                0x20001754                initialRawThrottleHold.lto_priv.368
                0x20001756                initialThrottleHold.lto_priv.369
 .bss           0x2000177c      0x61c /tmp/ccGrItoW.ltrans5.ltrans.o
 .bss           0x20001d98       0xec /tmp/ccGrItoW.ltrans6.ltrans.o
                0x20001db4                isConversionComplete.lto_priv.553
 .bss           0x20001e84       0xf8 /tmp/ccGrItoW.ltrans7.ltrans.o
                0x20001e84                cliBuffer.lto_priv.347
                0x20001eb4                bufferIndex.lto_priv.346
                0x20001eb8                customMotorMixer_SystemArray
                0x20001f78                servoConf.lto_priv.277
 .bss           0x20001f7c       0xbc /tmp/ccGrItoW.ltrans8.ltrans.o
                0x20001f84                lookupThrottleRC.lto_priv.370
                0x20001f9c                lookupYawRC.lto_priv.371
                0x20001faa                lookupPitchRollRC.lto_priv.372
                0x20001fbc                adjustmentStates
                0x20001fec                accelerationTrims.lto_priv.363
                0x20001ff0                sensorTrims_System
                0x20001ffc                magneticDeclination
                0x20002010                imuConfig_System
                0x20002018                throttleCorrectionConfig_ProfileCurrent
                0x2000201c                imuRuntimeConfig.lto_priv.357
                0x20002020                accDeadband.lto_priv.358
                0x20002024                fc_acc
                0x20002028                throttleAngleScale
 .bss           0x20002038      0x308 /tmp/ccGrItoW.ltrans9.ltrans.o
                0x20002038                rcCommand
                0x20002040                lastITerm
                0x2000204c                motorLimitReached
                0x2000205c                ITermAngle.lto_priv.329
                0x20002064                dynP8
                0x200020a0                dynD8
                0x200020a4                axisPID
                0x200020ac                axisPID_P
                0x200020b8                axisPID_I
                0x200020c4                axisPID_D
                0x200020d0                motorCount
                0x200020d1                PIDweight
                0x200020ec                gyroADCf
                0x200020f8                lastITermf
                0x2000211c                dtermFilterNotch
                0x20002170                dtermFilterLpf
                0x200021c4                extiGroupPriority.lto_priv.462
                0x200021cb                servoRuleCount.lto_priv.374
                0x200021cc                currentServoMixer.lto_priv.373
                0x2000223c                customServoMixers.lto_priv.458
                0x20002240                motors.lto_priv.285
                0x20002270                timerConfig
                0x20002310                q1.lto_priv.360
                0x20002314                q2.lto_priv.361
                0x20002318                q3.lto_priv.362
                0x2000231c                rMat.lto_priv.321
 .bss           0x20002340      0x2d0 /tmp/ccGrItoW.ltrans10.ltrans.o
                0x20002360                srxlFrameReceived.lto_priv.431
                0x20002361                srxlFrameLength.lto_priv.434
                0x20002385                srxlChannelCount.lto_priv.435
                0x200023ea                xBusFrameReceived.lto_priv.439
                0x2000240d                xBusDataIncoming.lto_priv.440
                0x2000240e                xBusFramePosition.lto_priv.441
                0x2000240f                xBusChannelCount.lto_priv.442
                0x200024d4                sbusChannelData.lto_priv.424
                0x20002536                captures.lto_priv.340
                0x20002558                srxlFramePosition.lto_priv.433
                0x20002559                srxlDataIncoming.lto_priv.432
                0x20002598                boardRotation.lto_priv.450
                0x200025bc                adcConfig
                0x200025cc                adcValues
                0x200025d4                suspendRxSignalUntil.lto_priv.331
                0x200025d8                skipRxSamples.lto_priv.330
                0x200025dc                failsafeState.lto_priv.282
                0x20002600                channelRanges_SystemArray
 .bss           0x20002610       0x39 /tmp/ccGrItoW.ltrans11.ltrans.o
 .bss           0x20002649        0x7 /tmp/ccGrItoW.ltrans12.ltrans.o
 .bss           0x20002650      0x1d1 /tmp/ccGrItoW.ltrans13.ltrans.o
                0x20002650                gyro
                0x20002664                mpuDetectionResult
                0x20002668                mpuConfiguration
                0x20002674                mpuIntExtiConfig.lto_priv.554
                0x2000267c                gyroFilterPt1.lto_priv.382
                0x200026a0                gyroConfig_System
                0x200026b0                gyroFilterNotch.lto_priv.383
                0x20002704                gyroFilterLPF.lto_priv.381
                0x2000275b                accAlign
                0x2000275c                useFifo.lto_priv.555
                0x20002764                bmp085.lto_priv.551
                0x20002788                baro
                0x200027a0                extiChannelRecs
                0x200027e0                ms5611_c.lto_priv.550
                0x200027f4                bmp280_cal.lto_priv.549
                0x20002810                magAlign
                0x20002814                hmc5883Config.lto_priv.548
                0x20002818                mag
                0x20002820                magInit.lto_priv.323
 *fill*         0x20002821        0x3 
 .bss           0x20002824      0x18f /tmp/ccGrItoW.ltrans14.ltrans.o
 *fill*         0x200029b3        0x1 
 .bss           0x200029b4      0x5ed /tmp/ccGrItoW.ltrans15.ltrans.o
 *fill*         0x20002fa1        0x3 
 .bss           0x20002fa4      0x1b0 /tmp/ccGrItoW.ltrans16.ltrans.o
                0x200030a4                sonarMaxTiltCos
                0x200030a8                sonarCfAltCm
                0x200030b0                sonarMaxAltWithTiltCm
                0x200030b4                accSumCount
                0x200030b8                accSum
                0x200030c4                accVelScale
                0x200030d0                errorVelocityI
                0x200030d4                altHoldThrottleAdjustment
                0x200030d8                velocityControl
                0x200030dc                lastMeasurementAt.lto_priv.416
                0x200030e0                sonarHardware.lto_priv.415
                0x200030fc                cachedRccCsrValue
                0x20003100                gpsData
 .bss           0x20003154       0x21 /tmp/ccGrItoW.ltrans17.ltrans.o
                0x20003158                hiLoTsh.lto_priv.261
                0x2000315c                StkCmd.lto_priv.264
                0x20003160                lastBitTime.lto_priv.260
                0x20003164                SeqNumber.lto_priv.262
                0x20003165                stkInBuf.lto_priv.265
 *fill*         0x20003175        0x3 
 .bss           0x20003178       0x5c /tmp/ccGrItoW.ltrans18.ltrans.o
                0x20003178                totalWaitingTasksSamples.lto_priv.398
                0x2000317c                totalWaitingTasks.lto_priv.399
                0x20003180                serialPortCount.lto_priv.459
                0x20003184                currentTask.lto_priv.322
                0x20003188                taskQueueSize.lto_priv.220
                0x2000318c                taskQueueArray
                0x200031d0                usTicks.lto_priv.464
 .bss           0x200031d4      0x150 /tmp/ccGrItoW.ltrans19.ltrans.o
                0x200031dc                beeperIsOn.lto_priv.343
                0x200031e0                blinkMask.lto_priv.327
                0x200031e4                beeperNextToggleTime.lto_priv.342
                0x200031e8                beeperPos.lto_priv.344
                0x200031ec                currentBeeperEntry.lto_priv.341
                0x200031f5                beep_multiBeeps.lto_priv.345
                0x2000320c                ioRecs
 .bss           0x20003324      0x322 /tmp/ccGrItoW.ltrans20.ltrans.o
                0x20003324                string.8253.lto_priv.527
                0x20003334                led_config
                0x2000334c                sysTickUptime.lto_priv.180
                0x20003350                mavlinkPort.lto_priv.301
                0x20003354                mavBuffer.lto_priv.303
                0x2000345b                mavMsg.lto_priv.302
                0x2000359c                activeFeaturesLatch.lto_priv.219
                0x200035a0                rcData
                0x200035c4                rxConfig_System
                0x200035e0                voltageMeterStates
                0x20003604                voltageMeterConfig_SystemArray
                0x20003608                rxRuntimeConfigPtr.lto_priv.215
                0x2000360c                rxRuntimeConfig
                0x20003618                spek_chan_shift.lto_priv.214
                0x20003619                spek_chan_mask.lto_priv.216
                0x2000361a                spekHiRes.lto_priv.213
                0x2000361b                findSharedSerialPortState.lto_priv.328
                0x2000361c                serialConfig_System
 *fill*         0x20003646        0x2 
 .bss           0x20003648      0x209 /tmp/ccGrItoW.ltrans21.ltrans.o
                0x200036a8                gpsHistory.lto_priv.496
                0x200036bc                blackboxHistory.lto_priv.498
                0x200036c8                blackboxHistoryRing.lto_priv.499
                0x20003848                blackboxIFrameIndex.lto_priv.497
                0x2000384c                blackboxLastArmingBeep.lto_priv.500
                0x20003850                systemState.lto_priv.400
 *fill*         0x20003851        0x3 
 .bss           0x20003854       0xd2 /tmp/ccGrItoW.ltrans22.ltrans.o
                0x200038c8                GPS_WP.lto_priv.529
                0x200038d0                wp_distance.lto_priv.530
                0x200038d4                target_bearing.lto_priv.531
                0x200038d8                error.lto_priv.535
                0x200038e0                posholdPID_PARAM.lto_priv.536
                0x200038f0                poshold_ratePID_PARAM.lto_priv.537
                0x20003904                waypoint_speed_gov.lto_priv.534
                0x20003908                original_target_bearing.lto_priv.533
                0x20003910                nav_bearing.lto_priv.532
                0x20003914                navPID_PARAM.lto_priv.538
                0x20003924                nav_takeoff_bearing.lto_priv.539
 *fill*         0x20003926        0x2 
 .bss           0x20003928       0x34 /tmp/ccGrItoW.ltrans23.ltrans.o
                0x2000392d                ppmFrameCount.lto_priv.545
                0x20003934                batteryWarningVoltage
                0x20003936                batteryCriticalVoltage
                0x20003958                armingBeepTimeMicros.lto_priv.390
 .bss           0x2000395c       0x78 /tmp/ccGrItoW.ltrans24.ltrans.o
                0x20003994                gyroScale.lto_priv.446
                0x200039a4                smallAngleCosZ
 .bss           0x200039d4        0x8 /tmp/ccGrItoW.ltrans25.ltrans.o
                0x200039d4                stdout_putp.lto_priv.467
                0x200039d8                stdout_putf.lto_priv.465
 .bss           0x200039dc      0x134 /tmp/ccGrItoW.ltrans26.ltrans.o
                0x200039e4                uartPort3.lto_priv.556
                0x20003a48                uartPort2.lto_priv.557
                0x20003aac                uartPort1.lto_priv.558
 .bss           0x20003b10       0x2c /tmp/ccGrItoW.ltrans27.ltrans.o
                0x20003b10                currentControlRateProfileIndex.lto_priv.287
                0x20003b14                gpsPort.lto_priv.324
                0x20003b18                controlRateProfiles_SystemArray
 .bss           0x20003b3c        0x2 /tmp/ccGrItoW.ltrans28.ltrans.o
                0x20003b3c                escSelected
 *fill*         0x20003b3e        0x2 
 .bss           0x20003b40       0xac /tmp/ccGrItoW.ltrans29.ltrans.o
                0x20003b40                ledStripInitialised.lto_priv.413
                0x20003b42                ledColorBuffer.lto_priv.414
                0x20003be4                scaledThrottle.lto_priv.521
                0x20003be8                ledCounts.lto_priv.522
 .bss           0x20003bec       0x82 /tmp/ccGrItoW.ltrans30.ltrans.o
                0x20003bec                bufferHead.lto_priv.540
                0x20003bed                bufferTail.lto_priv.541
                0x20003bee                flashWriteBuffer.lto_priv.542
 *(SORT(.bss*))
 *fill*         0x20003c6e        0x2 
 .bss.mspPostProcessFn
                0x20003c70        0x4 /tmp/ccGrItoW.ltrans1.ltrans.o
 .bss.targetPidLooptime
                0x20003c74        0x4 /tmp/ccGrItoW.ltrans9.ltrans.o
                0x20003c74                targetPidLooptime
 .bss.currentTime
                0x20003c78        0x4 /tmp/ccGrItoW.ltrans16.ltrans.o
                0x20003c78                currentTime
 .bss.accTimeSum
                0x20003c7c        0x4 /tmp/ccGrItoW.ltrans16.ltrans.o
                0x20003c7c                accTimeSum
 .bss.setVelocity
                0x20003c80        0x4 /tmp/ccGrItoW.ltrans16.ltrans.o
                0x20003c80                setVelocity
 .bss.systemBeepPtr
                0x20003c84        0x4 /tmp/ccGrItoW.ltrans19.ltrans.o
                0x20003c84                systemBeepPtr
 .bss.__malloc_sbrk_start
                0x20003c88        0x4 /usr/lib/gcc/arm-none-eabi/4.9.3/../../../arm-none-eabi/lib/armv7-m/libc_nano.a(lib_a-nano-mallocr.o)
                0x20003c88                __malloc_sbrk_start
 .bss.__malloc_free_list
                0x20003c8c        0x4 /usr/lib/gcc/arm-none-eabi/4.9.3/../../../arm-none-eabi/lib/armv7-m/libc_nano.a(lib_a-nano-mallocr.o)
                0x20003c8c                __malloc_free_list
 .bss.heap_end.4079
                0x20003c90        0x4 /usr/lib/gcc/arm-none-eabi/4.9.3/../../../arm-none-eabi/lib/armv7-m/libnosys.a(sbrk.o)
 .bss.pidDeltaUs
                0x20003c94        0x2 /tmp/ccGrItoW.ltrans1.ltrans.o
                0x20003c94                pidDeltaUs
 .bss.GPS_angle
                0x20003c96        0x4 /tmp/ccGrItoW.ltrans9.ltrans.o
                0x20003c96                GPS_angle
 .bss.calibratingB
                0x20003c9a        0x2 /tmp/ccGrItoW.ltrans16.ltrans.o
                0x20003c9a                calibratingB
 .bss.cliMode   0x20003c9c        0x1 /tmp/ccGrItoW.ltrans1.ltrans.o
                0x20003c9c                cliMode
 .bss.hardwareRevision
                0x20003c9d        0x1 /tmp/ccGrItoW.ltrans1.ltrans.o
                0x20003c9d                hardwareRevision
 .bss.armingFlags
                0x20003c9e        0x1 /tmp/ccGrItoW.ltrans1.ltrans.o
                0x20003c9e                armingFlags
 .bss.gyroAlign
                0x20003c9f        0x1 /tmp/ccGrItoW.ltrans13.ltrans.o
                0x20003c9f                gyroAlign
 .bss.esc4wayExitRequested
                0x20003ca0        0x1 /tmp/ccGrItoW.ltrans19.ltrans.o
 .bss.gyroDataReady
                0x20003ca1        0x1 /tmp/ccGrItoW.ltrans21.ltrans.o
                0x20003ca1                gyroDataReady
 .bss.ws2811LedDataTransferInProgress
                0x20003ca2        0x1 /tmp/ccGrItoW.ltrans29.ltrans.o
                0x20003ca2                ws2811LedDataTransferInProgress
 *(COMMON)
 *fill*         0x20003ca3        0x1 
 COMMON         0x20003ca4        0x4 /usr/lib/gcc/arm-none-eabi/4.9.3/../../../arm-none-eabi/lib/armv7-m/libc_nano.a(lib_a-reent.o)
                0x20003ca4                errno
                0x20003ca8                . = ALIGN (0x4)
                0x20003ca8                _ebss = .
                0x20003ca8                __bss_end__ = _ebss

._user_heap_stack
                0x20003ca8      0x400 load address 0x0801eb62
                0x20003ca8                . = ALIGN (0x4)
                0x20003ca8                PROVIDE (end, .)
                [!provide]                PROVIDE (_end, .)
                0x20003ca8                . = (. + _Min_Heap_Size)
                0x200040a8                . = (. + _Min_Stack_Size)
 *fill*         0x20003ca8      0x400 
                0x200040a8                . = ALIGN (0x4)

.memory_b1_text
 *(.mb1text)
 *(.mb1text*)
 *(.mb1rodata)
 *(.mb1rodata*)

/DISCARD/
 libc.a(*)
 libm.a(*)
 libgcc.a(*)

.ARM.attributes
                0x00000000       0x2f
 *(.ARM.attributes)
 .ARM.attributes
                0x00000000       0x21 obj/main/NAZE/startup_stm32f10x_md_gcc.o
 .ARM.attributes
                0x00000021       0x31 /tmp/ccGrItoW.ltrans0.ltrans.o
 .ARM.attributes
                0x00000052       0x31 /tmp/ccGrItoW.ltrans1.ltrans.o
 .ARM.attributes
                0x00000083       0x31 /tmp/ccGrItoW.ltrans2.ltrans.o
 .ARM.attributes
                0x000000b4       0x31 /tmp/ccGrItoW.ltrans3.ltrans.o
 .ARM.attributes
                0x000000e5       0x31 /tmp/ccGrItoW.ltrans4.ltrans.o
 .ARM.attributes
                0x00000116       0x31 /tmp/ccGrItoW.ltrans5.ltrans.o
 .ARM.attributes
                0x00000147       0x31 /tmp/ccGrItoW.ltrans6.ltrans.o
 .ARM.attributes
                0x00000178       0x31 /tmp/ccGrItoW.ltrans7.ltrans.o
 .ARM.attributes
                0x000001a9       0x31 /tmp/ccGrItoW.ltrans8.ltrans.o
 .ARM.attributes
                0x000001da       0x31 /tmp/ccGrItoW.ltrans9.ltrans.o
 .ARM.attributes
                0x0000020b       0x31 /tmp/ccGrItoW.ltrans10.ltrans.o
 .ARM.attributes
                0x0000023c       0x31 /tmp/ccGrItoW.ltrans11.ltrans.o
 .ARM.attributes
                0x0000026d       0x31 /tmp/ccGrItoW.ltrans12.ltrans.o
 .ARM.attributes
                0x0000029e       0x31 /tmp/ccGrItoW.ltrans13.ltrans.o
 .ARM.attributes
                0x000002cf       0x31 /tmp/ccGrItoW.ltrans14.ltrans.o
 .ARM.attributes
                0x00000300       0x31 /tmp/ccGrItoW.ltrans15.ltrans.o
 .ARM.attributes
                0x00000331       0x31 /tmp/ccGrItoW.ltrans16.ltrans.o
 .ARM.attributes
                0x00000362       0x31 /tmp/ccGrItoW.ltrans17.ltrans.o
 .ARM.attributes
                0x00000393       0x31 /tmp/ccGrItoW.ltrans18.ltrans.o
 .ARM.attributes
                0x000003c4       0x31 /tmp/ccGrItoW.ltrans19.ltrans.o
 .ARM.attributes
                0x000003f5       0x31 /tmp/ccGrItoW.ltrans20.ltrans.o
 .ARM.attributes
                0x00000426       0x31 /tmp/ccGrItoW.ltrans21.ltrans.o
 .ARM.attributes
                0x00000457       0x31 /tmp/ccGrItoW.ltrans22.ltrans.o
 .ARM.attributes
                0x00000488       0x31 /tmp/ccGrItoW.ltrans23.ltrans.o
 .ARM.attributes
                0x000004b9       0x31 /tmp/ccGrItoW.ltrans24.ltrans.o
 .ARM.attributes
                0x000004ea       0x31 /tmp/ccGrItoW.ltrans25.ltrans.o
 .ARM.attributes
                0x0000051b       0x31 /tmp/ccGrItoW.ltrans26.ltrans.o
 .ARM.attributes
                0x0000054c       0x31 /tmp/ccGrItoW.ltrans27.ltrans.o
 .ARM.attributes
                0x0000057d       0x31 /tmp/ccGrItoW.ltrans28.ltrans.o
 .ARM.attributes
                0x000005ae       0x31 /tmp/ccGrItoW.ltrans29.ltrans.o
 .ARM.attributes
                0x000005df       0x31 /tmp/ccGrItoW.ltrans30.ltrans.o
 .ARM.attributes
                0x00000610       0x31 /tmp/ccGrItoW.ltrans31.ltrans.o
 .ARM.attributes
                0x00000641       0x2d /usr/lib/gcc/arm-none-eabi/4.9.3/../../../arm-none-eabi/lib/armv7-m/libc_nano.a(lib_a-atoi.o)
 .ARM.attributes
                0x0000066e       0x2d /usr/lib/gcc/arm-none-eabi/4.9.3/../../../arm-none-eabi/lib/armv7-m/libc_nano.a(lib_a-ctype_.o)
 .ARM.attributes
                0x0000069b       0x2d /usr/lib/gcc/arm-none-eabi/4.9.3/../../../arm-none-eabi/lib/armv7-m/libc_nano.a(lib_a-memcpy.o)
 .ARM.attributes
                0x000006c8       0x2d /usr/lib/gcc/arm-none-eabi/4.9.3/../../../arm-none-eabi/lib/armv7-m/libc_nano.a(lib_a-strtok.o)
 .ARM.attributes
                0x000006f5       0x2d /usr/lib/gcc/arm-none-eabi/4.9.3/../../../arm-none-eabi/lib/armv7-m/libc_nano.a(lib_a-strtok_r.o)
 .ARM.attributes
                0x00000722       0x2d /usr/lib/gcc/arm-none-eabi/4.9.3/../../../arm-none-eabi/lib/armv7-m/libc_nano.a(lib_a-strtol.o)
 .ARM.attributes
                0x0000074f       0x2d /usr/lib/gcc/arm-none-eabi/4.9.3/../../../arm-none-eabi/lib/armv7-m/libc_nano.a(lib_a-impure.o)
 .ARM.attributes
                0x0000077c       0x2d /usr/lib/gcc/arm-none-eabi/4.9.3/../../../arm-none-eabi/lib/armv7-m/libc_nano.a(lib_a-malloc.o)
 .ARM.attributes
                0x000007a9       0x2d /usr/lib/gcc/arm-none-eabi/4.9.3/../../../arm-none-eabi/lib/armv7-m/libc_nano.a(lib_a-nano-mallocr.o)
 .ARM.attributes
                0x000007d6       0x2d /usr/lib/gcc/arm-none-eabi/4.9.3/../../../arm-none-eabi/lib/armv7-m/libc_nano.a(lib_a-sbrkr.o)
 .ARM.attributes
                0x00000803       0x2d /usr/lib/gcc/arm-none-eabi/4.9.3/../../../arm-none-eabi/lib/armv7-m/libc_nano.a(lib_a-reent.o)
 .ARM.attributes
                0x00000830       0x2d /usr/lib/gcc/arm-none-eabi/4.9.3/../../../arm-none-eabi/lib/armv7-m/libnosys.a(sbrk.o)
 .ARM.attributes
                0x0000085d       0x2d /usr/lib/gcc/arm-none-eabi/4.9.3/../../../arm-none-eabi/lib/armv7-m/libm.a(lib_a-sf_log2.o)
 .ARM.attributes
                0x0000088a       0x2d /usr/lib/gcc/arm-none-eabi/4.9.3/../../../arm-none-eabi/lib/armv7-m/libm.a(lib_a-sf_lrint.o)
 .ARM.attributes
                0x000008b7       0x2d /usr/lib/gcc/arm-none-eabi/4.9.3/../../../arm-none-eabi/lib/armv7-m/libm.a(lib_a-wf_log.o)
 .ARM.attributes
                0x000008e4       0x2d /usr/lib/gcc/arm-none-eabi/4.9.3/../../../arm-none-eabi/lib/armv7-m/libm.a(lib_a-wf_pow.o)
 .ARM.attributes
                0x00000911       0x2d /usr/lib/gcc/arm-none-eabi/4.9.3/../../../arm-none-eabi/lib/armv7-m/libm.a(lib_a-wf_sqrt.o)
 .ARM.attributes
                0x0000093e       0x2d /usr/lib/gcc/arm-none-eabi/4.9.3/../../../arm-none-eabi/lib/armv7-m/libm.a(lib_a-ef_log.o)
 .ARM.attributes
                0x0000096b       0x2d /usr/lib/gcc/arm-none-eabi/4.9.3/../../../arm-none-eabi/lib/armv7-m/libm.a(lib_a-ef_pow.o)
 .ARM.attributes
                0x00000998       0x2d /usr/lib/gcc/arm-none-eabi/4.9.3/../../../arm-none-eabi/lib/armv7-m/libm.a(lib_a-ef_sqrt.o)
 .ARM.attributes
                0x000009c5       0x2d /usr/lib/gcc/arm-none-eabi/4.9.3/../../../arm-none-eabi/lib/armv7-m/libm.a(lib_a-s_lib_ver.o)
 .ARM.attributes
                0x000009f2       0x2d /usr/lib/gcc/arm-none-eabi/4.9.3/../../../arm-none-eabi/lib/armv7-m/libm.a(lib_a-s_matherr.o)
 .ARM.attributes
                0x00000a1f       0x2d /usr/lib/gcc/arm-none-eabi/4.9.3/../../../arm-none-eabi/lib/armv7-m/libm.a(lib_a-s_nan.o)
 .ARM.attributes
                0x00000a4c       0x2d /usr/lib/gcc/arm-none-eabi/4.9.3/../../../arm-none-eabi/lib/armv7-m/libm.a(lib_a-s_rint.o)
 .ARM.attributes
                0x00000a79       0x2d /usr/lib/gcc/arm-none-eabi/4.9.3/../../../arm-none-eabi/lib/armv7-m/libm.a(lib_a-sf_fabs.o)
 .ARM.attributes
                0x00000aa6       0x2d /usr/lib/gcc/arm-none-eabi/4.9.3/../../../arm-none-eabi/lib/armv7-m/libm.a(lib_a-sf_finite.o)
 .ARM.attributes
                0x00000ad3       0x2d /usr/lib/gcc/arm-none-eabi/4.9.3/../../../arm-none-eabi/lib/armv7-m/libm.a(lib_a-sf_fpclassify.o)
 .ARM.attributes
                0x00000b00       0x2d /usr/lib/gcc/arm-none-eabi/4.9.3/../../../arm-none-eabi/lib/armv7-m/libm.a(lib_a-sf_nan.o)
 .ARM.attributes
                0x00000b2d       0x2d /usr/lib/gcc/arm-none-eabi/4.9.3/../../../arm-none-eabi/lib/armv7-m/libm.a(lib_a-sf_scalbn.o)
 .ARM.attributes
                0x00000b5a       0x2d /usr/lib/gcc/arm-none-eabi/4.9.3/../../../arm-none-eabi/lib/armv7-m/libm.a(lib_a-sf_copysign.o)
 .ARM.attributes
                0x00000b87       0x2d /usr/lib/gcc/arm-none-eabi/4.9.3/../../../arm-none-eabi/lib/armv7-m/libc_nano.a(lib_a-errno.o)
 .ARM.attributes
                0x00000bb4       0x2d /usr/lib/gcc/arm-none-eabi/4.9.3/../../../arm-none-eabi/lib/armv7-m/libc_nano.a(lib_a-memcmp.o)
 .ARM.attributes
                0x00000be1       0x2d /usr/lib/gcc/arm-none-eabi/4.9.3/../../../arm-none-eabi/lib/armv7-m/libc_nano.a(lib_a-memmove.o)
 .ARM.attributes
                0x00000c0e       0x2d /usr/lib/gcc/arm-none-eabi/4.9.3/../../../arm-none-eabi/lib/armv7-m/libc_nano.a(lib_a-memset.o)
 .ARM.attributes
                0x00000c3b       0x2d /usr/lib/gcc/arm-none-eabi/4.9.3/../../../arm-none-eabi/lib/armv7-m/libc_nano.a(lib_a-strcasecmp.o)
 .ARM.attributes
                0x00000c68       0x2d /usr/lib/gcc/arm-none-eabi/4.9.3/../../../arm-none-eabi/lib/armv7-m/libc_nano.a(lib_a-strcat.o)
 .ARM.attributes
                0x00000c95       0x2d /usr/lib/gcc/arm-none-eabi/4.9.3/../../../arm-none-eabi/lib/armv7-m/libc_nano.a(lib_a-strchr.o)
 .ARM.attributes
                0x00000cc2       0x2d /usr/lib/gcc/arm-none-eabi/4.9.3/../../../arm-none-eabi/lib/armv7-m/libc_nano.a(lib_a-strlen.o)
 .ARM.attributes
                0x00000cef       0x2d /usr/lib/gcc/arm-none-eabi/4.9.3/../../../arm-none-eabi/lib/armv7-m/libc_nano.a(lib_a-strncasecmp.o)
 .ARM.attributes
                0x00000d1c       0x2d /usr/lib/gcc/arm-none-eabi/4.9.3/../../../arm-none-eabi/lib/armv7-m/libc_nano.a(lib_a-strncpy.o)
 .ARM.attributes
                0x00000d49       0x2d /usr/lib/gcc/arm-none-eabi/4.9.3/../../../arm-none-eabi/lib/armv7-m/libc_nano.a(lib_a-strstr.o)
 .ARM.attributes
                0x00000d76       0x1d /usr/lib/gcc/arm-none-eabi/4.9.3/armv7-m/libgcc.a(_arm_addsubdf3.o)
 .ARM.attributes
                0x00000d93       0x1d /usr/lib/gcc/arm-none-eabi/4.9.3/armv7-m/libgcc.a(_arm_muldivdf3.o)
 .ARM.attributes
                0x00000db0       0x1d /usr/lib/gcc/arm-none-eabi/4.9.3/armv7-m/libgcc.a(_arm_cmpdf2.o)
 .ARM.attributes
                0x00000dcd       0x1d /usr/lib/gcc/arm-none-eabi/4.9.3/armv7-m/libgcc.a(_arm_truncdfsf2.o)
 .ARM.attributes
                0x00000dea       0x1d /usr/lib/gcc/arm-none-eabi/4.9.3/armv7-m/libgcc.a(_arm_addsubsf3.o)
 .ARM.attributes
                0x00000e07       0x1d /usr/lib/gcc/arm-none-eabi/4.9.3/armv7-m/libgcc.a(_arm_muldivsf3.o)
 .ARM.attributes
                0x00000e24       0x1d /usr/lib/gcc/arm-none-eabi/4.9.3/armv7-m/libgcc.a(_arm_cmpsf2.o)
 .ARM.attributes
                0x00000e41       0x1d /usr/lib/gcc/arm-none-eabi/4.9.3/armv7-m/libgcc.a(_arm_fixsfsi.o)
 .ARM.attributes
                0x00000e5e       0x1d /usr/lib/gcc/arm-none-eabi/4.9.3/armv7-m/libgcc.a(_arm_fixunssfsi.o)
 .ARM.attributes
                0x00000e7b       0x1d /usr/lib/gcc/arm-none-eabi/4.9.3/armv7-m/libgcc.a(_aeabi_ldivmod.o)
 .ARM.attributes
                0x00000e98       0x2d /usr/lib/gcc/arm-none-eabi/4.9.3/armv7-m/libgcc.a(_popcountsi2.o)
 .ARM.attributes
                0x00000ec5       0x2d /usr/lib/gcc/arm-none-eabi/4.9.3/armv7-m/libgcc.a(bpabi.o)
 .ARM.attributes
                0x00000ef2       0x1d /usr/lib/gcc/arm-none-eabi/4.9.3/armv7-m/libgcc.a(_dvmd_tls.o)
 .ARM.attributes
                0x00000f0f       0x2d /usr/lib/gcc/arm-none-eabi/4.9.3/armv7-m/libgcc.a(_divdi3.o)
 .ARM.attributes
                0x00000f3c       0x2d /usr/lib/gcc/arm-none-eabi/4.9.3/armv7-m/libgcc.a(_udivdi3.o)
OUTPUT(obj/main/cleanflight_NAZE.elf elf32-littlearm)

.debug_info     0x00000000    0x54c96
 .debug_info    0x00000000     0x7ade /tmp/ccGrItoW.ltrans0.ltrans.o
 .debug_info    0x00007ade     0x6b77 /tmp/ccGrItoW.ltrans1.ltrans.o
 .debug_info    0x0000e655     0x2d35 /tmp/ccGrItoW.ltrans2.ltrans.o
 .debug_info    0x0001138a     0x432d /tmp/ccGrItoW.ltrans3.ltrans.o
 .debug_info    0x000156b7     0x34ab /tmp/ccGrItoW.ltrans4.ltrans.o
 .debug_info    0x00018b62     0x2f43 /tmp/ccGrItoW.ltrans5.ltrans.o
 .debug_info    0x0001baa5     0x240b /tmp/ccGrItoW.ltrans6.ltrans.o
 .debug_info    0x0001deb0     0x2941 /tmp/ccGrItoW.ltrans7.ltrans.o
 .debug_info    0x000207f1     0x31a3 /tmp/ccGrItoW.ltrans8.ltrans.o
 .debug_info    0x00023994     0x22b9 /tmp/ccGrItoW.ltrans9.ltrans.o
 .debug_info    0x00025c4d     0x254a /tmp/ccGrItoW.ltrans10.ltrans.o
 .debug_info    0x00028197     0x27da /tmp/ccGrItoW.ltrans11.ltrans.o
 .debug_info    0x0002a971     0x15bb /tmp/ccGrItoW.ltrans12.ltrans.o
 .debug_info    0x0002bf2c     0x2a7a /tmp/ccGrItoW.ltrans13.ltrans.o
 .debug_info    0x0002e9a6     0x1bdf /tmp/ccGrItoW.ltrans14.ltrans.o
 .debug_info    0x00030585     0x24d0 /tmp/ccGrItoW.ltrans15.ltrans.o
 .debug_info    0x00032a55     0x1ce2 /tmp/ccGrItoW.ltrans16.ltrans.o
 .debug_info    0x00034737     0x2633 /tmp/ccGrItoW.ltrans17.ltrans.o
 .debug_info    0x00036d6a     0x2761 /tmp/ccGrItoW.ltrans18.ltrans.o
 .debug_info    0x000394cb     0x2323 /tmp/ccGrItoW.ltrans19.ltrans.o
 .debug_info    0x0003b7ee     0x2b0b /tmp/ccGrItoW.ltrans20.ltrans.o
 .debug_info    0x0003e2f9     0x1d85 /tmp/ccGrItoW.ltrans21.ltrans.o
 .debug_info    0x0004007e     0x11e6 /tmp/ccGrItoW.ltrans22.ltrans.o
 .debug_info    0x00041264     0x1543 /tmp/ccGrItoW.ltrans23.ltrans.o
 .debug_info    0x000427a7      0xfad /tmp/ccGrItoW.ltrans24.ltrans.o
 .debug_info    0x00043754     0x1853 /tmp/ccGrItoW.ltrans25.ltrans.o
 .debug_info    0x00044fa7     0x1c49 /tmp/ccGrItoW.ltrans26.ltrans.o
 .debug_info    0x00046bf0     0x1e03 /tmp/ccGrItoW.ltrans27.ltrans.o
 .debug_info    0x000489f3     0x11aa /tmp/ccGrItoW.ltrans28.ltrans.o
 .debug_info    0x00049b9d     0x13a3 /tmp/ccGrItoW.ltrans29.ltrans.o
 .debug_info    0x0004af40      0xda7 /tmp/ccGrItoW.ltrans30.ltrans.o
 .debug_info    0x0004bce7      0x3ef /tmp/ccGrItoW.ltrans31.ltrans.o
 .debug_info    0x0004c0d6      0x7ed /usr/lib/gcc/arm-none-eabi/4.9.3/../../../arm-none-eabi/lib/armv7-m/libc_nano.a(lib_a-atoi.o)
 .debug_info    0x0004c8c3       0x6f /usr/lib/gcc/arm-none-eabi/4.9.3/../../../arm-none-eabi/lib/armv7-m/libc_nano.a(lib_a-ctype_.o)
 .debug_info    0x0004c932      0x104 /usr/lib/gcc/arm-none-eabi/4.9.3/../../../arm-none-eabi/lib/armv7-m/libc_nano.a(lib_a-memcpy.o)
 .debug_info    0x0004ca36      0x816 /usr/lib/gcc/arm-none-eabi/4.9.3/../../../arm-none-eabi/lib/armv7-m/libc_nano.a(lib_a-strtok.o)
 .debug_info    0x0004d24c      0x184 /usr/lib/gcc/arm-none-eabi/4.9.3/../../../arm-none-eabi/lib/armv7-m/libc_nano.a(lib_a-strtok_r.o)
 .debug_info    0x0004d3d0      0x853 /usr/lib/gcc/arm-none-eabi/4.9.3/../../../arm-none-eabi/lib/armv7-m/libc_nano.a(lib_a-strtol.o)
 .debug_info    0x0004dc23      0x7d3 /usr/lib/gcc/arm-none-eabi/4.9.3/../../../arm-none-eabi/lib/armv7-m/libc_nano.a(lib_a-impure.o)
 .debug_info    0x0004e3f6      0x7c1 /usr/lib/gcc/arm-none-eabi/4.9.3/../../../arm-none-eabi/lib/armv7-m/libc_nano.a(lib_a-malloc.o)
 .debug_info    0x0004ebb7      0x8fb /usr/lib/gcc/arm-none-eabi/4.9.3/../../../arm-none-eabi/lib/armv7-m/libc_nano.a(lib_a-nano-mallocr.o)
 .debug_info    0x0004f4b2      0x7a0 /usr/lib/gcc/arm-none-eabi/4.9.3/../../../arm-none-eabi/lib/armv7-m/libc_nano.a(lib_a-sbrkr.o)
 .debug_info    0x0004fc52      0x8fb /usr/lib/gcc/arm-none-eabi/4.9.3/../../../arm-none-eabi/lib/armv7-m/libc_nano.a(lib_a-reent.o)
 .debug_info    0x0005054d       0x99 /usr/lib/gcc/arm-none-eabi/4.9.3/../../../arm-none-eabi/lib/armv7-m/libnosys.a(sbrk.o)
 .debug_info    0x000505e6       0xe7 /usr/lib/gcc/arm-none-eabi/4.9.3/../../../arm-none-eabi/lib/armv7-m/libm.a(lib_a-sf_log2.o)
 .debug_info    0x000506cd      0x14a /usr/lib/gcc/arm-none-eabi/4.9.3/../../../arm-none-eabi/lib/armv7-m/libm.a(lib_a-sf_lrint.o)
 .debug_info    0x00050817      0x25e /usr/lib/gcc/arm-none-eabi/4.9.3/../../../arm-none-eabi/lib/armv7-m/libm.a(lib_a-wf_log.o)
 .debug_info    0x00050a75      0x342 /usr/lib/gcc/arm-none-eabi/4.9.3/../../../arm-none-eabi/lib/armv7-m/libm.a(lib_a-wf_pow.o)
 .debug_info    0x00050db7      0x20d /usr/lib/gcc/arm-none-eabi/4.9.3/../../../arm-none-eabi/lib/armv7-m/libm.a(lib_a-wf_sqrt.o)
 .debug_info    0x00050fc4      0x2a1 /usr/lib/gcc/arm-none-eabi/4.9.3/../../../arm-none-eabi/lib/armv7-m/libm.a(lib_a-ef_log.o)
 .debug_info    0x00051265      0x6dc /usr/lib/gcc/arm-none-eabi/4.9.3/../../../arm-none-eabi/lib/armv7-m/libm.a(lib_a-ef_pow.o)
 .debug_info    0x00051941      0x1cc /usr/lib/gcc/arm-none-eabi/4.9.3/../../../arm-none-eabi/lib/armv7-m/libm.a(lib_a-ef_sqrt.o)
 .debug_info    0x00051b0d       0xbe /usr/lib/gcc/arm-none-eabi/4.9.3/../../../arm-none-eabi/lib/armv7-m/libm.a(lib_a-s_lib_ver.o)
 .debug_info    0x00051bcb      0x129 /usr/lib/gcc/arm-none-eabi/4.9.3/../../../arm-none-eabi/lib/armv7-m/libm.a(lib_a-s_matherr.o)
 .debug_info    0x00051cf4       0xd2 /usr/lib/gcc/arm-none-eabi/4.9.3/../../../arm-none-eabi/lib/armv7-m/libm.a(lib_a-s_nan.o)
 .debug_info    0x00051dc6      0x20a /usr/lib/gcc/arm-none-eabi/4.9.3/../../../arm-none-eabi/lib/armv7-m/libm.a(lib_a-s_rint.o)
 .debug_info    0x00051fd0       0xcc /usr/lib/gcc/arm-none-eabi/4.9.3/../../../arm-none-eabi/lib/armv7-m/libm.a(lib_a-sf_fabs.o)
 .debug_info    0x0005209c       0xcc /usr/lib/gcc/arm-none-eabi/4.9.3/../../../arm-none-eabi/lib/armv7-m/libm.a(lib_a-sf_finite.o)
 .debug_info    0x00052168       0xca /usr/lib/gcc/arm-none-eabi/4.9.3/../../../arm-none-eabi/lib/armv7-m/libm.a(lib_a-sf_fpclassify.o)
 .debug_info    0x00052232       0xce /usr/lib/gcc/arm-none-eabi/4.9.3/../../../arm-none-eabi/lib/armv7-m/libm.a(lib_a-sf_nan.o)
 .debug_info    0x00052300      0x21c /usr/lib/gcc/arm-none-eabi/4.9.3/../../../arm-none-eabi/lib/armv7-m/libm.a(lib_a-sf_scalbn.o)
 .debug_info    0x0005251c      0x12e /usr/lib/gcc/arm-none-eabi/4.9.3/../../../arm-none-eabi/lib/armv7-m/libm.a(lib_a-sf_copysign.o)
 .debug_info    0x0005264a      0x735 /usr/lib/gcc/arm-none-eabi/4.9.3/../../../arm-none-eabi/lib/armv7-m/libc_nano.a(lib_a-errno.o)
 .debug_info    0x00052d7f       0xef /usr/lib/gcc/arm-none-eabi/4.9.3/../../../arm-none-eabi/lib/armv7-m/libc_nano.a(lib_a-memcmp.o)
 .debug_info    0x00052e6e      0x102 /usr/lib/gcc/arm-none-eabi/4.9.3/../../../arm-none-eabi/lib/armv7-m/libc_nano.a(lib_a-memmove.o)
 .debug_info    0x00052f70       0xd3 /usr/lib/gcc/arm-none-eabi/4.9.3/../../../arm-none-eabi/lib/armv7-m/libc_nano.a(lib_a-memset.o)
 .debug_info    0x00053043      0x14f /usr/lib/gcc/arm-none-eabi/4.9.3/../../../arm-none-eabi/lib/armv7-m/libc_nano.a(lib_a-strcasecmp.o)
 .debug_info    0x00053192       0xc8 /usr/lib/gcc/arm-none-eabi/4.9.3/../../../arm-none-eabi/lib/armv7-m/libc_nano.a(lib_a-strcat.o)
 .debug_info    0x0005325a       0xe3 /usr/lib/gcc/arm-none-eabi/4.9.3/../../../arm-none-eabi/lib/armv7-m/libc_nano.a(lib_a-strchr.o)
 .debug_info    0x0005333d       0xcd /usr/lib/gcc/arm-none-eabi/4.9.3/../../../arm-none-eabi/lib/armv7-m/libc_nano.a(lib_a-strlen.o)
 .debug_info    0x0005340a      0x169 /usr/lib/gcc/arm-none-eabi/4.9.3/../../../arm-none-eabi/lib/armv7-m/libc_nano.a(lib_a-strncasecmp.o)
 .debug_info    0x00053573       0xf5 /usr/lib/gcc/arm-none-eabi/4.9.3/../../../arm-none-eabi/lib/armv7-m/libc_nano.a(lib_a-strncpy.o)
 .debug_info    0x00053668       0xdb /usr/lib/gcc/arm-none-eabi/4.9.3/../../../arm-none-eabi/lib/armv7-m/libc_nano.a(lib_a-strstr.o)
 .debug_info    0x00053743       0xba /usr/lib/gcc/arm-none-eabi/4.9.3/armv7-m/libgcc.a(_arm_addsubdf3.o)
 .debug_info    0x000537fd       0xba /usr/lib/gcc/arm-none-eabi/4.9.3/armv7-m/libgcc.a(_arm_muldivdf3.o)
 .debug_info    0x000538b7       0xba /usr/lib/gcc/arm-none-eabi/4.9.3/armv7-m/libgcc.a(_arm_cmpdf2.o)
 .debug_info    0x00053971       0xba /usr/lib/gcc/arm-none-eabi/4.9.3/armv7-m/libgcc.a(_arm_truncdfsf2.o)
 .debug_info    0x00053a2b       0xba /usr/lib/gcc/arm-none-eabi/4.9.3/armv7-m/libgcc.a(_arm_addsubsf3.o)
 .debug_info    0x00053ae5       0xba /usr/lib/gcc/arm-none-eabi/4.9.3/armv7-m/libgcc.a(_arm_muldivsf3.o)
 .debug_info    0x00053b9f       0xba /usr/lib/gcc/arm-none-eabi/4.9.3/armv7-m/libgcc.a(_arm_cmpsf2.o)
 .debug_info    0x00053c59       0xba /usr/lib/gcc/arm-none-eabi/4.9.3/armv7-m/libgcc.a(_arm_fixsfsi.o)
 .debug_info    0x00053d13       0xba /usr/lib/gcc/arm-none-eabi/4.9.3/armv7-m/libgcc.a(_arm_fixunssfsi.o)
 .debug_info    0x00053dcd       0xb5 /usr/lib/gcc/arm-none-eabi/4.9.3/armv7-m/libgcc.a(_aeabi_ldivmod.o)
 .debug_info    0x00053e82       0xbf /usr/lib/gcc/arm-none-eabi/4.9.3/armv7-m/libgcc.a(_popcountsi2.o)
 .debug_info    0x00053f41      0x164 /usr/lib/gcc/arm-none-eabi/4.9.3/armv7-m/libgcc.a(bpabi.o)
 .debug_info    0x000540a5       0xb9 /usr/lib/gcc/arm-none-eabi/4.9.3/armv7-m/libgcc.a(_dvmd_tls.o)
 .debug_info    0x0005415e      0x5bc /usr/lib/gcc/arm-none-eabi/4.9.3/armv7-m/libgcc.a(_divdi3.o)
 .debug_info    0x0005471a      0x57c /usr/lib/gcc/arm-none-eabi/4.9.3/armv7-m/libgcc.a(_udivdi3.o)

.debug_abbrev   0x00000000     0xd276
 .debug_abbrev  0x00000000      0x69e /tmp/ccGrItoW.ltrans0.ltrans.o
 .debug_abbrev  0x0000069e      0x5c4 /tmp/ccGrItoW.ltrans1.ltrans.o
 .debug_abbrev  0x00000c62      0x573 /tmp/ccGrItoW.ltrans2.ltrans.o
 .debug_abbrev  0x000011d5      0x4e1 /tmp/ccGrItoW.ltrans3.ltrans.o
 .debug_abbrev  0x000016b6      0x52f /tmp/ccGrItoW.ltrans4.ltrans.o
 .debug_abbrev  0x00001be5      0x592 /tmp/ccGrItoW.ltrans5.ltrans.o
 .debug_abbrev  0x00002177      0x636 /tmp/ccGrItoW.ltrans6.ltrans.o
 .debug_abbrev  0x000027ad      0x52f /tmp/ccGrItoW.ltrans7.ltrans.o
 .debug_abbrev  0x00002cdc      0x61c /tmp/ccGrItoW.ltrans8.ltrans.o
 .debug_abbrev  0x000032f8      0x5a3 /tmp/ccGrItoW.ltrans9.ltrans.o
 .debug_abbrev  0x0000389b      0x66b /tmp/ccGrItoW.ltrans10.ltrans.o
 .debug_abbrev  0x00003f06      0x628 /tmp/ccGrItoW.ltrans11.ltrans.o
 .debug_abbrev  0x0000452e      0x476 /tmp/ccGrItoW.ltrans12.ltrans.o
 .debug_abbrev  0x000049a4      0x492 /tmp/ccGrItoW.ltrans13.ltrans.o
 .debug_abbrev  0x00004e36      0x698 /tmp/ccGrItoW.ltrans14.ltrans.o
 .debug_abbrev  0x000054ce      0x5f9 /tmp/ccGrItoW.ltrans15.ltrans.o
 .debug_abbrev  0x00005ac7      0x521 /tmp/ccGrItoW.ltrans16.ltrans.o
 .debug_abbrev  0x00005fe8      0x529 /tmp/ccGrItoW.ltrans17.ltrans.o
 .debug_abbrev  0x00006511      0x523 /tmp/ccGrItoW.ltrans18.ltrans.o
 .debug_abbrev  0x00006a34      0x5f1 /tmp/ccGrItoW.ltrans19.ltrans.o
 .debug_abbrev  0x00007025      0x5a0 /tmp/ccGrItoW.ltrans20.ltrans.o
 .debug_abbrev  0x000075c5      0x5a1 /tmp/ccGrItoW.ltrans21.ltrans.o
 .debug_abbrev  0x00007b66      0x450 /tmp/ccGrItoW.ltrans22.ltrans.o
 .debug_abbrev  0x00007fb6      0x4d6 /tmp/ccGrItoW.ltrans23.ltrans.o
 .debug_abbrev  0x0000848c      0x3d9 /tmp/ccGrItoW.ltrans24.ltrans.o
 .debug_abbrev  0x00008865      0x589 /tmp/ccGrItoW.ltrans25.ltrans.o
 .debug_abbrev  0x00008dee      0x4e9 /tmp/ccGrItoW.ltrans26.ltrans.o
 .debug_abbrev  0x000092d7      0x58d /tmp/ccGrItoW.ltrans27.ltrans.o
 .debug_abbrev  0x00009864      0x400 /tmp/ccGrItoW.ltrans28.ltrans.o
 .debug_abbrev  0x00009c64      0x504 /tmp/ccGrItoW.ltrans29.ltrans.o
 .debug_abbrev  0x0000a168      0x478 /tmp/ccGrItoW.ltrans30.ltrans.o
 .debug_abbrev  0x0000a5e0      0x221 /tmp/ccGrItoW.ltrans31.ltrans.o
 .debug_abbrev  0x0000a801      0x176 /usr/lib/gcc/arm-none-eabi/4.9.3/../../../arm-none-eabi/lib/armv7-m/libc_nano.a(lib_a-atoi.o)
 .debug_abbrev  0x0000a977       0x4e /usr/lib/gcc/arm-none-eabi/4.9.3/../../../arm-none-eabi/lib/armv7-m/libc_nano.a(lib_a-ctype_.o)
 .debug_abbrev  0x0000a9c5       0xa4 /usr/lib/gcc/arm-none-eabi/4.9.3/../../../arm-none-eabi/lib/armv7-m/libc_nano.a(lib_a-memcpy.o)
 .debug_abbrev  0x0000aa69      0x1e1 /usr/lib/gcc/arm-none-eabi/4.9.3/../../../arm-none-eabi/lib/armv7-m/libc_nano.a(lib_a-strtok.o)
 .debug_abbrev  0x0000ac4a       0xed /usr/lib/gcc/arm-none-eabi/4.9.3/../../../arm-none-eabi/lib/armv7-m/libc_nano.a(lib_a-strtok_r.o)
 .debug_abbrev  0x0000ad37      0x1ac /usr/lib/gcc/arm-none-eabi/4.9.3/../../../arm-none-eabi/lib/armv7-m/libc_nano.a(lib_a-strtol.o)
 .debug_abbrev  0x0000aee3      0x136 /usr/lib/gcc/arm-none-eabi/4.9.3/../../../arm-none-eabi/lib/armv7-m/libc_nano.a(lib_a-impure.o)
 .debug_abbrev  0x0000b019      0x19f /usr/lib/gcc/arm-none-eabi/4.9.3/../../../arm-none-eabi/lib/armv7-m/libc_nano.a(lib_a-malloc.o)
 .debug_abbrev  0x0000b1b8      0x250 /usr/lib/gcc/arm-none-eabi/4.9.3/../../../arm-none-eabi/lib/armv7-m/libc_nano.a(lib_a-nano-mallocr.o)
 .debug_abbrev  0x0000b408      0x1a2 /usr/lib/gcc/arm-none-eabi/4.9.3/../../../arm-none-eabi/lib/armv7-m/libc_nano.a(lib_a-sbrkr.o)
 .debug_abbrev  0x0000b5aa      0x1f2 /usr/lib/gcc/arm-none-eabi/4.9.3/../../../arm-none-eabi/lib/armv7-m/libc_nano.a(lib_a-reent.o)
 .debug_abbrev  0x0000b79c       0x83 /usr/lib/gcc/arm-none-eabi/4.9.3/../../../arm-none-eabi/lib/armv7-m/libnosys.a(sbrk.o)
 .debug_abbrev  0x0000b81f       0x93 /usr/lib/gcc/arm-none-eabi/4.9.3/../../../arm-none-eabi/lib/armv7-m/libm.a(lib_a-sf_log2.o)
 .debug_abbrev  0x0000b8b2       0xbe /usr/lib/gcc/arm-none-eabi/4.9.3/../../../arm-none-eabi/lib/armv7-m/libm.a(lib_a-sf_lrint.o)
 .debug_abbrev  0x0000b970      0x154 /usr/lib/gcc/arm-none-eabi/4.9.3/../../../arm-none-eabi/lib/armv7-m/libm.a(lib_a-wf_log.o)
 .debug_abbrev  0x0000bac4      0x14d /usr/lib/gcc/arm-none-eabi/4.9.3/../../../arm-none-eabi/lib/armv7-m/libm.a(lib_a-wf_pow.o)
 .debug_abbrev  0x0000bc11      0x13a /usr/lib/gcc/arm-none-eabi/4.9.3/../../../arm-none-eabi/lib/armv7-m/libm.a(lib_a-wf_sqrt.o)
 .debug_abbrev  0x0000bd4b       0xfa /usr/lib/gcc/arm-none-eabi/4.9.3/../../../arm-none-eabi/lib/armv7-m/libm.a(lib_a-ef_log.o)
 .debug_abbrev  0x0000be45      0x1cd /usr/lib/gcc/arm-none-eabi/4.9.3/../../../arm-none-eabi/lib/armv7-m/libm.a(lib_a-ef_pow.o)
 .debug_abbrev  0x0000c012       0xe0 /usr/lib/gcc/arm-none-eabi/4.9.3/../../../arm-none-eabi/lib/armv7-m/libm.a(lib_a-ef_sqrt.o)
 .debug_abbrev  0x0000c0f2       0x4f /usr/lib/gcc/arm-none-eabi/4.9.3/../../../arm-none-eabi/lib/armv7-m/libm.a(lib_a-s_lib_ver.o)
 .debug_abbrev  0x0000c141       0x9a /usr/lib/gcc/arm-none-eabi/4.9.3/../../../arm-none-eabi/lib/armv7-m/libm.a(lib_a-s_matherr.o)
 .debug_abbrev  0x0000c1db       0x72 /usr/lib/gcc/arm-none-eabi/4.9.3/../../../arm-none-eabi/lib/armv7-m/libm.a(lib_a-s_nan.o)
 .debug_abbrev  0x0000c24d      0x12b /usr/lib/gcc/arm-none-eabi/4.9.3/../../../arm-none-eabi/lib/armv7-m/libm.a(lib_a-s_rint.o)
 .debug_abbrev  0x0000c378       0x6f /usr/lib/gcc/arm-none-eabi/4.9.3/../../../arm-none-eabi/lib/armv7-m/libm.a(lib_a-sf_fabs.o)
 .debug_abbrev  0x0000c3e7       0x6f /usr/lib/gcc/arm-none-eabi/4.9.3/../../../arm-none-eabi/lib/armv7-m/libm.a(lib_a-sf_finite.o)
 .debug_abbrev  0x0000c456       0x6f /usr/lib/gcc/arm-none-eabi/4.9.3/../../../arm-none-eabi/lib/armv7-m/libm.a(lib_a-sf_fpclassify.o)
 .debug_abbrev  0x0000c4c5       0x72 /usr/lib/gcc/arm-none-eabi/4.9.3/../../../arm-none-eabi/lib/armv7-m/libm.a(lib_a-sf_nan.o)
 .debug_abbrev  0x0000c537       0xed /usr/lib/gcc/arm-none-eabi/4.9.3/../../../arm-none-eabi/lib/armv7-m/libm.a(lib_a-sf_scalbn.o)
 .debug_abbrev  0x0000c624       0xae /usr/lib/gcc/arm-none-eabi/4.9.3/../../../arm-none-eabi/lib/armv7-m/libm.a(lib_a-sf_copysign.o)
 .debug_abbrev  0x0000c6d2      0x134 /usr/lib/gcc/arm-none-eabi/4.9.3/../../../arm-none-eabi/lib/armv7-m/libc_nano.a(lib_a-errno.o)
 .debug_abbrev  0x0000c806       0x8e /usr/lib/gcc/arm-none-eabi/4.9.3/../../../arm-none-eabi/lib/armv7-m/libc_nano.a(lib_a-memcmp.o)
 .debug_abbrev  0x0000c894       0x9c /usr/lib/gcc/arm-none-eabi/4.9.3/../../../arm-none-eabi/lib/armv7-m/libc_nano.a(lib_a-memmove.o)
 .debug_abbrev  0x0000c930       0x8e /usr/lib/gcc/arm-none-eabi/4.9.3/../../../arm-none-eabi/lib/armv7-m/libc_nano.a(lib_a-memset.o)
 .debug_abbrev  0x0000c9be       0xb3 /usr/lib/gcc/arm-none-eabi/4.9.3/../../../arm-none-eabi/lib/armv7-m/libc_nano.a(lib_a-strcasecmp.o)
 .debug_abbrev  0x0000ca71       0x72 /usr/lib/gcc/arm-none-eabi/4.9.3/../../../arm-none-eabi/lib/armv7-m/libc_nano.a(lib_a-strcat.o)
 .debug_abbrev  0x0000cae3       0x83 /usr/lib/gcc/arm-none-eabi/4.9.3/../../../arm-none-eabi/lib/armv7-m/libc_nano.a(lib_a-strchr.o)
 .debug_abbrev  0x0000cb66       0x8c /usr/lib/gcc/arm-none-eabi/4.9.3/../../../arm-none-eabi/lib/armv7-m/libc_nano.a(lib_a-strlen.o)
 .debug_abbrev  0x0000cbf2       0xb1 /usr/lib/gcc/arm-none-eabi/4.9.3/../../../arm-none-eabi/lib/armv7-m/libc_nano.a(lib_a-strncasecmp.o)
 .debug_abbrev  0x0000cca3       0x8e /usr/lib/gcc/arm-none-eabi/4.9.3/../../../arm-none-eabi/lib/armv7-m/libc_nano.a(lib_a-strncpy.o)
 .debug_abbrev  0x0000cd31       0x95 /usr/lib/gcc/arm-none-eabi/4.9.3/../../../arm-none-eabi/lib/armv7-m/libc_nano.a(lib_a-strstr.o)
 .debug_abbrev  0x0000cdc6       0x14 /usr/lib/gcc/arm-none-eabi/4.9.3/armv7-m/libgcc.a(_arm_addsubdf3.o)
 .debug_abbrev  0x0000cdda       0x14 /usr/lib/gcc/arm-none-eabi/4.9.3/armv7-m/libgcc.a(_arm_muldivdf3.o)
 .debug_abbrev  0x0000cdee       0x14 /usr/lib/gcc/arm-none-eabi/4.9.3/armv7-m/libgcc.a(_arm_cmpdf2.o)
 .debug_abbrev  0x0000ce02       0x14 /usr/lib/gcc/arm-none-eabi/4.9.3/armv7-m/libgcc.a(_arm_truncdfsf2.o)
 .debug_abbrev  0x0000ce16       0x14 /usr/lib/gcc/arm-none-eabi/4.9.3/armv7-m/libgcc.a(_arm_addsubsf3.o)
 .debug_abbrev  0x0000ce2a       0x14 /usr/lib/gcc/arm-none-eabi/4.9.3/armv7-m/libgcc.a(_arm_muldivsf3.o)
 .debug_abbrev  0x0000ce3e       0x14 /usr/lib/gcc/arm-none-eabi/4.9.3/armv7-m/libgcc.a(_arm_cmpsf2.o)
 .debug_abbrev  0x0000ce52       0x14 /usr/lib/gcc/arm-none-eabi/4.9.3/armv7-m/libgcc.a(_arm_fixsfsi.o)
 .debug_abbrev  0x0000ce66       0x14 /usr/lib/gcc/arm-none-eabi/4.9.3/armv7-m/libgcc.a(_arm_fixunssfsi.o)
 .debug_abbrev  0x0000ce7a       0x14 /usr/lib/gcc/arm-none-eabi/4.9.3/armv7-m/libgcc.a(_aeabi_ldivmod.o)
 .debug_abbrev  0x0000ce8e       0x60 /usr/lib/gcc/arm-none-eabi/4.9.3/armv7-m/libgcc.a(_popcountsi2.o)
 .debug_abbrev  0x0000ceee       0xb7 /usr/lib/gcc/arm-none-eabi/4.9.3/armv7-m/libgcc.a(bpabi.o)
 .debug_abbrev  0x0000cfa5       0x14 /usr/lib/gcc/arm-none-eabi/4.9.3/armv7-m/libgcc.a(_dvmd_tls.o)
 .debug_abbrev  0x0000cfb9      0x169 /usr/lib/gcc/arm-none-eabi/4.9.3/armv7-m/libgcc.a(_divdi3.o)
 .debug_abbrev  0x0000d122      0x154 /usr/lib/gcc/arm-none-eabi/4.9.3/armv7-m/libgcc.a(_udivdi3.o)

.debug_loc      0x00000000    0x275bd
 .debug_loc     0x00000000     0x282d /tmp/ccGrItoW.ltrans0.ltrans.o
 .debug_loc     0x0000282d     0x5776 /tmp/ccGrItoW.ltrans1.ltrans.o
 .debug_loc     0x00007fa3     0x1275 /tmp/ccGrItoW.ltrans2.ltrans.o
 .debug_loc     0x00009218     0x18ec /tmp/ccGrItoW.ltrans3.ltrans.o
 .debug_loc     0x0000ab04     0x1388 /tmp/ccGrItoW.ltrans4.ltrans.o
 .debug_loc     0x0000be8c     0x19c1 /tmp/ccGrItoW.ltrans5.ltrans.o
 .debug_loc     0x0000d84d     0x1197 /tmp/ccGrItoW.ltrans6.ltrans.o
 .debug_loc     0x0000e9e4     0x13c6 /tmp/ccGrItoW.ltrans7.ltrans.o
 .debug_loc     0x0000fdaa     0x155f /tmp/ccGrItoW.ltrans8.ltrans.o
 .debug_loc     0x00011309     0x1525 /tmp/ccGrItoW.ltrans9.ltrans.o
 .debug_loc     0x0001282e      0xdd5 /tmp/ccGrItoW.ltrans10.ltrans.o
 .debug_loc     0x00013603     0x111d /tmp/ccGrItoW.ltrans11.ltrans.o
 .debug_loc     0x00014720      0xb75 /tmp/ccGrItoW.ltrans12.ltrans.o
 .debug_loc     0x00015295      0xc19 /tmp/ccGrItoW.ltrans13.ltrans.o
 .debug_loc     0x00015eae      0x6f4 /tmp/ccGrItoW.ltrans14.ltrans.o
 .debug_loc     0x000165a2     0x1275 /tmp/ccGrItoW.ltrans15.ltrans.o
 .debug_loc     0x00017817      0x6e5 /tmp/ccGrItoW.ltrans16.ltrans.o
 .debug_loc     0x00017efc     0x107f /tmp/ccGrItoW.ltrans17.ltrans.o
 .debug_loc     0x00018f7b     0x136f /tmp/ccGrItoW.ltrans18.ltrans.o
 .debug_loc     0x0001a2ea      0xdf7 /tmp/ccGrItoW.ltrans19.ltrans.o
 .debug_loc     0x0001b0e1     0x1318 /tmp/ccGrItoW.ltrans20.ltrans.o
 .debug_loc     0x0001c3f9      0x5e7 /tmp/ccGrItoW.ltrans21.ltrans.o
 .debug_loc     0x0001c9e0      0x7b5 /tmp/ccGrItoW.ltrans22.ltrans.o
 .debug_loc     0x0001d195      0x4fc /tmp/ccGrItoW.ltrans23.ltrans.o
 .debug_loc     0x0001d691      0xa16 /tmp/ccGrItoW.ltrans24.ltrans.o
 .debug_loc     0x0001e0a7     0x1421 /tmp/ccGrItoW.ltrans25.ltrans.o
 .debug_loc     0x0001f4c8      0x6cc /tmp/ccGrItoW.ltrans26.ltrans.o
 .debug_loc     0x0001fb94      0xbc3 /tmp/ccGrItoW.ltrans27.ltrans.o
 .debug_loc     0x00020757      0xa0a /tmp/ccGrItoW.ltrans28.ltrans.o
 .debug_loc     0x00021161      0x6ec /tmp/ccGrItoW.ltrans29.ltrans.o
 .debug_loc     0x0002184d      0x492 /tmp/ccGrItoW.ltrans30.ltrans.o
 .debug_loc     0x00021cdf      0x203 /tmp/ccGrItoW.ltrans31.ltrans.o
 .debug_loc     0x00021ee2       0x63 /usr/lib/gcc/arm-none-eabi/4.9.3/../../../arm-none-eabi/lib/armv7-m/libc_nano.a(lib_a-atoi.o)
 .debug_loc     0x00021f45       0x87 /usr/lib/gcc/arm-none-eabi/4.9.3/../../../arm-none-eabi/lib/armv7-m/libc_nano.a(lib_a-memcpy.o)
 .debug_loc     0x00021fcc       0x94 /usr/lib/gcc/arm-none-eabi/4.9.3/../../../arm-none-eabi/lib/armv7-m/libc_nano.a(lib_a-strtok.o)
 .debug_loc     0x00022060      0x1a3 /usr/lib/gcc/arm-none-eabi/4.9.3/../../../arm-none-eabi/lib/armv7-m/libc_nano.a(lib_a-strtok_r.o)
 .debug_loc     0x00022203      0x354 /usr/lib/gcc/arm-none-eabi/4.9.3/../../../arm-none-eabi/lib/armv7-m/libc_nano.a(lib_a-strtol.o)
 .debug_loc     0x00022557       0x58 /usr/lib/gcc/arm-none-eabi/4.9.3/../../../arm-none-eabi/lib/armv7-m/libc_nano.a(lib_a-malloc.o)
 .debug_loc     0x000225af      0x304 /usr/lib/gcc/arm-none-eabi/4.9.3/../../../arm-none-eabi/lib/armv7-m/libc_nano.a(lib_a-nano-mallocr.o)
 .debug_loc     0x000228b3       0x4d /usr/lib/gcc/arm-none-eabi/4.9.3/../../../arm-none-eabi/lib/armv7-m/libc_nano.a(lib_a-sbrkr.o)
 .debug_loc     0x00022900       0xfa /usr/lib/gcc/arm-none-eabi/4.9.3/../../../arm-none-eabi/lib/armv7-m/libc_nano.a(lib_a-reent.o)
 .debug_loc     0x000229fa       0x21 /usr/lib/gcc/arm-none-eabi/4.9.3/../../../arm-none-eabi/lib/armv7-m/libnosys.a(sbrk.o)
 .debug_loc     0x00022a1b       0x23 /usr/lib/gcc/arm-none-eabi/4.9.3/../../../arm-none-eabi/lib/armv7-m/libm.a(lib_a-sf_log2.o)
 .debug_loc     0x00022a3e      0x15e /usr/lib/gcc/arm-none-eabi/4.9.3/../../../arm-none-eabi/lib/armv7-m/libm.a(lib_a-sf_lrint.o)
 .debug_loc     0x00022b9c       0x3c /usr/lib/gcc/arm-none-eabi/4.9.3/../../../arm-none-eabi/lib/armv7-m/libm.a(lib_a-wf_log.o)
 .debug_loc     0x00022bd8      0x221 /usr/lib/gcc/arm-none-eabi/4.9.3/../../../arm-none-eabi/lib/armv7-m/libm.a(lib_a-wf_pow.o)
 .debug_loc     0x00022df9       0x3c /usr/lib/gcc/arm-none-eabi/4.9.3/../../../arm-none-eabi/lib/armv7-m/libm.a(lib_a-wf_sqrt.o)
 .debug_loc     0x00022e35      0x64c /usr/lib/gcc/arm-none-eabi/4.9.3/../../../arm-none-eabi/lib/armv7-m/libm.a(lib_a-ef_log.o)
 .debug_loc     0x00023481     0x1356 /usr/lib/gcc/arm-none-eabi/4.9.3/../../../arm-none-eabi/lib/armv7-m/libm.a(lib_a-ef_pow.o)
 .debug_loc     0x000247d7      0x2c6 /usr/lib/gcc/arm-none-eabi/4.9.3/../../../arm-none-eabi/lib/armv7-m/libm.a(lib_a-ef_sqrt.o)
 .debug_loc     0x00024a9d       0x21 /usr/lib/gcc/arm-none-eabi/4.9.3/../../../arm-none-eabi/lib/armv7-m/libm.a(lib_a-s_matherr.o)
 .debug_loc     0x00024abe       0x21 /usr/lib/gcc/arm-none-eabi/4.9.3/../../../arm-none-eabi/lib/armv7-m/libm.a(lib_a-s_nan.o)
 .debug_loc     0x00024adf      0x2bd /usr/lib/gcc/arm-none-eabi/4.9.3/../../../arm-none-eabi/lib/armv7-m/libm.a(lib_a-s_rint.o)
 .debug_loc     0x00024d9c       0x3b /usr/lib/gcc/arm-none-eabi/4.9.3/../../../arm-none-eabi/lib/armv7-m/libm.a(lib_a-sf_fabs.o)
 .debug_loc     0x00024dd7       0x56 /usr/lib/gcc/arm-none-eabi/4.9.3/../../../arm-none-eabi/lib/armv7-m/libm.a(lib_a-sf_finite.o)
 .debug_loc     0x00024e2d       0x36 /usr/lib/gcc/arm-none-eabi/4.9.3/../../../arm-none-eabi/lib/armv7-m/libm.a(lib_a-sf_fpclassify.o)
 .debug_loc     0x00024e63       0x21 /usr/lib/gcc/arm-none-eabi/4.9.3/../../../arm-none-eabi/lib/armv7-m/libm.a(lib_a-sf_nan.o)
 .debug_loc     0x00024e84      0x367 /usr/lib/gcc/arm-none-eabi/4.9.3/../../../arm-none-eabi/lib/armv7-m/libm.a(lib_a-sf_scalbn.o)
 .debug_loc     0x000251eb       0xa0 /usr/lib/gcc/arm-none-eabi/4.9.3/../../../arm-none-eabi/lib/armv7-m/libm.a(lib_a-sf_copysign.o)
 .debug_loc     0x0002528b       0xe1 /usr/lib/gcc/arm-none-eabi/4.9.3/../../../arm-none-eabi/lib/armv7-m/libc_nano.a(lib_a-memcmp.o)
 .debug_loc     0x0002536c       0xde /usr/lib/gcc/arm-none-eabi/4.9.3/../../../arm-none-eabi/lib/armv7-m/libc_nano.a(lib_a-memmove.o)
 .debug_loc     0x0002544a       0x49 /usr/lib/gcc/arm-none-eabi/4.9.3/../../../arm-none-eabi/lib/armv7-m/libc_nano.a(lib_a-memset.o)
 .debug_loc     0x00025493      0x137 /usr/lib/gcc/arm-none-eabi/4.9.3/../../../arm-none-eabi/lib/armv7-m/libc_nano.a(lib_a-strcasecmp.o)
 .debug_loc     0x000255ca       0x54 /usr/lib/gcc/arm-none-eabi/4.9.3/../../../arm-none-eabi/lib/armv7-m/libc_nano.a(lib_a-strcat.o)
 .debug_loc     0x0002561e       0x6b /usr/lib/gcc/arm-none-eabi/4.9.3/../../../arm-none-eabi/lib/armv7-m/libc_nano.a(lib_a-strchr.o)
 .debug_loc     0x00025689       0x21 /usr/lib/gcc/arm-none-eabi/4.9.3/../../../arm-none-eabi/lib/armv7-m/libc_nano.a(lib_a-strlen.o)
 .debug_loc     0x000256aa      0x198 /usr/lib/gcc/arm-none-eabi/4.9.3/../../../arm-none-eabi/lib/armv7-m/libc_nano.a(lib_a-strncasecmp.o)
 .debug_loc     0x00025842       0xc5 /usr/lib/gcc/arm-none-eabi/4.9.3/../../../arm-none-eabi/lib/armv7-m/libc_nano.a(lib_a-strncpy.o)
 .debug_loc     0x00025907       0x55 /usr/lib/gcc/arm-none-eabi/4.9.3/../../../arm-none-eabi/lib/armv7-m/libc_nano.a(lib_a-strstr.o)
 .debug_loc     0x0002595c       0xa9 /usr/lib/gcc/arm-none-eabi/4.9.3/armv7-m/libgcc.a(_popcountsi2.o)
 .debug_loc     0x00025a05       0xa0 /usr/lib/gcc/arm-none-eabi/4.9.3/armv7-m/libgcc.a(bpabi.o)
 .debug_loc     0x00025aa5      0xdbd /usr/lib/gcc/arm-none-eabi/4.9.3/armv7-m/libgcc.a(_divdi3.o)
 .debug_loc     0x00026862      0xd5b /usr/lib/gcc/arm-none-eabi/4.9.3/armv7-m/libgcc.a(_udivdi3.o)

.debug_aranges  0x00000000      0xb10
 .debug_aranges
                0x00000000       0x20 /tmp/ccGrItoW.ltrans0.ltrans.o
 .debug_aranges
                0x00000020       0x20 /tmp/ccGrItoW.ltrans1.ltrans.o
 .debug_aranges
                0x00000040       0x20 /tmp/ccGrItoW.ltrans2.ltrans.o
 .debug_aranges
                0x00000060       0x20 /tmp/ccGrItoW.ltrans3.ltrans.o
 .debug_aranges
                0x00000080       0x20 /tmp/ccGrItoW.ltrans4.ltrans.o
 .debug_aranges
                0x000000a0       0x20 /tmp/ccGrItoW.ltrans5.ltrans.o
 .debug_aranges
                0x000000c0       0x20 /tmp/ccGrItoW.ltrans6.ltrans.o
 .debug_aranges
                0x000000e0       0x20 /tmp/ccGrItoW.ltrans7.ltrans.o
 .debug_aranges
                0x00000100       0x20 /tmp/ccGrItoW.ltrans8.ltrans.o
 .debug_aranges
                0x00000120       0x20 /tmp/ccGrItoW.ltrans9.ltrans.o
 .debug_aranges
                0x00000140       0x20 /tmp/ccGrItoW.ltrans10.ltrans.o
 .debug_aranges
                0x00000160       0x20 /tmp/ccGrItoW.ltrans11.ltrans.o
 .debug_aranges
                0x00000180       0x20 /tmp/ccGrItoW.ltrans12.ltrans.o
 .debug_aranges
                0x000001a0       0x20 /tmp/ccGrItoW.ltrans13.ltrans.o
 .debug_aranges
                0x000001c0       0x20 /tmp/ccGrItoW.ltrans14.ltrans.o
 .debug_aranges
                0x000001e0       0x20 /tmp/ccGrItoW.ltrans15.ltrans.o
 .debug_aranges
                0x00000200       0x20 /tmp/ccGrItoW.ltrans16.ltrans.o
 .debug_aranges
                0x00000220       0x20 /tmp/ccGrItoW.ltrans17.ltrans.o
 .debug_aranges
                0x00000240       0x20 /tmp/ccGrItoW.ltrans18.ltrans.o
 .debug_aranges
                0x00000260       0x20 /tmp/ccGrItoW.ltrans19.ltrans.o
 .debug_aranges
                0x00000280       0x20 /tmp/ccGrItoW.ltrans20.ltrans.o
 .debug_aranges
                0x000002a0       0x20 /tmp/ccGrItoW.ltrans21.ltrans.o
 .debug_aranges
                0x000002c0       0x20 /tmp/ccGrItoW.ltrans22.ltrans.o
 .debug_aranges
                0x000002e0       0x20 /tmp/ccGrItoW.ltrans23.ltrans.o
 .debug_aranges
                0x00000300       0x20 /tmp/ccGrItoW.ltrans24.ltrans.o
 .debug_aranges
                0x00000320       0x20 /tmp/ccGrItoW.ltrans25.ltrans.o
 .debug_aranges
                0x00000340       0x20 /tmp/ccGrItoW.ltrans26.ltrans.o
 .debug_aranges
                0x00000360       0x20 /tmp/ccGrItoW.ltrans27.ltrans.o
 .debug_aranges
                0x00000380       0x20 /tmp/ccGrItoW.ltrans28.ltrans.o
 .debug_aranges
                0x000003a0       0x20 /tmp/ccGrItoW.ltrans29.ltrans.o
 .debug_aranges
                0x000003c0       0x20 /tmp/ccGrItoW.ltrans30.ltrans.o
 .debug_aranges
                0x000003e0       0x20 /tmp/ccGrItoW.ltrans31.ltrans.o
 .debug_aranges
                0x00000400       0x28 /usr/lib/gcc/arm-none-eabi/4.9.3/../../../arm-none-eabi/lib/armv7-m/libc_nano.a(lib_a-atoi.o)
 .debug_aranges
                0x00000428       0x18 /usr/lib/gcc/arm-none-eabi/4.9.3/../../../arm-none-eabi/lib/armv7-m/libc_nano.a(lib_a-ctype_.o)
 .debug_aranges
                0x00000440       0x20 /usr/lib/gcc/arm-none-eabi/4.9.3/../../../arm-none-eabi/lib/armv7-m/libc_nano.a(lib_a-memcpy.o)
 .debug_aranges
                0x00000460       0x20 /usr/lib/gcc/arm-none-eabi/4.9.3/../../../arm-none-eabi/lib/armv7-m/libc_nano.a(lib_a-strtok.o)
 .debug_aranges
                0x00000480       0x28 /usr/lib/gcc/arm-none-eabi/4.9.3/../../../arm-none-eabi/lib/armv7-m/libc_nano.a(lib_a-strtok_r.o)
 .debug_aranges
                0x000004a8       0x28 /usr/lib/gcc/arm-none-eabi/4.9.3/../../../arm-none-eabi/lib/armv7-m/libc_nano.a(lib_a-strtol.o)
 .debug_aranges
                0x000004d0       0x18 /usr/lib/gcc/arm-none-eabi/4.9.3/../../../arm-none-eabi/lib/armv7-m/libc_nano.a(lib_a-impure.o)
 .debug_aranges
                0x000004e8       0x28 /usr/lib/gcc/arm-none-eabi/4.9.3/../../../arm-none-eabi/lib/armv7-m/libc_nano.a(lib_a-malloc.o)
 .debug_aranges
                0x00000510       0x20 /usr/lib/gcc/arm-none-eabi/4.9.3/../../../arm-none-eabi/lib/armv7-m/libc_nano.a(lib_a-nano-mallocr.o)
 .debug_aranges
                0x00000530       0x20 /usr/lib/gcc/arm-none-eabi/4.9.3/../../../arm-none-eabi/lib/armv7-m/libc_nano.a(lib_a-sbrkr.o)
 .debug_aranges
                0x00000550       0x28 /usr/lib/gcc/arm-none-eabi/4.9.3/../../../arm-none-eabi/lib/armv7-m/libc_nano.a(lib_a-reent.o)
 .debug_aranges
                0x00000578       0x20 /usr/lib/gcc/arm-none-eabi/4.9.3/../../../arm-none-eabi/lib/armv7-m/libnosys.a(sbrk.o)
 .debug_aranges
                0x00000598       0x20 /usr/lib/gcc/arm-none-eabi/4.9.3/../../../arm-none-eabi/lib/armv7-m/libm.a(lib_a-sf_log2.o)
 .debug_aranges
                0x000005b8       0x20 /usr/lib/gcc/arm-none-eabi/4.9.3/../../../arm-none-eabi/lib/armv7-m/libm.a(lib_a-sf_lrint.o)
 .debug_aranges
                0x000005d8       0x20 /usr/lib/gcc/arm-none-eabi/4.9.3/../../../arm-none-eabi/lib/armv7-m/libm.a(lib_a-wf_log.o)
 .debug_aranges
                0x000005f8       0x20 /usr/lib/gcc/arm-none-eabi/4.9.3/../../../arm-none-eabi/lib/armv7-m/libm.a(lib_a-wf_pow.o)
 .debug_aranges
                0x00000618       0x20 /usr/lib/gcc/arm-none-eabi/4.9.3/../../../arm-none-eabi/lib/armv7-m/libm.a(lib_a-wf_sqrt.o)
 .debug_aranges
                0x00000638       0x20 /usr/lib/gcc/arm-none-eabi/4.9.3/../../../arm-none-eabi/lib/armv7-m/libm.a(lib_a-ef_log.o)
 .debug_aranges
                0x00000658       0x20 /usr/lib/gcc/arm-none-eabi/4.9.3/../../../arm-none-eabi/lib/armv7-m/libm.a(lib_a-ef_pow.o)
 .debug_aranges
                0x00000678       0x20 /usr/lib/gcc/arm-none-eabi/4.9.3/../../../arm-none-eabi/lib/armv7-m/libm.a(lib_a-ef_sqrt.o)
 .debug_aranges
                0x00000698       0x18 /usr/lib/gcc/arm-none-eabi/4.9.3/../../../arm-none-eabi/lib/armv7-m/libm.a(lib_a-s_lib_ver.o)
 .debug_aranges
                0x000006b0       0x20 /usr/lib/gcc/arm-none-eabi/4.9.3/../../../arm-none-eabi/lib/armv7-m/libm.a(lib_a-s_matherr.o)
 .debug_aranges
                0x000006d0       0x20 /usr/lib/gcc/arm-none-eabi/4.9.3/../../../arm-none-eabi/lib/armv7-m/libm.a(lib_a-s_nan.o)
 .debug_aranges
                0x000006f0       0x20 /usr/lib/gcc/arm-none-eabi/4.9.3/../../../arm-none-eabi/lib/armv7-m/libm.a(lib_a-s_rint.o)
 .debug_aranges
                0x00000710       0x20 /usr/lib/gcc/arm-none-eabi/4.9.3/../../../arm-none-eabi/lib/armv7-m/libm.a(lib_a-sf_fabs.o)
 .debug_aranges
                0x00000730       0x20 /usr/lib/gcc/arm-none-eabi/4.9.3/../../../arm-none-eabi/lib/armv7-m/libm.a(lib_a-sf_finite.o)
 .debug_aranges
                0x00000750       0x20 /usr/lib/gcc/arm-none-eabi/4.9.3/../../../arm-none-eabi/lib/armv7-m/libm.a(lib_a-sf_fpclassify.o)
 .debug_aranges
                0x00000770       0x20 /usr/lib/gcc/arm-none-eabi/4.9.3/../../../arm-none-eabi/lib/armv7-m/libm.a(lib_a-sf_nan.o)
 .debug_aranges
                0x00000790       0x20 /usr/lib/gcc/arm-none-eabi/4.9.3/../../../arm-none-eabi/lib/armv7-m/libm.a(lib_a-sf_scalbn.o)
 .debug_aranges
                0x000007b0       0x20 /usr/lib/gcc/arm-none-eabi/4.9.3/../../../arm-none-eabi/lib/armv7-m/libm.a(lib_a-sf_copysign.o)
 .debug_aranges
                0x000007d0       0x20 /usr/lib/gcc/arm-none-eabi/4.9.3/../../../arm-none-eabi/lib/armv7-m/libc_nano.a(lib_a-errno.o)
 .debug_aranges
                0x000007f0       0x20 /usr/lib/gcc/arm-none-eabi/4.9.3/../../../arm-none-eabi/lib/armv7-m/libc_nano.a(lib_a-memcmp.o)
 .debug_aranges
                0x00000810       0x20 /usr/lib/gcc/arm-none-eabi/4.9.3/../../../arm-none-eabi/lib/armv7-m/libc_nano.a(lib_a-memmove.o)
 .debug_aranges
                0x00000830       0x20 /usr/lib/gcc/arm-none-eabi/4.9.3/../../../arm-none-eabi/lib/armv7-m/libc_nano.a(lib_a-memset.o)
 .debug_aranges
                0x00000850       0x20 /usr/lib/gcc/arm-none-eabi/4.9.3/../../../arm-none-eabi/lib/armv7-m/libc_nano.a(lib_a-strcasecmp.o)
 .debug_aranges
                0x00000870       0x20 /usr/lib/gcc/arm-none-eabi/4.9.3/../../../arm-none-eabi/lib/armv7-m/libc_nano.a(lib_a-strcat.o)
 .debug_aranges
                0x00000890       0x20 /usr/lib/gcc/arm-none-eabi/4.9.3/../../../arm-none-eabi/lib/armv7-m/libc_nano.a(lib_a-strchr.o)
 .debug_aranges
                0x000008b0       0x20 /usr/lib/gcc/arm-none-eabi/4.9.3/../../../arm-none-eabi/lib/armv7-m/libc_nano.a(lib_a-strlen.o)
 .debug_aranges
                0x000008d0       0x20 /usr/lib/gcc/arm-none-eabi/4.9.3/../../../arm-none-eabi/lib/armv7-m/libc_nano.a(lib_a-strncasecmp.o)
 .debug_aranges
                0x000008f0       0x20 /usr/lib/gcc/arm-none-eabi/4.9.3/../../../arm-none-eabi/lib/armv7-m/libc_nano.a(lib_a-strncpy.o)
 .debug_aranges
                0x00000910       0x20 /usr/lib/gcc/arm-none-eabi/4.9.3/../../../arm-none-eabi/lib/armv7-m/libc_nano.a(lib_a-strstr.o)
 .debug_aranges
                0x00000930       0x20 /usr/lib/gcc/arm-none-eabi/4.9.3/armv7-m/libgcc.a(_arm_addsubdf3.o)
 .debug_aranges
                0x00000950       0x20 /usr/lib/gcc/arm-none-eabi/4.9.3/armv7-m/libgcc.a(_arm_muldivdf3.o)
 .debug_aranges
                0x00000970       0x20 /usr/lib/gcc/arm-none-eabi/4.9.3/armv7-m/libgcc.a(_arm_cmpdf2.o)
 .debug_aranges
                0x00000990       0x20 /usr/lib/gcc/arm-none-eabi/4.9.3/armv7-m/libgcc.a(_arm_truncdfsf2.o)
 .debug_aranges
                0x000009b0       0x20 /usr/lib/gcc/arm-none-eabi/4.9.3/armv7-m/libgcc.a(_arm_addsubsf3.o)
 .debug_aranges
                0x000009d0       0x20 /usr/lib/gcc/arm-none-eabi/4.9.3/armv7-m/libgcc.a(_arm_muldivsf3.o)
 .debug_aranges
                0x000009f0       0x20 /usr/lib/gcc/arm-none-eabi/4.9.3/armv7-m/libgcc.a(_arm_cmpsf2.o)
 .debug_aranges
                0x00000a10       0x20 /usr/lib/gcc/arm-none-eabi/4.9.3/armv7-m/libgcc.a(_arm_fixsfsi.o)
 .debug_aranges
                0x00000a30       0x20 /usr/lib/gcc/arm-none-eabi/4.9.3/armv7-m/libgcc.a(_arm_fixunssfsi.o)
 .debug_aranges
                0x00000a50       0x20 /usr/lib/gcc/arm-none-eabi/4.9.3/armv7-m/libgcc.a(_aeabi_ldivmod.o)
 .debug_aranges
                0x00000a70       0x20 /usr/lib/gcc/arm-none-eabi/4.9.3/armv7-m/libgcc.a(_popcountsi2.o)
 .debug_aranges
                0x00000a90       0x20 /usr/lib/gcc/arm-none-eabi/4.9.3/armv7-m/libgcc.a(bpabi.o)
 .debug_aranges
                0x00000ab0       0x20 /usr/lib/gcc/arm-none-eabi/4.9.3/armv7-m/libgcc.a(_dvmd_tls.o)
 .debug_aranges
                0x00000ad0       0x20 /usr/lib/gcc/arm-none-eabi/4.9.3/armv7-m/libgcc.a(_divdi3.o)
 .debug_aranges
                0x00000af0       0x20 /usr/lib/gcc/arm-none-eabi/4.9.3/armv7-m/libgcc.a(_udivdi3.o)

.debug_ranges   0x00000000     0x7cd0
 .debug_ranges  0x00000000     0x1160 /tmp/ccGrItoW.ltrans0.ltrans.o
 .debug_ranges  0x00001160     0x1190 /tmp/ccGrItoW.ltrans1.ltrans.o
 .debug_ranges  0x000022f0      0x528 /tmp/ccGrItoW.ltrans2.ltrans.o
 .debug_ranges  0x00002818      0xa48 /tmp/ccGrItoW.ltrans3.ltrans.o
 .debug_ranges  0x00003260      0x770 /tmp/ccGrItoW.ltrans4.ltrans.o
 .debug_ranges  0x000039d0      0x398 /tmp/ccGrItoW.ltrans5.ltrans.o
 .debug_ranges  0x00003d68      0x2a0 /tmp/ccGrItoW.ltrans6.ltrans.o
 .debug_ranges  0x00004008      0x340 /tmp/ccGrItoW.ltrans7.ltrans.o
 .debug_ranges  0x00004348      0x428 /tmp/ccGrItoW.ltrans8.ltrans.o
 .debug_ranges  0x00004770      0x2b0 /tmp/ccGrItoW.ltrans9.ltrans.o
 .debug_ranges  0x00004a20      0x1a8 /tmp/ccGrItoW.ltrans10.ltrans.o
 .debug_ranges  0x00004bc8      0x290 /tmp/ccGrItoW.ltrans11.ltrans.o
 .debug_ranges  0x00004e58      0x1a0 /tmp/ccGrItoW.ltrans12.ltrans.o
 .debug_ranges  0x00004ff8      0x500 /tmp/ccGrItoW.ltrans13.ltrans.o
 .debug_ranges  0x000054f8      0x200 /tmp/ccGrItoW.ltrans14.ltrans.o
 .debug_ranges  0x000056f8      0x278 /tmp/ccGrItoW.ltrans15.ltrans.o
 .debug_ranges  0x00005970      0x338 /tmp/ccGrItoW.ltrans16.ltrans.o
 .debug_ranges  0x00005ca8      0x1b8 /tmp/ccGrItoW.ltrans17.ltrans.o
 .debug_ranges  0x00005e60      0x200 /tmp/ccGrItoW.ltrans18.ltrans.o
 .debug_ranges  0x00006060      0x2d0 /tmp/ccGrItoW.ltrans19.ltrans.o
 .debug_ranges  0x00006330      0x138 /tmp/ccGrItoW.ltrans20.ltrans.o
 .debug_ranges  0x00006468      0x2a0 /tmp/ccGrItoW.ltrans21.ltrans.o
 .debug_ranges  0x00006708      0x2e8 /tmp/ccGrItoW.ltrans22.ltrans.o
 .debug_ranges  0x000069f0      0x288 /tmp/ccGrItoW.ltrans23.ltrans.o
 .debug_ranges  0x00006c78      0x1f0 /tmp/ccGrItoW.ltrans24.ltrans.o
 .debug_ranges  0x00006e68      0x110 /tmp/ccGrItoW.ltrans25.ltrans.o
 .debug_ranges  0x00006f78       0x80 /tmp/ccGrItoW.ltrans26.ltrans.o
 .debug_ranges  0x00006ff8      0x180 /tmp/ccGrItoW.ltrans27.ltrans.o
 .debug_ranges  0x00007178      0x228 /tmp/ccGrItoW.ltrans28.ltrans.o
 .debug_ranges  0x000073a0      0x2c8 /tmp/ccGrItoW.ltrans29.ltrans.o
 .debug_ranges  0x00007668       0x78 /tmp/ccGrItoW.ltrans30.ltrans.o
 .debug_ranges  0x000076e0       0x18 /usr/lib/gcc/arm-none-eabi/4.9.3/../../../arm-none-eabi/lib/armv7-m/libc_nano.a(lib_a-atoi.o)
 .debug_ranges  0x000076f8       0x10 /usr/lib/gcc/arm-none-eabi/4.9.3/../../../arm-none-eabi/lib/armv7-m/libc_nano.a(lib_a-memcpy.o)
 .debug_ranges  0x00007708       0x28 /usr/lib/gcc/arm-none-eabi/4.9.3/../../../arm-none-eabi/lib/armv7-m/libc_nano.a(lib_a-strtok.o)
 .debug_ranges  0x00007730       0x18 /usr/lib/gcc/arm-none-eabi/4.9.3/../../../arm-none-eabi/lib/armv7-m/libc_nano.a(lib_a-strtok_r.o)
 .debug_ranges  0x00007748       0x18 /usr/lib/gcc/arm-none-eabi/4.9.3/../../../arm-none-eabi/lib/armv7-m/libc_nano.a(lib_a-strtol.o)
 .debug_ranges  0x00007760       0x18 /usr/lib/gcc/arm-none-eabi/4.9.3/../../../arm-none-eabi/lib/armv7-m/libc_nano.a(lib_a-malloc.o)
 .debug_ranges  0x00007778       0x28 /usr/lib/gcc/arm-none-eabi/4.9.3/../../../arm-none-eabi/lib/armv7-m/libc_nano.a(lib_a-nano-mallocr.o)
 .debug_ranges  0x000077a0       0x10 /usr/lib/gcc/arm-none-eabi/4.9.3/../../../arm-none-eabi/lib/armv7-m/libc_nano.a(lib_a-sbrkr.o)
 .debug_ranges  0x000077b0       0x18 /usr/lib/gcc/arm-none-eabi/4.9.3/../../../arm-none-eabi/lib/armv7-m/libc_nano.a(lib_a-reent.o)
 .debug_ranges  0x000077c8       0x10 /usr/lib/gcc/arm-none-eabi/4.9.3/../../../arm-none-eabi/lib/armv7-m/libnosys.a(sbrk.o)
 .debug_ranges  0x000077d8       0x10 /usr/lib/gcc/arm-none-eabi/4.9.3/../../../arm-none-eabi/lib/armv7-m/libm.a(lib_a-sf_log2.o)
 .debug_ranges  0x000077e8       0x10 /usr/lib/gcc/arm-none-eabi/4.9.3/../../../arm-none-eabi/lib/armv7-m/libm.a(lib_a-sf_lrint.o)
 .debug_ranges  0x000077f8       0x10 /usr/lib/gcc/arm-none-eabi/4.9.3/../../../arm-none-eabi/lib/armv7-m/libm.a(lib_a-wf_log.o)
 .debug_ranges  0x00007808       0x10 /usr/lib/gcc/arm-none-eabi/4.9.3/../../../arm-none-eabi/lib/armv7-m/libm.a(lib_a-wf_pow.o)
 .debug_ranges  0x00007818       0x10 /usr/lib/gcc/arm-none-eabi/4.9.3/../../../arm-none-eabi/lib/armv7-m/libm.a(lib_a-wf_sqrt.o)
 .debug_ranges  0x00007828       0x10 /usr/lib/gcc/arm-none-eabi/4.9.3/../../../arm-none-eabi/lib/armv7-m/libm.a(lib_a-ef_log.o)
 .debug_ranges  0x00007838       0x70 /usr/lib/gcc/arm-none-eabi/4.9.3/../../../arm-none-eabi/lib/armv7-m/libm.a(lib_a-ef_pow.o)
 .debug_ranges  0x000078a8       0x10 /usr/lib/gcc/arm-none-eabi/4.9.3/../../../arm-none-eabi/lib/armv7-m/libm.a(lib_a-ef_sqrt.o)
 .debug_ranges  0x000078b8       0x10 /usr/lib/gcc/arm-none-eabi/4.9.3/../../../arm-none-eabi/lib/armv7-m/libm.a(lib_a-s_matherr.o)
 .debug_ranges  0x000078c8       0x10 /usr/lib/gcc/arm-none-eabi/4.9.3/../../../arm-none-eabi/lib/armv7-m/libm.a(lib_a-s_nan.o)
 .debug_ranges  0x000078d8       0x40 /usr/lib/gcc/arm-none-eabi/4.9.3/../../../arm-none-eabi/lib/armv7-m/libm.a(lib_a-s_rint.o)
 .debug_ranges  0x00007918       0x10 /usr/lib/gcc/arm-none-eabi/4.9.3/../../../arm-none-eabi/lib/armv7-m/libm.a(lib_a-sf_fabs.o)
 .debug_ranges  0x00007928       0x10 /usr/lib/gcc/arm-none-eabi/4.9.3/../../../arm-none-eabi/lib/armv7-m/libm.a(lib_a-sf_finite.o)
 .debug_ranges  0x00007938       0x10 /usr/lib/gcc/arm-none-eabi/4.9.3/../../../arm-none-eabi/lib/armv7-m/libm.a(lib_a-sf_fpclassify.o)
 .debug_ranges  0x00007948       0x10 /usr/lib/gcc/arm-none-eabi/4.9.3/../../../arm-none-eabi/lib/armv7-m/libm.a(lib_a-sf_nan.o)
 .debug_ranges  0x00007958       0x10 /usr/lib/gcc/arm-none-eabi/4.9.3/../../../arm-none-eabi/lib/armv7-m/libm.a(lib_a-sf_scalbn.o)
 .debug_ranges  0x00007968       0x10 /usr/lib/gcc/arm-none-eabi/4.9.3/../../../arm-none-eabi/lib/armv7-m/libm.a(lib_a-sf_copysign.o)
 .debug_ranges  0x00007978       0x10 /usr/lib/gcc/arm-none-eabi/4.9.3/../../../arm-none-eabi/lib/armv7-m/libc_nano.a(lib_a-errno.o)
 .debug_ranges  0x00007988       0x10 /usr/lib/gcc/arm-none-eabi/4.9.3/../../../arm-none-eabi/lib/armv7-m/libc_nano.a(lib_a-memcmp.o)
 .debug_ranges  0x00007998       0x10 /usr/lib/gcc/arm-none-eabi/4.9.3/../../../arm-none-eabi/lib/armv7-m/libc_nano.a(lib_a-memmove.o)
 .debug_ranges  0x000079a8       0x10 /usr/lib/gcc/arm-none-eabi/4.9.3/../../../arm-none-eabi/lib/armv7-m/libc_nano.a(lib_a-memset.o)
 .debug_ranges  0x000079b8       0x60 /usr/lib/gcc/arm-none-eabi/4.9.3/../../../arm-none-eabi/lib/armv7-m/libc_nano.a(lib_a-strcasecmp.o)
 .debug_ranges  0x00007a18       0x10 /usr/lib/gcc/arm-none-eabi/4.9.3/../../../arm-none-eabi/lib/armv7-m/libc_nano.a(lib_a-strcat.o)
 .debug_ranges  0x00007a28       0x10 /usr/lib/gcc/arm-none-eabi/4.9.3/../../../arm-none-eabi/lib/armv7-m/libc_nano.a(lib_a-strchr.o)
 .debug_ranges  0x00007a38       0x10 /usr/lib/gcc/arm-none-eabi/4.9.3/../../../arm-none-eabi/lib/armv7-m/libc_nano.a(lib_a-strlen.o)
 .debug_ranges  0x00007a48       0x70 /usr/lib/gcc/arm-none-eabi/4.9.3/../../../arm-none-eabi/lib/armv7-m/libc_nano.a(lib_a-strncasecmp.o)
 .debug_ranges  0x00007ab8       0x10 /usr/lib/gcc/arm-none-eabi/4.9.3/../../../arm-none-eabi/lib/armv7-m/libc_nano.a(lib_a-strncpy.o)
 .debug_ranges  0x00007ac8       0x28 /usr/lib/gcc/arm-none-eabi/4.9.3/../../../arm-none-eabi/lib/armv7-m/libc_nano.a(lib_a-strstr.o)
 .debug_ranges  0x00007af0       0xf0 /usr/lib/gcc/arm-none-eabi/4.9.3/armv7-m/libgcc.a(_divdi3.o)
 .debug_ranges  0x00007be0       0xf0 /usr/lib/gcc/arm-none-eabi/4.9.3/armv7-m/libgcc.a(_udivdi3.o)

.debug_line     0x00000000    0x12d09
 .debug_line    0x00000000     0x19f0 /tmp/ccGrItoW.ltrans0.ltrans.o
 .debug_line    0x000019f0     0x1645 /tmp/ccGrItoW.ltrans1.ltrans.o
 .debug_line    0x00003035      0xa78 /tmp/ccGrItoW.ltrans2.ltrans.o
 .debug_line    0x00003aad      0xc90 /tmp/ccGrItoW.ltrans3.ltrans.o
 .debug_line    0x0000473d      0xccc /tmp/ccGrItoW.ltrans4.ltrans.o
 .debug_line    0x00005409      0x953 /tmp/ccGrItoW.ltrans5.ltrans.o
 .debug_line    0x00005d5c      0x7a2 /tmp/ccGrItoW.ltrans6.ltrans.o
 .debug_line    0x000064fe      0x5da /tmp/ccGrItoW.ltrans7.ltrans.o
 .debug_line    0x00006ad8      0x906 /tmp/ccGrItoW.ltrans8.ltrans.o
 .debug_line    0x000073de      0x7ae /tmp/ccGrItoW.ltrans9.ltrans.o
 .debug_line    0x00007b8c      0x7b0 /tmp/ccGrItoW.ltrans10.ltrans.o
 .debug_line    0x0000833c      0x6f7 /tmp/ccGrItoW.ltrans11.ltrans.o
 .debug_line    0x00008a33      0x4cb /tmp/ccGrItoW.ltrans12.ltrans.o
 .debug_line    0x00008efe      0x88d /tmp/ccGrItoW.ltrans13.ltrans.o
 .debug_line    0x0000978b      0x4f1 /tmp/ccGrItoW.ltrans14.ltrans.o
 .debug_line    0x00009c7c      0x649 /tmp/ccGrItoW.ltrans15.ltrans.o
 .debug_line    0x0000a2c5      0x65c /tmp/ccGrItoW.ltrans16.ltrans.o
 .debug_line    0x0000a921      0x4fb /tmp/ccGrItoW.ltrans17.ltrans.o
 .debug_line    0x0000ae1c      0x61a /tmp/ccGrItoW.ltrans18.ltrans.o
 .debug_line    0x0000b436      0x54d /tmp/ccGrItoW.ltrans19.ltrans.o
 .debug_line    0x0000b983      0x82e /tmp/ccGrItoW.ltrans20.ltrans.o
 .debug_line    0x0000c1b1      0x631 /tmp/ccGrItoW.ltrans21.ltrans.o
 .debug_line    0x0000c7e2      0x4b0 /tmp/ccGrItoW.ltrans22.ltrans.o
 .debug_line    0x0000cc92      0x5d1 /tmp/ccGrItoW.ltrans23.ltrans.o
 .debug_line    0x0000d263      0x46c /tmp/ccGrItoW.ltrans24.ltrans.o
 .debug_line    0x0000d6cf      0x479 /tmp/ccGrItoW.ltrans25.ltrans.o
 .debug_line    0x0000db48      0x53a /tmp/ccGrItoW.ltrans26.ltrans.o
 .debug_line    0x0000e082      0x499 /tmp/ccGrItoW.ltrans27.ltrans.o
 .debug_line    0x0000e51b      0x3dd /tmp/ccGrItoW.ltrans28.ltrans.o
 .debug_line    0x0000e8f8      0x417 /tmp/ccGrItoW.ltrans29.ltrans.o
 .debug_line    0x0000ed0f      0x30d /tmp/ccGrItoW.ltrans30.ltrans.o
 .debug_line    0x0000f01c      0x241 /tmp/ccGrItoW.ltrans31.ltrans.o
 .debug_line    0x0000f25d      0x168 /usr/lib/gcc/arm-none-eabi/4.9.3/../../../arm-none-eabi/lib/armv7-m/libc_nano.a(lib_a-atoi.o)
 .debug_line    0x0000f3c5       0x72 /usr/lib/gcc/arm-none-eabi/4.9.3/../../../arm-none-eabi/lib/armv7-m/libc_nano.a(lib_a-ctype_.o)
 .debug_line    0x0000f437       0xed /usr/lib/gcc/arm-none-eabi/4.9.3/../../../arm-none-eabi/lib/armv7-m/libc_nano.a(lib_a-memcpy.o)
 .debug_line    0x0000f524      0x16a /usr/lib/gcc/arm-none-eabi/4.9.3/../../../arm-none-eabi/lib/armv7-m/libc_nano.a(lib_a-strtok.o)
 .debug_line    0x0000f68e       0xed /usr/lib/gcc/arm-none-eabi/4.9.3/../../../arm-none-eabi/lib/armv7-m/libc_nano.a(lib_a-strtok_r.o)
 .debug_line    0x0000f77b      0x1de /usr/lib/gcc/arm-none-eabi/4.9.3/../../../arm-none-eabi/lib/armv7-m/libc_nano.a(lib_a-strtol.o)
 .debug_line    0x0000f959       0xf1 /usr/lib/gcc/arm-none-eabi/4.9.3/../../../arm-none-eabi/lib/armv7-m/libc_nano.a(lib_a-impure.o)
 .debug_line    0x0000fa4a      0x16e /usr/lib/gcc/arm-none-eabi/4.9.3/../../../arm-none-eabi/lib/armv7-m/libc_nano.a(lib_a-malloc.o)
 .debug_line    0x0000fbb8      0x199 /usr/lib/gcc/arm-none-eabi/4.9.3/../../../arm-none-eabi/lib/armv7-m/libc_nano.a(lib_a-nano-mallocr.o)
 .debug_line    0x0000fd51      0x162 /usr/lib/gcc/arm-none-eabi/4.9.3/../../../arm-none-eabi/lib/armv7-m/libc_nano.a(lib_a-sbrkr.o)
 .debug_line    0x0000feb3      0x19e /usr/lib/gcc/arm-none-eabi/4.9.3/../../../arm-none-eabi/lib/armv7-m/libc_nano.a(lib_a-reent.o)
 .debug_line    0x00010051       0x58 /usr/lib/gcc/arm-none-eabi/4.9.3/../../../arm-none-eabi/lib/armv7-m/libnosys.a(sbrk.o)
 .debug_line    0x000100a9       0xb4 /usr/lib/gcc/arm-none-eabi/4.9.3/../../../arm-none-eabi/lib/armv7-m/libm.a(lib_a-sf_log2.o)
 .debug_line    0x0001015d      0x143 /usr/lib/gcc/arm-none-eabi/4.9.3/../../../arm-none-eabi/lib/armv7-m/libm.a(lib_a-sf_lrint.o)
 .debug_line    0x000102a0      0x185 /usr/lib/gcc/arm-none-eabi/4.9.3/../../../arm-none-eabi/lib/armv7-m/libm.a(lib_a-wf_log.o)
 .debug_line    0x00010425      0x22b /usr/lib/gcc/arm-none-eabi/4.9.3/../../../arm-none-eabi/lib/armv7-m/libm.a(lib_a-wf_pow.o)
 .debug_line    0x00010650      0x16d /usr/lib/gcc/arm-none-eabi/4.9.3/../../../arm-none-eabi/lib/armv7-m/libm.a(lib_a-wf_sqrt.o)
 .debug_line    0x000107bd      0x195 /usr/lib/gcc/arm-none-eabi/4.9.3/../../../arm-none-eabi/lib/armv7-m/libm.a(lib_a-ef_log.o)
 .debug_line    0x00010952      0x2ba /usr/lib/gcc/arm-none-eabi/4.9.3/../../../arm-none-eabi/lib/armv7-m/libm.a(lib_a-ef_pow.o)
 .debug_line    0x00010c0c      0x145 /usr/lib/gcc/arm-none-eabi/4.9.3/../../../arm-none-eabi/lib/armv7-m/libm.a(lib_a-ef_sqrt.o)
 .debug_line    0x00010d51       0xa5 /usr/lib/gcc/arm-none-eabi/4.9.3/../../../arm-none-eabi/lib/armv7-m/libm.a(lib_a-s_lib_ver.o)
 .debug_line    0x00010df6       0xb6 /usr/lib/gcc/arm-none-eabi/4.9.3/../../../arm-none-eabi/lib/armv7-m/libm.a(lib_a-s_matherr.o)
 .debug_line    0x00010eac       0xb3 /usr/lib/gcc/arm-none-eabi/4.9.3/../../../arm-none-eabi/lib/armv7-m/libm.a(lib_a-s_nan.o)
 .debug_line    0x00010f5f      0x184 /usr/lib/gcc/arm-none-eabi/4.9.3/../../../arm-none-eabi/lib/armv7-m/libm.a(lib_a-s_rint.o)
 .debug_line    0x000110e3      0x118 /usr/lib/gcc/arm-none-eabi/4.9.3/../../../arm-none-eabi/lib/armv7-m/libm.a(lib_a-sf_fabs.o)
 .debug_line    0x000111fb      0x11c /usr/lib/gcc/arm-none-eabi/4.9.3/../../../arm-none-eabi/lib/armv7-m/libm.a(lib_a-sf_finite.o)
 .debug_line    0x00011317      0x126 /usr/lib/gcc/arm-none-eabi/4.9.3/../../../arm-none-eabi/lib/armv7-m/libm.a(lib_a-sf_fpclassify.o)
 .debug_line    0x0001143d       0xb2 /usr/lib/gcc/arm-none-eabi/4.9.3/../../../arm-none-eabi/lib/armv7-m/libm.a(lib_a-sf_nan.o)
 .debug_line    0x000114ef      0x155 /usr/lib/gcc/arm-none-eabi/4.9.3/../../../arm-none-eabi/lib/armv7-m/libm.a(lib_a-sf_scalbn.o)
 .debug_line    0x00011644      0x12b /usr/lib/gcc/arm-none-eabi/4.9.3/../../../arm-none-eabi/lib/armv7-m/libm.a(lib_a-sf_copysign.o)
 .debug_line    0x0001176f      0x10b /usr/lib/gcc/arm-none-eabi/4.9.3/../../../arm-none-eabi/lib/armv7-m/libc_nano.a(lib_a-errno.o)
 .debug_line    0x0001187a       0xf0 /usr/lib/gcc/arm-none-eabi/4.9.3/../../../arm-none-eabi/lib/armv7-m/libc_nano.a(lib_a-memcmp.o)
 .debug_line    0x0001196a       0xfb /usr/lib/gcc/arm-none-eabi/4.9.3/../../../arm-none-eabi/lib/armv7-m/libc_nano.a(lib_a-memmove.o)
 .debug_line    0x00011a65       0xee /usr/lib/gcc/arm-none-eabi/4.9.3/../../../arm-none-eabi/lib/armv7-m/libc_nano.a(lib_a-memset.o)
 .debug_line    0x00011b53       0xd4 /usr/lib/gcc/arm-none-eabi/4.9.3/../../../arm-none-eabi/lib/armv7-m/libc_nano.a(lib_a-strcasecmp.o)
 .debug_line    0x00011c27       0xbd /usr/lib/gcc/arm-none-eabi/4.9.3/../../../arm-none-eabi/lib/armv7-m/libc_nano.a(lib_a-strcat.o)
 .debug_line    0x00011ce4       0xc0 /usr/lib/gcc/arm-none-eabi/4.9.3/../../../arm-none-eabi/lib/armv7-m/libc_nano.a(lib_a-strchr.o)
 .debug_line    0x00011da4       0xf5 /usr/lib/gcc/arm-none-eabi/4.9.3/../../../arm-none-eabi/lib/armv7-m/libc_nano.a(lib_a-strlen.o)
 .debug_line    0x00011e99      0x110 /usr/lib/gcc/arm-none-eabi/4.9.3/../../../arm-none-eabi/lib/armv7-m/libc_nano.a(lib_a-strncasecmp.o)
 .debug_line    0x00011fa9       0xf5 /usr/lib/gcc/arm-none-eabi/4.9.3/../../../arm-none-eabi/lib/armv7-m/libc_nano.a(lib_a-strncpy.o)
 .debug_line    0x0001209e       0xf5 /usr/lib/gcc/arm-none-eabi/4.9.3/../../../arm-none-eabi/lib/armv7-m/libc_nano.a(lib_a-strstr.o)
 .debug_line    0x00012193      0x176 /usr/lib/gcc/arm-none-eabi/4.9.3/armv7-m/libgcc.a(_arm_addsubdf3.o)
 .debug_line    0x00012309      0x19a /usr/lib/gcc/arm-none-eabi/4.9.3/armv7-m/libgcc.a(_arm_muldivdf3.o)
 .debug_line    0x000124a3       0xb7 /usr/lib/gcc/arm-none-eabi/4.9.3/armv7-m/libgcc.a(_arm_cmpdf2.o)
 .debug_line    0x0001255a       0x8b /usr/lib/gcc/arm-none-eabi/4.9.3/armv7-m/libgcc.a(_arm_truncdfsf2.o)
 .debug_line    0x000125e5      0x117 /usr/lib/gcc/arm-none-eabi/4.9.3/armv7-m/libgcc.a(_arm_addsubsf3.o)
 .debug_line    0x000126fc      0x13a /usr/lib/gcc/arm-none-eabi/4.9.3/armv7-m/libgcc.a(_arm_muldivsf3.o)
 .debug_line    0x00012836       0xab /usr/lib/gcc/arm-none-eabi/4.9.3/armv7-m/libgcc.a(_arm_cmpsf2.o)
 .debug_line    0x000128e1       0x77 /usr/lib/gcc/arm-none-eabi/4.9.3/armv7-m/libgcc.a(_arm_fixsfsi.o)
 .debug_line    0x00012958       0x73 /usr/lib/gcc/arm-none-eabi/4.9.3/armv7-m/libgcc.a(_arm_fixunssfsi.o)
 .debug_line    0x000129cb       0x63 /usr/lib/gcc/arm-none-eabi/4.9.3/armv7-m/libgcc.a(_aeabi_ldivmod.o)
 .debug_line    0x00012a2e       0x65 /usr/lib/gcc/arm-none-eabi/4.9.3/armv7-m/libgcc.a(_popcountsi2.o)
 .debug_line    0x00012a93       0x64 /usr/lib/gcc/arm-none-eabi/4.9.3/armv7-m/libgcc.a(bpabi.o)
 .debug_line    0x00012af7       0x5e /usr/lib/gcc/arm-none-eabi/4.9.3/armv7-m/libgcc.a(_dvmd_tls.o)
 .debug_line    0x00012b55       0xe1 /usr/lib/gcc/arm-none-eabi/4.9.3/armv7-m/libgcc.a(_divdi3.o)
 .debug_line    0x00012c36       0xd3 /usr/lib/gcc/arm-none-eabi/4.9.3/armv7-m/libgcc.a(_udivdi3.o)

.debug_str      0x00000000    0x17203
 .debug_str     0x00000000     0x42a7 /tmp/ccGrItoW.ltrans0.ltrans.o
                               0x4522 (size before relaxing)
 .debug_str     0x000042a7     0x205e /tmp/ccGrItoW.ltrans1.ltrans.o
                               0x3305 (size before relaxing)
 .debug_str     0x00006305     0x15c5 /tmp/ccGrItoW.ltrans2.ltrans.o
                               0x1fe9 (size before relaxing)
 .debug_str     0x000078ca     0x19b3 /tmp/ccGrItoW.ltrans3.ltrans.o
                               0x25a5 (size before relaxing)
 .debug_str     0x0000927d     0x16db /tmp/ccGrItoW.ltrans4.ltrans.o
                               0x2528 (size before relaxing)
 .debug_str     0x0000a958      0x71c /tmp/ccGrItoW.ltrans5.ltrans.o
                               0x13bd (size before relaxing)
 .debug_str     0x0000b074      0x6e7 /tmp/ccGrItoW.ltrans6.ltrans.o
                               0x1257 (size before relaxing)
 .debug_str     0x0000b75b      0xc27 /tmp/ccGrItoW.ltrans7.ltrans.o
                               0x122d (size before relaxing)
 .debug_str     0x0000c382      0xca5 /tmp/ccGrItoW.ltrans8.ltrans.o
                               0x1fc4 (size before relaxing)
 .debug_str     0x0000d027      0x685 /tmp/ccGrItoW.ltrans9.ltrans.o
                               0x1355 (size before relaxing)
 .debug_str     0x0000d6ac     0x1043 /tmp/ccGrItoW.ltrans10.ltrans.o
                               0x18d2 (size before relaxing)
 .debug_str     0x0000e6ef      0xab3 /tmp/ccGrItoW.ltrans11.ltrans.o
                               0x1975 (size before relaxing)
 .debug_str     0x0000f1a2      0x59b /tmp/ccGrItoW.ltrans12.ltrans.o
                               0x11c1 (size before relaxing)
 .debug_str     0x0000f73d      0xdb0 /tmp/ccGrItoW.ltrans13.ltrans.o
                               0x175b (size before relaxing)
 .debug_str     0x000104ed      0x7c1 /tmp/ccGrItoW.ltrans14.ltrans.o
                               0x10d8 (size before relaxing)
 .debug_str     0x00010cae      0x7fc /tmp/ccGrItoW.ltrans15.ltrans.o
                               0x134a (size before relaxing)
 .debug_str     0x000114aa      0x847 /tmp/ccGrItoW.ltrans16.ltrans.o
                               0x11a4 (size before relaxing)
 .debug_str     0x00011cf1      0x746 /tmp/ccGrItoW.ltrans17.ltrans.o
                               0x1476 (size before relaxing)
 .debug_str     0x00012437      0x47a /tmp/ccGrItoW.ltrans18.ltrans.o
                               0x154a (size before relaxing)
 .debug_str     0x000128b1      0xa34 /tmp/ccGrItoW.ltrans19.ltrans.o
                               0x1441 (size before relaxing)
 .debug_str     0x000132e5      0x6bc /tmp/ccGrItoW.ltrans20.ltrans.o
                               0x1c02 (size before relaxing)
 .debug_str     0x000139a1      0x3eb /tmp/ccGrItoW.ltrans21.ltrans.o
                               0x1c1d (size before relaxing)
 .debug_str     0x00013d8c      0x5d7 /tmp/ccGrItoW.ltrans22.ltrans.o
                                0xba6 (size before relaxing)
 .debug_str     0x00014363      0x372 /tmp/ccGrItoW.ltrans23.ltrans.o
                                0xe20 (size before relaxing)
 .debug_str     0x000146d5      0x33b /tmp/ccGrItoW.ltrans24.ltrans.o
                                0x8c4 (size before relaxing)
 .debug_str     0x00014a10      0x165 /tmp/ccGrItoW.ltrans25.ltrans.o
                                0x95f (size before relaxing)
 .debug_str     0x00014b75      0x42f /tmp/ccGrItoW.ltrans26.ltrans.o
                               0x10d2 (size before relaxing)
 .debug_str     0x00014fa4      0x502 /tmp/ccGrItoW.ltrans27.ltrans.o
                                0xfa0 (size before relaxing)
 .debug_str     0x000154a6       0xe0 /tmp/ccGrItoW.ltrans28.ltrans.o
                                0x578 (size before relaxing)
 .debug_str     0x00015586      0x2f6 /tmp/ccGrItoW.ltrans29.ltrans.o
                               0x1086 (size before relaxing)
 .debug_str     0x0001587c      0x174 /tmp/ccGrItoW.ltrans30.ltrans.o
                                0x8bb (size before relaxing)
 .debug_str     0x000159f0       0x8e /tmp/ccGrItoW.ltrans31.ltrans.o
                                0x3a1 (size before relaxing)
 .debug_str     0x00015a7e      0x49c /usr/lib/gcc/arm-none-eabi/4.9.3/../../../arm-none-eabi/lib/armv7-m/libc_nano.a(lib_a-atoi.o)
                                0x52e (size before relaxing)
 .debug_str     0x00015f1a       0xac /usr/lib/gcc/arm-none-eabi/4.9.3/../../../arm-none-eabi/lib/armv7-m/libc_nano.a(lib_a-ctype_.o)
                                0x154 (size before relaxing)
 .debug_str     0x00015fc6       0xae /usr/lib/gcc/arm-none-eabi/4.9.3/../../../arm-none-eabi/lib/armv7-m/libc_nano.a(lib_a-memcpy.o)
                                0x1e6 (size before relaxing)
 .debug_str     0x00016074       0x47 /usr/lib/gcc/arm-none-eabi/4.9.3/../../../arm-none-eabi/lib/armv7-m/libc_nano.a(lib_a-strtok.o)
                                0x543 (size before relaxing)
 .debug_str     0x000160bb       0x54 /usr/lib/gcc/arm-none-eabi/4.9.3/../../../arm-none-eabi/lib/armv7-m/libc_nano.a(lib_a-strtok_r.o)
                                0x204 (size before relaxing)
 .debug_str     0x0001610f       0x46 /usr/lib/gcc/arm-none-eabi/4.9.3/../../../arm-none-eabi/lib/armv7-m/libc_nano.a(lib_a-strtol.o)
                                0x561 (size before relaxing)
 .debug_str     0x00016155       0xf4 /usr/lib/gcc/arm-none-eabi/4.9.3/../../../arm-none-eabi/lib/armv7-m/libc_nano.a(lib_a-impure.o)
                                0x57a (size before relaxing)
 .debug_str     0x00016249       0x51 /usr/lib/gcc/arm-none-eabi/4.9.3/../../../arm-none-eabi/lib/armv7-m/libc_nano.a(lib_a-malloc.o)
                                0x54f (size before relaxing)
 .debug_str     0x0001629a       0xbc /usr/lib/gcc/arm-none-eabi/4.9.3/../../../arm-none-eabi/lib/armv7-m/libc_nano.a(lib_a-nano-mallocr.o)
                                0x5c8 (size before relaxing)
 .debug_str     0x00016356       0x37 /usr/lib/gcc/arm-none-eabi/4.9.3/../../../arm-none-eabi/lib/armv7-m/libc_nano.a(lib_a-sbrkr.o)
                                0x532 (size before relaxing)
 .debug_str     0x0001638d       0x58 /usr/lib/gcc/arm-none-eabi/4.9.3/../../../arm-none-eabi/lib/armv7-m/libc_nano.a(lib_a-reent.o)
                                0x55a (size before relaxing)
 .debug_str     0x000163e5      0x109 /usr/lib/gcc/arm-none-eabi/4.9.3/../../../arm-none-eabi/lib/armv7-m/libnosys.a(sbrk.o)
                                0x122 (size before relaxing)
 .debug_str     0x000164ee      0x130 /usr/lib/gcc/arm-none-eabi/4.9.3/../../../arm-none-eabi/lib/armv7-m/libm.a(lib_a-sf_log2.o)
                                0x1da (size before relaxing)
 .debug_str     0x0001661e       0x36 /usr/lib/gcc/arm-none-eabi/4.9.3/../../../arm-none-eabi/lib/armv7-m/libm.a(lib_a-sf_lrint.o)
                                0x1f1 (size before relaxing)
 .debug_str     0x00016654      0x132 /usr/lib/gcc/arm-none-eabi/4.9.3/../../../arm-none-eabi/lib/armv7-m/libm.a(lib_a-wf_log.o)
                                0x274 (size before relaxing)
 .debug_str     0x00016786       0x43 /usr/lib/gcc/arm-none-eabi/4.9.3/../../../arm-none-eabi/lib/armv7-m/libm.a(lib_a-wf_pow.o)
                                0x281 (size before relaxing)
 .debug_str     0x000167c9       0x3d /usr/lib/gcc/arm-none-eabi/4.9.3/../../../arm-none-eabi/lib/armv7-m/libm.a(lib_a-wf_sqrt.o)
                                0x277 (size before relaxing)
 .debug_str     0x00016806       0x6a /usr/lib/gcc/arm-none-eabi/4.9.3/../../../arm-none-eabi/lib/armv7-m/libm.a(lib_a-ef_log.o)
                                0x22f (size before relaxing)
 .debug_str     0x00016870       0x8c /usr/lib/gcc/arm-none-eabi/4.9.3/../../../arm-none-eabi/lib/armv7-m/libm.a(lib_a-ef_pow.o)
                                0x286 (size before relaxing)
 .debug_str     0x000168fc       0x2d /usr/lib/gcc/arm-none-eabi/4.9.3/../../../arm-none-eabi/lib/armv7-m/libm.a(lib_a-ef_sqrt.o)
                                0x218 (size before relaxing)
 .debug_str     0x00016929       0x31 /usr/lib/gcc/arm-none-eabi/4.9.3/../../../arm-none-eabi/lib/armv7-m/libm.a(lib_a-s_lib_ver.o)
                                0x224 (size before relaxing)
 .debug_str     0x0001695a       0x31 /usr/lib/gcc/arm-none-eabi/4.9.3/../../../arm-none-eabi/lib/armv7-m/libm.a(lib_a-s_matherr.o)
                                0x1f6 (size before relaxing)
 .debug_str     0x0001698b       0x34 /usr/lib/gcc/arm-none-eabi/4.9.3/../../../arm-none-eabi/lib/armv7-m/libm.a(lib_a-s_nan.o)
                                0x1cc (size before relaxing)
 .debug_str     0x000169bf       0xd2 /usr/lib/gcc/arm-none-eabi/4.9.3/../../../arm-none-eabi/lib/armv7-m/libm.a(lib_a-s_rint.o)
                                0x225 (size before relaxing)
 .debug_str     0x00016a91       0x2d /usr/lib/gcc/arm-none-eabi/4.9.3/../../../arm-none-eabi/lib/armv7-m/libm.a(lib_a-sf_fabs.o)
                                0x1d4 (size before relaxing)
 .debug_str     0x00016abe       0x31 /usr/lib/gcc/arm-none-eabi/4.9.3/../../../arm-none-eabi/lib/armv7-m/libm.a(lib_a-sf_finite.o)
                                0x1db (size before relaxing)
 .debug_str     0x00016aef       0x35 /usr/lib/gcc/arm-none-eabi/4.9.3/../../../arm-none-eabi/lib/armv7-m/libm.a(lib_a-sf_fpclassify.o)
                                0x1e6 (size before relaxing)
 .debug_str     0x00016b24       0x2e /usr/lib/gcc/arm-none-eabi/4.9.3/../../../arm-none-eabi/lib/armv7-m/libm.a(lib_a-sf_nan.o)
                                0x1d2 (size before relaxing)
 .debug_str     0x00016b52       0x42 /usr/lib/gcc/arm-none-eabi/4.9.3/../../../arm-none-eabi/lib/armv7-m/libm.a(lib_a-sf_scalbn.o)
                                0x232 (size before relaxing)
 .debug_str     0x00016b94       0x33 /usr/lib/gcc/arm-none-eabi/4.9.3/../../../arm-none-eabi/lib/armv7-m/libm.a(lib_a-sf_copysign.o)
                                0x206 (size before relaxing)
 .debug_str     0x00016bc7       0x95 /usr/lib/gcc/arm-none-eabi/4.9.3/../../../arm-none-eabi/lib/armv7-m/libc_nano.a(lib_a-errno.o)
                                0x523 (size before relaxing)
 .debug_str     0x00016c5c       0x2e /usr/lib/gcc/arm-none-eabi/4.9.3/../../../arm-none-eabi/lib/armv7-m/libc_nano.a(lib_a-memcmp.o)
                                0x1d2 (size before relaxing)
 .debug_str     0x00016c8a       0x41 /usr/lib/gcc/arm-none-eabi/4.9.3/../../../arm-none-eabi/lib/armv7-m/libc_nano.a(lib_a-memmove.o)
                                0x1ed (size before relaxing)
 .debug_str     0x00016ccb       0x2e /usr/lib/gcc/arm-none-eabi/4.9.3/../../../arm-none-eabi/lib/armv7-m/libc_nano.a(lib_a-memset.o)
                                0x1d2 (size before relaxing)
 .debug_str     0x00016cf9       0x3c /usr/lib/gcc/arm-none-eabi/4.9.3/../../../arm-none-eabi/lib/armv7-m/libc_nano.a(lib_a-strcasecmp.o)
                                0x1eb (size before relaxing)
 .debug_str     0x00016d35       0x2e /usr/lib/gcc/arm-none-eabi/4.9.3/../../../arm-none-eabi/lib/armv7-m/libc_nano.a(lib_a-strcat.o)
                                0x1cb (size before relaxing)
 .debug_str     0x00016d63       0x2e /usr/lib/gcc/arm-none-eabi/4.9.3/../../../arm-none-eabi/lib/armv7-m/libc_nano.a(lib_a-strchr.o)
                                0x1cb (size before relaxing)
 .debug_str     0x00016d91       0xad /usr/lib/gcc/arm-none-eabi/4.9.3/../../../arm-none-eabi/lib/armv7-m/libc_nano.a(lib_a-strlen.o)
                                0x1e7 (size before relaxing)
 .debug_str     0x00016e3e       0x33 /usr/lib/gcc/arm-none-eabi/4.9.3/../../../arm-none-eabi/lib/armv7-m/libc_nano.a(lib_a-strncasecmp.o)
                                0x1f4 (size before relaxing)
 .debug_str     0x00016e71       0x3b /usr/lib/gcc/arm-none-eabi/4.9.3/../../../arm-none-eabi/lib/armv7-m/libc_nano.a(lib_a-strncpy.o)
                                0x1f0 (size before relaxing)
 .debug_str     0x00016eac       0x3f /usr/lib/gcc/arm-none-eabi/4.9.3/../../../arm-none-eabi/lib/armv7-m/libc_nano.a(lib_a-strstr.o)
                                0x1e3 (size before relaxing)
 .debug_str     0x00016eeb      0x180 /usr/lib/gcc/arm-none-eabi/4.9.3/armv7-m/libgcc.a(_popcountsi2.o)
                                0x216 (size before relaxing)
 .debug_str     0x0001706b       0x7b /usr/lib/gcc/arm-none-eabi/4.9.3/armv7-m/libgcc.a(bpabi.o)
                                0x1cc (size before relaxing)
 .debug_str     0x000170e6      0x11d /usr/lib/gcc/arm-none-eabi/4.9.3/armv7-m/libgcc.a(_divdi3.o)
                                0x27a (size before relaxing)
 .debug_str     0x00017203      0x27b /usr/lib/gcc/arm-none-eabi/4.9.3/armv7-m/libgcc.a(_udivdi3.o)

.comment        0x00000000       0x70
 .comment       0x00000000       0x38 /tmp/ccGrItoW.ltrans0.ltrans.o
                                 0x39 (size before relaxing)
 .comment       0x00000038       0x39 /tmp/ccGrItoW.ltrans1.ltrans.o
 .comment       0x00000038       0x39 /tmp/ccGrItoW.ltrans2.ltrans.o
 .comment       0x00000038       0x39 /tmp/ccGrItoW.ltrans3.ltrans.o
 .comment       0x00000038       0x39 /tmp/ccGrItoW.ltrans4.ltrans.o
 .comment       0x00000038       0x39 /tmp/ccGrItoW.ltrans5.ltrans.o
 .comment       0x00000038       0x39 /tmp/ccGrItoW.ltrans6.ltrans.o
 .comment       0x00000038       0x39 /tmp/ccGrItoW.ltrans7.ltrans.o
 .comment       0x00000038       0x39 /tmp/ccGrItoW.ltrans8.ltrans.o
 .comment       0x00000038       0x39 /tmp/ccGrItoW.ltrans9.ltrans.o
 .comment       0x00000038       0x39 /tmp/ccGrItoW.ltrans10.ltrans.o
 .comment       0x00000038       0x39 /tmp/ccGrItoW.ltrans11.ltrans.o
 .comment       0x00000038       0x39 /tmp/ccGrItoW.ltrans12.ltrans.o
 .comment       0x00000038       0x39 /tmp/ccGrItoW.ltrans13.ltrans.o
 .comment       0x00000038       0x39 /tmp/ccGrItoW.ltrans14.ltrans.o
 .comment       0x00000038       0x39 /tmp/ccGrItoW.ltrans15.ltrans.o
 .comment       0x00000038       0x39 /tmp/ccGrItoW.ltrans16.ltrans.o
 .comment       0x00000038       0x39 /tmp/ccGrItoW.ltrans17.ltrans.o
 .comment       0x00000038       0x39 /tmp/ccGrItoW.ltrans18.ltrans.o
 .comment       0x00000038       0x39 /tmp/ccGrItoW.ltrans19.ltrans.o
 .comment       0x00000038       0x39 /tmp/ccGrItoW.ltrans20.ltrans.o
 .comment       0x00000038       0x39 /tmp/ccGrItoW.ltrans21.ltrans.o
 .comment       0x00000038       0x39 /tmp/ccGrItoW.ltrans22.ltrans.o
 .comment       0x00000038       0x39 /tmp/ccGrItoW.ltrans23.ltrans.o
 .comment       0x00000038       0x39 /tmp/ccGrItoW.ltrans24.ltrans.o
 .comment       0x00000038       0x39 /tmp/ccGrItoW.ltrans25.ltrans.o
 .comment       0x00000038       0x39 /tmp/ccGrItoW.ltrans26.ltrans.o
 .comment       0x00000038       0x39 /tmp/ccGrItoW.ltrans27.ltrans.o
 .comment       0x00000038       0x39 /tmp/ccGrItoW.ltrans28.ltrans.o
 .comment       0x00000038       0x39 /tmp/ccGrItoW.ltrans29.ltrans.o
 .comment       0x00000038       0x39 /tmp/ccGrItoW.ltrans30.ltrans.o
 .comment       0x00000038       0x39 /tmp/ccGrItoW.ltrans31.ltrans.o
 .comment       0x00000038       0x38 /usr/lib/gcc/arm-none-eabi/4.9.3/../../../arm-none-eabi/lib/armv7-m/libc_nano.a(lib_a-atoi.o)
                                 0x39 (size before relaxing)
 .comment       0x00000070       0x39 /usr/lib/gcc/arm-none-eabi/4.9.3/../../../arm-none-eabi/lib/armv7-m/libc_nano.a(lib_a-ctype_.o)
 .comment       0x00000070       0x39 /usr/lib/gcc/arm-none-eabi/4.9.3/../../../arm-none-eabi/lib/armv7-m/libc_nano.a(lib_a-memcpy.o)
 .comment       0x00000070       0x39 /usr/lib/gcc/arm-none-eabi/4.9.3/../../../arm-none-eabi/lib/armv7-m/libc_nano.a(lib_a-strtok.o)
 .comment       0x00000070       0x39 /usr/lib/gcc/arm-none-eabi/4.9.3/../../../arm-none-eabi/lib/armv7-m/libc_nano.a(lib_a-strtok_r.o)
 .comment       0x00000070       0x39 /usr/lib/gcc/arm-none-eabi/4.9.3/../../../arm-none-eabi/lib/armv7-m/libc_nano.a(lib_a-strtol.o)
 .comment       0x00000070       0x39 /usr/lib/gcc/arm-none-eabi/4.9.3/../../../arm-none-eabi/lib/armv7-m/libc_nano.a(lib_a-impure.o)
 .comment       0x00000070       0x39 /usr/lib/gcc/arm-none-eabi/4.9.3/../../../arm-none-eabi/lib/armv7-m/libc_nano.a(lib_a-malloc.o)
 .comment       0x00000070       0x39 /usr/lib/gcc/arm-none-eabi/4.9.3/../../../arm-none-eabi/lib/armv7-m/libc_nano.a(lib_a-nano-mallocr.o)
 .comment       0x00000070       0x39 /usr/lib/gcc/arm-none-eabi/4.9.3/../../../arm-none-eabi/lib/armv7-m/libc_nano.a(lib_a-sbrkr.o)
 .comment       0x00000070       0x39 /usr/lib/gcc/arm-none-eabi/4.9.3/../../../arm-none-eabi/lib/armv7-m/libc_nano.a(lib_a-reent.o)
 .comment       0x00000070       0x39 /usr/lib/gcc/arm-none-eabi/4.9.3/../../../arm-none-eabi/lib/armv7-m/libnosys.a(sbrk.o)
 .comment       0x00000070       0x39 /usr/lib/gcc/arm-none-eabi/4.9.3/../../../arm-none-eabi/lib/armv7-m/libm.a(lib_a-sf_log2.o)
 .comment       0x00000070       0x39 /usr/lib/gcc/arm-none-eabi/4.9.3/../../../arm-none-eabi/lib/armv7-m/libm.a(lib_a-sf_lrint.o)
 .comment       0x00000070       0x39 /usr/lib/gcc/arm-none-eabi/4.9.3/../../../arm-none-eabi/lib/armv7-m/libm.a(lib_a-wf_log.o)
 .comment       0x00000070       0x39 /usr/lib/gcc/arm-none-eabi/4.9.3/../../../arm-none-eabi/lib/armv7-m/libm.a(lib_a-wf_pow.o)
 .comment       0x00000070       0x39 /usr/lib/gcc/arm-none-eabi/4.9.3/../../../arm-none-eabi/lib/armv7-m/libm.a(lib_a-wf_sqrt.o)
 .comment       0x00000070       0x39 /usr/lib/gcc/arm-none-eabi/4.9.3/../../../arm-none-eabi/lib/armv7-m/libm.a(lib_a-ef_log.o)
 .comment       0x00000070       0x39 /usr/lib/gcc/arm-none-eabi/4.9.3/../../../arm-none-eabi/lib/armv7-m/libm.a(lib_a-ef_pow.o)
 .comment       0x00000070       0x39 /usr/lib/gcc/arm-none-eabi/4.9.3/../../../arm-none-eabi/lib/armv7-m/libm.a(lib_a-ef_sqrt.o)
 .comment       0x00000070       0x39 /usr/lib/gcc/arm-none-eabi/4.9.3/../../../arm-none-eabi/lib/armv7-m/libm.a(lib_a-s_lib_ver.o)
 .comment       0x00000070       0x39 /usr/lib/gcc/arm-none-eabi/4.9.3/../../../arm-none-eabi/lib/armv7-m/libm.a(lib_a-s_matherr.o)
 .comment       0x00000070       0x39 /usr/lib/gcc/arm-none-eabi/4.9.3/../../../arm-none-eabi/lib/armv7-m/libm.a(lib_a-s_nan.o)
 .comment       0x00000070       0x39 /usr/lib/gcc/arm-none-eabi/4.9.3/../../../arm-none-eabi/lib/armv7-m/libm.a(lib_a-s_rint.o)
 .comment       0x00000070       0x39 /usr/lib/gcc/arm-none-eabi/4.9.3/../../../arm-none-eabi/lib/armv7-m/libm.a(lib_a-sf_fabs.o)
 .comment       0x00000070       0x39 /usr/lib/gcc/arm-none-eabi/4.9.3/../../../arm-none-eabi/lib/armv7-m/libm.a(lib_a-sf_finite.o)
 .comment       0x00000070       0x39 /usr/lib/gcc/arm-none-eabi/4.9.3/../../../arm-none-eabi/lib/armv7-m/libm.a(lib_a-sf_fpclassify.o)
 .comment       0x00000070       0x39 /usr/lib/gcc/arm-none-eabi/4.9.3/../../../arm-none-eabi/lib/armv7-m/libm.a(lib_a-sf_nan.o)
 .comment       0x00000070       0x39 /usr/lib/gcc/arm-none-eabi/4.9.3/../../../arm-none-eabi/lib/armv7-m/libm.a(lib_a-sf_scalbn.o)
 .comment       0x00000070       0x39 /usr/lib/gcc/arm-none-eabi/4.9.3/../../../arm-none-eabi/lib/armv7-m/libm.a(lib_a-sf_copysign.o)
 .comment       0x00000070       0x39 /usr/lib/gcc/arm-none-eabi/4.9.3/../../../arm-none-eabi/lib/armv7-m/libc_nano.a(lib_a-errno.o)
 .comment       0x00000070       0x39 /usr/lib/gcc/arm-none-eabi/4.9.3/../../../arm-none-eabi/lib/armv7-m/libc_nano.a(lib_a-memcmp.o)
 .comment       0x00000070       0x39 /usr/lib/gcc/arm-none-eabi/4.9.3/../../../arm-none-eabi/lib/armv7-m/libc_nano.a(lib_a-memmove.o)
 .comment       0x00000070       0x39 /usr/lib/gcc/arm-none-eabi/4.9.3/../../../arm-none-eabi/lib/armv7-m/libc_nano.a(lib_a-memset.o)
 .comment       0x00000070       0x39 /usr/lib/gcc/arm-none-eabi/4.9.3/../../../arm-none-eabi/lib/armv7-m/libc_nano.a(lib_a-strcasecmp.o)
 .comment       0x00000070       0x39 /usr/lib/gcc/arm-none-eabi/4.9.3/../../../arm-none-eabi/lib/armv7-m/libc_nano.a(lib_a-strcat.o)
 .comment       0x00000070       0x39 /usr/lib/gcc/arm-none-eabi/4.9.3/../../../arm-none-eabi/lib/armv7-m/libc_nano.a(lib_a-strchr.o)
 .comment       0x00000070       0x39 /usr/lib/gcc/arm-none-eabi/4.9.3/../../../arm-none-eabi/lib/armv7-m/libc_nano.a(lib_a-strlen.o)
 .comment       0x00000070       0x39 /usr/lib/gcc/arm-none-eabi/4.9.3/../../../arm-none-eabi/lib/armv7-m/libc_nano.a(lib_a-strncasecmp.o)
 .comment       0x00000070       0x39 /usr/lib/gcc/arm-none-eabi/4.9.3/../../../arm-none-eabi/lib/armv7-m/libc_nano.a(lib_a-strncpy.o)
 .comment       0x00000070       0x39 /usr/lib/gcc/arm-none-eabi/4.9.3/../../../arm-none-eabi/lib/armv7-m/libc_nano.a(lib_a-strstr.o)
 .comment       0x00000070       0x39 /usr/lib/gcc/arm-none-eabi/4.9.3/armv7-m/libgcc.a(_popcountsi2.o)
 .comment       0x00000070       0x39 /usr/lib/gcc/arm-none-eabi/4.9.3/armv7-m/libgcc.a(bpabi.o)
 .comment       0x00000070       0x39 /usr/lib/gcc/arm-none-eabi/4.9.3/armv7-m/libgcc.a(_divdi3.o)
 .comment       0x00000070       0x39 /usr/lib/gcc/arm-none-eabi/4.9.3/armv7-m/libgcc.a(_udivdi3.o)

.debug_frame    0x00000000     0x3bfc
 .debug_frame   0x00000000       0x30 /tmp/ccGrItoW.ltrans0.ltrans.o
 .debug_frame   0x00000030       0x40 /tmp/ccGrItoW.ltrans1.ltrans.o
 .debug_frame   0x00000070       0x40 /tmp/ccGrItoW.ltrans2.ltrans.o
 .debug_frame   0x000000b0       0x40 /tmp/ccGrItoW.ltrans3.ltrans.o
 .debug_frame   0x000000f0       0x50 /tmp/ccGrItoW.ltrans4.ltrans.o
 .debug_frame   0x00000140      0x218 /tmp/ccGrItoW.ltrans5.ltrans.o
 .debug_frame   0x00000358      0x2d4 /tmp/ccGrItoW.ltrans6.ltrans.o
 .debug_frame   0x0000062c      0x254 /tmp/ccGrItoW.ltrans7.ltrans.o
 .debug_frame   0x00000880      0x260 /tmp/ccGrItoW.ltrans8.ltrans.o
 .debug_frame   0x00000ae0      0x1c8 /tmp/ccGrItoW.ltrans9.ltrans.o
 .debug_frame   0x00000ca8      0x3cc /tmp/ccGrItoW.ltrans10.ltrans.o
 .debug_frame   0x00001074      0x340 /tmp/ccGrItoW.ltrans11.ltrans.o
 .debug_frame   0x000013b4       0xf4 /tmp/ccGrItoW.ltrans12.ltrans.o
 .debug_frame   0x000014a8       0x40 /tmp/ccGrItoW.ltrans13.ltrans.o
 .debug_frame   0x000014e8      0x224 /tmp/ccGrItoW.ltrans14.ltrans.o
 .debug_frame   0x0000170c      0x288 /tmp/ccGrItoW.ltrans15.ltrans.o
 .debug_frame   0x00001994       0xc0 /tmp/ccGrItoW.ltrans16.ltrans.o
 .debug_frame   0x00001a54      0x258 /tmp/ccGrItoW.ltrans17.ltrans.o
 .debug_frame   0x00001cac      0x450 /tmp/ccGrItoW.ltrans18.ltrans.o
 .debug_frame   0x000020fc      0x18c /tmp/ccGrItoW.ltrans19.ltrans.o
 .debug_frame   0x00002288      0x274 /tmp/ccGrItoW.ltrans20.ltrans.o
 .debug_frame   0x000024fc      0x104 /tmp/ccGrItoW.ltrans21.ltrans.o
 .debug_frame   0x00002600       0xb8 /tmp/ccGrItoW.ltrans22.ltrans.o
 .debug_frame   0x000026b8       0xc0 /tmp/ccGrItoW.ltrans23.ltrans.o
 .debug_frame   0x00002778       0x6c /tmp/ccGrItoW.ltrans24.ltrans.o
 .debug_frame   0x000027e4      0x284 /tmp/ccGrItoW.ltrans25.ltrans.o
 .debug_frame   0x00002a68      0x2c4 /tmp/ccGrItoW.ltrans26.ltrans.o
 .debug_frame   0x00002d2c      0x290 /tmp/ccGrItoW.ltrans27.ltrans.o
 .debug_frame   0x00002fbc      0x190 /tmp/ccGrItoW.ltrans28.ltrans.o
 .debug_frame   0x0000314c       0xb8 /tmp/ccGrItoW.ltrans29.ltrans.o
 .debug_frame   0x00003204      0x17c /tmp/ccGrItoW.ltrans30.ltrans.o
 .debug_frame   0x00003380       0x80 /tmp/ccGrItoW.ltrans31.ltrans.o
 .debug_frame   0x00003400       0x30 /usr/lib/gcc/arm-none-eabi/4.9.3/../../../arm-none-eabi/lib/armv7-m/libc_nano.a(lib_a-atoi.o)
 .debug_frame   0x00003430       0x28 /usr/lib/gcc/arm-none-eabi/4.9.3/../../../arm-none-eabi/lib/armv7-m/libc_nano.a(lib_a-memcpy.o)
 .debug_frame   0x00003458       0x38 /usr/lib/gcc/arm-none-eabi/4.9.3/../../../arm-none-eabi/lib/armv7-m/libc_nano.a(lib_a-strtok.o)
 .debug_frame   0x00003490       0x40 /usr/lib/gcc/arm-none-eabi/4.9.3/../../../arm-none-eabi/lib/armv7-m/libc_nano.a(lib_a-strtok_r.o)
 .debug_frame   0x000034d0       0x54 /usr/lib/gcc/arm-none-eabi/4.9.3/../../../arm-none-eabi/lib/armv7-m/libc_nano.a(lib_a-strtol.o)
 .debug_frame   0x00003524       0x30 /usr/lib/gcc/arm-none-eabi/4.9.3/../../../arm-none-eabi/lib/armv7-m/libc_nano.a(lib_a-malloc.o)
 .debug_frame   0x00003554       0x2c /usr/lib/gcc/arm-none-eabi/4.9.3/../../../arm-none-eabi/lib/armv7-m/libc_nano.a(lib_a-nano-mallocr.o)
 .debug_frame   0x00003580       0x2c /usr/lib/gcc/arm-none-eabi/4.9.3/../../../arm-none-eabi/lib/armv7-m/libc_nano.a(lib_a-sbrkr.o)
 .debug_frame   0x000035ac       0x5c /usr/lib/gcc/arm-none-eabi/4.9.3/../../../arm-none-eabi/lib/armv7-m/libc_nano.a(lib_a-reent.o)
 .debug_frame   0x00003608       0x20 /usr/lib/gcc/arm-none-eabi/4.9.3/../../../arm-none-eabi/lib/armv7-m/libnosys.a(sbrk.o)
 .debug_frame   0x00003628       0x28 /usr/lib/gcc/arm-none-eabi/4.9.3/../../../arm-none-eabi/lib/armv7-m/libm.a(lib_a-sf_log2.o)
 .debug_frame   0x00003650       0x40 /usr/lib/gcc/arm-none-eabi/4.9.3/../../../arm-none-eabi/lib/armv7-m/libm.a(lib_a-sf_lrint.o)
 .debug_frame   0x00003690       0x3c /usr/lib/gcc/arm-none-eabi/4.9.3/../../../arm-none-eabi/lib/armv7-m/libm.a(lib_a-wf_log.o)
 .debug_frame   0x000036cc       0x40 /usr/lib/gcc/arm-none-eabi/4.9.3/../../../arm-none-eabi/lib/armv7-m/libm.a(lib_a-wf_pow.o)
 .debug_frame   0x0000370c       0x3c /usr/lib/gcc/arm-none-eabi/4.9.3/../../../arm-none-eabi/lib/armv7-m/libm.a(lib_a-wf_sqrt.o)
 .debug_frame   0x00003748       0x34 /usr/lib/gcc/arm-none-eabi/4.9.3/../../../arm-none-eabi/lib/armv7-m/libm.a(lib_a-ef_log.o)
 .debug_frame   0x0000377c       0x64 /usr/lib/gcc/arm-none-eabi/4.9.3/../../../arm-none-eabi/lib/armv7-m/libm.a(lib_a-ef_pow.o)
 .debug_frame   0x000037e0       0x2c /usr/lib/gcc/arm-none-eabi/4.9.3/../../../arm-none-eabi/lib/armv7-m/libm.a(lib_a-ef_sqrt.o)
 .debug_frame   0x0000380c       0x20 /usr/lib/gcc/arm-none-eabi/4.9.3/../../../arm-none-eabi/lib/armv7-m/libm.a(lib_a-s_matherr.o)
 .debug_frame   0x0000382c       0x20 /usr/lib/gcc/arm-none-eabi/4.9.3/../../../arm-none-eabi/lib/armv7-m/libm.a(lib_a-s_nan.o)
 .debug_frame   0x0000384c       0x3c /usr/lib/gcc/arm-none-eabi/4.9.3/../../../arm-none-eabi/lib/armv7-m/libm.a(lib_a-s_rint.o)
 .debug_frame   0x00003888       0x20 /usr/lib/gcc/arm-none-eabi/4.9.3/../../../arm-none-eabi/lib/armv7-m/libm.a(lib_a-sf_fabs.o)
 .debug_frame   0x000038a8       0x20 /usr/lib/gcc/arm-none-eabi/4.9.3/../../../arm-none-eabi/lib/armv7-m/libm.a(lib_a-sf_finite.o)
 .debug_frame   0x000038c8       0x20 /usr/lib/gcc/arm-none-eabi/4.9.3/../../../arm-none-eabi/lib/armv7-m/libm.a(lib_a-sf_fpclassify.o)
 .debug_frame   0x000038e8       0x20 /usr/lib/gcc/arm-none-eabi/4.9.3/../../../arm-none-eabi/lib/armv7-m/libm.a(lib_a-sf_nan.o)
 .debug_frame   0x00003908       0x2c /usr/lib/gcc/arm-none-eabi/4.9.3/../../../arm-none-eabi/lib/armv7-m/libm.a(lib_a-sf_scalbn.o)
 .debug_frame   0x00003934       0x20 /usr/lib/gcc/arm-none-eabi/4.9.3/../../../arm-none-eabi/lib/armv7-m/libm.a(lib_a-sf_copysign.o)
 .debug_frame   0x00003954       0x20 /usr/lib/gcc/arm-none-eabi/4.9.3/../../../arm-none-eabi/lib/armv7-m/libc_nano.a(lib_a-errno.o)
 .debug_frame   0x00003974       0x28 /usr/lib/gcc/arm-none-eabi/4.9.3/../../../arm-none-eabi/lib/armv7-m/libc_nano.a(lib_a-memcmp.o)
 .debug_frame   0x0000399c       0x28 /usr/lib/gcc/arm-none-eabi/4.9.3/../../../arm-none-eabi/lib/armv7-m/libc_nano.a(lib_a-memmove.o)
 .debug_frame   0x000039c4       0x20 /usr/lib/gcc/arm-none-eabi/4.9.3/../../../arm-none-eabi/lib/armv7-m/libc_nano.a(lib_a-memset.o)
 .debug_frame   0x000039e4       0x2c /usr/lib/gcc/arm-none-eabi/4.9.3/../../../arm-none-eabi/lib/armv7-m/libc_nano.a(lib_a-strcasecmp.o)
 .debug_frame   0x00003a10       0x28 /usr/lib/gcc/arm-none-eabi/4.9.3/../../../arm-none-eabi/lib/armv7-m/libc_nano.a(lib_a-strcat.o)
 .debug_frame   0x00003a38       0x20 /usr/lib/gcc/arm-none-eabi/4.9.3/../../../arm-none-eabi/lib/armv7-m/libc_nano.a(lib_a-strchr.o)
 .debug_frame   0x00003a58       0x20 /usr/lib/gcc/arm-none-eabi/4.9.3/../../../arm-none-eabi/lib/armv7-m/libc_nano.a(lib_a-strlen.o)
 .debug_frame   0x00003a78       0x2c /usr/lib/gcc/arm-none-eabi/4.9.3/../../../arm-none-eabi/lib/armv7-m/libc_nano.a(lib_a-strncasecmp.o)
 .debug_frame   0x00003aa4       0x28 /usr/lib/gcc/arm-none-eabi/4.9.3/../../../arm-none-eabi/lib/armv7-m/libc_nano.a(lib_a-strncpy.o)
 .debug_frame   0x00003acc       0x2c /usr/lib/gcc/arm-none-eabi/4.9.3/../../../arm-none-eabi/lib/armv7-m/libc_nano.a(lib_a-strstr.o)
 .debug_frame   0x00003af8       0x28 /usr/lib/gcc/arm-none-eabi/4.9.3/armv7-m/libgcc.a(_aeabi_ldivmod.o)
 .debug_frame   0x00003b20       0x20 /usr/lib/gcc/arm-none-eabi/4.9.3/armv7-m/libgcc.a(_popcountsi2.o)
 .debug_frame   0x00003b40       0x54 /usr/lib/gcc/arm-none-eabi/4.9.3/armv7-m/libgcc.a(bpabi.o)
 .debug_frame   0x00003b94       0x34 /usr/lib/gcc/arm-none-eabi/4.9.3/armv7-m/libgcc.a(_divdi3.o)
 .debug_frame   0x00003bc8       0x34 /usr/lib/gcc/arm-none-eabi/4.9.3/armv7-m/libgcc.a(_udivdi3.o)

Cross Reference Table

Symbol                                            File
ADC1_2_IRQHandler                                 obj/main/NAZE/startup_stm32f10x_md_gcc.o
ADC_AnalogWatchdogCmd                             obj/main/NAZE/stm32f10x_adc.o (symbol from plugin)
ADC_AnalogWatchdogSingleChannelConfig             obj/main/NAZE/stm32f10x_adc.o (symbol from plugin)
ADC_AnalogWatchdogThresholdsConfig                obj/main/NAZE/stm32f10x_adc.o (symbol from plugin)
ADC_AutoInjectedConvCmd                           obj/main/NAZE/stm32f10x_adc.o (symbol from plugin)
ADC_ClearFlag                                     obj/main/NAZE/stm32f10x_adc.o (symbol from plugin)
ADC_ClearITPendingBit                             obj/main/NAZE/stm32f10x_adc.o (symbol from plugin)
ADC_Cmd                                           obj/main/NAZE/stm32f10x_adc.o (symbol from plugin)
                                                  obj/main/NAZE/drivers/adc_stm32f10x.o (symbol from plugin)
ADC_DMACmd                                        obj/main/NAZE/stm32f10x_adc.o (symbol from plugin)
                                                  obj/main/NAZE/drivers/adc_stm32f10x.o (symbol from plugin)
ADC_DeInit                                        obj/main/NAZE/stm32f10x_adc.o (symbol from plugin)
ADC_DiscModeChannelCountConfig                    obj/main/NAZE/stm32f10x_adc.o (symbol from plugin)
ADC_DiscModeCmd                                   obj/main/NAZE/stm32f10x_adc.o (symbol from plugin)
ADC_ExternalTrigConvCmd                           obj/main/NAZE/stm32f10x_adc.o (symbol from plugin)
ADC_ExternalTrigInjectedConvCmd                   obj/main/NAZE/stm32f10x_adc.o (symbol from plugin)
ADC_ExternalTrigInjectedConvConfig                obj/main/NAZE/stm32f10x_adc.o (symbol from plugin)
ADC_GetCalibrationStatus                          obj/main/NAZE/stm32f10x_adc.o (symbol from plugin)
                                                  obj/main/NAZE/drivers/adc_stm32f10x.o (symbol from plugin)
ADC_GetConversionValue                            obj/main/NAZE/stm32f10x_adc.o (symbol from plugin)
ADC_GetDualModeConversionValue                    obj/main/NAZE/stm32f10x_adc.o (symbol from plugin)
ADC_GetFlagStatus                                 obj/main/NAZE/stm32f10x_adc.o (symbol from plugin)
ADC_GetITStatus                                   obj/main/NAZE/stm32f10x_adc.o (symbol from plugin)
ADC_GetInjectedConversionValue                    obj/main/NAZE/stm32f10x_adc.o (symbol from plugin)
ADC_GetResetCalibrationStatus                     obj/main/NAZE/stm32f10x_adc.o (symbol from plugin)
                                                  obj/main/NAZE/drivers/adc_stm32f10x.o (symbol from plugin)
ADC_GetSoftwareStartConvStatus                    obj/main/NAZE/stm32f10x_adc.o (symbol from plugin)
ADC_GetSoftwareStartInjectedConvCmdStatus         obj/main/NAZE/stm32f10x_adc.o (symbol from plugin)
ADC_ITConfig                                      obj/main/NAZE/stm32f10x_adc.o (symbol from plugin)
ADC_Init                                          obj/main/NAZE/stm32f10x_adc.o (symbol from plugin)
                                                  obj/main/NAZE/drivers/adc_stm32f10x.o (symbol from plugin)
ADC_InjectedChannelConfig                         obj/main/NAZE/stm32f10x_adc.o (symbol from plugin)
ADC_InjectedDiscModeCmd                           obj/main/NAZE/stm32f10x_adc.o (symbol from plugin)
ADC_InjectedSequencerLengthConfig                 obj/main/NAZE/stm32f10x_adc.o (symbol from plugin)
ADC_RegularChannelConfig                          obj/main/NAZE/stm32f10x_adc.o (symbol from plugin)
                                                  obj/main/NAZE/drivers/adc_stm32f10x.o (symbol from plugin)
ADC_ResetCalibration                              obj/main/NAZE/stm32f10x_adc.o (symbol from plugin)
                                                  obj/main/NAZE/drivers/adc_stm32f10x.o (symbol from plugin)
ADC_SetInjectedOffset                             obj/main/NAZE/stm32f10x_adc.o (symbol from plugin)
ADC_SoftwareStartConvCmd                          obj/main/NAZE/stm32f10x_adc.o (symbol from plugin)
                                                  obj/main/NAZE/drivers/adc_stm32f10x.o (symbol from plugin)
ADC_SoftwareStartInjectedConvCmd                  obj/main/NAZE/stm32f10x_adc.o (symbol from plugin)
ADC_StartCalibration                              obj/main/NAZE/stm32f10x_adc.o (symbol from plugin)
                                                  obj/main/NAZE/drivers/adc_stm32f10x.o (symbol from plugin)
ADC_StructInit                                    obj/main/NAZE/stm32f10x_adc.o (symbol from plugin)
                                                  obj/main/NAZE/drivers/adc_stm32f10x.o (symbol from plugin)
ADC_TempSensorVrefintCmd                          obj/main/NAZE/stm32f10x_adc.o (symbol from plugin)
AccInflightCalibrationActive                      /tmp/ccGrItoW.ltrans4.ltrans.o
                                                  obj/main/NAZE/fc/cleanflight_fc.o (symbol from plugin)
                                                  /tmp/ccGrItoW.ltrans24.ltrans.o
                                                  obj/main/NAZE/sensors/acceleration.o (symbol from plugin)
AccInflightCalibrationArmed                       obj/main/NAZE/fc/cleanflight_fc.o (symbol from plugin)
AccInflightCalibrationMeasurementDone             /tmp/ccGrItoW.ltrans4.ltrans.o
                                                  obj/main/NAZE/fc/cleanflight_fc.o (symbol from plugin)
                                                  /tmp/ccGrItoW.ltrans24.ltrans.o
                                                  obj/main/NAZE/sensors/acceleration.o (symbol from plugin)
AccInflightCalibrationSavetoEEProm                /tmp/ccGrItoW.ltrans4.ltrans.o
                                                  obj/main/NAZE/fc/cleanflight_fc.o (symbol from plugin)
                                                  /tmp/ccGrItoW.ltrans24.ltrans.o
                                                  obj/main/NAZE/sensors/acceleration.o (symbol from plugin)
AltHold                                           /tmp/ccGrItoW.ltrans1.ltrans.o
                                                  obj/main/NAZE/flight/altitudehold.o (symbol from plugin)
                                                  /tmp/ccGrItoW.ltrans16.ltrans.o
                                                  /tmp/ccGrItoW.ltrans4.ltrans.o
                                                  /tmp/ccGrItoW.ltrans2.ltrans.o
                                                  obj/main/NAZE/fc/msp_server_fc.o (symbol from plugin)
BKP_ClearFlag                                     obj/main/NAZE/stm32f10x_bkp.o (symbol from plugin)
BKP_ClearITPendingBit                             obj/main/NAZE/stm32f10x_bkp.o (symbol from plugin)
BKP_DeInit                                        obj/main/NAZE/stm32f10x_bkp.o (symbol from plugin)
BKP_GetFlagStatus                                 obj/main/NAZE/stm32f10x_bkp.o (symbol from plugin)
BKP_GetITStatus                                   obj/main/NAZE/stm32f10x_bkp.o (symbol from plugin)
BKP_ITConfig                                      obj/main/NAZE/stm32f10x_bkp.o (symbol from plugin)
BKP_RTCOutputConfig                               obj/main/NAZE/stm32f10x_bkp.o (symbol from plugin)
BKP_ReadBackupRegister                            obj/main/NAZE/stm32f10x_bkp.o (symbol from plugin)
BKP_SetRTCCalibrationValue                        obj/main/NAZE/stm32f10x_bkp.o (symbol from plugin)
BKP_TamperPinCmd                                  obj/main/NAZE/stm32f10x_bkp.o (symbol from plugin)
BKP_TamperPinLevelConfig                          obj/main/NAZE/stm32f10x_bkp.o (symbol from plugin)
BKP_WriteBackupRegister                           obj/main/NAZE/stm32f10x_bkp.o (symbol from plugin)
BL_ConnectEx                                      obj/main/NAZE/io/serial_4way_avrootloader.o (symbol from plugin)
                                                  obj/main/NAZE/io/serial_4way.o (symbol from plugin)
BL_GetACK.lto_priv.273                            /tmp/ccGrItoW.ltrans28.ltrans.o
                                                  /tmp/ccGrItoW.ltrans19.ltrans.o
BL_PageErase                                      obj/main/NAZE/io/serial_4way_avrootloader.o (symbol from plugin)
                                                  obj/main/NAZE/io/serial_4way.o (symbol from plugin)
BL_ReadA.lto_priv.270                             /tmp/ccGrItoW.ltrans28.ltrans.o
                                                  /tmp/ccGrItoW.ltrans19.ltrans.o
BL_ReadEEprom                                     obj/main/NAZE/io/serial_4way_avrootloader.o (symbol from plugin)
                                                  obj/main/NAZE/io/serial_4way.o (symbol from plugin)
BL_ReadFlashATM                                   obj/main/NAZE/io/serial_4way_avrootloader.o (symbol from plugin)
                                                  obj/main/NAZE/io/serial_4way.o (symbol from plugin)
BL_ReadFlashSIL                                   obj/main/NAZE/io/serial_4way_avrootloader.o (symbol from plugin)
                                                  obj/main/NAZE/io/serial_4way.o (symbol from plugin)
BL_SendBuf.lto_priv.272                           /tmp/ccGrItoW.ltrans28.ltrans.o
                                                  /tmp/ccGrItoW.ltrans19.ltrans.o
BL_SendCMDKeepAlive                               obj/main/NAZE/io/serial_4way_avrootloader.o (symbol from plugin)
                                                  obj/main/NAZE/io/serial_4way.o (symbol from plugin)
BL_SendCMDRunRestartBootloader                    obj/main/NAZE/io/serial_4way_avrootloader.o (symbol from plugin)
                                                  obj/main/NAZE/io/serial_4way.o (symbol from plugin)
BL_SendCMDSetAddress.isra.1.lto_priv.271          /tmp/ccGrItoW.ltrans28.ltrans.o
                                                  /tmp/ccGrItoW.ltrans19.ltrans.o
BL_WriteA.lto_priv.268                            /tmp/ccGrItoW.ltrans28.ltrans.o
                                                  /tmp/ccGrItoW.ltrans19.ltrans.o
BL_WriteEEprom                                    obj/main/NAZE/io/serial_4way_avrootloader.o (symbol from plugin)
                                                  obj/main/NAZE/io/serial_4way.o (symbol from plugin)
BL_WriteFlash                                     obj/main/NAZE/io/serial_4way_avrootloader.o (symbol from plugin)
                                                  obj/main/NAZE/io/serial_4way.o (symbol from plugin)
BaroAlt                                           /tmp/ccGrItoW.ltrans3.ltrans.o
                                                  obj/main/NAZE/sensors/barometer.o (symbol from plugin)
                                                  /tmp/ccGrItoW.ltrans16.ltrans.o
                                                  /tmp/ccGrItoW.ltrans12.ltrans.o
                                                  obj/main/NAZE/flight/altitudehold.o (symbol from plugin)
                                                  obj/main/NAZE/blackbox/blackbox.o (symbol from plugin)
                                                  obj/main/NAZE/telemetry/smartport.o (symbol from plugin)
                                                  obj/main/NAZE/telemetry/frsky.o (symbol from plugin)
BusFault_Handler                                  obj/main/NAZE/startup_stm32f10x_md_gcc.o
CAN1_RX1_IRQHandler                               obj/main/NAZE/startup_stm32f10x_md_gcc.o
CAN1_SCE_IRQHandler                               obj/main/NAZE/startup_stm32f10x_md_gcc.o
CHAR_FORMAT                                       obj/main/NAZE/drivers/display_ug2864hsweg01.o (symbol from plugin)
DAC_Cmd                                           obj/main/NAZE/stm32f10x_dac.o (symbol from plugin)
DAC_DMACmd                                        obj/main/NAZE/stm32f10x_dac.o (symbol from plugin)
DAC_DeInit                                        obj/main/NAZE/stm32f10x_dac.o (symbol from plugin)
DAC_DualSoftwareTriggerCmd                        obj/main/NAZE/stm32f10x_dac.o (symbol from plugin)
DAC_GetDataOutputValue                            obj/main/NAZE/stm32f10x_dac.o (symbol from plugin)
DAC_Init                                          obj/main/NAZE/stm32f10x_dac.o (symbol from plugin)
DAC_SetChannel1Data                               obj/main/NAZE/stm32f10x_dac.o (symbol from plugin)
DAC_SetChannel2Data                               obj/main/NAZE/stm32f10x_dac.o (symbol from plugin)
DAC_SetDualChannelData                            obj/main/NAZE/stm32f10x_dac.o (symbol from plugin)
DAC_SoftwareTriggerCmd                            obj/main/NAZE/stm32f10x_dac.o (symbol from plugin)
DAC_StructInit                                    obj/main/NAZE/stm32f10x_dac.o (symbol from plugin)
DAC_WaveGenerationCmd                             obj/main/NAZE/stm32f10x_dac.o (symbol from plugin)
DBGMCU_Config                                     obj/main/NAZE/stm32f10x_dbgmcu.o (symbol from plugin)
DBGMCU_GetDEVID                                   obj/main/NAZE/stm32f10x_dbgmcu.o (symbol from plugin)
DBGMCU_GetREVID                                   obj/main/NAZE/stm32f10x_dbgmcu.o (symbol from plugin)
DMA1_Channel1_IRQHandler                          /tmp/ccGrItoW.ltrans18.ltrans.o
                                                  obj/main/NAZE/drivers/dma.o (symbol from plugin)
                                                  obj/main/NAZE/startup_stm32f10x_md_gcc.o
DMA1_Channel2_IRQHandler                          /tmp/ccGrItoW.ltrans18.ltrans.o
                                                  obj/main/NAZE/drivers/dma.o (symbol from plugin)
                                                  obj/main/NAZE/startup_stm32f10x_md_gcc.o
DMA1_Channel3_IRQHandler                          /tmp/ccGrItoW.ltrans18.ltrans.o
                                                  obj/main/NAZE/drivers/dma.o (symbol from plugin)
                                                  obj/main/NAZE/startup_stm32f10x_md_gcc.o
DMA1_Channel4_IRQHandler                          /tmp/ccGrItoW.ltrans18.ltrans.o
                                                  obj/main/NAZE/drivers/dma.o (symbol from plugin)
                                                  obj/main/NAZE/startup_stm32f10x_md_gcc.o
DMA1_Channel5_IRQHandler                          /tmp/ccGrItoW.ltrans18.ltrans.o
                                                  obj/main/NAZE/drivers/dma.o (symbol from plugin)
                                                  obj/main/NAZE/startup_stm32f10x_md_gcc.o
DMA1_Channel6_IRQHandler                          /tmp/ccGrItoW.ltrans18.ltrans.o
                                                  obj/main/NAZE/drivers/dma.o (symbol from plugin)
                                                  obj/main/NAZE/startup_stm32f10x_md_gcc.o
DMA1_Channel7_IRQHandler                          /tmp/ccGrItoW.ltrans18.ltrans.o
                                                  obj/main/NAZE/drivers/dma.o (symbol from plugin)
                                                  obj/main/NAZE/startup_stm32f10x_md_gcc.o
DMA_ClearFlag                                     obj/main/NAZE/stm32f10x_dma.o (symbol from plugin)
DMA_ClearITPendingBit                             obj/main/NAZE/stm32f10x_dma.o (symbol from plugin)
DMA_Cmd                                           obj/main/NAZE/stm32f10x_dma.o (symbol from plugin)
                                                  obj/main/NAZE/drivers/light_ws2811strip_stm32f10x.o (symbol from plugin)
                                                  obj/main/NAZE/drivers/light_ws2811strip.o (symbol from plugin)
                                                  obj/main/NAZE/drivers/serial_uart_stm32f10x.o (symbol from plugin)
                                                  obj/main/NAZE/drivers/serial_uart.o (symbol from plugin)
                                                  obj/main/NAZE/drivers/adc_stm32f10x.o (symbol from plugin)
DMA_DeInit                                        /tmp/ccGrItoW.ltrans31.ltrans.o
                                                  obj/main/NAZE/stm32f10x_dma.o (symbol from plugin)
                                                  /tmp/ccGrItoW.ltrans5.ltrans.o
                                                  /tmp/ccGrItoW.ltrans0.ltrans.o
                                                  obj/main/NAZE/drivers/light_ws2811strip_stm32f10x.o (symbol from plugin)
                                                  obj/main/NAZE/drivers/serial_uart.o (symbol from plugin)
                                                  obj/main/NAZE/drivers/adc_stm32f10x.o (symbol from plugin)
DMA_GetCurrDataCounter                            obj/main/NAZE/stm32f10x_dma.o (symbol from plugin)
                                                  obj/main/NAZE/drivers/serial_uart.o (symbol from plugin)
DMA_GetFlagStatus                                 obj/main/NAZE/stm32f10x_dma.o (symbol from plugin)
DMA_GetITStatus                                   obj/main/NAZE/stm32f10x_dma.o (symbol from plugin)
DMA_IRQHandler                                    obj/main/NAZE/drivers/dma.o (symbol from plugin)
DMA_ITConfig                                      obj/main/NAZE/stm32f10x_dma.o (symbol from plugin)
                                                  obj/main/NAZE/drivers/light_ws2811strip_stm32f10x.o (symbol from plugin)
                                                  obj/main/NAZE/drivers/serial_uart.o (symbol from plugin)
DMA_Init                                          /tmp/ccGrItoW.ltrans31.ltrans.o
                                                  obj/main/NAZE/stm32f10x_dma.o (symbol from plugin)
                                                  /tmp/ccGrItoW.ltrans5.ltrans.o
                                                  /tmp/ccGrItoW.ltrans0.ltrans.o
                                                  obj/main/NAZE/drivers/light_ws2811strip_stm32f10x.o (symbol from plugin)
                                                  obj/main/NAZE/drivers/serial_uart.o (symbol from plugin)
                                                  obj/main/NAZE/drivers/adc_stm32f10x.o (symbol from plugin)
DMA_SetCurrDataCounter                            obj/main/NAZE/stm32f10x_dma.o (symbol from plugin)
                                                  obj/main/NAZE/drivers/light_ws2811strip_stm32f10x.o (symbol from plugin)
                                                  obj/main/NAZE/drivers/serial_uart.o (symbol from plugin)
DMA_StructInit                                    /tmp/ccGrItoW.ltrans31.ltrans.o
                                                  obj/main/NAZE/stm32f10x_dma.o (symbol from plugin)
                                                  /tmp/ccGrItoW.ltrans5.ltrans.o
                                                  /tmp/ccGrItoW.ltrans0.ltrans.o
                                                  obj/main/NAZE/drivers/light_ws2811strip_stm32f10x.o (symbol from plugin)
                                                  obj/main/NAZE/drivers/serial_uart.o (symbol from plugin)
                                                  obj/main/NAZE/drivers/adc_stm32f10x.o (symbol from plugin)
DebugMon_Handler                                  obj/main/NAZE/startup_stm32f10x_md_gcc.o
Default_Handler                                   obj/main/NAZE/startup_stm32f10x_md_gcc.o
EXTI0_IRQHandler                                  /tmp/ccGrItoW.ltrans19.ltrans.o
                                                  obj/main/NAZE/drivers/exti.o (symbol from plugin)
                                                  obj/main/NAZE/startup_stm32f10x_md_gcc.o
EXTI15_10_IRQHandler                              /tmp/ccGrItoW.ltrans19.ltrans.o
                                                  obj/main/NAZE/drivers/exti.o (symbol from plugin)
                                                  obj/main/NAZE/startup_stm32f10x_md_gcc.o
EXTI1_IRQHandler                                  /tmp/ccGrItoW.ltrans19.ltrans.o
                                                  obj/main/NAZE/drivers/exti.o (symbol from plugin)
                                                  obj/main/NAZE/startup_stm32f10x_md_gcc.o
EXTI2_IRQHandler                                  /tmp/ccGrItoW.ltrans19.ltrans.o
                                                  obj/main/NAZE/drivers/exti.o (symbol from plugin)
                                                  obj/main/NAZE/startup_stm32f10x_md_gcc.o
EXTI3_IRQHandler                                  /tmp/ccGrItoW.ltrans19.ltrans.o
                                                  obj/main/NAZE/drivers/exti.o (symbol from plugin)
                                                  obj/main/NAZE/startup_stm32f10x_md_gcc.o
EXTI4_IRQHandler                                  /tmp/ccGrItoW.ltrans19.ltrans.o
                                                  obj/main/NAZE/drivers/exti.o (symbol from plugin)
                                                  obj/main/NAZE/startup_stm32f10x_md_gcc.o
EXTI9_5_IRQHandler                                /tmp/ccGrItoW.ltrans19.ltrans.o
                                                  obj/main/NAZE/drivers/exti.o (symbol from plugin)
                                                  obj/main/NAZE/startup_stm32f10x_md_gcc.o
EXTIConfig                                        /tmp/ccGrItoW.ltrans9.ltrans.o
                                                  obj/main/NAZE/drivers/exti.o (symbol from plugin)
                                                  /tmp/ccGrItoW.ltrans26.ltrans.o
                                                  /tmp/ccGrItoW.ltrans13.ltrans.o
                                                  /tmp/ccGrItoW.ltrans6.ltrans.o
                                                  /tmp/ccGrItoW.ltrans0.ltrans.o
                                                  obj/main/NAZE/drivers/sonar_hcsr04.o (symbol from plugin)
                                                  obj/main/NAZE/drivers/compass_hmc5883l.o (symbol from plugin)
                                                  obj/main/NAZE/drivers/barometer_bmp085.o (symbol from plugin)
                                                  obj/main/NAZE/drivers/accgyro_mpu.o (symbol from plugin)
EXTIEnable                                        /tmp/ccGrItoW.ltrans9.ltrans.o
                                                  obj/main/NAZE/drivers/exti.o (symbol from plugin)
                                                  /tmp/ccGrItoW.ltrans26.ltrans.o
                                                  /tmp/ccGrItoW.ltrans13.ltrans.o
                                                  /tmp/ccGrItoW.ltrans6.ltrans.o
                                                  /tmp/ccGrItoW.ltrans0.ltrans.o
                                                  obj/main/NAZE/drivers/sonar_hcsr04.o (symbol from plugin)
                                                  obj/main/NAZE/drivers/compass_hmc5883l.o (symbol from plugin)
                                                  obj/main/NAZE/drivers/barometer_bmp085.o (symbol from plugin)
                                                  obj/main/NAZE/drivers/accgyro_mpu.o (symbol from plugin)
EXTIHandlerInit                                   obj/main/NAZE/drivers/exti.o (symbol from plugin)
                                                  obj/main/NAZE/drivers/sonar_hcsr04.o (symbol from plugin)
                                                  obj/main/NAZE/drivers/compass_hmc5883l.o (symbol from plugin)
                                                  obj/main/NAZE/drivers/barometer_bmp085.o (symbol from plugin)
                                                  obj/main/NAZE/drivers/accgyro_mpu.o (symbol from plugin)
EXTIInit                                          obj/main/NAZE/drivers/exti.o (symbol from plugin)
                                                  obj/main/NAZE/fc/boot.o (symbol from plugin)
EXTIRelease                                       obj/main/NAZE/drivers/exti.o (symbol from plugin)
                                                  obj/main/NAZE/drivers/barometer_bmp085.o (symbol from plugin)
EXTI_ClearFlag                                    obj/main/NAZE/stm32f10x_exti.o (symbol from plugin)
EXTI_ClearITPendingBit                            obj/main/NAZE/stm32f10x_exti.o (symbol from plugin)
                                                  obj/main/NAZE/drivers/exti.o (symbol from plugin)
EXTI_DeInit                                       obj/main/NAZE/stm32f10x_exti.o (symbol from plugin)
EXTI_GenerateSWInterrupt                          obj/main/NAZE/stm32f10x_exti.o (symbol from plugin)
EXTI_GetFlagStatus                                obj/main/NAZE/stm32f10x_exti.o (symbol from plugin)
EXTI_GetITStatus                                  obj/main/NAZE/stm32f10x_exti.o (symbol from plugin)
EXTI_IRQHandler                                   /tmp/ccGrItoW.ltrans9.ltrans.o
                                                  obj/main/NAZE/drivers/exti.o (symbol from plugin)
                                                  /tmp/ccGrItoW.ltrans19.ltrans.o
EXTI_Init                                         obj/main/NAZE/stm32f10x_exti.o (symbol from plugin)
                                                  obj/main/NAZE/drivers/exti.o (symbol from plugin)
EXTI_StructInit                                   obj/main/NAZE/stm32f10x_exti.o (symbol from plugin)
EstAlt.lto_priv.304                               /tmp/ccGrItoW.ltrans1.ltrans.o
                                                  /tmp/ccGrItoW.ltrans16.ltrans.o
                                                  /tmp/ccGrItoW.ltrans4.ltrans.o
                                                  /tmp/ccGrItoW.ltrans3.ltrans.o
                                                  /tmp/ccGrItoW.ltrans2.ltrans.o
FLASH_ClearFlag                                   obj/main/NAZE/stm32f10x_flash.o (symbol from plugin)
                                                  obj/main/NAZE/config/config_streamer.o (symbol from plugin)
FLASH_EnableWriteProtection                       obj/main/NAZE/stm32f10x_flash.o (symbol from plugin)
FLASH_EraseAllBank1Pages                          obj/main/NAZE/stm32f10x_flash.o (symbol from plugin)
FLASH_EraseAllPages                               obj/main/NAZE/stm32f10x_flash.o (symbol from plugin)
FLASH_EraseOptionBytes                            obj/main/NAZE/stm32f10x_flash.o (symbol from plugin)
FLASH_ErasePage                                   obj/main/NAZE/stm32f10x_flash.o (symbol from plugin)
                                                  obj/main/NAZE/config/config_streamer.o (symbol from plugin)
FLASH_GetBank1Status                              /tmp/ccGrItoW.ltrans31.ltrans.o
                                                  obj/main/NAZE/stm32f10x_flash.o (symbol from plugin)
                                                  /tmp/ccGrItoW.ltrans20.ltrans.o
FLASH_GetFlagStatus                               obj/main/NAZE/stm32f10x_flash.o (symbol from plugin)
FLASH_GetPrefetchBufferStatus                     obj/main/NAZE/stm32f10x_flash.o (symbol from plugin)
FLASH_GetReadOutProtectionStatus                  obj/main/NAZE/stm32f10x_flash.o (symbol from plugin)
FLASH_GetStatus                                   obj/main/NAZE/stm32f10x_flash.o (symbol from plugin)
FLASH_GetUserOptionByte                           obj/main/NAZE/stm32f10x_flash.o (symbol from plugin)
FLASH_GetWriteProtectionOptionByte                obj/main/NAZE/stm32f10x_flash.o (symbol from plugin)
FLASH_HalfCycleAccessCmd                          obj/main/NAZE/stm32f10x_flash.o (symbol from plugin)
FLASH_IRQHandler                                  obj/main/NAZE/startup_stm32f10x_md_gcc.o
FLASH_ITConfig                                    obj/main/NAZE/stm32f10x_flash.o (symbol from plugin)
FLASH_Lock                                        obj/main/NAZE/stm32f10x_flash.o (symbol from plugin)
                                                  obj/main/NAZE/config/config_streamer.o (symbol from plugin)
FLASH_LockBank1                                   obj/main/NAZE/stm32f10x_flash.o (symbol from plugin)
FLASH_PrefetchBufferCmd                           obj/main/NAZE/stm32f10x_flash.o (symbol from plugin)
FLASH_ProgramHalfWord                             obj/main/NAZE/stm32f10x_flash.o (symbol from plugin)
FLASH_ProgramOptionByteData                       obj/main/NAZE/stm32f10x_flash.o (symbol from plugin)
FLASH_ProgramWord                                 obj/main/NAZE/stm32f10x_flash.o (symbol from plugin)
                                                  obj/main/NAZE/config/config_streamer.o (symbol from plugin)
FLASH_ReadOutProtection                           obj/main/NAZE/stm32f10x_flash.o (symbol from plugin)
FLASH_SetLatency                                  obj/main/NAZE/stm32f10x_flash.o (symbol from plugin)
FLASH_Unlock                                      obj/main/NAZE/stm32f10x_flash.o (symbol from plugin)
                                                  obj/main/NAZE/config/config_streamer.o (symbol from plugin)
FLASH_UnlockBank1                                 obj/main/NAZE/stm32f10x_flash.o (symbol from plugin)
FLASH_UserOptionByteConfig                        obj/main/NAZE/stm32f10x_flash.o (symbol from plugin)
FLASH_WaitForLastBank1Operation                   obj/main/NAZE/stm32f10x_flash.o (symbol from plugin)
FLASH_WaitForLastOperation                        /tmp/ccGrItoW.ltrans20.ltrans.o
                                                  obj/main/NAZE/stm32f10x_flash.o (symbol from plugin)
                                                  /tmp/ccGrItoW.ltrans25.ltrans.o
FSMC_ClearFlag                                    obj/main/NAZE/stm32f10x_fsmc.o (symbol from plugin)
FSMC_ClearITPendingBit                            obj/main/NAZE/stm32f10x_fsmc.o (symbol from plugin)
FSMC_GetECC                                       obj/main/NAZE/stm32f10x_fsmc.o (symbol from plugin)
FSMC_GetFlagStatus                                obj/main/NAZE/stm32f10x_fsmc.o (symbol from plugin)
FSMC_GetITStatus                                  obj/main/NAZE/stm32f10x_fsmc.o (symbol from plugin)
FSMC_ITConfig                                     obj/main/NAZE/stm32f10x_fsmc.o (symbol from plugin)
FSMC_NANDCmd                                      obj/main/NAZE/stm32f10x_fsmc.o (symbol from plugin)
FSMC_NANDDeInit                                   obj/main/NAZE/stm32f10x_fsmc.o (symbol from plugin)
FSMC_NANDECCCmd                                   obj/main/NAZE/stm32f10x_fsmc.o (symbol from plugin)
FSMC_NANDInit                                     obj/main/NAZE/stm32f10x_fsmc.o (symbol from plugin)
FSMC_NANDStructInit                               obj/main/NAZE/stm32f10x_fsmc.o (symbol from plugin)
FSMC_NORSRAMCmd                                   obj/main/NAZE/stm32f10x_fsmc.o (symbol from plugin)
FSMC_NORSRAMDeInit                                obj/main/NAZE/stm32f10x_fsmc.o (symbol from plugin)
FSMC_NORSRAMInit                                  obj/main/NAZE/stm32f10x_fsmc.o (symbol from plugin)
FSMC_NORSRAMStructInit                            obj/main/NAZE/stm32f10x_fsmc.o (symbol from plugin)
FSMC_PCCARDCmd                                    obj/main/NAZE/stm32f10x_fsmc.o (symbol from plugin)
FSMC_PCCARDDeInit                                 obj/main/NAZE/stm32f10x_fsmc.o (symbol from plugin)
FSMC_PCCARDInit                                   obj/main/NAZE/stm32f10x_fsmc.o (symbol from plugin)
FSMC_PCCARDStructInit                             obj/main/NAZE/stm32f10x_fsmc.o (symbol from plugin)
GPIO_AFIODeInit                                   obj/main/NAZE/stm32f10x_gpio.o (symbol from plugin)
GPIO_DeInit                                       obj/main/NAZE/stm32f10x_gpio.o (symbol from plugin)
GPIO_ETH_MediaInterfaceConfig                     obj/main/NAZE/stm32f10x_gpio.o (symbol from plugin)
GPIO_EXTILineConfig                               obj/main/NAZE/stm32f10x_gpio.o (symbol from plugin)
                                                  obj/main/NAZE/drivers/exti.o (symbol from plugin)
GPIO_EventOutputCmd                               obj/main/NAZE/stm32f10x_gpio.o (symbol from plugin)
GPIO_EventOutputConfig                            obj/main/NAZE/stm32f10x_gpio.o (symbol from plugin)
GPIO_Init                                         /tmp/ccGrItoW.ltrans20.ltrans.o
                                                  obj/main/NAZE/stm32f10x_gpio.o (symbol from plugin)
                                                  /tmp/ccGrItoW.ltrans0.ltrans.o
                                                  obj/main/NAZE/drivers/io.o (symbol from plugin)
                                                  obj/main/NAZE/drivers/light_ws2811strip_stm32f10x.o (symbol from plugin)
                                                  obj/main/NAZE/drivers/adc_stm32f10x.o (symbol from plugin)
GPIO_PinLockConfig                                obj/main/NAZE/stm32f10x_gpio.o (symbol from plugin)
GPIO_PinRemapConfig                               obj/main/NAZE/stm32f10x_gpio.o (symbol from plugin)
GPIO_ReadInputData                                obj/main/NAZE/stm32f10x_gpio.o (symbol from plugin)
GPIO_ReadInputDataBit                             obj/main/NAZE/stm32f10x_gpio.o (symbol from plugin)
                                                  obj/main/NAZE/drivers/barometer_bmp085.o (symbol from plugin)
GPIO_ReadOutputData                               obj/main/NAZE/stm32f10x_gpio.o (symbol from plugin)
GPIO_ReadOutputDataBit                            obj/main/NAZE/stm32f10x_gpio.o (symbol from plugin)
GPIO_ResetBits                                    obj/main/NAZE/stm32f10x_gpio.o (symbol from plugin)
                                                  obj/main/NAZE/hardware_revision.o (symbol from plugin)
                                                  obj/main/NAZE/drivers/flash_m25p16.o (symbol from plugin)
                                                  obj/main/NAZE/drivers/accgyro_spi_mpu6500.o (symbol from plugin)
GPIO_SetBits                                      obj/main/NAZE/stm32f10x_gpio.o (symbol from plugin)
                                                  obj/main/NAZE/hardware_revision.o (symbol from plugin)
                                                  obj/main/NAZE/drivers/flash_m25p16.o (symbol from plugin)
                                                  obj/main/NAZE/drivers/bus_spi.o (symbol from plugin)
                                                  obj/main/NAZE/drivers/accgyro_spi_mpu6500.o (symbol from plugin)
GPIO_StructInit                                   obj/main/NAZE/stm32f10x_gpio.o (symbol from plugin)
                                                  obj/main/NAZE/drivers/light_ws2811strip_stm32f10x.o (symbol from plugin)
                                                  obj/main/NAZE/drivers/adc_stm32f10x.o (symbol from plugin)
GPIO_Write                                        obj/main/NAZE/stm32f10x_gpio.o (symbol from plugin)
GPIO_WriteBit                                     obj/main/NAZE/stm32f10x_gpio.o (symbol from plugin)
GPS_WP.lto_priv.529                               /tmp/ccGrItoW.ltrans22.ltrans.o
                                                  /tmp/ccGrItoW.ltrans14.ltrans.o
GPS_altitude                                      /tmp/ccGrItoW.ltrans1.ltrans.o
                                                  obj/main/NAZE/io/gps.o (symbol from plugin)
                                                  /tmp/ccGrItoW.ltrans14.ltrans.o
                                                  /tmp/ccGrItoW.ltrans12.ltrans.o
                                                  /tmp/ccGrItoW.ltrans3.ltrans.o
                                                  obj/main/NAZE/fc/msp_server_fc.o (symbol from plugin)
                                                  obj/main/NAZE/blackbox/blackbox.o (symbol from plugin)
                                                  obj/main/NAZE/telemetry/mavlink.o (symbol from plugin)
                                                  obj/main/NAZE/telemetry/ltm.o (symbol from plugin)
                                                  obj/main/NAZE/telemetry/smartport.o (symbol from plugin)
                                                  obj/main/NAZE/telemetry/hott.o (symbol from plugin)
                                                  obj/main/NAZE/telemetry/frsky.o (symbol from plugin)
GPS_angle                                         /tmp/ccGrItoW.ltrans9.ltrans.o
                                                  obj/main/NAZE/flight/navigation.o (symbol from plugin)
                                                  /tmp/ccGrItoW.ltrans4.ltrans.o
                                                  /tmp/ccGrItoW.ltrans2.ltrans.o
                                                  obj/main/NAZE/flight/pid_mw23.o (symbol from plugin)
                                                  obj/main/NAZE/flight/pid_mwrewrite.o (symbol from plugin)
                                                  obj/main/NAZE/flight/pid_luxfloat.o (symbol from plugin)
GPS_calculateDistanceAndDirectionToHome           obj/main/NAZE/flight/navigation.o (symbol from plugin)
GPS_coord                                         /tmp/ccGrItoW.ltrans1.ltrans.o
                                                  obj/main/NAZE/io/gps.o (symbol from plugin)
                                                  /tmp/ccGrItoW.ltrans22.ltrans.o
                                                  /tmp/ccGrItoW.ltrans14.ltrans.o
                                                  /tmp/ccGrItoW.ltrans12.ltrans.o
                                                  /tmp/ccGrItoW.ltrans4.ltrans.o
                                                  /tmp/ccGrItoW.ltrans3.ltrans.o
                                                  obj/main/NAZE/fc/msp_server_fc.o (symbol from plugin)
                                                  obj/main/NAZE/blackbox/blackbox.o (symbol from plugin)
                                                  obj/main/NAZE/telemetry/mavlink.o (symbol from plugin)
                                                  obj/main/NAZE/telemetry/ltm.o (symbol from plugin)
                                                  obj/main/NAZE/telemetry/smartport.o (symbol from plugin)
                                                  obj/main/NAZE/telemetry/hott.o (symbol from plugin)
                                                  obj/main/NAZE/telemetry/frsky.o (symbol from plugin)
                                                  obj/main/NAZE/flight/navigation.o (symbol from plugin)
GPS_coord_to_degrees                              obj/main/NAZE/flight/gps_conversion.o (symbol from plugin)
                                                  obj/main/NAZE/io/gps.o (symbol from plugin)
GPS_coord_to_degrees.constprop.95                 /tmp/ccGrItoW.ltrans20.ltrans.o
                                                  /tmp/ccGrItoW.ltrans14.ltrans.o
GPS_directionToHome                               /tmp/ccGrItoW.ltrans1.ltrans.o
                                                  obj/main/NAZE/flight/navigation.o (symbol from plugin)
                                                  /tmp/ccGrItoW.ltrans22.ltrans.o
                                                  /tmp/ccGrItoW.ltrans3.ltrans.o
                                                  obj/main/NAZE/fc/msp_server_fc.o (symbol from plugin)
                                                  obj/main/NAZE/telemetry/hott.o (symbol from plugin)
GPS_distanceToHome                                /tmp/ccGrItoW.ltrans1.ltrans.o
                                                  obj/main/NAZE/flight/navigation.o (symbol from plugin)
                                                  /tmp/ccGrItoW.ltrans22.ltrans.o
                                                  /tmp/ccGrItoW.ltrans3.ltrans.o
                                                  obj/main/NAZE/fc/msp_server_fc.o (symbol from plugin)
                                                  obj/main/NAZE/telemetry/hott.o (symbol from plugin)
GPS_distance_cm_bearing.isra.3.lto_priv.526       /tmp/ccGrItoW.ltrans14.ltrans.o
                                                  /tmp/ccGrItoW.ltrans22.ltrans.o
GPS_garbageByteCount                              obj/main/NAZE/io/gps.o (symbol from plugin)
GPS_ground_course                                 /tmp/ccGrItoW.ltrans1.ltrans.o
                                                  obj/main/NAZE/io/gps.o (symbol from plugin)
                                                  /tmp/ccGrItoW.ltrans24.ltrans.o
                                                  /tmp/ccGrItoW.ltrans14.ltrans.o
                                                  /tmp/ccGrItoW.ltrans12.ltrans.o
                                                  /tmp/ccGrItoW.ltrans3.ltrans.o
                                                  obj/main/NAZE/flight/imu.o (symbol from plugin)
                                                  obj/main/NAZE/fc/msp_server_fc.o (symbol from plugin)
                                                  obj/main/NAZE/blackbox/blackbox.o (symbol from plugin)
                                                  obj/main/NAZE/telemetry/mavlink.o (symbol from plugin)
GPS_hdop                                          /tmp/ccGrItoW.ltrans3.ltrans.o
                                                  obj/main/NAZE/io/gps.o (symbol from plugin)
                                                  /tmp/ccGrItoW.ltrans14.ltrans.o
                                                  obj/main/NAZE/telemetry/frsky.o (symbol from plugin)
GPS_hold                                          /tmp/ccGrItoW.ltrans1.ltrans.o
                                                  obj/main/NAZE/flight/navigation.o (symbol from plugin)
                                                  /tmp/ccGrItoW.ltrans4.ltrans.o
                                                  obj/main/NAZE/fc/msp_server_fc.o (symbol from plugin)
GPS_home                                          /tmp/ccGrItoW.ltrans1.ltrans.o
                                                  obj/main/NAZE/flight/navigation.o (symbol from plugin)
                                                  /tmp/ccGrItoW.ltrans22.ltrans.o
                                                  /tmp/ccGrItoW.ltrans14.ltrans.o
                                                  /tmp/ccGrItoW.ltrans12.ltrans.o
                                                  /tmp/ccGrItoW.ltrans4.ltrans.o
                                                  /tmp/ccGrItoW.ltrans3.ltrans.o
                                                  obj/main/NAZE/fc/msp_server_fc.o (symbol from plugin)
                                                  obj/main/NAZE/blackbox/blackbox.o (symbol from plugin)
                                                  obj/main/NAZE/telemetry/mavlink.o (symbol from plugin)
                                                  obj/main/NAZE/telemetry/ltm.o (symbol from plugin)
GPS_numCh                                         /tmp/ccGrItoW.ltrans1.ltrans.o
                                                  obj/main/NAZE/io/gps.o (symbol from plugin)
                                                  /tmp/ccGrItoW.ltrans14.ltrans.o
                                                  obj/main/NAZE/fc/msp_server_fc.o (symbol from plugin)
GPS_numSat                                        /tmp/ccGrItoW.ltrans1.ltrans.o
                                                  obj/main/NAZE/io/gps.o (symbol from plugin)
                                                  /tmp/ccGrItoW.ltrans24.ltrans.o
                                                  /tmp/ccGrItoW.ltrans23.ltrans.o
                                                  /tmp/ccGrItoW.ltrans22.ltrans.o
                                                  /tmp/ccGrItoW.ltrans21.ltrans.o
                                                  /tmp/ccGrItoW.ltrans16.ltrans.o
                                                  /tmp/ccGrItoW.ltrans14.ltrans.o
                                                  /tmp/ccGrItoW.ltrans12.ltrans.o
                                                  /tmp/ccGrItoW.ltrans11.ltrans.o
                                                  /tmp/ccGrItoW.ltrans4.ltrans.o
                                                  /tmp/ccGrItoW.ltrans3.ltrans.o
                                                  obj/main/NAZE/io/beeper.o (symbol from plugin)
                                                  obj/main/NAZE/flight/imu.o (symbol from plugin)
                                                  obj/main/NAZE/fc/msp_server_fc.o (symbol from plugin)
                                                  obj/main/NAZE/fc/cleanflight_fc.o (symbol from plugin)
                                                  obj/main/NAZE/blackbox/blackbox.o (symbol from plugin)
                                                  obj/main/NAZE/telemetry/mavlink.o (symbol from plugin)
                                                  obj/main/NAZE/telemetry/ltm.o (symbol from plugin)
                                                  obj/main/NAZE/telemetry/smartport.o (symbol from plugin)
                                                  obj/main/NAZE/telemetry/hott.o (symbol from plugin)
                                                  obj/main/NAZE/telemetry/frsky.o (symbol from plugin)
                                                  obj/main/NAZE/io/ledstrip.o (symbol from plugin)
                                                  obj/main/NAZE/flight/navigation.o (symbol from plugin)
GPS_packetCount                                   obj/main/NAZE/io/gps.o (symbol from plugin)
GPS_reset_home_position                           /tmp/ccGrItoW.ltrans14.ltrans.o
                                                  obj/main/NAZE/flight/navigation.o (symbol from plugin)
                                                  /tmp/ccGrItoW.ltrans22.ltrans.o
                                                  /tmp/ccGrItoW.ltrans4.ltrans.o
                                                  obj/main/NAZE/fc/rc_controls.o (symbol from plugin)
GPS_reset_nav                                     obj/main/NAZE/flight/navigation.o (symbol from plugin)
GPS_scaleLonDown.lto_priv.528                     /tmp/ccGrItoW.ltrans22.ltrans.o
                                                  /tmp/ccGrItoW.ltrans14.ltrans.o
GPS_set_next_wp                                   /tmp/ccGrItoW.ltrans14.ltrans.o
                                                  obj/main/NAZE/flight/navigation.o (symbol from plugin)
                                                  /tmp/ccGrItoW.ltrans4.ltrans.o
                                                  /tmp/ccGrItoW.ltrans1.ltrans.o
                                                  obj/main/NAZE/fc/msp_server_fc.o (symbol from plugin)
GPS_speed                                         /tmp/ccGrItoW.ltrans1.ltrans.o
                                                  obj/main/NAZE/io/gps.o (symbol from plugin)
                                                  /tmp/ccGrItoW.ltrans24.ltrans.o
                                                  /tmp/ccGrItoW.ltrans14.ltrans.o
                                                  /tmp/ccGrItoW.ltrans12.ltrans.o
                                                  /tmp/ccGrItoW.ltrans3.ltrans.o
                                                  obj/main/NAZE/flight/imu.o (symbol from plugin)
                                                  obj/main/NAZE/fc/msp_server_fc.o (symbol from plugin)
                                                  obj/main/NAZE/blackbox/blackbox.o (symbol from plugin)
                                                  obj/main/NAZE/telemetry/mavlink.o (symbol from plugin)
                                                  obj/main/NAZE/telemetry/ltm.o (symbol from plugin)
                                                  obj/main/NAZE/telemetry/smartport.o (symbol from plugin)
                                                  obj/main/NAZE/telemetry/hott.o (symbol from plugin)
                                                  obj/main/NAZE/telemetry/frsky.o (symbol from plugin)
GPS_svInfoReceivedCount                           obj/main/NAZE/io/gps.o (symbol from plugin)
GPS_svinfo_chn                                    /tmp/ccGrItoW.ltrans1.ltrans.o
                                                  obj/main/NAZE/io/gps.o (symbol from plugin)
                                                  /tmp/ccGrItoW.ltrans14.ltrans.o
                                                  obj/main/NAZE/fc/msp_server_fc.o (symbol from plugin)
GPS_svinfo_cno                                    /tmp/ccGrItoW.ltrans1.ltrans.o
                                                  obj/main/NAZE/io/gps.o (symbol from plugin)
                                                  /tmp/ccGrItoW.ltrans14.ltrans.o
                                                  obj/main/NAZE/fc/msp_server_fc.o (symbol from plugin)
GPS_svinfo_quality                                /tmp/ccGrItoW.ltrans1.ltrans.o
                                                  obj/main/NAZE/io/gps.o (symbol from plugin)
                                                  /tmp/ccGrItoW.ltrans14.ltrans.o
                                                  obj/main/NAZE/fc/msp_server_fc.o (symbol from plugin)
GPS_svinfo_svid                                   /tmp/ccGrItoW.ltrans1.ltrans.o
                                                  obj/main/NAZE/io/gps.o (symbol from plugin)
                                                  /tmp/ccGrItoW.ltrans14.ltrans.o
                                                  obj/main/NAZE/fc/msp_server_fc.o (symbol from plugin)
GPS_update                                        /tmp/ccGrItoW.ltrans1.ltrans.o
                                                  obj/main/NAZE/io/gps.o (symbol from plugin)
                                                  /tmp/ccGrItoW.ltrans22.ltrans.o
                                                  obj/main/NAZE/fc/msp_server_fc.o (symbol from plugin)
HardFault_Handler                                 /tmp/ccGrItoW.ltrans21.ltrans.o
                                                  obj/main/NAZE/fc/boot.o (symbol from plugin)
                                                  obj/main/NAZE/startup_stm32f10x_md_gcc.o
I2C1_ER_IRQHandler                                /tmp/ccGrItoW.ltrans5.ltrans.o
                                                  obj/main/NAZE/drivers/bus_i2c_stm32f10x.o (symbol from plugin)
                                                  obj/main/NAZE/startup_stm32f10x_md_gcc.o
I2C1_EV_IRQHandler                                /tmp/ccGrItoW.ltrans5.ltrans.o
                                                  obj/main/NAZE/drivers/bus_i2c_stm32f10x.o (symbol from plugin)
                                                  obj/main/NAZE/startup_stm32f10x_md_gcc.o
I2C2_ER_IRQHandler                                /tmp/ccGrItoW.ltrans5.ltrans.o
                                                  obj/main/NAZE/drivers/bus_i2c_stm32f10x.o (symbol from plugin)
                                                  obj/main/NAZE/startup_stm32f10x_md_gcc.o
I2C2_EV_IRQHandler                                /tmp/ccGrItoW.ltrans5.ltrans.o
                                                  obj/main/NAZE/drivers/bus_i2c_stm32f10x.o (symbol from plugin)
                                                  obj/main/NAZE/startup_stm32f10x_md_gcc.o
I2C_ARPCmd                                        obj/main/NAZE/stm32f10x_i2c.o (symbol from plugin)
I2C_AcknowledgeConfig                             obj/main/NAZE/stm32f10x_i2c.o (symbol from plugin)
                                                  obj/main/NAZE/drivers/bus_i2c_stm32f10x.o (symbol from plugin)
I2C_CalculatePEC                                  obj/main/NAZE/stm32f10x_i2c.o (symbol from plugin)
I2C_CheckEvent                                    obj/main/NAZE/stm32f10x_i2c.o (symbol from plugin)
I2C_ClearFlag                                     obj/main/NAZE/stm32f10x_i2c.o (symbol from plugin)
I2C_ClearITPendingBit                             obj/main/NAZE/stm32f10x_i2c.o (symbol from plugin)
I2C_Cmd                                           obj/main/NAZE/stm32f10x_i2c.o (symbol from plugin)
                                                  obj/main/NAZE/drivers/bus_i2c_stm32f10x.o (symbol from plugin)
I2C_DMACmd                                        obj/main/NAZE/stm32f10x_i2c.o (symbol from plugin)
I2C_DMALastTransferCmd                            obj/main/NAZE/stm32f10x_i2c.o (symbol from plugin)
I2C_DeInit                                        obj/main/NAZE/stm32f10x_i2c.o (symbol from plugin)
                                                  obj/main/NAZE/drivers/bus_i2c_stm32f10x.o (symbol from plugin)
I2C_DualAddressCmd                                obj/main/NAZE/stm32f10x_i2c.o (symbol from plugin)
I2C_FastModeDutyCycleConfig                       obj/main/NAZE/stm32f10x_i2c.o (symbol from plugin)
I2C_GeneralCallCmd                                obj/main/NAZE/stm32f10x_i2c.o (symbol from plugin)
I2C_GenerateSTART                                 obj/main/NAZE/stm32f10x_i2c.o (symbol from plugin)
                                                  obj/main/NAZE/drivers/bus_i2c_stm32f10x.o (symbol from plugin)
I2C_GenerateSTOP                                  obj/main/NAZE/stm32f10x_i2c.o (symbol from plugin)
                                                  obj/main/NAZE/drivers/bus_i2c_stm32f10x.o (symbol from plugin)
I2C_GetFlagStatus                                 obj/main/NAZE/stm32f10x_i2c.o (symbol from plugin)
I2C_GetITStatus                                   obj/main/NAZE/stm32f10x_i2c.o (symbol from plugin)
I2C_GetLastEvent                                  obj/main/NAZE/stm32f10x_i2c.o (symbol from plugin)
I2C_GetPEC                                        obj/main/NAZE/stm32f10x_i2c.o (symbol from plugin)
I2C_ITConfig                                      obj/main/NAZE/stm32f10x_i2c.o (symbol from plugin)
                                                  obj/main/NAZE/drivers/bus_i2c_stm32f10x.o (symbol from plugin)
I2C_Init                                          obj/main/NAZE/stm32f10x_i2c.o (symbol from plugin)
                                                  obj/main/NAZE/drivers/bus_i2c_stm32f10x.o (symbol from plugin)
I2C_NACKPositionConfig                            obj/main/NAZE/stm32f10x_i2c.o (symbol from plugin)
I2C_OwnAddress2Config                             obj/main/NAZE/stm32f10x_i2c.o (symbol from plugin)
I2C_PECPositionConfig                             obj/main/NAZE/stm32f10x_i2c.o (symbol from plugin)
I2C_ReadRegister                                  obj/main/NAZE/stm32f10x_i2c.o (symbol from plugin)
I2C_ReceiveData                                   obj/main/NAZE/stm32f10x_i2c.o (symbol from plugin)
I2C_SMBusAlertConfig                              obj/main/NAZE/stm32f10x_i2c.o (symbol from plugin)
I2C_Send7bitAddress                               obj/main/NAZE/stm32f10x_i2c.o (symbol from plugin)
                                                  obj/main/NAZE/drivers/bus_i2c_stm32f10x.o (symbol from plugin)
I2C_SendData                                      obj/main/NAZE/stm32f10x_i2c.o (symbol from plugin)
I2C_SoftwareResetCmd                              obj/main/NAZE/stm32f10x_i2c.o (symbol from plugin)
I2C_StretchClockCmd                               obj/main/NAZE/stm32f10x_i2c.o (symbol from plugin)
I2C_StructInit                                    obj/main/NAZE/stm32f10x_i2c.o (symbol from plugin)
                                                  obj/main/NAZE/drivers/bus_i2c_stm32f10x.o (symbol from plugin)
I2C_TransmitPEC                                   obj/main/NAZE/stm32f10x_i2c.o (symbol from plugin)
I2S_Cmd                                           obj/main/NAZE/stm32f10x_spi.o (symbol from plugin)
I2S_Init                                          obj/main/NAZE/stm32f10x_spi.o (symbol from plugin)
I2S_StructInit                                    obj/main/NAZE/stm32f10x_spi.o (symbol from plugin)
IOConfigGPIO                                      obj/main/NAZE/drivers/io.o (symbol from plugin)
IOGetByTag                                        /tmp/ccGrItoW.ltrans19.ltrans.o
                                                  obj/main/NAZE/drivers/io.o (symbol from plugin)
                                                  /tmp/ccGrItoW.ltrans26.ltrans.o
                                                  /tmp/ccGrItoW.ltrans13.ltrans.o
                                                  /tmp/ccGrItoW.ltrans6.ltrans.o
                                                  /tmp/ccGrItoW.ltrans0.ltrans.o
                                                  obj/main/NAZE/drivers/sonar_hcsr04.o (symbol from plugin)
                                                  obj/main/NAZE/drivers/compass_hmc5883l.o (symbol from plugin)
                                                  obj/main/NAZE/drivers/barometer_bmp085.o (symbol from plugin)
                                                  obj/main/NAZE/drivers/accgyro_mpu.o (symbol from plugin)
IOGetOwner                                        obj/main/NAZE/drivers/io.o (symbol from plugin)
IOGetResources                                    obj/main/NAZE/drivers/io.o (symbol from plugin)
IOHi                                              obj/main/NAZE/drivers/io.o (symbol from plugin)
IOInit                                            obj/main/NAZE/drivers/io.o (symbol from plugin)
IOInitGlobal                                      obj/main/NAZE/drivers/io.o (symbol from plugin)
                                                  obj/main/NAZE/fc/boot.o (symbol from plugin)
IOLo                                              obj/main/NAZE/drivers/io.o (symbol from plugin)
IORead                                            obj/main/NAZE/drivers/io.o (symbol from plugin)
IORelease                                         obj/main/NAZE/drivers/io.o (symbol from plugin)
IOToggle                                          obj/main/NAZE/drivers/io.o (symbol from plugin)
IOWrite                                           obj/main/NAZE/drivers/io.o (symbol from plugin)
IO_EXTI_Line                                      obj/main/NAZE/drivers/io.o (symbol from plugin)
                                                  obj/main/NAZE/drivers/exti.o (symbol from plugin)
IO_EXTI_PinSource                                 obj/main/NAZE/drivers/io.o (symbol from plugin)
IO_EXTI_PortSourceGPIO                            obj/main/NAZE/drivers/io.o (symbol from plugin)
IO_GPIO                                           obj/main/NAZE/drivers/io.o (symbol from plugin)
IO_GPIOPinIdx                                     obj/main/NAZE/drivers/io.o (symbol from plugin)
                                                  obj/main/NAZE/drivers/exti.o (symbol from plugin)
IO_GPIOPortIdx                                    obj/main/NAZE/drivers/io.o (symbol from plugin)
IO_GPIO_PinSource                                 obj/main/NAZE/drivers/io.o (symbol from plugin)
                                                  obj/main/NAZE/drivers/exti.o (symbol from plugin)
IO_GPIO_PortSource                                obj/main/NAZE/drivers/io.o (symbol from plugin)
                                                  obj/main/NAZE/drivers/exti.o (symbol from plugin)
IO_Pin                                            obj/main/NAZE/drivers/io.o (symbol from plugin)
IO_Rec                                            obj/main/NAZE/drivers/io.o (symbol from plugin)
ITermAngle.lto_priv.329                           /tmp/ccGrItoW.ltrans9.ltrans.o
                                                  /tmp/ccGrItoW.ltrans4.ltrans.o
ITermLimit                                        obj/main/NAZE/flight/pid.o (symbol from plugin)
                                                  obj/main/NAZE/flight/pid_mw23.o (symbol from plugin)
                                                  obj/main/NAZE/flight/pid_mwrewrite.o (symbol from plugin)
ITermLimitf                                       obj/main/NAZE/flight/pid.o (symbol from plugin)
                                                  obj/main/NAZE/flight/pid_luxfloat.o (symbol from plugin)
IWDG_Enable                                       obj/main/NAZE/stm32f10x_iwdg.o (symbol from plugin)
IWDG_GetFlagStatus                                obj/main/NAZE/stm32f10x_iwdg.o (symbol from plugin)
IWDG_ReloadCounter                                obj/main/NAZE/stm32f10x_iwdg.o (symbol from plugin)
IWDG_SetPrescaler                                 obj/main/NAZE/stm32f10x_iwdg.o (symbol from plugin)
IWDG_SetReload                                    obj/main/NAZE/stm32f10x_iwdg.o (symbol from plugin)
IWDG_WriteAccessCmd                               obj/main/NAZE/stm32f10x_iwdg.o (symbol from plugin)
InflightcalibratingA                              /tmp/ccGrItoW.ltrans4.ltrans.o
                                                  obj/main/NAZE/fc/cleanflight_fc.o (symbol from plugin)
                                                  /tmp/ccGrItoW.ltrans24.ltrans.o
                                                  obj/main/NAZE/sensors/acceleration.o (symbol from plugin)
MemManage_Handler                                 obj/main/NAZE/startup_stm32f10x_md_gcc.o
NMI_Handler                                       obj/main/NAZE/startup_stm32f10x_md_gcc.o
NVIC_Init                                         obj/main/NAZE/misc.o (symbol from plugin)
                                                  obj/main/NAZE/drivers/dma.o (symbol from plugin)
                                                  obj/main/NAZE/drivers/exti.o (symbol from plugin)
                                                  obj/main/NAZE/drivers/timer.o (symbol from plugin)
                                                  obj/main/NAZE/drivers/serial_uart_stm32f10x.o (symbol from plugin)
                                                  obj/main/NAZE/drivers/bus_i2c_stm32f10x.o (symbol from plugin)
NVIC_Init.part.0.lto_priv.280                     /tmp/ccGrItoW.ltrans20.ltrans.o
                                                  /tmp/ccGrItoW.ltrans15.ltrans.o
                                                  /tmp/ccGrItoW.ltrans9.ltrans.o
                                                  /tmp/ccGrItoW.ltrans5.ltrans.o
                                                  /tmp/ccGrItoW.ltrans0.ltrans.o
NVIC_PriorityGroupConfig                          obj/main/NAZE/misc.o (symbol from plugin)
                                                  obj/main/NAZE/drivers/system.o (symbol from plugin)
NVIC_SetVectorTable                               obj/main/NAZE/misc.o (symbol from plugin)
NVIC_SystemLPConfig                               obj/main/NAZE/misc.o (symbol from plugin)
PIDweight                                         /tmp/ccGrItoW.ltrans9.ltrans.o
                                                  obj/main/NAZE/flight/pid.o (symbol from plugin)
                                                  /tmp/ccGrItoW.ltrans2.ltrans.o
                                                  obj/main/NAZE/flight/pid_mwrewrite.o (symbol from plugin)
                                                  obj/main/NAZE/flight/pid_luxfloat.o (symbol from plugin)
                                                  obj/main/NAZE/fc/cleanflight_fc.o (symbol from plugin)
PVD_IRQHandler                                    obj/main/NAZE/startup_stm32f10x_md_gcc.o
PWR_BackupAccessCmd                               obj/main/NAZE/stm32f10x_pwr.o (symbol from plugin)
PWR_ClearFlag                                     obj/main/NAZE/stm32f10x_pwr.o (symbol from plugin)
PWR_DeInit                                        obj/main/NAZE/stm32f10x_pwr.o (symbol from plugin)
PWR_EnterSTANDBYMode                              obj/main/NAZE/stm32f10x_pwr.o (symbol from plugin)
PWR_EnterSTOPMode                                 obj/main/NAZE/stm32f10x_pwr.o (symbol from plugin)
PWR_GetFlagStatus                                 obj/main/NAZE/stm32f10x_pwr.o (symbol from plugin)
PWR_PVDCmd                                        obj/main/NAZE/stm32f10x_pwr.o (symbol from plugin)
PWR_PVDLevelConfig                                obj/main/NAZE/stm32f10x_pwr.o (symbol from plugin)
PWR_WakeUpPinCmd                                  obj/main/NAZE/stm32f10x_pwr.o (symbol from plugin)
PendSV_Handler                                    obj/main/NAZE/startup_stm32f10x_md_gcc.o
RCC_ADCCLKConfig                                  obj/main/NAZE/stm32f10x_rcc.o (symbol from plugin)
                                                  obj/main/NAZE/drivers/adc_stm32f10x.o (symbol from plugin)
RCC_AHBPeriphClockCmd                             obj/main/NAZE/stm32f10x_rcc.o (symbol from plugin)
                                                  obj/main/NAZE/drivers/dma.o (symbol from plugin)
                                                  obj/main/NAZE/drivers/rcc.o (symbol from plugin)
                                                  obj/main/NAZE/drivers/serial_uart_stm32f10x.o (symbol from plugin)
                                                  obj/main/NAZE/drivers/adc_stm32f10x.o (symbol from plugin)
RCC_APB1PeriphClockCmd                            obj/main/NAZE/stm32f10x_rcc.o (symbol from plugin)
                                                  obj/main/NAZE/drivers/rcc.o (symbol from plugin)
                                                  obj/main/NAZE/drivers/timer.o (symbol from plugin)
                                                  obj/main/NAZE/drivers/light_ws2811strip_stm32f10x.o (symbol from plugin)
                                                  obj/main/NAZE/drivers/bus_spi.o (symbol from plugin)
                                                  obj/main/NAZE/drivers/serial_uart_stm32f10x.o (symbol from plugin)
                                                  obj/main/NAZE/drivers/bus_i2c_stm32f10x.o (symbol from plugin)
RCC_APB1PeriphResetCmd                            obj/main/NAZE/stm32f10x_rcc.o (symbol from plugin)
                                                  obj/main/NAZE/stm32f10x_spi.o (symbol from plugin)
                                                  obj/main/NAZE/stm32f10x_wwdg.o (symbol from plugin)
                                                  obj/main/NAZE/stm32f10x_tim.o (symbol from plugin)
                                                  obj/main/NAZE/stm32f10x_usart.o (symbol from plugin)
                                                  obj/main/NAZE/stm32f10x_i2c.o (symbol from plugin)
                                                  obj/main/NAZE/stm32f10x_pwr.o (symbol from plugin)
                                                  obj/main/NAZE/stm32f10x_dac.o (symbol from plugin)
                                                  obj/main/NAZE/drivers/bus_spi.o (symbol from plugin)
RCC_APB2PeriphClockCmd                            obj/main/NAZE/stm32f10x_rcc.o (symbol from plugin)
                                                  obj/main/NAZE/drivers/system.o (symbol from plugin)
                                                  obj/main/NAZE/drivers/rcc.o (symbol from plugin)
                                                  obj/main/NAZE/drivers/exti.o (symbol from plugin)
                                                  obj/main/NAZE/drivers/timer.o (symbol from plugin)
                                                  obj/main/NAZE/drivers/sound_beeper_stm32f10x.o (symbol from plugin)
                                                  obj/main/NAZE/drivers/light_ws2811strip_stm32f10x.o (symbol from plugin)
                                                  obj/main/NAZE/drivers/inverter.o (symbol from plugin)
                                                  obj/main/NAZE/drivers/compass_hmc5883l.o (symbol from plugin)
                                                  obj/main/NAZE/drivers/barometer_bmp085.o (symbol from plugin)
                                                  obj/main/NAZE/drivers/accgyro_spi_mpu6500.o (symbol from plugin)
                                                  obj/main/NAZE/drivers/accgyro_mpu.o (symbol from plugin)
                                                  obj/main/NAZE/drivers/accgyro_mma845x.o (symbol from plugin)
                                                  obj/main/NAZE/drivers/system_stm32f10x.o (symbol from plugin)
                                                  obj/main/NAZE/drivers/serial_uart_stm32f10x.o (symbol from plugin)
                                                  obj/main/NAZE/drivers/light_led_stm32f10x.o (symbol from plugin)
                                                  obj/main/NAZE/drivers/adc_stm32f10x.o (symbol from plugin)
RCC_APB2PeriphResetCmd                            obj/main/NAZE/stm32f10x_rcc.o (symbol from plugin)
                                                  obj/main/NAZE/stm32f10x_gpio.o (symbol from plugin)
                                                  obj/main/NAZE/stm32f10x_spi.o (symbol from plugin)
                                                  obj/main/NAZE/stm32f10x_adc.o (symbol from plugin)
                                                  obj/main/NAZE/stm32f10x_tim.o (symbol from plugin)
                                                  obj/main/NAZE/stm32f10x_usart.o (symbol from plugin)
RCC_AdjustHSICalibrationValue                     obj/main/NAZE/stm32f10x_rcc.o (symbol from plugin)
RCC_BackupResetCmd                                obj/main/NAZE/stm32f10x_rcc.o (symbol from plugin)
                                                  obj/main/NAZE/stm32f10x_bkp.o (symbol from plugin)
RCC_ClearFlag                                     obj/main/NAZE/stm32f10x_rcc.o (symbol from plugin)
                                                  obj/main/NAZE/drivers/system.o (symbol from plugin)
RCC_ClearITPendingBit                             obj/main/NAZE/stm32f10x_rcc.o (symbol from plugin)
RCC_ClockCmd                                      obj/main/NAZE/drivers/rcc.o (symbol from plugin)
                                                  obj/main/NAZE/drivers/io.o (symbol from plugin)
RCC_ClockSecuritySystemCmd                        obj/main/NAZE/stm32f10x_rcc.o (symbol from plugin)
RCC_DeInit                                        obj/main/NAZE/stm32f10x_rcc.o (symbol from plugin)
RCC_GetClocksFreq                                 /tmp/ccGrItoW.ltrans31.ltrans.o
                                                  obj/main/NAZE/stm32f10x_rcc.o (symbol from plugin)
                                                  /tmp/ccGrItoW.ltrans5.ltrans.o
                                                  /tmp/ccGrItoW.ltrans0.ltrans.o
                                                  obj/main/NAZE/stm32f10x_spi.o (symbol from plugin)
                                                  obj/main/NAZE/stm32f10x_usart.o (symbol from plugin)
                                                  obj/main/NAZE/stm32f10x_i2c.o (symbol from plugin)
                                                  obj/main/NAZE/drivers/system.o (symbol from plugin)
RCC_GetFlagStatus                                 obj/main/NAZE/stm32f10x_rcc.o (symbol from plugin)
RCC_GetITStatus                                   obj/main/NAZE/stm32f10x_rcc.o (symbol from plugin)
RCC_GetSYSCLKSource                               obj/main/NAZE/stm32f10x_rcc.o (symbol from plugin)
RCC_HCLKConfig                                    obj/main/NAZE/stm32f10x_rcc.o (symbol from plugin)
RCC_HSEConfig                                     obj/main/NAZE/stm32f10x_rcc.o (symbol from plugin)
RCC_HSICmd                                        obj/main/NAZE/stm32f10x_rcc.o (symbol from plugin)
RCC_IRQHandler                                    obj/main/NAZE/startup_stm32f10x_md_gcc.o
RCC_ITConfig                                      obj/main/NAZE/stm32f10x_rcc.o (symbol from plugin)
RCC_LSEConfig                                     obj/main/NAZE/stm32f10x_rcc.o (symbol from plugin)
RCC_LSICmd                                        obj/main/NAZE/stm32f10x_rcc.o (symbol from plugin)
RCC_MCOConfig                                     obj/main/NAZE/stm32f10x_rcc.o (symbol from plugin)
RCC_PCLK1Config                                   obj/main/NAZE/stm32f10x_rcc.o (symbol from plugin)
RCC_PCLK2Config                                   obj/main/NAZE/stm32f10x_rcc.o (symbol from plugin)
RCC_PLLCmd                                        obj/main/NAZE/stm32f10x_rcc.o (symbol from plugin)
RCC_PLLConfig                                     obj/main/NAZE/stm32f10x_rcc.o (symbol from plugin)
RCC_RTCCLKCmd                                     obj/main/NAZE/stm32f10x_rcc.o (symbol from plugin)
RCC_RTCCLKConfig                                  obj/main/NAZE/stm32f10x_rcc.o (symbol from plugin)
RCC_SYSCLKConfig                                  obj/main/NAZE/stm32f10x_rcc.o (symbol from plugin)
RCC_USBCLKConfig                                  obj/main/NAZE/stm32f10x_rcc.o (symbol from plugin)
RCC_WaitForHSEStartUp                             obj/main/NAZE/stm32f10x_rcc.o (symbol from plugin)
RTCAlarm_IRQHandler                               obj/main/NAZE/startup_stm32f10x_md_gcc.o
RTC_ClearFlag                                     obj/main/NAZE/stm32f10x_rtc.o (symbol from plugin)
RTC_ClearITPendingBit                             obj/main/NAZE/stm32f10x_rtc.o (symbol from plugin)
RTC_EnterConfigMode                               obj/main/NAZE/stm32f10x_rtc.o (symbol from plugin)
RTC_ExitConfigMode                                obj/main/NAZE/stm32f10x_rtc.o (symbol from plugin)
RTC_GetCounter                                    obj/main/NAZE/stm32f10x_rtc.o (symbol from plugin)
RTC_GetDivider                                    obj/main/NAZE/stm32f10x_rtc.o (symbol from plugin)
RTC_GetFlagStatus                                 obj/main/NAZE/stm32f10x_rtc.o (symbol from plugin)
RTC_GetITStatus                                   obj/main/NAZE/stm32f10x_rtc.o (symbol from plugin)
RTC_IRQHandler                                    obj/main/NAZE/startup_stm32f10x_md_gcc.o
RTC_ITConfig                                      obj/main/NAZE/stm32f10x_rtc.o (symbol from plugin)
RTC_SetAlarm                                      obj/main/NAZE/stm32f10x_rtc.o (symbol from plugin)
RTC_SetCounter                                    obj/main/NAZE/stm32f10x_rtc.o (symbol from plugin)
RTC_SetPrescaler                                  obj/main/NAZE/stm32f10x_rtc.o (symbol from plugin)
RTC_WaitForLastTask                               obj/main/NAZE/stm32f10x_rtc.o (symbol from plugin)
RTC_WaitForSynchro                                obj/main/NAZE/stm32f10x_rtc.o (symbol from plugin)
ReadBit.lto_priv.259                              /tmp/ccGrItoW.ltrans28.ltrans.o
                                                  /tmp/ccGrItoW.ltrans17.ltrans.o
Reset_Handler                                     obj/main/NAZE/startup_stm32f10x_md_gcc.o
SDIO_CEATAITCmd                                   obj/main/NAZE/stm32f10x_sdio.o (symbol from plugin)
SDIO_ClearFlag                                    obj/main/NAZE/stm32f10x_sdio.o (symbol from plugin)
SDIO_ClearITPendingBit                            obj/main/NAZE/stm32f10x_sdio.o (symbol from plugin)
SDIO_ClockCmd                                     obj/main/NAZE/stm32f10x_sdio.o (symbol from plugin)
SDIO_CmdStructInit                                obj/main/NAZE/stm32f10x_sdio.o (symbol from plugin)
SDIO_CommandCompletionCmd                         obj/main/NAZE/stm32f10x_sdio.o (symbol from plugin)
SDIO_DMACmd                                       obj/main/NAZE/stm32f10x_sdio.o (symbol from plugin)
SDIO_DataConfig                                   obj/main/NAZE/stm32f10x_sdio.o (symbol from plugin)
SDIO_DataStructInit                               obj/main/NAZE/stm32f10x_sdio.o (symbol from plugin)
SDIO_DeInit                                       obj/main/NAZE/stm32f10x_sdio.o (symbol from plugin)
SDIO_GetCommandResponse                           obj/main/NAZE/stm32f10x_sdio.o (symbol from plugin)
SDIO_GetDataCounter                               obj/main/NAZE/stm32f10x_sdio.o (symbol from plugin)
SDIO_GetFIFOCount                                 obj/main/NAZE/stm32f10x_sdio.o (symbol from plugin)
SDIO_GetFlagStatus                                obj/main/NAZE/stm32f10x_sdio.o (symbol from plugin)
SDIO_GetITStatus                                  obj/main/NAZE/stm32f10x_sdio.o (symbol from plugin)
SDIO_GetPowerState                                obj/main/NAZE/stm32f10x_sdio.o (symbol from plugin)
SDIO_GetResponse                                  obj/main/NAZE/stm32f10x_sdio.o (symbol from plugin)
SDIO_ITConfig                                     obj/main/NAZE/stm32f10x_sdio.o (symbol from plugin)
SDIO_Init                                         obj/main/NAZE/stm32f10x_sdio.o (symbol from plugin)
SDIO_ReadData                                     obj/main/NAZE/stm32f10x_sdio.o (symbol from plugin)
SDIO_SendCEATACmd                                 obj/main/NAZE/stm32f10x_sdio.o (symbol from plugin)
SDIO_SendCommand                                  obj/main/NAZE/stm32f10x_sdio.o (symbol from plugin)
SDIO_SendSDIOSuspendCmd                           obj/main/NAZE/stm32f10x_sdio.o (symbol from plugin)
SDIO_SetPowerState                                obj/main/NAZE/stm32f10x_sdio.o (symbol from plugin)
SDIO_SetSDIOOperation                             obj/main/NAZE/stm32f10x_sdio.o (symbol from plugin)
SDIO_SetSDIOReadWaitMode                          obj/main/NAZE/stm32f10x_sdio.o (symbol from plugin)
SDIO_StartSDIOReadWait                            obj/main/NAZE/stm32f10x_sdio.o (symbol from plugin)
SDIO_StopSDIOReadWait                             obj/main/NAZE/stm32f10x_sdio.o (symbol from plugin)
SDIO_StructInit                                   obj/main/NAZE/stm32f10x_sdio.o (symbol from plugin)
SDIO_WriteData                                    obj/main/NAZE/stm32f10x_sdio.o (symbol from plugin)
SPI1_IRQHandler                                   obj/main/NAZE/startup_stm32f10x_md_gcc.o
SPI2_IRQHandler                                   obj/main/NAZE/startup_stm32f10x_md_gcc.o
SPI_BiDirectionalLineConfig                       obj/main/NAZE/stm32f10x_spi.o (symbol from plugin)
SPI_CalculateCRC                                  obj/main/NAZE/stm32f10x_spi.o (symbol from plugin)
SPI_Cmd                                           obj/main/NAZE/stm32f10x_spi.o (symbol from plugin)
                                                  obj/main/NAZE/drivers/bus_spi.o (symbol from plugin)
SPI_DataSizeConfig                                obj/main/NAZE/stm32f10x_spi.o (symbol from plugin)
SPI_GetCRC                                        obj/main/NAZE/stm32f10x_spi.o (symbol from plugin)
SPI_GetCRCPolynomial                              obj/main/NAZE/stm32f10x_spi.o (symbol from plugin)
SPI_I2S_ClearFlag                                 obj/main/NAZE/stm32f10x_spi.o (symbol from plugin)
SPI_I2S_ClearITPendingBit                         obj/main/NAZE/stm32f10x_spi.o (symbol from plugin)
SPI_I2S_DMACmd                                    obj/main/NAZE/stm32f10x_spi.o (symbol from plugin)
SPI_I2S_DeInit                                    obj/main/NAZE/stm32f10x_spi.o (symbol from plugin)
                                                  obj/main/NAZE/drivers/bus_spi.o (symbol from plugin)
SPI_I2S_GetFlagStatus                             obj/main/NAZE/stm32f10x_spi.o (symbol from plugin)
                                                  obj/main/NAZE/drivers/bus_spi.o (symbol from plugin)
SPI_I2S_GetITStatus                               obj/main/NAZE/stm32f10x_spi.o (symbol from plugin)
SPI_I2S_ITConfig                                  obj/main/NAZE/stm32f10x_spi.o (symbol from plugin)
SPI_I2S_ReceiveData                               obj/main/NAZE/stm32f10x_spi.o (symbol from plugin)
                                                  obj/main/NAZE/drivers/bus_spi.o (symbol from plugin)
SPI_I2S_SendData                                  obj/main/NAZE/stm32f10x_spi.o (symbol from plugin)
                                                  obj/main/NAZE/drivers/bus_spi.o (symbol from plugin)
SPI_Init                                          obj/main/NAZE/stm32f10x_spi.o (symbol from plugin)
                                                  obj/main/NAZE/drivers/bus_spi.o (symbol from plugin)
SPI_NSSInternalSoftwareConfig                     obj/main/NAZE/stm32f10x_spi.o (symbol from plugin)
SPI_SSOutputCmd                                   obj/main/NAZE/stm32f10x_spi.o (symbol from plugin)
SPI_StructInit                                    obj/main/NAZE/stm32f10x_spi.o (symbol from plugin)
SPI_TransmitCRC                                   obj/main/NAZE/stm32f10x_spi.o (symbol from plugin)
SVC_Handler                                       obj/main/NAZE/startup_stm32f10x_md_gcc.o
SeqNumber.lto_priv.262                            /tmp/ccGrItoW.ltrans17.ltrans.o
                                                  /tmp/ccGrItoW.ltrans28.ltrans.o
SetSysClock                                       obj/main/NAZE/system_stm32f10x.o (symbol from plugin)
                                                  obj/main/NAZE/fc/boot.o (symbol from plugin)
StkCmd.lto_priv.264                               /tmp/ccGrItoW.ltrans17.ltrans.o
                                                  /tmp/ccGrItoW.ltrans19.ltrans.o
StkRcvPacket.lto_priv.274                         /tmp/ccGrItoW.ltrans17.ltrans.o
                                                  /tmp/ccGrItoW.ltrans19.ltrans.o
StkSendByte.lto_priv.257                          /tmp/ccGrItoW.ltrans28.ltrans.o
                                                  /tmp/ccGrItoW.ltrans19.ltrans.o
                                                  /tmp/ccGrItoW.ltrans17.ltrans.o
StkSendPacketFooter.lto_priv.258                  /tmp/ccGrItoW.ltrans28.ltrans.o
                                                  /tmp/ccGrItoW.ltrans19.ltrans.o
                                                  /tmp/ccGrItoW.ltrans17.ltrans.o
StkSendPacketHeader.lto_priv.256                  /tmp/ccGrItoW.ltrans28.ltrans.o
                                                  /tmp/ccGrItoW.ltrans19.ltrans.o
                                                  /tmp/ccGrItoW.ltrans17.ltrans.o
Stk_Chip_Erase                                    obj/main/NAZE/io/serial_4way_stk500v2.o (symbol from plugin)
                                                  obj/main/NAZE/io/serial_4way.o (symbol from plugin)
Stk_ConnectEx                                     obj/main/NAZE/io/serial_4way_stk500v2.o (symbol from plugin)
                                                  obj/main/NAZE/io/serial_4way.o (symbol from plugin)
Stk_ReadEEprom                                    obj/main/NAZE/io/serial_4way_stk500v2.o (symbol from plugin)
                                                  obj/main/NAZE/io/serial_4way.o (symbol from plugin)
Stk_ReadFlash                                     obj/main/NAZE/io/serial_4way_stk500v2.o (symbol from plugin)
                                                  obj/main/NAZE/io/serial_4way.o (symbol from plugin)
Stk_SignOn                                        /tmp/ccGrItoW.ltrans17.ltrans.o
                                                  obj/main/NAZE/io/serial_4way_stk500v2.o (symbol from plugin)
                                                  /tmp/ccGrItoW.ltrans19.ltrans.o
                                                  obj/main/NAZE/io/serial_4way.o (symbol from plugin)
Stk_WriteEEprom                                   obj/main/NAZE/io/serial_4way_stk500v2.o (symbol from plugin)
                                                  obj/main/NAZE/io/serial_4way.o (symbol from plugin)
Stk_WriteFlash                                    obj/main/NAZE/io/serial_4way_stk500v2.o (symbol from plugin)
                                                  obj/main/NAZE/io/serial_4way.o (symbol from plugin)
StopPwmAllMotors                                  obj/main/NAZE/flight/mixer.o (symbol from plugin)
                                                  obj/main/NAZE/fc/config.o (symbol from plugin)
SysTick_CLKSourceConfig                           obj/main/NAZE/misc.o (symbol from plugin)
SysTick_Handler                                   /tmp/ccGrItoW.ltrans18.ltrans.o
                                                  obj/main/NAZE/drivers/system.o (symbol from plugin)
                                                  obj/main/NAZE/startup_stm32f10x_md_gcc.o
SystemCoreClock                                   /tmp/ccGrItoW.ltrans10.ltrans.o
                                                  obj/main/NAZE/system_stm32f10x.o (symbol from plugin)
                                                  /tmp/ccGrItoW.ltrans15.ltrans.o
                                                  /tmp/ccGrItoW.ltrans0.ltrans.o
                                                  obj/main/NAZE/drivers/system.o (symbol from plugin)
                                                  obj/main/NAZE/io/serial_cli.o (symbol from plugin)
                                                  obj/main/NAZE/drivers/timer.o (symbol from plugin)
                                                  obj/main/NAZE/drivers/serial_softserial.o (symbol from plugin)
                                                  obj/main/NAZE/drivers/light_ws2811strip_stm32f10x.o (symbol from plugin)
SystemCoreClockUpdate                             obj/main/NAZE/system_stm32f10x.o (symbol from plugin)
SystemInit                                        /tmp/ccGrItoW.ltrans31.ltrans.o
                                                  obj/main/NAZE/system_stm32f10x.o (symbol from plugin)
                                                  obj/main/NAZE/startup_stm32f10x_md_gcc.o
TAMPER_IRQHandler                                 obj/main/NAZE/startup_stm32f10x_md_gcc.o
TIM1_BRK_IRQHandler                               obj/main/NAZE/startup_stm32f10x_md_gcc.o
TIM1_CC_IRQHandler                                /tmp/ccGrItoW.ltrans14.ltrans.o
                                                  obj/main/NAZE/drivers/timer.o (symbol from plugin)
                                                  obj/main/NAZE/startup_stm32f10x_md_gcc.o
TIM1_TRG_COM_IRQHandler                           obj/main/NAZE/startup_stm32f10x_md_gcc.o
TIM1_UP_IRQHandler                                /tmp/ccGrItoW.ltrans14.ltrans.o
                                                  obj/main/NAZE/drivers/timer.o (symbol from plugin)
                                                  obj/main/NAZE/startup_stm32f10x_md_gcc.o
TIM2_IRQHandler                                   /tmp/ccGrItoW.ltrans14.ltrans.o
                                                  obj/main/NAZE/drivers/timer.o (symbol from plugin)
                                                  obj/main/NAZE/startup_stm32f10x_md_gcc.o
TIM3_IRQHandler                                   /tmp/ccGrItoW.ltrans14.ltrans.o
                                                  obj/main/NAZE/drivers/timer.o (symbol from plugin)
                                                  obj/main/NAZE/startup_stm32f10x_md_gcc.o
TIM4_IRQHandler                                   /tmp/ccGrItoW.ltrans14.ltrans.o
                                                  obj/main/NAZE/drivers/timer.o (symbol from plugin)
                                                  obj/main/NAZE/startup_stm32f10x_md_gcc.o
TIM_ARRPreloadConfig                              obj/main/NAZE/stm32f10x_tim.o (symbol from plugin)
TIM_BDTRConfig                                    obj/main/NAZE/stm32f10x_tim.o (symbol from plugin)
TIM_BDTRStructInit                                obj/main/NAZE/stm32f10x_tim.o (symbol from plugin)
TIM_CCPreloadControl                              obj/main/NAZE/stm32f10x_tim.o (symbol from plugin)
TIM_CCxCmd                                        obj/main/NAZE/stm32f10x_tim.o (symbol from plugin)
TIM_CCxNCmd                                       obj/main/NAZE/stm32f10x_tim.o (symbol from plugin)
TIM_ClearFlag                                     obj/main/NAZE/stm32f10x_tim.o (symbol from plugin)
                                                  obj/main/NAZE/drivers/timer.o (symbol from plugin)
TIM_ClearITPendingBit                             obj/main/NAZE/stm32f10x_tim.o (symbol from plugin)
TIM_ClearOC1Ref                                   obj/main/NAZE/stm32f10x_tim.o (symbol from plugin)
TIM_ClearOC2Ref                                   obj/main/NAZE/stm32f10x_tim.o (symbol from plugin)
TIM_ClearOC3Ref                                   obj/main/NAZE/stm32f10x_tim.o (symbol from plugin)
TIM_ClearOC4Ref                                   obj/main/NAZE/stm32f10x_tim.o (symbol from plugin)
TIM_Cmd                                           obj/main/NAZE/stm32f10x_tim.o (symbol from plugin)
                                                  obj/main/NAZE/drivers/timer.o (symbol from plugin)
                                                  obj/main/NAZE/drivers/pwm_output.o (symbol from plugin)
                                                  obj/main/NAZE/drivers/light_ws2811strip_stm32f10x.o (symbol from plugin)
TIM_CounterModeConfig                             obj/main/NAZE/stm32f10x_tim.o (symbol from plugin)
TIM_CtrlPWMOutputs                                obj/main/NAZE/stm32f10x_tim.o (symbol from plugin)
                                                  obj/main/NAZE/drivers/pwm_output.o (symbol from plugin)
                                                  obj/main/NAZE/drivers/light_ws2811strip_stm32f10x.o (symbol from plugin)
TIM_DMACmd                                        obj/main/NAZE/stm32f10x_tim.o (symbol from plugin)
                                                  obj/main/NAZE/drivers/light_ws2811strip_stm32f10x.o (symbol from plugin)
TIM_DMAConfig                                     obj/main/NAZE/stm32f10x_tim.o (symbol from plugin)
TIM_DeInit                                        obj/main/NAZE/stm32f10x_tim.o (symbol from plugin)
TIM_ETRClockMode1Config                           obj/main/NAZE/stm32f10x_tim.o (symbol from plugin)
TIM_ETRClockMode2Config                           obj/main/NAZE/stm32f10x_tim.o (symbol from plugin)
TIM_ETRConfig                                     obj/main/NAZE/stm32f10x_tim.o (symbol from plugin)
TIM_EncoderInterfaceConfig                        obj/main/NAZE/stm32f10x_tim.o (symbol from plugin)
TIM_ForcedOC1Config                               obj/main/NAZE/stm32f10x_tim.o (symbol from plugin)
TIM_ForcedOC2Config                               obj/main/NAZE/stm32f10x_tim.o (symbol from plugin)
TIM_ForcedOC3Config                               obj/main/NAZE/stm32f10x_tim.o (symbol from plugin)
TIM_ForcedOC4Config                               obj/main/NAZE/stm32f10x_tim.o (symbol from plugin)
TIM_GenerateEvent                                 obj/main/NAZE/stm32f10x_tim.o (symbol from plugin)
TIM_GetCapture1                                   obj/main/NAZE/stm32f10x_tim.o (symbol from plugin)
TIM_GetCapture2                                   obj/main/NAZE/stm32f10x_tim.o (symbol from plugin)
TIM_GetCapture3                                   obj/main/NAZE/stm32f10x_tim.o (symbol from plugin)
TIM_GetCapture4                                   obj/main/NAZE/stm32f10x_tim.o (symbol from plugin)
TIM_GetCounter                                    obj/main/NAZE/stm32f10x_tim.o (symbol from plugin)
TIM_GetFlagStatus                                 obj/main/NAZE/stm32f10x_tim.o (symbol from plugin)
TIM_GetITStatus                                   obj/main/NAZE/stm32f10x_tim.o (symbol from plugin)
TIM_GetPrescaler                                  obj/main/NAZE/stm32f10x_tim.o (symbol from plugin)
TIM_ICInit                                        /tmp/ccGrItoW.ltrans20.ltrans.o
                                                  obj/main/NAZE/stm32f10x_tim.o (symbol from plugin)
                                                  /tmp/ccGrItoW.ltrans15.ltrans.o
                                                  obj/main/NAZE/drivers/timer.o (symbol from plugin)
                                                  obj/main/NAZE/drivers/serial_softserial.o (symbol from plugin)
                                                  obj/main/NAZE/drivers/pwm_rx.o (symbol from plugin)
TIM_ICStructInit                                  obj/main/NAZE/stm32f10x_tim.o (symbol from plugin)
                                                  obj/main/NAZE/drivers/timer.o (symbol from plugin)
                                                  obj/main/NAZE/drivers/serial_softserial.o (symbol from plugin)
                                                  obj/main/NAZE/drivers/pwm_rx.o (symbol from plugin)
TIM_ITConfig                                      obj/main/NAZE/stm32f10x_tim.o (symbol from plugin)
                                                  obj/main/NAZE/drivers/timer.o (symbol from plugin)
TIM_ITRxExternalClockConfig                       obj/main/NAZE/stm32f10x_tim.o (symbol from plugin)
TIM_InternalClockConfig                           obj/main/NAZE/stm32f10x_tim.o (symbol from plugin)
TIM_OC1FastConfig                                 obj/main/NAZE/stm32f10x_tim.o (symbol from plugin)
TIM_OC1Init                                       obj/main/NAZE/stm32f10x_tim.o (symbol from plugin)
                                                  obj/main/NAZE/drivers/timer.o (symbol from plugin)
                                                  obj/main/NAZE/drivers/pwm_output.o (symbol from plugin)
                                                  obj/main/NAZE/drivers/light_ws2811strip_stm32f10x.o (symbol from plugin)
TIM_OC1NPolarityConfig                            obj/main/NAZE/stm32f10x_tim.o (symbol from plugin)
TIM_OC1PolarityConfig                             obj/main/NAZE/stm32f10x_tim.o (symbol from plugin)
TIM_OC1PreloadConfig                              obj/main/NAZE/stm32f10x_tim.o (symbol from plugin)
                                                  obj/main/NAZE/drivers/timer.o (symbol from plugin)
                                                  obj/main/NAZE/drivers/pwm_output.o (symbol from plugin)
                                                  obj/main/NAZE/drivers/light_ws2811strip_stm32f10x.o (symbol from plugin)
TIM_OC2FastConfig                                 obj/main/NAZE/stm32f10x_tim.o (symbol from plugin)
TIM_OC2Init                                       obj/main/NAZE/stm32f10x_tim.o (symbol from plugin)
                                                  obj/main/NAZE/drivers/timer.o (symbol from plugin)
                                                  obj/main/NAZE/drivers/pwm_output.o (symbol from plugin)
TIM_OC2NPolarityConfig                            obj/main/NAZE/stm32f10x_tim.o (symbol from plugin)
TIM_OC2PolarityConfig                             obj/main/NAZE/stm32f10x_tim.o (symbol from plugin)
TIM_OC2PreloadConfig                              obj/main/NAZE/stm32f10x_tim.o (symbol from plugin)
                                                  obj/main/NAZE/drivers/timer.o (symbol from plugin)
                                                  obj/main/NAZE/drivers/pwm_output.o (symbol from plugin)
TIM_OC3FastConfig                                 obj/main/NAZE/stm32f10x_tim.o (symbol from plugin)
TIM_OC3Init                                       obj/main/NAZE/stm32f10x_tim.o (symbol from plugin)
                                                  obj/main/NAZE/drivers/timer.o (symbol from plugin)
                                                  obj/main/NAZE/drivers/pwm_output.o (symbol from plugin)
TIM_OC3NPolarityConfig                            obj/main/NAZE/stm32f10x_tim.o (symbol from plugin)
TIM_OC3PolarityConfig                             obj/main/NAZE/stm32f10x_tim.o (symbol from plugin)
TIM_OC3PreloadConfig                              obj/main/NAZE/stm32f10x_tim.o (symbol from plugin)
                                                  obj/main/NAZE/drivers/timer.o (symbol from plugin)
                                                  obj/main/NAZE/drivers/pwm_output.o (symbol from plugin)
TIM_OC4FastConfig                                 obj/main/NAZE/stm32f10x_tim.o (symbol from plugin)
TIM_OC4Init                                       obj/main/NAZE/stm32f10x_tim.o (symbol from plugin)
                                                  obj/main/NAZE/drivers/timer.o (symbol from plugin)
                                                  obj/main/NAZE/drivers/pwm_output.o (symbol from plugin)
TIM_OC4PolarityConfig                             obj/main/NAZE/stm32f10x_tim.o (symbol from plugin)
TIM_OC4PreloadConfig                              obj/main/NAZE/stm32f10x_tim.o (symbol from plugin)
                                                  obj/main/NAZE/drivers/timer.o (symbol from plugin)
                                                  obj/main/NAZE/drivers/pwm_output.o (symbol from plugin)
TIM_OCStructInit                                  obj/main/NAZE/stm32f10x_tim.o (symbol from plugin)
                                                  obj/main/NAZE/drivers/timer.o (symbol from plugin)
                                                  obj/main/NAZE/drivers/pwm_output.o (symbol from plugin)
                                                  obj/main/NAZE/drivers/light_ws2811strip_stm32f10x.o (symbol from plugin)
TIM_PWMIConfig                                    obj/main/NAZE/stm32f10x_tim.o (symbol from plugin)
TIM_PrescalerConfig                               obj/main/NAZE/stm32f10x_tim.o (symbol from plugin)
TIM_SelectCCDMA                                   obj/main/NAZE/stm32f10x_tim.o (symbol from plugin)
TIM_SelectCOM                                     obj/main/NAZE/stm32f10x_tim.o (symbol from plugin)
TIM_SelectHallSensor                              obj/main/NAZE/stm32f10x_tim.o (symbol from plugin)
TIM_SelectInputTrigger                            obj/main/NAZE/stm32f10x_tim.o (symbol from plugin)
TIM_SelectMasterSlaveMode                         obj/main/NAZE/stm32f10x_tim.o (symbol from plugin)
TIM_SelectOCxM                                    obj/main/NAZE/stm32f10x_tim.o (symbol from plugin)
TIM_SelectOCxM_NoDisable                          obj/main/NAZE/drivers/timer_stm32f10x.o (symbol from plugin)
TIM_SelectOnePulseMode                            obj/main/NAZE/stm32f10x_tim.o (symbol from plugin)
TIM_SelectOutputTrigger                           obj/main/NAZE/stm32f10x_tim.o (symbol from plugin)
TIM_SelectSlaveMode                               obj/main/NAZE/stm32f10x_tim.o (symbol from plugin)
TIM_SetAutoreload                                 obj/main/NAZE/stm32f10x_tim.o (symbol from plugin)
TIM_SetClockDivision                              obj/main/NAZE/stm32f10x_tim.o (symbol from plugin)
TIM_SetCompare1                                   obj/main/NAZE/stm32f10x_tim.o (symbol from plugin)
TIM_SetCompare2                                   obj/main/NAZE/stm32f10x_tim.o (symbol from plugin)
TIM_SetCompare3                                   obj/main/NAZE/stm32f10x_tim.o (symbol from plugin)
TIM_SetCompare4                                   obj/main/NAZE/stm32f10x_tim.o (symbol from plugin)
TIM_SetCounter                                    obj/main/NAZE/stm32f10x_tim.o (symbol from plugin)
                                                  obj/main/NAZE/drivers/serial_softserial.o (symbol from plugin)
                                                  obj/main/NAZE/drivers/light_ws2811strip_stm32f10x.o (symbol from plugin)
TIM_SetIC1Prescaler                               obj/main/NAZE/stm32f10x_tim.o (symbol from plugin)
TIM_SetIC2Prescaler                               obj/main/NAZE/stm32f10x_tim.o (symbol from plugin)
TIM_SetIC3Prescaler                               obj/main/NAZE/stm32f10x_tim.o (symbol from plugin)
TIM_SetIC4Prescaler                               obj/main/NAZE/stm32f10x_tim.o (symbol from plugin)
TIM_TIxExternalClockConfig                        obj/main/NAZE/stm32f10x_tim.o (symbol from plugin)
TIM_TimeBaseInit                                  obj/main/NAZE/stm32f10x_tim.o (symbol from plugin)
                                                  obj/main/NAZE/drivers/timer.o (symbol from plugin)
                                                  obj/main/NAZE/drivers/light_ws2811strip_stm32f10x.o (symbol from plugin)
TIM_TimeBaseStructInit                            obj/main/NAZE/stm32f10x_tim.o (symbol from plugin)
                                                  obj/main/NAZE/drivers/timer.o (symbol from plugin)
                                                  obj/main/NAZE/drivers/light_ws2811strip_stm32f10x.o (symbol from plugin)
TIM_UpdateDisableConfig                           obj/main/NAZE/stm32f10x_tim.o (symbol from plugin)
TIM_UpdateRequestConfig                           obj/main/NAZE/stm32f10x_tim.o (symbol from plugin)
UART_TX_DMA_IRQHandler                            /tmp/ccGrItoW.ltrans26.ltrans.o
                                                  obj/main/NAZE/drivers/serial_uart_stm32f10x.o (symbol from plugin)
                                                  /tmp/ccGrItoW.ltrans5.ltrans.o
USART1_IRQHandler                                 /tmp/ccGrItoW.ltrans26.ltrans.o
                                                  obj/main/NAZE/drivers/serial_uart_stm32f10x.o (symbol from plugin)
                                                  obj/main/NAZE/startup_stm32f10x_md_gcc.o
USART2_IRQHandler                                 /tmp/ccGrItoW.ltrans26.ltrans.o
                                                  obj/main/NAZE/drivers/serial_uart_stm32f10x.o (symbol from plugin)
                                                  obj/main/NAZE/startup_stm32f10x_md_gcc.o
USART3_IRQHandler                                 /tmp/ccGrItoW.ltrans26.ltrans.o
                                                  obj/main/NAZE/drivers/serial_uart_stm32f10x.o (symbol from plugin)
                                                  obj/main/NAZE/startup_stm32f10x_md_gcc.o
USART_ClearFlag                                   obj/main/NAZE/stm32f10x_usart.o (symbol from plugin)
USART_ClearITPendingBit                           obj/main/NAZE/stm32f10x_usart.o (symbol from plugin)
                                                  obj/main/NAZE/drivers/serial_uart.o (symbol from plugin)
USART_ClockInit                                   obj/main/NAZE/stm32f10x_usart.o (symbol from plugin)
USART_ClockStructInit                             obj/main/NAZE/stm32f10x_usart.o (symbol from plugin)
USART_Cmd                                         obj/main/NAZE/stm32f10x_usart.o (symbol from plugin)
                                                  obj/main/NAZE/drivers/serial_uart.o (symbol from plugin)
USART_DMACmd                                      obj/main/NAZE/stm32f10x_usart.o (symbol from plugin)
                                                  obj/main/NAZE/drivers/serial_uart.o (symbol from plugin)
USART_DeInit                                      obj/main/NAZE/stm32f10x_usart.o (symbol from plugin)
USART_GetFlagStatus                               obj/main/NAZE/stm32f10x_usart.o (symbol from plugin)
USART_GetITStatus                                 obj/main/NAZE/stm32f10x_usart.o (symbol from plugin)
USART_HalfDuplexCmd                               obj/main/NAZE/stm32f10x_usart.o (symbol from plugin)
                                                  obj/main/NAZE/drivers/serial_uart.o (symbol from plugin)
USART_ITConfig                                    obj/main/NAZE/stm32f10x_usart.o (symbol from plugin)
                                                  obj/main/NAZE/drivers/serial_uart_stm32f10x.o (symbol from plugin)
                                                  obj/main/NAZE/drivers/serial_uart.o (symbol from plugin)
USART_Init                                        obj/main/NAZE/stm32f10x_usart.o (symbol from plugin)
                                                  obj/main/NAZE/drivers/serial_uart.o (symbol from plugin)
USART_IrDACmd                                     obj/main/NAZE/stm32f10x_usart.o (symbol from plugin)
USART_IrDAConfig                                  obj/main/NAZE/stm32f10x_usart.o (symbol from plugin)
USART_LINBreakDetectLengthConfig                  obj/main/NAZE/stm32f10x_usart.o (symbol from plugin)
USART_LINCmd                                      obj/main/NAZE/stm32f10x_usart.o (symbol from plugin)
USART_OneBitMethodCmd                             obj/main/NAZE/stm32f10x_usart.o (symbol from plugin)
USART_OverSampling8Cmd                            obj/main/NAZE/stm32f10x_usart.o (symbol from plugin)
USART_ReceiveData                                 obj/main/NAZE/stm32f10x_usart.o (symbol from plugin)
USART_ReceiverWakeUpCmd                           obj/main/NAZE/stm32f10x_usart.o (symbol from plugin)
USART_SendBreak                                   obj/main/NAZE/stm32f10x_usart.o (symbol from plugin)
USART_SendData                                    obj/main/NAZE/stm32f10x_usart.o (symbol from plugin)
USART_SetAddress                                  obj/main/NAZE/stm32f10x_usart.o (symbol from plugin)
USART_SetGuardTime                                obj/main/NAZE/stm32f10x_usart.o (symbol from plugin)
USART_SetPrescaler                                obj/main/NAZE/stm32f10x_usart.o (symbol from plugin)
USART_SmartCardCmd                                obj/main/NAZE/stm32f10x_usart.o (symbol from plugin)
USART_SmartCardNACKCmd                            obj/main/NAZE/stm32f10x_usart.o (symbol from plugin)
USART_StructInit                                  obj/main/NAZE/stm32f10x_usart.o (symbol from plugin)
USART_WakeUpConfig                                obj/main/NAZE/stm32f10x_usart.o (symbol from plugin)
USBWakeUp_IRQHandler                              obj/main/NAZE/startup_stm32f10x_md_gcc.o
USB_HP_CAN1_TX_IRQHandler                         obj/main/NAZE/startup_stm32f10x_md_gcc.o
USB_LP_CAN1_RX0_IRQHandler                        obj/main/NAZE/startup_stm32f10x_md_gcc.o
UsageFault_Handler                                obj/main/NAZE/startup_stm32f10x_md_gcc.o
WWDG_ClearFlag                                    obj/main/NAZE/stm32f10x_wwdg.o (symbol from plugin)
WWDG_DeInit                                       obj/main/NAZE/stm32f10x_wwdg.o (symbol from plugin)
WWDG_Enable                                       obj/main/NAZE/stm32f10x_wwdg.o (symbol from plugin)
WWDG_EnableIT                                     obj/main/NAZE/stm32f10x_wwdg.o (symbol from plugin)
WWDG_GetFlagStatus                                obj/main/NAZE/stm32f10x_wwdg.o (symbol from plugin)
WWDG_IRQHandler                                   obj/main/NAZE/startup_stm32f10x_md_gcc.o
WWDG_SetCounter                                   obj/main/NAZE/stm32f10x_wwdg.o (symbol from plugin)
WWDG_SetPrescaler                                 obj/main/NAZE/stm32f10x_wwdg.o (symbol from plugin)
WWDG_SetWindowValue                               obj/main/NAZE/stm32f10x_wwdg.o (symbol from plugin)
_CMD_LOAD_ADDRESS.isra.1.lto_priv.266             /tmp/ccGrItoW.ltrans17.ltrans.o
                                                  /tmp/ccGrItoW.ltrans19.ltrans.o
_CMD_PROGRAM_MEM_ISP.lto_priv.267                 /tmp/ccGrItoW.ltrans17.ltrans.o
                                                  /tmp/ccGrItoW.ltrans19.ltrans.o
_CMD_READ_MEM_ISP.lto_priv.269                    /tmp/ccGrItoW.ltrans17.ltrans.o
                                                  /tmp/ccGrItoW.ltrans19.ltrans.o
__LDREXB                                          obj/main/NAZE/core_cm3.o (symbol from plugin)
__LDREXH                                          obj/main/NAZE/core_cm3.o (symbol from plugin)
__LDREXW                                          obj/main/NAZE/core_cm3.o (symbol from plugin)
__RBIT                                            obj/main/NAZE/core_cm3.o (symbol from plugin)
__REV                                             obj/main/NAZE/core_cm3.o (symbol from plugin)
__REV16                                           obj/main/NAZE/core_cm3.o (symbol from plugin)
__REVSH                                           obj/main/NAZE/core_cm3.o (symbol from plugin)
__STREXB                                          obj/main/NAZE/core_cm3.o (symbol from plugin)
__STREXH                                          obj/main/NAZE/core_cm3.o (symbol from plugin)
__STREXW                                          obj/main/NAZE/core_cm3.o (symbol from plugin)
__adddf3                                          /usr/lib/gcc/arm-none-eabi/4.9.3/armv7-m/libgcc.a(_arm_addsubdf3.o)
__addsf3                                          /usr/lib/gcc/arm-none-eabi/4.9.3/armv7-m/libgcc.a(_arm_addsubsf3.o)
__aeabi_cdcmpeq                                   /usr/lib/gcc/arm-none-eabi/4.9.3/armv7-m/libgcc.a(_arm_cmpdf2.o)
__aeabi_cdcmple                                   /usr/lib/gcc/arm-none-eabi/4.9.3/armv7-m/libgcc.a(_arm_cmpdf2.o)
__aeabi_cdrcmple                                  /usr/lib/gcc/arm-none-eabi/4.9.3/armv7-m/libgcc.a(_arm_cmpdf2.o)
__aeabi_cfcmpeq                                   /usr/lib/gcc/arm-none-eabi/4.9.3/armv7-m/libgcc.a(_arm_cmpsf2.o)
__aeabi_cfcmple                                   /usr/lib/gcc/arm-none-eabi/4.9.3/armv7-m/libgcc.a(_arm_cmpsf2.o)
__aeabi_cfrcmple                                  /usr/lib/gcc/arm-none-eabi/4.9.3/armv7-m/libgcc.a(_arm_cmpsf2.o)
__aeabi_d2f                                       /usr/lib/gcc/arm-none-eabi/4.9.3/armv7-m/libgcc.a(_arm_truncdfsf2.o)
                                                  /usr/lib/gcc/arm-none-eabi/4.9.3/../../../arm-none-eabi/lib/armv7-m/libm.a(lib_a-wf_sqrt.o)
                                                  /usr/lib/gcc/arm-none-eabi/4.9.3/../../../arm-none-eabi/lib/armv7-m/libm.a(lib_a-wf_pow.o)
                                                  /usr/lib/gcc/arm-none-eabi/4.9.3/../../../arm-none-eabi/lib/armv7-m/libm.a(lib_a-wf_log.o)
                                                  /tmp/ccGrItoW.ltrans3.ltrans.o
__aeabi_dadd                                      /usr/lib/gcc/arm-none-eabi/4.9.3/armv7-m/libgcc.a(_arm_addsubdf3.o)
                                                  /usr/lib/gcc/arm-none-eabi/4.9.3/../../../arm-none-eabi/lib/armv7-m/libm.a(lib_a-s_rint.o)
__aeabi_dcmpeq                                    /usr/lib/gcc/arm-none-eabi/4.9.3/armv7-m/libgcc.a(_arm_cmpdf2.o)
                                                  /usr/lib/gcc/arm-none-eabi/4.9.3/../../../arm-none-eabi/lib/armv7-m/libm.a(lib_a-wf_pow.o)
__aeabi_dcmpge                                    /usr/lib/gcc/arm-none-eabi/4.9.3/armv7-m/libgcc.a(_arm_cmpdf2.o)
__aeabi_dcmpgt                                    /usr/lib/gcc/arm-none-eabi/4.9.3/armv7-m/libgcc.a(_arm_cmpdf2.o)
__aeabi_dcmple                                    /usr/lib/gcc/arm-none-eabi/4.9.3/armv7-m/libgcc.a(_arm_cmpdf2.o)
__aeabi_dcmplt                                    /usr/lib/gcc/arm-none-eabi/4.9.3/armv7-m/libgcc.a(_arm_cmpdf2.o)
__aeabi_ddiv                                      /usr/lib/gcc/arm-none-eabi/4.9.3/armv7-m/libgcc.a(_arm_muldivdf3.o)
                                                  /usr/lib/gcc/arm-none-eabi/4.9.3/../../../arm-none-eabi/lib/armv7-m/libm.a(lib_a-wf_sqrt.o)
                                                  /usr/lib/gcc/arm-none-eabi/4.9.3/../../../arm-none-eabi/lib/armv7-m/libm.a(lib_a-wf_pow.o)
                                                  /tmp/ccGrItoW.ltrans3.ltrans.o
__aeabi_dmul                                      /usr/lib/gcc/arm-none-eabi/4.9.3/armv7-m/libgcc.a(_arm_muldivdf3.o)
__aeabi_drsub                                     /usr/lib/gcc/arm-none-eabi/4.9.3/armv7-m/libgcc.a(_arm_addsubdf3.o)
__aeabi_dsub                                      /usr/lib/gcc/arm-none-eabi/4.9.3/armv7-m/libgcc.a(_arm_addsubdf3.o)
                                                  /usr/lib/gcc/arm-none-eabi/4.9.3/../../../arm-none-eabi/lib/armv7-m/libm.a(lib_a-s_rint.o)
__aeabi_f2d                                       /usr/lib/gcc/arm-none-eabi/4.9.3/armv7-m/libgcc.a(_arm_addsubdf3.o)
                                                  /usr/lib/gcc/arm-none-eabi/4.9.3/../../../arm-none-eabi/lib/armv7-m/libm.a(lib_a-wf_sqrt.o)
                                                  /usr/lib/gcc/arm-none-eabi/4.9.3/../../../arm-none-eabi/lib/armv7-m/libm.a(lib_a-wf_pow.o)
                                                  /usr/lib/gcc/arm-none-eabi/4.9.3/../../../arm-none-eabi/lib/armv7-m/libm.a(lib_a-wf_log.o)
__aeabi_f2iz                                      /usr/lib/gcc/arm-none-eabi/4.9.3/armv7-m/libgcc.a(_arm_fixsfsi.o)
                                                  /usr/lib/gcc/arm-none-eabi/4.9.3/../../../arm-none-eabi/lib/armv7-m/libm.a(lib_a-sf_lrint.o)
                                                  /tmp/ccGrItoW.ltrans25.ltrans.o
                                                  /tmp/ccGrItoW.ltrans24.ltrans.o
                                                  /tmp/ccGrItoW.ltrans22.ltrans.o
                                                  /tmp/ccGrItoW.ltrans18.ltrans.o
                                                  /tmp/ccGrItoW.ltrans16.ltrans.o
                                                  /tmp/ccGrItoW.ltrans14.ltrans.o
                                                  /tmp/ccGrItoW.ltrans10.ltrans.o
                                                  /tmp/ccGrItoW.ltrans9.ltrans.o
                                                  /tmp/ccGrItoW.ltrans6.ltrans.o
                                                  /tmp/ccGrItoW.ltrans3.ltrans.o
                                                  /tmp/ccGrItoW.ltrans2.ltrans.o
__aeabi_f2uiz                                     /usr/lib/gcc/arm-none-eabi/4.9.3/armv7-m/libgcc.a(_arm_fixunssfsi.o)
                                                  /tmp/ccGrItoW.ltrans14.ltrans.o
                                                  /tmp/ccGrItoW.ltrans10.ltrans.o
                                                  /tmp/ccGrItoW.ltrans4.ltrans.o
__aeabi_fadd                                      /usr/lib/gcc/arm-none-eabi/4.9.3/armv7-m/libgcc.a(_arm_addsubsf3.o)
                                                  /usr/lib/gcc/arm-none-eabi/4.9.3/../../../arm-none-eabi/lib/armv7-m/libm.a(lib_a-sf_scalbn.o)
                                                  /usr/lib/gcc/arm-none-eabi/4.9.3/../../../arm-none-eabi/lib/armv7-m/libm.a(lib_a-ef_sqrt.o)
                                                  /usr/lib/gcc/arm-none-eabi/4.9.3/../../../arm-none-eabi/lib/armv7-m/libm.a(lib_a-ef_pow.o)
                                                  /usr/lib/gcc/arm-none-eabi/4.9.3/../../../arm-none-eabi/lib/armv7-m/libm.a(lib_a-ef_log.o)
                                                  /usr/lib/gcc/arm-none-eabi/4.9.3/../../../arm-none-eabi/lib/armv7-m/libm.a(lib_a-sf_lrint.o)
                                                  /tmp/ccGrItoW.ltrans25.ltrans.o
                                                  /tmp/ccGrItoW.ltrans24.ltrans.o
                                                  /tmp/ccGrItoW.ltrans22.ltrans.o
                                                  /tmp/ccGrItoW.ltrans21.ltrans.o
                                                  /tmp/ccGrItoW.ltrans18.ltrans.o
                                                  /tmp/ccGrItoW.ltrans16.ltrans.o
                                                  /tmp/ccGrItoW.ltrans14.ltrans.o
                                                  /tmp/ccGrItoW.ltrans10.ltrans.o
                                                  /tmp/ccGrItoW.ltrans9.ltrans.o
                                                  /tmp/ccGrItoW.ltrans8.ltrans.o
                                                  /tmp/ccGrItoW.ltrans3.ltrans.o
                                                  /tmp/ccGrItoW.ltrans2.ltrans.o
                                                  /tmp/ccGrItoW.ltrans0.ltrans.o
__aeabi_fcmpeq                                    /usr/lib/gcc/arm-none-eabi/4.9.3/armv7-m/libgcc.a(_arm_cmpsf2.o)
                                                  /usr/lib/gcc/arm-none-eabi/4.9.3/../../../arm-none-eabi/lib/armv7-m/libm.a(lib_a-ef_log.o)
                                                  /usr/lib/gcc/arm-none-eabi/4.9.3/../../../arm-none-eabi/lib/armv7-m/libm.a(lib_a-wf_pow.o)
                                                  /usr/lib/gcc/arm-none-eabi/4.9.3/../../../arm-none-eabi/lib/armv7-m/libm.a(lib_a-wf_log.o)
                                                  /tmp/ccGrItoW.ltrans25.ltrans.o
                                                  /tmp/ccGrItoW.ltrans17.ltrans.o
                                                  /tmp/ccGrItoW.ltrans8.ltrans.o
                                                  /tmp/ccGrItoW.ltrans7.ltrans.o
                                                  /tmp/ccGrItoW.ltrans0.ltrans.o
__aeabi_fcmpge                                    /usr/lib/gcc/arm-none-eabi/4.9.3/armv7-m/libgcc.a(_arm_cmpsf2.o)
                                                  /tmp/ccGrItoW.ltrans27.ltrans.o
__aeabi_fcmpgt                                    /usr/lib/gcc/arm-none-eabi/4.9.3/armv7-m/libgcc.a(_arm_cmpsf2.o)
                                                  /usr/lib/gcc/arm-none-eabi/4.9.3/../../../arm-none-eabi/lib/armv7-m/libm.a(lib_a-ef_pow.o)
                                                  /usr/lib/gcc/arm-none-eabi/4.9.3/../../../arm-none-eabi/lib/armv7-m/libm.a(lib_a-wf_log.o)
                                                  /tmp/ccGrItoW.ltrans25.ltrans.o
                                                  /tmp/ccGrItoW.ltrans24.ltrans.o
                                                  /tmp/ccGrItoW.ltrans21.ltrans.o
                                                  /tmp/ccGrItoW.ltrans18.ltrans.o
                                                  /tmp/ccGrItoW.ltrans14.ltrans.o
                                                  /tmp/ccGrItoW.ltrans9.ltrans.o
                                                  /tmp/ccGrItoW.ltrans4.ltrans.o
__aeabi_fcmple                                    /usr/lib/gcc/arm-none-eabi/4.9.3/armv7-m/libgcc.a(_arm_cmpsf2.o)
                                                  /usr/lib/gcc/arm-none-eabi/4.9.3/../../../arm-none-eabi/lib/armv7-m/libm.a(lib_a-ef_pow.o)
                                                  /tmp/ccGrItoW.ltrans27.ltrans.o
                                                  /tmp/ccGrItoW.ltrans16.ltrans.o
                                                  /tmp/ccGrItoW.ltrans2.ltrans.o
__aeabi_fcmplt                                    /usr/lib/gcc/arm-none-eabi/4.9.3/armv7-m/libgcc.a(_arm_cmpsf2.o)
                                                  /usr/lib/gcc/arm-none-eabi/4.9.3/../../../arm-none-eabi/lib/armv7-m/libm.a(lib_a-wf_sqrt.o)
                                                  /usr/lib/gcc/arm-none-eabi/4.9.3/../../../arm-none-eabi/lib/armv7-m/libm.a(lib_a-wf_pow.o)
                                                  /tmp/ccGrItoW.ltrans25.ltrans.o
                                                  /tmp/ccGrItoW.ltrans24.ltrans.o
                                                  /tmp/ccGrItoW.ltrans22.ltrans.o
                                                  /tmp/ccGrItoW.ltrans9.ltrans.o
                                                  /tmp/ccGrItoW.ltrans7.ltrans.o
                                                  /tmp/ccGrItoW.ltrans3.ltrans.o
__aeabi_fdiv                                      /usr/lib/gcc/arm-none-eabi/4.9.3/armv7-m/libgcc.a(_arm_muldivsf3.o)
                                                  /usr/lib/gcc/arm-none-eabi/4.9.3/../../../arm-none-eabi/lib/armv7-m/libm.a(lib_a-ef_sqrt.o)
                                                  /usr/lib/gcc/arm-none-eabi/4.9.3/../../../arm-none-eabi/lib/armv7-m/libm.a(lib_a-ef_pow.o)
                                                  /usr/lib/gcc/arm-none-eabi/4.9.3/../../../arm-none-eabi/lib/armv7-m/libm.a(lib_a-ef_log.o)
                                                  /usr/lib/gcc/arm-none-eabi/4.9.3/../../../arm-none-eabi/lib/armv7-m/libm.a(lib_a-sf_log2.o)
                                                  /tmp/ccGrItoW.ltrans25.ltrans.o
                                                  /tmp/ccGrItoW.ltrans24.ltrans.o
                                                  /tmp/ccGrItoW.ltrans22.ltrans.o
                                                  /tmp/ccGrItoW.ltrans21.ltrans.o
                                                  /tmp/ccGrItoW.ltrans18.ltrans.o
                                                  /tmp/ccGrItoW.ltrans16.ltrans.o
                                                  /tmp/ccGrItoW.ltrans14.ltrans.o
                                                  /tmp/ccGrItoW.ltrans13.ltrans.o
                                                  /tmp/ccGrItoW.ltrans10.ltrans.o
                                                  /tmp/ccGrItoW.ltrans9.ltrans.o
                                                  /tmp/ccGrItoW.ltrans8.ltrans.o
                                                  /tmp/ccGrItoW.ltrans6.ltrans.o
                                                  /tmp/ccGrItoW.ltrans4.ltrans.o
                                                  /tmp/ccGrItoW.ltrans3.ltrans.o
                                                  /tmp/ccGrItoW.ltrans2.ltrans.o
                                                  /tmp/ccGrItoW.ltrans0.ltrans.o
__aeabi_fmul                                      /usr/lib/gcc/arm-none-eabi/4.9.3/armv7-m/libgcc.a(_arm_muldivsf3.o)
                                                  /usr/lib/gcc/arm-none-eabi/4.9.3/../../../arm-none-eabi/lib/armv7-m/libm.a(lib_a-sf_scalbn.o)
                                                  /usr/lib/gcc/arm-none-eabi/4.9.3/../../../arm-none-eabi/lib/armv7-m/libm.a(lib_a-ef_sqrt.o)
                                                  /usr/lib/gcc/arm-none-eabi/4.9.3/../../../arm-none-eabi/lib/armv7-m/libm.a(lib_a-ef_pow.o)
                                                  /usr/lib/gcc/arm-none-eabi/4.9.3/../../../arm-none-eabi/lib/armv7-m/libm.a(lib_a-ef_log.o)
                                                  /usr/lib/gcc/arm-none-eabi/4.9.3/../../../arm-none-eabi/lib/armv7-m/libm.a(lib_a-wf_pow.o)
                                                  /tmp/ccGrItoW.ltrans25.ltrans.o
                                                  /tmp/ccGrItoW.ltrans24.ltrans.o
                                                  /tmp/ccGrItoW.ltrans22.ltrans.o
                                                  /tmp/ccGrItoW.ltrans21.ltrans.o
                                                  /tmp/ccGrItoW.ltrans18.ltrans.o
                                                  /tmp/ccGrItoW.ltrans16.ltrans.o
                                                  /tmp/ccGrItoW.ltrans14.ltrans.o
                                                  /tmp/ccGrItoW.ltrans13.ltrans.o
                                                  /tmp/ccGrItoW.ltrans10.ltrans.o
                                                  /tmp/ccGrItoW.ltrans9.ltrans.o
                                                  /tmp/ccGrItoW.ltrans8.ltrans.o
                                                  /tmp/ccGrItoW.ltrans6.ltrans.o
                                                  /tmp/ccGrItoW.ltrans4.ltrans.o
                                                  /tmp/ccGrItoW.ltrans3.ltrans.o
                                                  /tmp/ccGrItoW.ltrans2.ltrans.o
                                                  /tmp/ccGrItoW.ltrans0.ltrans.o
__aeabi_frsub                                     /usr/lib/gcc/arm-none-eabi/4.9.3/armv7-m/libgcc.a(_arm_addsubsf3.o)
__aeabi_fsub                                      /usr/lib/gcc/arm-none-eabi/4.9.3/armv7-m/libgcc.a(_arm_addsubsf3.o)
                                                  /usr/lib/gcc/arm-none-eabi/4.9.3/../../../arm-none-eabi/lib/armv7-m/libm.a(lib_a-ef_sqrt.o)
                                                  /usr/lib/gcc/arm-none-eabi/4.9.3/../../../arm-none-eabi/lib/armv7-m/libm.a(lib_a-ef_pow.o)
                                                  /usr/lib/gcc/arm-none-eabi/4.9.3/../../../arm-none-eabi/lib/armv7-m/libm.a(lib_a-ef_log.o)
                                                  /usr/lib/gcc/arm-none-eabi/4.9.3/../../../arm-none-eabi/lib/armv7-m/libm.a(lib_a-sf_lrint.o)
                                                  /tmp/ccGrItoW.ltrans25.ltrans.o
                                                  /tmp/ccGrItoW.ltrans24.ltrans.o
                                                  /tmp/ccGrItoW.ltrans22.ltrans.o
                                                  /tmp/ccGrItoW.ltrans21.ltrans.o
                                                  /tmp/ccGrItoW.ltrans18.ltrans.o
                                                  /tmp/ccGrItoW.ltrans16.ltrans.o
                                                  /tmp/ccGrItoW.ltrans10.ltrans.o
                                                  /tmp/ccGrItoW.ltrans9.ltrans.o
                                                  /tmp/ccGrItoW.ltrans2.ltrans.o
                                                  /tmp/ccGrItoW.ltrans0.ltrans.o
__aeabi_i2d                                       /usr/lib/gcc/arm-none-eabi/4.9.3/armv7-m/libgcc.a(_arm_addsubdf3.o)
                                                  /tmp/ccGrItoW.ltrans3.ltrans.o
__aeabi_i2f                                       /usr/lib/gcc/arm-none-eabi/4.9.3/armv7-m/libgcc.a(_arm_addsubsf3.o)
                                                  /usr/lib/gcc/arm-none-eabi/4.9.3/../../../arm-none-eabi/lib/armv7-m/libm.a(lib_a-ef_pow.o)
                                                  /usr/lib/gcc/arm-none-eabi/4.9.3/../../../arm-none-eabi/lib/armv7-m/libm.a(lib_a-ef_log.o)
                                                  /tmp/ccGrItoW.ltrans27.ltrans.o
                                                  /tmp/ccGrItoW.ltrans25.ltrans.o
                                                  /tmp/ccGrItoW.ltrans24.ltrans.o
                                                  /tmp/ccGrItoW.ltrans22.ltrans.o
                                                  /tmp/ccGrItoW.ltrans21.ltrans.o
                                                  /tmp/ccGrItoW.ltrans18.ltrans.o
                                                  /tmp/ccGrItoW.ltrans16.ltrans.o
                                                  /tmp/ccGrItoW.ltrans14.ltrans.o
                                                  /tmp/ccGrItoW.ltrans13.ltrans.o
                                                  /tmp/ccGrItoW.ltrans10.ltrans.o
                                                  /tmp/ccGrItoW.ltrans9.ltrans.o
                                                  /tmp/ccGrItoW.ltrans8.ltrans.o
                                                  /tmp/ccGrItoW.ltrans6.ltrans.o
                                                  /tmp/ccGrItoW.ltrans4.ltrans.o
                                                  /tmp/ccGrItoW.ltrans3.ltrans.o
                                                  /tmp/ccGrItoW.ltrans2.ltrans.o
                                                  /tmp/ccGrItoW.ltrans0.ltrans.o
__aeabi_idiv0                                     /usr/lib/gcc/arm-none-eabi/4.9.3/armv7-m/libgcc.a(_dvmd_tls.o)
__aeabi_l2d                                       /usr/lib/gcc/arm-none-eabi/4.9.3/armv7-m/libgcc.a(_arm_addsubdf3.o)
__aeabi_l2f                                       /usr/lib/gcc/arm-none-eabi/4.9.3/armv7-m/libgcc.a(_arm_addsubsf3.o)
__aeabi_ldiv0                                     /usr/lib/gcc/arm-none-eabi/4.9.3/armv7-m/libgcc.a(_dvmd_tls.o)
                                                  /usr/lib/gcc/arm-none-eabi/4.9.3/armv7-m/libgcc.a(_aeabi_ldivmod.o)
__aeabi_ldivmod                                   /usr/lib/gcc/arm-none-eabi/4.9.3/armv7-m/libgcc.a(_aeabi_ldivmod.o)
                                                  /tmp/ccGrItoW.ltrans23.ltrans.o
                                                  /tmp/ccGrItoW.ltrans6.ltrans.o
__aeabi_ui2d                                      /usr/lib/gcc/arm-none-eabi/4.9.3/armv7-m/libgcc.a(_arm_addsubdf3.o)
__aeabi_ui2f                                      /usr/lib/gcc/arm-none-eabi/4.9.3/armv7-m/libgcc.a(_arm_addsubsf3.o)
                                                  /tmp/ccGrItoW.ltrans25.ltrans.o
                                                  /tmp/ccGrItoW.ltrans24.ltrans.o
                                                  /tmp/ccGrItoW.ltrans22.ltrans.o
                                                  /tmp/ccGrItoW.ltrans16.ltrans.o
                                                  /tmp/ccGrItoW.ltrans14.ltrans.o
                                                  /tmp/ccGrItoW.ltrans13.ltrans.o
                                                  /tmp/ccGrItoW.ltrans10.ltrans.o
                                                  /tmp/ccGrItoW.ltrans9.ltrans.o
                                                  /tmp/ccGrItoW.ltrans8.ltrans.o
                                                  /tmp/ccGrItoW.ltrans3.ltrans.o
__aeabi_ul2d                                      /usr/lib/gcc/arm-none-eabi/4.9.3/armv7-m/libgcc.a(_arm_addsubdf3.o)
__aeabi_ul2f                                      /usr/lib/gcc/arm-none-eabi/4.9.3/armv7-m/libgcc.a(_arm_addsubsf3.o)
__cmpdf2                                          /usr/lib/gcc/arm-none-eabi/4.9.3/armv7-m/libgcc.a(_arm_cmpdf2.o)
__cmpsf2                                          /usr/lib/gcc/arm-none-eabi/4.9.3/armv7-m/libgcc.a(_arm_cmpsf2.o)
__config_end                                      /tmp/ccGrItoW.ltrans25.ltrans.o
                                                  /tmp/ccGrItoW.ltrans8.ltrans.o
                                                  obj/main/NAZE/config/config_eeprom.o (symbol from plugin)
__config_start                                    /tmp/ccGrItoW.ltrans25.ltrans.o
                                                  /tmp/ccGrItoW.ltrans8.ltrans.o
                                                  /tmp/ccGrItoW.ltrans0.ltrans.o
                                                  obj/main/NAZE/config/config_eeprom.o (symbol from plugin)
__ctype_ptr__                                     /usr/lib/gcc/arm-none-eabi/4.9.3/../../../arm-none-eabi/lib/armv7-m/libc_nano.a(lib_a-ctype_.o)
                                                  /usr/lib/gcc/arm-none-eabi/4.9.3/../../../arm-none-eabi/lib/armv7-m/libc_nano.a(lib_a-strncasecmp.o)
                                                  /usr/lib/gcc/arm-none-eabi/4.9.3/../../../arm-none-eabi/lib/armv7-m/libc_nano.a(lib_a-strcasecmp.o)
                                                  /tmp/ccGrItoW.ltrans27.ltrans.o
                                                  /tmp/ccGrItoW.ltrans23.ltrans.o
                                                  /tmp/ccGrItoW.ltrans20.ltrans.o
                                                  /usr/lib/gcc/arm-none-eabi/4.9.3/../../../arm-none-eabi/lib/armv7-m/libc_nano.a(lib_a-strtol.o)
                                                  obj/main/NAZE/io/serial_cli.o (symbol from plugin)
                                                  obj/main/NAZE/flight/gps_conversion.o (symbol from plugin)
__divdf3                                          /usr/lib/gcc/arm-none-eabi/4.9.3/armv7-m/libgcc.a(_arm_muldivdf3.o)
__divdi3                                          /usr/lib/gcc/arm-none-eabi/4.9.3/armv7-m/libgcc.a(_divdi3.o)
                                                  /usr/lib/gcc/arm-none-eabi/4.9.3/armv7-m/libgcc.a(bpabi.o)
__divsf3                                          /usr/lib/gcc/arm-none-eabi/4.9.3/armv7-m/libgcc.a(_arm_muldivsf3.o)
__eqdf2                                           /usr/lib/gcc/arm-none-eabi/4.9.3/armv7-m/libgcc.a(_arm_cmpdf2.o)
__eqsf2                                           /usr/lib/gcc/arm-none-eabi/4.9.3/armv7-m/libgcc.a(_arm_cmpsf2.o)
__errno                                           /usr/lib/gcc/arm-none-eabi/4.9.3/../../../arm-none-eabi/lib/armv7-m/libc_nano.a(lib_a-errno.o)
                                                  /usr/lib/gcc/arm-none-eabi/4.9.3/../../../arm-none-eabi/lib/armv7-m/libm.a(lib_a-wf_sqrt.o)
                                                  /usr/lib/gcc/arm-none-eabi/4.9.3/../../../arm-none-eabi/lib/armv7-m/libm.a(lib_a-wf_pow.o)
                                                  /usr/lib/gcc/arm-none-eabi/4.9.3/../../../arm-none-eabi/lib/armv7-m/libm.a(lib_a-wf_log.o)
__extendsfdf2                                     /usr/lib/gcc/arm-none-eabi/4.9.3/armv7-m/libgcc.a(_arm_addsubdf3.o)
__fdlib_version                                   /usr/lib/gcc/arm-none-eabi/4.9.3/../../../arm-none-eabi/lib/armv7-m/libm.a(lib_a-s_lib_ver.o)
                                                  /usr/lib/gcc/arm-none-eabi/4.9.3/../../../arm-none-eabi/lib/armv7-m/libm.a(lib_a-wf_sqrt.o)
                                                  /usr/lib/gcc/arm-none-eabi/4.9.3/../../../arm-none-eabi/lib/armv7-m/libm.a(lib_a-wf_pow.o)
                                                  /usr/lib/gcc/arm-none-eabi/4.9.3/../../../arm-none-eabi/lib/armv7-m/libm.a(lib_a-wf_log.o)
__fixsfsi                                         /usr/lib/gcc/arm-none-eabi/4.9.3/armv7-m/libgcc.a(_arm_fixsfsi.o)
__fixunssfsi                                      /usr/lib/gcc/arm-none-eabi/4.9.3/armv7-m/libgcc.a(_arm_fixunssfsi.o)
__floatdidf                                       /usr/lib/gcc/arm-none-eabi/4.9.3/armv7-m/libgcc.a(_arm_addsubdf3.o)
__floatdisf                                       /usr/lib/gcc/arm-none-eabi/4.9.3/armv7-m/libgcc.a(_arm_addsubsf3.o)
__floatsidf                                       /usr/lib/gcc/arm-none-eabi/4.9.3/armv7-m/libgcc.a(_arm_addsubdf3.o)
__floatsisf                                       /usr/lib/gcc/arm-none-eabi/4.9.3/armv7-m/libgcc.a(_arm_addsubsf3.o)
__floatundidf                                     /usr/lib/gcc/arm-none-eabi/4.9.3/armv7-m/libgcc.a(_arm_addsubdf3.o)
__floatundisf                                     /usr/lib/gcc/arm-none-eabi/4.9.3/armv7-m/libgcc.a(_arm_addsubsf3.o)
__floatunsidf                                     /usr/lib/gcc/arm-none-eabi/4.9.3/armv7-m/libgcc.a(_arm_addsubdf3.o)
__floatunsisf                                     /usr/lib/gcc/arm-none-eabi/4.9.3/armv7-m/libgcc.a(_arm_addsubsf3.o)
__fpclassifyf                                     /usr/lib/gcc/arm-none-eabi/4.9.3/../../../arm-none-eabi/lib/armv7-m/libm.a(lib_a-sf_fpclassify.o)
                                                  /usr/lib/gcc/arm-none-eabi/4.9.3/../../../arm-none-eabi/lib/armv7-m/libm.a(lib_a-wf_sqrt.o)
                                                  /usr/lib/gcc/arm-none-eabi/4.9.3/../../../arm-none-eabi/lib/armv7-m/libm.a(lib_a-wf_pow.o)
                                                  /usr/lib/gcc/arm-none-eabi/4.9.3/../../../arm-none-eabi/lib/armv7-m/libm.a(lib_a-wf_log.o)
__gedf2                                           /usr/lib/gcc/arm-none-eabi/4.9.3/armv7-m/libgcc.a(_arm_cmpdf2.o)
__gesf2                                           /usr/lib/gcc/arm-none-eabi/4.9.3/armv7-m/libgcc.a(_arm_cmpsf2.o)
__get_BASEPRI                                     obj/main/NAZE/core_cm3.o (symbol from plugin)
                                                  obj/main/NAZE/drivers/timer.o (symbol from plugin)
__get_CONTROL                                     obj/main/NAZE/core_cm3.o (symbol from plugin)
__get_FAULTMASK                                   obj/main/NAZE/core_cm3.o (symbol from plugin)
__get_MSP                                         obj/main/NAZE/core_cm3.o (symbol from plugin)
__get_PRIMASK                                     obj/main/NAZE/core_cm3.o (symbol from plugin)
__get_PSP                                         obj/main/NAZE/core_cm3.o (symbol from plugin)
__gnu_ldivmod_helper                              /usr/lib/gcc/arm-none-eabi/4.9.3/armv7-m/libgcc.a(bpabi.o)
                                                  /usr/lib/gcc/arm-none-eabi/4.9.3/armv7-m/libgcc.a(_aeabi_ldivmod.o)
__gnu_uldivmod_helper                             /usr/lib/gcc/arm-none-eabi/4.9.3/armv7-m/libgcc.a(bpabi.o)
__gtdf2                                           /usr/lib/gcc/arm-none-eabi/4.9.3/armv7-m/libgcc.a(_arm_cmpdf2.o)
__gtsf2                                           /usr/lib/gcc/arm-none-eabi/4.9.3/armv7-m/libgcc.a(_arm_cmpsf2.o)
__ieee754_logf                                    /usr/lib/gcc/arm-none-eabi/4.9.3/../../../arm-none-eabi/lib/armv7-m/libm.a(lib_a-ef_log.o)
                                                  /usr/lib/gcc/arm-none-eabi/4.9.3/../../../arm-none-eabi/lib/armv7-m/libm.a(lib_a-wf_log.o)
__ieee754_powf                                    /usr/lib/gcc/arm-none-eabi/4.9.3/../../../arm-none-eabi/lib/armv7-m/libm.a(lib_a-ef_pow.o)
                                                  /usr/lib/gcc/arm-none-eabi/4.9.3/../../../arm-none-eabi/lib/armv7-m/libm.a(lib_a-wf_pow.o)
__ieee754_sqrtf                                   /usr/lib/gcc/arm-none-eabi/4.9.3/../../../arm-none-eabi/lib/armv7-m/libm.a(lib_a-ef_sqrt.o)
                                                  /usr/lib/gcc/arm-none-eabi/4.9.3/../../../arm-none-eabi/lib/armv7-m/libm.a(lib_a-ef_pow.o)
                                                  /usr/lib/gcc/arm-none-eabi/4.9.3/../../../arm-none-eabi/lib/armv7-m/libm.a(lib_a-wf_sqrt.o)
__ledf2                                           /usr/lib/gcc/arm-none-eabi/4.9.3/armv7-m/libgcc.a(_arm_cmpdf2.o)
__lesf2                                           /usr/lib/gcc/arm-none-eabi/4.9.3/armv7-m/libgcc.a(_arm_cmpsf2.o)
__ltdf2                                           /usr/lib/gcc/arm-none-eabi/4.9.3/armv7-m/libgcc.a(_arm_cmpdf2.o)
__ltsf2                                           /usr/lib/gcc/arm-none-eabi/4.9.3/armv7-m/libgcc.a(_arm_cmpsf2.o)
__malloc_free_list                                /usr/lib/gcc/arm-none-eabi/4.9.3/../../../arm-none-eabi/lib/armv7-m/libc_nano.a(lib_a-nano-mallocr.o)
                                                  /usr/lib/gcc/arm-none-eabi/4.9.3/../../../arm-none-eabi/lib/armv7-m/libc_nano.a(lib_a-nano-freer.o)
__malloc_sbrk_start                               /usr/lib/gcc/arm-none-eabi/4.9.3/../../../arm-none-eabi/lib/armv7-m/libc_nano.a(lib_a-nano-mallocr.o)
__muldf3                                          /usr/lib/gcc/arm-none-eabi/4.9.3/armv7-m/libgcc.a(_arm_muldivdf3.o)
__mulsf3                                          /usr/lib/gcc/arm-none-eabi/4.9.3/armv7-m/libgcc.a(_arm_muldivsf3.o)
__nedf2                                           /usr/lib/gcc/arm-none-eabi/4.9.3/armv7-m/libgcc.a(_arm_cmpdf2.o)
__nesf2                                           /usr/lib/gcc/arm-none-eabi/4.9.3/armv7-m/libgcc.a(_arm_cmpsf2.o)
__pg_registry_end                                 /tmp/ccGrItoW.ltrans27.ltrans.o
                                                  /tmp/ccGrItoW.ltrans25.ltrans.o
                                                  /tmp/ccGrItoW.ltrans10.ltrans.o
                                                  /tmp/ccGrItoW.ltrans8.ltrans.o
                                                  obj/main/NAZE/config/config_eeprom.o (symbol from plugin)
                                                  obj/main/NAZE/config/parameter_group.o (symbol from plugin)
                                                  obj/main/NAZE/io/serial_cli.o (symbol from plugin)
                                                  obj/main/NAZE/fc/config.o (symbol from plugin)
__pg_registry_start                               /tmp/ccGrItoW.ltrans27.ltrans.o
                                                  /tmp/ccGrItoW.ltrans25.ltrans.o
                                                  /tmp/ccGrItoW.ltrans10.ltrans.o
                                                  /tmp/ccGrItoW.ltrans8.ltrans.o
                                                  obj/main/NAZE/config/config_eeprom.o (symbol from plugin)
                                                  obj/main/NAZE/config/parameter_group.o (symbol from plugin)
                                                  obj/main/NAZE/io/serial_cli.o (symbol from plugin)
                                                  obj/main/NAZE/fc/config.o (symbol from plugin)
__pg_resetdata_end                                /tmp/ccGrItoW.ltrans25.ltrans.o
                                                  obj/main/NAZE/config/parameter_group.o (symbol from plugin)
__pg_resetdata_start                              /tmp/ccGrItoW.ltrans25.ltrans.o
                                                  obj/main/NAZE/config/parameter_group.o (symbol from plugin)
__popcountsi2                                     /usr/lib/gcc/arm-none-eabi/4.9.3/armv7-m/libgcc.a(_popcountsi2.o)
                                                  /tmp/ccGrItoW.ltrans19.ltrans.o
__set_BASEPRI                                     obj/main/NAZE/core_cm3.o (symbol from plugin)
                                                  obj/main/NAZE/drivers/timer.o (symbol from plugin)
__set_CONTROL                                     obj/main/NAZE/core_cm3.o (symbol from plugin)
__set_FAULTMASK                                   obj/main/NAZE/core_cm3.o (symbol from plugin)
__set_MSP                                         obj/main/NAZE/core_cm3.o (symbol from plugin)
__set_PRIMASK                                     obj/main/NAZE/core_cm3.o (symbol from plugin)
__set_PSP                                         obj/main/NAZE/core_cm3.o (symbol from plugin)
__sf_fake_stderr                                  /usr/lib/gcc/arm-none-eabi/4.9.3/../../../arm-none-eabi/lib/armv7-m/libc_nano.a(lib_a-impure.o)
__sf_fake_stdin                                   /usr/lib/gcc/arm-none-eabi/4.9.3/../../../arm-none-eabi/lib/armv7-m/libc_nano.a(lib_a-impure.o)
__sf_fake_stdout                                  /usr/lib/gcc/arm-none-eabi/4.9.3/../../../arm-none-eabi/lib/armv7-m/libc_nano.a(lib_a-impure.o)
__strtok_r                                        /usr/lib/gcc/arm-none-eabi/4.9.3/../../../arm-none-eabi/lib/armv7-m/libc_nano.a(lib_a-strtok_r.o)
                                                  /usr/lib/gcc/arm-none-eabi/4.9.3/../../../arm-none-eabi/lib/armv7-m/libc_nano.a(lib_a-strtok.o)
__subdf3                                          /usr/lib/gcc/arm-none-eabi/4.9.3/armv7-m/libgcc.a(_arm_addsubdf3.o)
__subsf3                                          /usr/lib/gcc/arm-none-eabi/4.9.3/armv7-m/libgcc.a(_arm_addsubsf3.o)
__truncdfsf2                                      /usr/lib/gcc/arm-none-eabi/4.9.3/armv7-m/libgcc.a(_arm_truncdfsf2.o)
__udivdi3                                         /usr/lib/gcc/arm-none-eabi/4.9.3/armv7-m/libgcc.a(_udivdi3.o)
                                                  /usr/lib/gcc/arm-none-eabi/4.9.3/armv7-m/libgcc.a(bpabi.o)
_atoi_r                                           /usr/lib/gcc/arm-none-eabi/4.9.3/../../../arm-none-eabi/lib/armv7-m/libc_nano.a(lib_a-atoi.o)
_crc_xmodem_update                                obj/main/NAZE/io/serial_4way.o (symbol from plugin)
_ctype_                                           /usr/lib/gcc/arm-none-eabi/4.9.3/../../../arm-none-eabi/lib/armv7-m/libc_nano.a(lib_a-ctype_.o)
_ebss                                             obj/main/NAZE/startup_stm32f10x_md_gcc.o
_edata                                            obj/main/NAZE/startup_stm32f10x_md_gcc.o
_estack                                           obj/main/NAZE/startup_stm32f10x_md_gcc.o
_free_r                                           /usr/lib/gcc/arm-none-eabi/4.9.3/../../../arm-none-eabi/lib/armv7-m/libc_nano.a(lib_a-nano-freer.o)
                                                  /usr/lib/gcc/arm-none-eabi/4.9.3/../../../arm-none-eabi/lib/armv7-m/libc_nano.a(lib_a-reent.o)
                                                  /usr/lib/gcc/arm-none-eabi/4.9.3/../../../arm-none-eabi/lib/armv7-m/libc_nano.a(lib_a-malloc.o)
_global_impure_ptr                                /usr/lib/gcc/arm-none-eabi/4.9.3/../../../arm-none-eabi/lib/armv7-m/libc_nano.a(lib_a-impure.o)
_i2a.lto_priv.174                                 /tmp/ccGrItoW.ltrans18.ltrans.o
                                                  /tmp/ccGrItoW.ltrans20.ltrans.o
_impure_ptr                                       /usr/lib/gcc/arm-none-eabi/4.9.3/../../../arm-none-eabi/lib/armv7-m/libc_nano.a(lib_a-impure.o)
                                                  /usr/lib/gcc/arm-none-eabi/4.9.3/../../../arm-none-eabi/lib/armv7-m/libc_nano.a(lib_a-errno.o)
                                                  /usr/lib/gcc/arm-none-eabi/4.9.3/../../../arm-none-eabi/lib/armv7-m/libc_nano.a(lib_a-reent.o)
                                                  /usr/lib/gcc/arm-none-eabi/4.9.3/../../../arm-none-eabi/lib/armv7-m/libc_nano.a(lib_a-malloc.o)
                                                  /usr/lib/gcc/arm-none-eabi/4.9.3/../../../arm-none-eabi/lib/armv7-m/libc_nano.a(lib_a-strtol.o)
                                                  /usr/lib/gcc/arm-none-eabi/4.9.3/../../../arm-none-eabi/lib/armv7-m/libc_nano.a(lib_a-strtok.o)
_malloc_r                                         /usr/lib/gcc/arm-none-eabi/4.9.3/../../../arm-none-eabi/lib/armv7-m/libc_nano.a(lib_a-nano-mallocr.o)
                                                  /usr/lib/gcc/arm-none-eabi/4.9.3/../../../arm-none-eabi/lib/armv7-m/libc_nano.a(lib_a-malloc.o)
_putc.lto_priv.466                                /tmp/ccGrItoW.ltrans25.ltrans.o
                                                  /tmp/ccGrItoW.ltrans0.ltrans.o
_reclaim_reent                                    /usr/lib/gcc/arm-none-eabi/4.9.3/../../../arm-none-eabi/lib/armv7-m/libc_nano.a(lib_a-reent.o)
_sbrk                                             /usr/lib/gcc/arm-none-eabi/4.9.3/../../../arm-none-eabi/lib/armv7-m/libnosys.a(sbrk.o)
                                                  /usr/lib/gcc/arm-none-eabi/4.9.3/../../../arm-none-eabi/lib/armv7-m/libc_nano.a(lib_a-sbrkr.o)
_sbrk_r                                           /usr/lib/gcc/arm-none-eabi/4.9.3/../../../arm-none-eabi/lib/armv7-m/libc_nano.a(lib_a-sbrkr.o)
                                                  /usr/lib/gcc/arm-none-eabi/4.9.3/../../../arm-none-eabi/lib/armv7-m/libc_nano.a(lib_a-nano-mallocr.o)
_sbss                                             obj/main/NAZE/startup_stm32f10x_md_gcc.o
_sdata                                            obj/main/NAZE/startup_stm32f10x_md_gcc.o
_sidata                                           obj/main/NAZE/startup_stm32f10x_md_gcc.o
_strtol_r                                         /usr/lib/gcc/arm-none-eabi/4.9.3/../../../arm-none-eabi/lib/armv7-m/libc_nano.a(lib_a-strtol.o)
                                                  /usr/lib/gcc/arm-none-eabi/4.9.3/../../../arm-none-eabi/lib/armv7-m/libc_nano.a(lib_a-atoi.o)
_update_checksum                                  obj/main/NAZE/io/gps.o (symbol from plugin)
a2d                                               obj/main/NAZE/common/typeconversion.o (symbol from plugin)
a2i                                               obj/main/NAZE/common/typeconversion.o (symbol from plugin)
                                                  obj/main/NAZE/common/printf.o (symbol from plugin)
acc                                               /tmp/ccGrItoW.ltrans1.ltrans.o
                                                  obj/main/NAZE/sensors/acceleration.o (symbol from plugin)
                                                  /tmp/ccGrItoW.ltrans24.ltrans.o
                                                  /tmp/ccGrItoW.ltrans13.ltrans.o
                                                  /tmp/ccGrItoW.ltrans10.ltrans.o
                                                  /tmp/ccGrItoW.ltrans3.ltrans.o
                                                  /tmp/ccGrItoW.ltrans2.ltrans.o
                                                  /tmp/ccGrItoW.ltrans0.ltrans.o
                                                  obj/main/NAZE/sensors/initialisation.o (symbol from plugin)
                                                  obj/main/NAZE/io/serial_cli.o (symbol from plugin)
                                                  obj/main/NAZE/flight/imu.o (symbol from plugin)
                                                  obj/main/NAZE/fc/msp_server_fc.o (symbol from plugin)
                                                  obj/main/NAZE/blackbox/blackbox.o (symbol from plugin)
                                                  obj/main/NAZE/telemetry/frsky.o (symbol from plugin)
accADC                                            obj/main/NAZE/sensors/acceleration.o (symbol from plugin)
                                                  obj/main/NAZE/flight/imu.o (symbol from plugin)
accAlign                                          /tmp/ccGrItoW.ltrans13.ltrans.o
                                                  obj/main/NAZE/sensors/acceleration.o (symbol from plugin)
                                                  /tmp/ccGrItoW.ltrans24.ltrans.o
                                                  obj/main/NAZE/sensors/initialisation.o (symbol from plugin)
accDeadband.lto_priv.358                          /tmp/ccGrItoW.ltrans8.ltrans.o
                                                  /tmp/ccGrItoW.ltrans24.ltrans.o
accSetCalibrationCycles                           obj/main/NAZE/sensors/acceleration.o (symbol from plugin)
                                                  obj/main/NAZE/fc/msp_server_fc.o (symbol from plugin)
                                                  obj/main/NAZE/fc/rc_controls.o (symbol from plugin)
                                                  obj/main/NAZE/fc/boot.o (symbol from plugin)
accSmooth                                         /tmp/ccGrItoW.ltrans1.ltrans.o
                                                  obj/main/NAZE/flight/imu.o (symbol from plugin)
                                                  /tmp/ccGrItoW.ltrans24.ltrans.o
                                                  /tmp/ccGrItoW.ltrans12.ltrans.o
                                                  /tmp/ccGrItoW.ltrans3.ltrans.o
                                                  obj/main/NAZE/fc/msp_server_fc.o (symbol from plugin)
                                                  obj/main/NAZE/blackbox/blackbox.o (symbol from plugin)
                                                  obj/main/NAZE/telemetry/smartport.o (symbol from plugin)
                                                  obj/main/NAZE/telemetry/frsky.o (symbol from plugin)
accSum                                            /tmp/ccGrItoW.ltrans16.ltrans.o
                                                  obj/main/NAZE/flight/imu.o (symbol from plugin)
                                                  /tmp/ccGrItoW.ltrans24.ltrans.o
                                                  obj/main/NAZE/flight/altitudehold.o (symbol from plugin)
accSumCount                                       /tmp/ccGrItoW.ltrans16.ltrans.o
                                                  obj/main/NAZE/flight/imu.o (symbol from plugin)
                                                  /tmp/ccGrItoW.ltrans24.ltrans.o
                                                  obj/main/NAZE/flight/altitudehold.o (symbol from plugin)
accTimeSum                                        /tmp/ccGrItoW.ltrans16.ltrans.o
                                                  obj/main/NAZE/flight/imu.o (symbol from plugin)
                                                  /tmp/ccGrItoW.ltrans24.ltrans.o
                                                  obj/main/NAZE/flight/altitudehold.o (symbol from plugin)
accVelScale                                       /tmp/ccGrItoW.ltrans16.ltrans.o
                                                  obj/main/NAZE/flight/imu.o (symbol from plugin)
                                                  /tmp/ccGrItoW.ltrans0.ltrans.o
                                                  obj/main/NAZE/flight/altitudehold.o (symbol from plugin)
acc_samples                                       obj/main/NAZE/drivers/accgyro_adxl345.o (symbol from plugin)
accelerationTrims.lto_priv.363                    /tmp/ccGrItoW.ltrans8.ltrans.o
                                                  /tmp/ccGrItoW.ltrans24.ltrans.o
accelerometerConfig_ProfileCurrent                /tmp/ccGrItoW.ltrans1.ltrans.o
                                                  obj/main/NAZE/sensors/acceleration.o (symbol from plugin)
                                                  /tmp/ccGrItoW.ltrans24.ltrans.o
                                                  /tmp/ccGrItoW.ltrans8.ltrans.o
                                                  /tmp/ccGrItoW.ltrans4.ltrans.o
                                                  /tmp/ccGrItoW.ltrans2.ltrans.o
                                                  obj/main/NAZE/fc/msp_server_fc.o (symbol from plugin)
                                                  obj/main/NAZE/fc/config.o (symbol from plugin)
                                                  obj/main/NAZE/fc/cleanflight_fc.o (symbol from plugin)
accelerometerConfig_Registry                      /tmp/ccGrItoW.ltrans1.ltrans.o
                                                  obj/main/NAZE/sensors/acceleration.o (symbol from plugin)
acosf                                             /tmp/ccGrItoW.ltrans25.ltrans.o
                                                  /tmp/ccGrItoW.ltrans24.ltrans.o
                                                  /tmp/ccGrItoW.ltrans2.ltrans.o
activateControlRateConfig                         obj/main/NAZE/fc/rate_profile.o (symbol from plugin)
                                                  obj/main/NAZE/fc/config.o (symbol from plugin)
activeBoxIds.lto_priv.448                         /tmp/ccGrItoW.ltrans1.ltrans.o
                                                  /tmp/ccGrItoW.ltrans0.ltrans.o
activeFeaturesLatch.lto_priv.219                  /tmp/ccGrItoW.ltrans20.ltrans.o
                                                  /tmp/ccGrItoW.ltrans29.ltrans.o
                                                  /tmp/ccGrItoW.ltrans24.ltrans.o
                                                  /tmp/ccGrItoW.ltrans23.ltrans.o
                                                  /tmp/ccGrItoW.ltrans22.ltrans.o
                                                  /tmp/ccGrItoW.ltrans21.ltrans.o
                                                  /tmp/ccGrItoW.ltrans16.ltrans.o
                                                  /tmp/ccGrItoW.ltrans12.ltrans.o
                                                  /tmp/ccGrItoW.ltrans10.ltrans.o
                                                  /tmp/ccGrItoW.ltrans9.ltrans.o
                                                  /tmp/ccGrItoW.ltrans8.ltrans.o
                                                  /tmp/ccGrItoW.ltrans4.ltrans.o
                                                  /tmp/ccGrItoW.ltrans3.ltrans.o
                                                  /tmp/ccGrItoW.ltrans2.ltrans.o
                                                  /tmp/ccGrItoW.ltrans0.ltrans.o
adcConfig                                         /tmp/ccGrItoW.ltrans10.ltrans.o
                                                  obj/main/NAZE/drivers/adc.o (symbol from plugin)
                                                  /tmp/ccGrItoW.ltrans23.ltrans.o
                                                  /tmp/ccGrItoW.ltrans4.ltrans.o
                                                  /tmp/ccGrItoW.ltrans0.ltrans.o
                                                  obj/main/NAZE/drivers/adc_stm32f10x.o (symbol from plugin)
adcGetChannel                                     obj/main/NAZE/drivers/adc.o (symbol from plugin)
                                                  obj/main/NAZE/sensors/amperage.o (symbol from plugin)
                                                  obj/main/NAZE/sensors/voltage.o (symbol from plugin)
                                                  obj/main/NAZE/rx/rx.o (symbol from plugin)
adcInit                                           obj/main/NAZE/drivers/adc_stm32f10x.o (symbol from plugin)
                                                  obj/main/NAZE/fc/boot.o (symbol from plugin)
adcValues                                         /tmp/ccGrItoW.ltrans10.ltrans.o
                                                  obj/main/NAZE/drivers/adc.o (symbol from plugin)
                                                  /tmp/ccGrItoW.ltrans23.ltrans.o
                                                  /tmp/ccGrItoW.ltrans4.ltrans.o
                                                  /tmp/ccGrItoW.ltrans0.ltrans.o
                                                  obj/main/NAZE/drivers/adc_stm32f10x.o (symbol from plugin)
addGPSCoordinates                                 obj/main/NAZE/telemetry/hott.o (symbol from plugin)
adjustmentProfile_ProfileCurrent                  /tmp/ccGrItoW.ltrans1.ltrans.o
                                                  obj/main/NAZE/fc/rc_adjustments.o (symbol from plugin)
                                                  /tmp/ccGrItoW.ltrans17.ltrans.o
                                                  /tmp/ccGrItoW.ltrans4.ltrans.o
                                                  obj/main/NAZE/io/serial_cli.o (symbol from plugin)
                                                  obj/main/NAZE/fc/msp_server_fc.o (symbol from plugin)
                                                  obj/main/NAZE/fc/cleanflight_fc.o (symbol from plugin)
adjustmentProfile_Registry                        /tmp/ccGrItoW.ltrans1.ltrans.o
                                                  obj/main/NAZE/fc/rc_adjustments.o (symbol from plugin)
adjustmentStateMask                               obj/main/NAZE/fc/rc_adjustments.o (symbol from plugin)
adjustmentStates                                  /tmp/ccGrItoW.ltrans8.ltrans.o
                                                  obj/main/NAZE/fc/rc_adjustments.o (symbol from plugin)
                                                  /tmp/ccGrItoW.ltrans4.ltrans.o
adxl345Detect                                     obj/main/NAZE/drivers/accgyro_adxl345.o (symbol from plugin)
                                                  obj/main/NAZE/sensors/initialisation.o (symbol from plugin)
adxl345Init.lto_priv.188                          /tmp/ccGrItoW.ltrans26.ltrans.o
                                                  /tmp/ccGrItoW.ltrans13.ltrans.o
adxl345Read.lto_priv.189                          /tmp/ccGrItoW.ltrans26.ltrans.o
                                                  /tmp/ccGrItoW.ltrans13.ltrans.o
airplaneConfig_Registry                           /tmp/ccGrItoW.ltrans2.ltrans.o
                                                  obj/main/NAZE/flight/altitudehold.o (symbol from plugin)
airplaneConfig_System                             obj/main/NAZE/flight/altitudehold.o (symbol from plugin)
alignSensors                                      /tmp/ccGrItoW.ltrans10.ltrans.o
                                                  obj/main/NAZE/sensors/boardalignment.o (symbol from plugin)
                                                  /tmp/ccGrItoW.ltrans24.ltrans.o
                                                  /tmp/ccGrItoW.ltrans21.ltrans.o
                                                  /tmp/ccGrItoW.ltrans16.ltrans.o
                                                  obj/main/NAZE/sensors/gyro.o (symbol from plugin)
                                                  obj/main/NAZE/sensors/compass.o (symbol from plugin)
                                                  obj/main/NAZE/sensors/acceleration.o (symbol from plugin)
altHoldThrottleAdjustment                         /tmp/ccGrItoW.ltrans16.ltrans.o
                                                  obj/main/NAZE/flight/altitudehold.o (symbol from plugin)
                                                  /tmp/ccGrItoW.ltrans4.ltrans.o
                                                  /tmp/ccGrItoW.ltrans2.ltrans.o
altitudeHoldGetEstimatedAltitude                  obj/main/NAZE/flight/altitudehold.o (symbol from plugin)
                                                  obj/main/NAZE/fc/msp_server_fc.o (symbol from plugin)
                                                  obj/main/NAZE/telemetry/mavlink.o (symbol from plugin)
                                                  obj/main/NAZE/telemetry/ltm.o (symbol from plugin)
amperageMeterConfig_Registry                      /tmp/ccGrItoW.ltrans1.ltrans.o
                                                  obj/main/NAZE/sensors/amperage.o (symbol from plugin)
amperageMeterConfig_SystemArray                   /tmp/ccGrItoW.ltrans1.ltrans.o
                                                  obj/main/NAZE/sensors/amperage.o (symbol from plugin)
                                                  /tmp/ccGrItoW.ltrans23.ltrans.o
                                                  /tmp/ccGrItoW.ltrans2.ltrans.o
                                                  obj/main/NAZE/fc/msp_server_fc.o (symbol from plugin)
                                                  obj/main/NAZE/blackbox/blackbox.o (symbol from plugin)
amperageMeterInit                                 obj/main/NAZE/sensors/amperage.o (symbol from plugin)
                                                  obj/main/NAZE/fc/boot.o (symbol from plugin)
amperageMeters                                    /tmp/ccGrItoW.ltrans1.ltrans.o
                                                  obj/main/NAZE/sensors/amperage.o (symbol from plugin)
                                                  /tmp/ccGrItoW.ltrans23.ltrans.o
                                                  /tmp/ccGrItoW.ltrans12.ltrans.o
                                                  /tmp/ccGrItoW.ltrans10.ltrans.o
                                                  /tmp/ccGrItoW.ltrans3.ltrans.o
amperageSensorToCentiamps                         obj/main/NAZE/sensors/amperage.o (symbol from plugin)
amperageUpdateMeter                               obj/main/NAZE/sensors/amperage.o (symbol from plugin)
                                                  obj/main/NAZE/fc/cleanflight_fc.o (symbol from plugin)
amperageUpdateVirtualMeter                        obj/main/NAZE/sensors/amperage.o (symbol from plugin)
                                                  obj/main/NAZE/fc/cleanflight_fc.o (symbol from plugin)
applyAccelerationTrims                            obj/main/NAZE/sensors/acceleration.o (symbol from plugin)
applyAltHold                                      obj/main/NAZE/flight/altitudehold.o (symbol from plugin)
                                                  obj/main/NAZE/fc/cleanflight_fc.o (symbol from plugin)
applyAndSaveAccelerometerTrimsDelta               obj/main/NAZE/fc/cleanflight_fc.o (symbol from plugin)
                                                  obj/main/NAZE/fc/rc_controls.o (symbol from plugin)
applyChangedBits                                  obj/main/NAZE/drivers/serial_softserial.o (symbol from plugin)
applyDeadband                                     /tmp/ccGrItoW.ltrans25.ltrans.o
                                                  obj/main/NAZE/common/maths.o (symbol from plugin)
                                                  /tmp/ccGrItoW.ltrans24.ltrans.o
                                                  /tmp/ccGrItoW.ltrans16.ltrans.o
                                                  obj/main/NAZE/flight/imu.o (symbol from plugin)
                                                  obj/main/NAZE/flight/altitudehold.o (symbol from plugin)
applyLarsonScannerLayer.lto_priv.293              /tmp/ccGrItoW.ltrans11.ltrans.o
                                                  /tmp/ccGrItoW.ltrans29.ltrans.o
applyLedBatteryLayer.lto_priv.294                 /tmp/ccGrItoW.ltrans11.ltrans.o
                                                  /tmp/ccGrItoW.ltrans29.ltrans.o
applyLedBlinkLayer.lto_priv.292                   /tmp/ccGrItoW.ltrans11.ltrans.o
                                                  /tmp/ccGrItoW.ltrans29.ltrans.o
applyLedGpsLayer.lto_priv.296                     /tmp/ccGrItoW.ltrans11.ltrans.o
                                                  /tmp/ccGrItoW.ltrans29.ltrans.o
applyLedHsv.lto_priv.523                          /tmp/ccGrItoW.ltrans22.ltrans.o
                                                  /tmp/ccGrItoW.ltrans11.ltrans.o
applyLedIndicatorLayer.lto_priv.298               /tmp/ccGrItoW.ltrans11.ltrans.o
                                                  /tmp/ccGrItoW.ltrans29.ltrans.o
applyLedRssiLayer.lto_priv.295                    /tmp/ccGrItoW.ltrans11.ltrans.o
                                                  /tmp/ccGrItoW.ltrans29.ltrans.o
applyLedThrustRingLayer.lto_priv.299              /tmp/ccGrItoW.ltrans11.ltrans.o
                                                  /tmp/ccGrItoW.ltrans29.ltrans.o
applyLedWarningLayer.lto_priv.297                 /tmp/ccGrItoW.ltrans22.ltrans.o
                                                  /tmp/ccGrItoW.ltrans29.ltrans.o
applySelectAdjustment                             obj/main/NAZE/fc/rc_adjustments.o (symbol from plugin)
applyStepAdjustment                               obj/main/NAZE/fc/rc_adjustments.o (symbol from plugin)
areSticksInApModePosition                         obj/main/NAZE/fc/rc_controls.o (symbol from plugin)
                                                  obj/main/NAZE/flight/navigation.o (symbol from plugin)
armingBeepTimeMicros.lto_priv.390                 /tmp/ccGrItoW.ltrans23.ltrans.o
                                                  /tmp/ccGrItoW.ltrans21.ltrans.o
                                                  /tmp/ccGrItoW.ltrans12.ltrans.o
armingConfig_Registry                             /tmp/ccGrItoW.ltrans1.ltrans.o
                                                  obj/main/NAZE/fc/rc_controls.o (symbol from plugin)
armingConfig_System                               /tmp/ccGrItoW.ltrans1.ltrans.o
                                                  obj/main/NAZE/fc/rc_controls.o (symbol from plugin)
                                                  /tmp/ccGrItoW.ltrans21.ltrans.o
                                                  /tmp/ccGrItoW.ltrans8.ltrans.o
                                                  /tmp/ccGrItoW.ltrans4.ltrans.o
                                                  obj/main/NAZE/fc/msp_server_fc.o (symbol from plugin)
                                                  obj/main/NAZE/fc/config.o (symbol from plugin)
                                                  obj/main/NAZE/fc/cleanflight_fc.o (symbol from plugin)
armingFlags                                       /tmp/ccGrItoW.ltrans1.ltrans.o
                                                  obj/main/NAZE/fc/runtime_config.o (symbol from plugin)
                                                  /tmp/ccGrItoW.ltrans29.ltrans.o
                                                  /tmp/ccGrItoW.ltrans24.ltrans.o
                                                  /tmp/ccGrItoW.ltrans23.ltrans.o
                                                  /tmp/ccGrItoW.ltrans22.ltrans.o
                                                  /tmp/ccGrItoW.ltrans21.ltrans.o
                                                  /tmp/ccGrItoW.ltrans11.ltrans.o
                                                  /tmp/ccGrItoW.ltrans4.ltrans.o
                                                  /tmp/ccGrItoW.ltrans3.ltrans.o
                                                  /tmp/ccGrItoW.ltrans2.ltrans.o
                                                  /tmp/ccGrItoW.ltrans0.ltrans.o
                                                  obj/main/NAZE/io/serial_cli.o (symbol from plugin)
                                                  obj/main/NAZE/flight/servos.o (symbol from plugin)
                                                  obj/main/NAZE/flight/mixer.o (symbol from plugin)
                                                  obj/main/NAZE/flight/imu.o (symbol from plugin)
                                                  obj/main/NAZE/flight/failsafe.o (symbol from plugin)
                                                  obj/main/NAZE/fc/msp_server_fc.o (symbol from plugin)
                                                  obj/main/NAZE/fc/fc_serial.o (symbol from plugin)
                                                  obj/main/NAZE/fc/rc_controls.o (symbol from plugin)
                                                  obj/main/NAZE/fc/cleanflight_fc.o (symbol from plugin)
                                                  obj/main/NAZE/fc/boot.o (symbol from plugin)
                                                  obj/main/NAZE/telemetry/mavlink.o (symbol from plugin)
                                                  obj/main/NAZE/telemetry/ltm.o (symbol from plugin)
                                                  obj/main/NAZE/telemetry/smartport.o (symbol from plugin)
                                                  obj/main/NAZE/telemetry/frsky.o (symbol from plugin)
                                                  obj/main/NAZE/telemetry/telemetry.o (symbol from plugin)
                                                  obj/main/NAZE/io/ledstrip.o (symbol from plugin)
                                                  obj/main/NAZE/flight/navigation.o (symbol from plugin)
arraySubInt32                                     obj/main/NAZE/common/maths.o (symbol from plugin)
                                                  obj/main/NAZE/blackbox/blackbox.o (symbol from plugin)
atan2f                                            /tmp/ccGrItoW.ltrans25.ltrans.o
                                                  /tmp/ccGrItoW.ltrans24.ltrans.o
                                                  /tmp/ccGrItoW.ltrans14.ltrans.o
atoi                                              /usr/lib/gcc/arm-none-eabi/4.9.3/../../../arm-none-eabi/lib/armv7-m/libc_nano.a(lib_a-atoi.o)
                                                  /tmp/ccGrItoW.ltrans27.ltrans.o
                                                  /tmp/ccGrItoW.ltrans17.ltrans.o
                                                  /tmp/ccGrItoW.ltrans7.ltrans.o
                                                  obj/main/NAZE/io/serial_cli.o (symbol from plugin)
                                                  obj/main/NAZE/io/ledstrip.o (symbol from plugin)
attitude                                          /tmp/ccGrItoW.ltrans1.ltrans.o
                                                  obj/main/NAZE/flight/imu.o (symbol from plugin)
                                                  /tmp/ccGrItoW.ltrans24.ltrans.o
                                                  /tmp/ccGrItoW.ltrans21.ltrans.o
                                                  /tmp/ccGrItoW.ltrans16.ltrans.o
                                                  /tmp/ccGrItoW.ltrans14.ltrans.o
                                                  /tmp/ccGrItoW.ltrans9.ltrans.o
                                                  /tmp/ccGrItoW.ltrans8.ltrans.o
                                                  /tmp/ccGrItoW.ltrans4.ltrans.o
                                                  /tmp/ccGrItoW.ltrans3.ltrans.o
                                                  /tmp/ccGrItoW.ltrans2.ltrans.o
                                                  obj/main/NAZE/flight/servos.o (symbol from plugin)
                                                  obj/main/NAZE/flight/pid_mw23.o (symbol from plugin)
                                                  obj/main/NAZE/flight/pid_mwrewrite.o (symbol from plugin)
                                                  obj/main/NAZE/flight/pid_luxfloat.o (symbol from plugin)
                                                  obj/main/NAZE/flight/pid.o (symbol from plugin)
                                                  obj/main/NAZE/flight/altitudehold.o (symbol from plugin)
                                                  obj/main/NAZE/fc/msp_server_fc.o (symbol from plugin)
                                                  obj/main/NAZE/fc/cleanflight_fc.o (symbol from plugin)
                                                  obj/main/NAZE/telemetry/mavlink.o (symbol from plugin)
                                                  obj/main/NAZE/telemetry/ltm.o (symbol from plugin)
                                                  obj/main/NAZE/telemetry/smartport.o (symbol from plugin)
                                                  obj/main/NAZE/telemetry/frsky.o (symbol from plugin)
                                                  obj/main/NAZE/flight/navigation.o (symbol from plugin)
averageSystemLoadPercent                          /tmp/ccGrItoW.ltrans1.ltrans.o
                                                  obj/main/NAZE/scheduler/scheduler.o (symbol from plugin)
                                                  /tmp/ccGrItoW.ltrans21.ltrans.o
                                                  /tmp/ccGrItoW.ltrans18.ltrans.o
                                                  /tmp/ccGrItoW.ltrans10.ltrans.o
                                                  /tmp/ccGrItoW.ltrans4.ltrans.o
                                                  obj/main/NAZE/io/serial_cli.o (symbol from plugin)
                                                  obj/main/NAZE/fc/msp_server_fc.o (symbol from plugin)
                                                  obj/main/NAZE/fc/cleanflight_fc.o (symbol from plugin)
axisPID                                           /tmp/ccGrItoW.ltrans9.ltrans.o
                                                  obj/main/NAZE/flight/pid.o (symbol from plugin)
                                                  /tmp/ccGrItoW.ltrans2.ltrans.o
                                                  obj/main/NAZE/flight/servos.o (symbol from plugin)
                                                  obj/main/NAZE/flight/mixer.o (symbol from plugin)
                                                  obj/main/NAZE/flight/pid_mw23.o (symbol from plugin)
                                                  obj/main/NAZE/flight/pid_mwrewrite.o (symbol from plugin)
                                                  obj/main/NAZE/flight/pid_luxfloat.o (symbol from plugin)
axisPID_D                                         /tmp/ccGrItoW.ltrans9.ltrans.o
                                                  obj/main/NAZE/flight/pid.o (symbol from plugin)
                                                  /tmp/ccGrItoW.ltrans12.ltrans.o
                                                  obj/main/NAZE/flight/pid_mw23.o (symbol from plugin)
                                                  obj/main/NAZE/flight/pid_mwrewrite.o (symbol from plugin)
                                                  obj/main/NAZE/flight/pid_luxfloat.o (symbol from plugin)
                                                  obj/main/NAZE/blackbox/blackbox.o (symbol from plugin)
axisPID_I                                         /tmp/ccGrItoW.ltrans9.ltrans.o
                                                  obj/main/NAZE/flight/pid.o (symbol from plugin)
                                                  /tmp/ccGrItoW.ltrans12.ltrans.o
                                                  obj/main/NAZE/flight/pid_mw23.o (symbol from plugin)
                                                  obj/main/NAZE/flight/pid_mwrewrite.o (symbol from plugin)
                                                  obj/main/NAZE/flight/pid_luxfloat.o (symbol from plugin)
                                                  obj/main/NAZE/blackbox/blackbox.o (symbol from plugin)
axisPID_P                                         /tmp/ccGrItoW.ltrans9.ltrans.o
                                                  obj/main/NAZE/flight/pid.o (symbol from plugin)
                                                  /tmp/ccGrItoW.ltrans12.ltrans.o
                                                  obj/main/NAZE/flight/pid_mw23.o (symbol from plugin)
                                                  obj/main/NAZE/flight/pid_mwrewrite.o (symbol from plugin)
                                                  obj/main/NAZE/flight/pid_luxfloat.o (symbol from plugin)
                                                  obj/main/NAZE/blackbox/blackbox.o (symbol from plugin)
baro                                              /tmp/ccGrItoW.ltrans13.ltrans.o
                                                  obj/main/NAZE/sensors/barometer.o (symbol from plugin)
                                                  /tmp/ccGrItoW.ltrans16.ltrans.o
                                                  obj/main/NAZE/sensors/initialisation.o (symbol from plugin)
baroCalculateAltitude                             obj/main/NAZE/sensors/barometer.o (symbol from plugin)
                                                  obj/main/NAZE/flight/altitudehold.o (symbol from plugin)
baroPressure                                      obj/main/NAZE/sensors/barometer.o (symbol from plugin)
baroSetCalibrationCycles                          obj/main/NAZE/sensors/barometer.o (symbol from plugin)
                                                  obj/main/NAZE/fc/rc_controls.o (symbol from plugin)
                                                  obj/main/NAZE/fc/boot.o (symbol from plugin)
baroTemperature                                   /tmp/ccGrItoW.ltrans3.ltrans.o
                                                  obj/main/NAZE/sensors/barometer.o (symbol from plugin)
                                                  /tmp/ccGrItoW.ltrans16.ltrans.o
                                                  obj/main/NAZE/telemetry/ibus.o (symbol from plugin)
                                                  obj/main/NAZE/telemetry/frsky.o (symbol from plugin)
baroUpdate                                        obj/main/NAZE/sensors/barometer.o (symbol from plugin)
                                                  obj/main/NAZE/fc/cleanflight_fc.o (symbol from plugin)
baro_cf_alt                                       obj/main/NAZE/sensors/sonar.o (symbol from plugin)
baro_cf_vel                                       obj/main/NAZE/sensors/sonar.o (symbol from plugin)
barometerConfig_ProfileCurrent                    obj/main/NAZE/sensors/barometer.o (symbol from plugin)
                                                  obj/main/NAZE/flight/altitudehold.o (symbol from plugin)
barometerConfig_Registry                          /tmp/ccGrItoW.ltrans16.ltrans.o
                                                  obj/main/NAZE/sensors/barometer.o (symbol from plugin)
batteryCapacityRemainingPercentage                /tmp/ccGrItoW.ltrans10.ltrans.o
                                                  obj/main/NAZE/sensors/battery.o (symbol from plugin)
                                                  /tmp/ccGrItoW.ltrans29.ltrans.o
                                                  /tmp/ccGrItoW.ltrans3.ltrans.o
                                                  obj/main/NAZE/telemetry/frsky.o (symbol from plugin)
                                                  obj/main/NAZE/io/ledstrip.o (symbol from plugin)
batteryCellCount                                  /tmp/ccGrItoW.ltrans10.ltrans.o
                                                  obj/main/NAZE/sensors/battery.o (symbol from plugin)
                                                  /tmp/ccGrItoW.ltrans23.ltrans.o
                                                  /tmp/ccGrItoW.ltrans3.ltrans.o
                                                  /tmp/ccGrItoW.ltrans0.ltrans.o
                                                  obj/main/NAZE/io/serial_cli.o (symbol from plugin)
                                                  obj/main/NAZE/telemetry/ibus.o (symbol from plugin)
                                                  obj/main/NAZE/telemetry/smartport.o (symbol from plugin)
                                                  obj/main/NAZE/telemetry/frsky.o (symbol from plugin)
batteryConfig_Registry                            /tmp/ccGrItoW.ltrans1.ltrans.o
                                                  obj/main/NAZE/sensors/battery.o (symbol from plugin)
batteryConfig_System                              /tmp/ccGrItoW.ltrans1.ltrans.o
                                                  obj/main/NAZE/sensors/battery.o (symbol from plugin)
                                                  /tmp/ccGrItoW.ltrans23.ltrans.o
                                                  /tmp/ccGrItoW.ltrans12.ltrans.o
                                                  /tmp/ccGrItoW.ltrans10.ltrans.o
                                                  /tmp/ccGrItoW.ltrans3.ltrans.o
                                                  /tmp/ccGrItoW.ltrans2.ltrans.o
                                                  /tmp/ccGrItoW.ltrans0.ltrans.o
                                                  obj/main/NAZE/fc/msp_server_fc.o (symbol from plugin)
                                                  obj/main/NAZE/fc/cleanflight_fc.o (symbol from plugin)
                                                  obj/main/NAZE/fc/boot.o (symbol from plugin)
                                                  obj/main/NAZE/blackbox/blackbox.o (symbol from plugin)
                                                  obj/main/NAZE/telemetry/mavlink.o (symbol from plugin)
                                                  obj/main/NAZE/telemetry/smartport.o (symbol from plugin)
                                                  obj/main/NAZE/telemetry/hott.o (symbol from plugin)
                                                  obj/main/NAZE/telemetry/frsky.o (symbol from plugin)
batteryCriticalVoltage                            /tmp/ccGrItoW.ltrans23.ltrans.o
                                                  obj/main/NAZE/sensors/battery.o (symbol from plugin)
                                                  /tmp/ccGrItoW.ltrans0.ltrans.o
batteryInit                                       obj/main/NAZE/sensors/battery.o (symbol from plugin)
                                                  obj/main/NAZE/fc/boot.o (symbol from plugin)
batteryState.lto_priv.222                         /tmp/ccGrItoW.ltrans1.ltrans.o
                                                  /tmp/ccGrItoW.ltrans23.ltrans.o
                                                  /tmp/ccGrItoW.ltrans22.ltrans.o
                                                  /tmp/ccGrItoW.ltrans11.ltrans.o
                                                  /tmp/ccGrItoW.ltrans10.ltrans.o
                                                  /tmp/ccGrItoW.ltrans3.ltrans.o
                                                  /tmp/ccGrItoW.ltrans0.ltrans.o
batteryStateStrings                               obj/main/NAZE/sensors/battery.o (symbol from plugin)
batteryUpdate                                     obj/main/NAZE/sensors/battery.o (symbol from plugin)
                                                  obj/main/NAZE/fc/cleanflight_fc.o (symbol from plugin)
batteryVoltagePercentage                          obj/main/NAZE/sensors/battery.o (symbol from plugin)
                                                  obj/main/NAZE/telemetry/mavlink.o (symbol from plugin)
batteryWarningVoltage                             /tmp/ccGrItoW.ltrans23.ltrans.o
                                                  obj/main/NAZE/sensors/battery.o (symbol from plugin)
                                                  /tmp/ccGrItoW.ltrans0.ltrans.o
baudRates                                         /tmp/ccGrItoW.ltrans18.ltrans.o
                                                  obj/main/NAZE/io/serial.o (symbol from plugin)
                                                  /tmp/ccGrItoW.ltrans21.ltrans.o
                                                  /tmp/ccGrItoW.ltrans17.ltrans.o
                                                  /tmp/ccGrItoW.ltrans16.ltrans.o
                                                  /tmp/ccGrItoW.ltrans11.ltrans.o
                                                  obj/main/NAZE/msp/msp_serial.o (symbol from plugin)
                                                  obj/main/NAZE/io/serial_cli.o (symbol from plugin)
                                                  obj/main/NAZE/blackbox/blackbox_io.o (symbol from plugin)
                                                  obj/main/NAZE/telemetry/mavlink.o (symbol from plugin)
                                                  obj/main/NAZE/telemetry/ltm.o (symbol from plugin)
                                                  obj/main/NAZE/io/gps.o (symbol from plugin)
beepInverted.lto_priv.460                         /tmp/ccGrItoW.ltrans19.ltrans.o
                                                  /tmp/ccGrItoW.ltrans0.ltrans.o
beepNormal.lto_priv.461                           /tmp/ccGrItoW.ltrans19.ltrans.o
                                                  /tmp/ccGrItoW.ltrans0.ltrans.o
beep_multiBeeps.lto_priv.345                      /tmp/ccGrItoW.ltrans19.ltrans.o
                                                  /tmp/ccGrItoW.ltrans23.ltrans.o
beeper                                            /tmp/ccGrItoW.ltrans19.ltrans.o
                                                  obj/main/NAZE/io/beeper.o (symbol from plugin)
                                                  /tmp/ccGrItoW.ltrans24.ltrans.o
                                                  /tmp/ccGrItoW.ltrans23.ltrans.o
                                                  /tmp/ccGrItoW.ltrans21.ltrans.o
                                                  /tmp/ccGrItoW.ltrans4.ltrans.o
                                                  obj/main/NAZE/sensors/gyro.o (symbol from plugin)
                                                  obj/main/NAZE/sensors/battery.o (symbol from plugin)
                                                  obj/main/NAZE/sensors/acceleration.o (symbol from plugin)
                                                  obj/main/NAZE/flight/failsafe.o (symbol from plugin)
                                                  obj/main/NAZE/fc/rc_controls.o (symbol from plugin)
                                                  obj/main/NAZE/fc/cleanflight_fc.o (symbol from plugin)
                                                  obj/main/NAZE/flight/navigation.o (symbol from plugin)
beeperConfirmationBeeps                           /tmp/ccGrItoW.ltrans19.ltrans.o
                                                  obj/main/NAZE/io/beeper.o (symbol from plugin)
                                                  /tmp/ccGrItoW.ltrans21.ltrans.o
                                                  /tmp/ccGrItoW.ltrans8.ltrans.o
                                                  /tmp/ccGrItoW.ltrans4.ltrans.o
                                                  obj/main/NAZE/fc/runtime_config.o (symbol from plugin)
                                                  obj/main/NAZE/fc/config.o (symbol from plugin)
                                                  obj/main/NAZE/fc/rc_controls.o (symbol from plugin)
                                                  obj/main/NAZE/fc/rc_adjustments.o (symbol from plugin)
                                                  obj/main/NAZE/fc/cleanflight_fc.o (symbol from plugin)
beeperGpsStatus                                   obj/main/NAZE/io/beeper.o (symbol from plugin)
beeperInit                                        obj/main/NAZE/drivers/sound_beeper.o (symbol from plugin)
                                                  obj/main/NAZE/fc/boot.o (symbol from plugin)
beeperIsOn.lto_priv.343                           /tmp/ccGrItoW.ltrans19.ltrans.o
                                                  /tmp/ccGrItoW.ltrans23.ltrans.o
beeperModeForTableIndex                           obj/main/NAZE/io/beeper.o (symbol from plugin)
beeperNameForTableIndex                           obj/main/NAZE/io/beeper.o (symbol from plugin)
beeperNextToggleTime.lto_priv.342                 /tmp/ccGrItoW.ltrans19.ltrans.o
                                                  /tmp/ccGrItoW.ltrans23.ltrans.o
beeperPos.lto_priv.344                            /tmp/ccGrItoW.ltrans19.ltrans.o
                                                  /tmp/ccGrItoW.ltrans23.ltrans.o
beeperSilence                                     /tmp/ccGrItoW.ltrans19.ltrans.o
                                                  obj/main/NAZE/io/beeper.o (symbol from plugin)
                                                  /tmp/ccGrItoW.ltrans23.ltrans.o
                                                  /tmp/ccGrItoW.ltrans20.ltrans.o
                                                  /tmp/ccGrItoW.ltrans4.ltrans.o
                                                  obj/main/NAZE/io/serial.o (symbol from plugin)
                                                  obj/main/NAZE/io/serial_4way.o (symbol from plugin)
                                                  obj/main/NAZE/fc/cleanflight_fc.o (symbol from plugin)
beeperTableEntryCount                             obj/main/NAZE/io/beeper.o (symbol from plugin)
beeperUpdate                                      obj/main/NAZE/io/beeper.o (symbol from plugin)
                                                  obj/main/NAZE/fc/cleanflight_fc.o (symbol from plugin)
biquadFilterApply                                 /tmp/ccGrItoW.ltrans25.ltrans.o
                                                  obj/main/NAZE/common/filter.o (symbol from plugin)
                                                  /tmp/ccGrItoW.ltrans21.ltrans.o
                                                  /tmp/ccGrItoW.ltrans10.ltrans.o
                                                  /tmp/ccGrItoW.ltrans9.ltrans.o
                                                  /tmp/ccGrItoW.ltrans2.ltrans.o
                                                  obj/main/NAZE/sensors/gyro.o (symbol from plugin)
                                                  obj/main/NAZE/sensors/voltage.o (symbol from plugin)
                                                  obj/main/NAZE/flight/servos.o (symbol from plugin)
                                                  obj/main/NAZE/flight/pid_luxfloat.o (symbol from plugin)
biquadFilterCalculateNotchQ.lto_priv.212          /tmp/ccGrItoW.ltrans25.ltrans.o
                                                  /tmp/ccGrItoW.ltrans13.ltrans.o
                                                  /tmp/ccGrItoW.ltrans8.ltrans.o
biquadFilterInit.lto_priv.211                     /tmp/ccGrItoW.ltrans25.ltrans.o
                                                  /tmp/ccGrItoW.ltrans13.ltrans.o
                                                  /tmp/ccGrItoW.ltrans8.ltrans.o
                                                  /tmp/ccGrItoW.ltrans0.ltrans.o
biquadFilterInitLPF                               obj/main/NAZE/common/filter.o (symbol from plugin)
                                                  obj/main/NAZE/sensors/gyro.o (symbol from plugin)
                                                  obj/main/NAZE/sensors/voltage.o (symbol from plugin)
                                                  obj/main/NAZE/flight/servos.o (symbol from plugin)
                                                  obj/main/NAZE/flight/pid.o (symbol from plugin)
biquadFilterInitNotch                             obj/main/NAZE/common/filter.o (symbol from plugin)
                                                  obj/main/NAZE/sensors/gyro.o (symbol from plugin)
                                                  obj/main/NAZE/flight/pid.o (symbol from plugin)
blackboxAdvanceIterationTimers.lto_priv.375       /tmp/ccGrItoW.ltrans12.ltrans.o
                                                  /tmp/ccGrItoW.ltrans2.ltrans.o
blackboxConditionCache.lto_priv.389               /tmp/ccGrItoW.ltrans2.ltrans.o
                                                  /tmp/ccGrItoW.ltrans21.ltrans.o
                                                  /tmp/ccGrItoW.ltrans12.ltrans.o
blackboxConfig_Registry                           /tmp/ccGrItoW.ltrans1.ltrans.o
                                                  obj/main/NAZE/blackbox/blackbox.o (symbol from plugin)
blackboxConfig_System                             /tmp/ccGrItoW.ltrans1.ltrans.o
                                                  obj/main/NAZE/blackbox/blackbox.o (symbol from plugin)
                                                  /tmp/ccGrItoW.ltrans30.ltrans.o
                                                  /tmp/ccGrItoW.ltrans21.ltrans.o
                                                  /tmp/ccGrItoW.ltrans12.ltrans.o
                                                  /tmp/ccGrItoW.ltrans2.ltrans.o
                                                  obj/main/NAZE/fc/msp_server_fc.o (symbol from plugin)
                                                  obj/main/NAZE/blackbox/blackbox_io.o (symbol from plugin)
blackboxDeviceBeginLog                            obj/main/NAZE/blackbox/blackbox_io.o (symbol from plugin)
                                                  obj/main/NAZE/blackbox/blackbox.o (symbol from plugin)
blackboxDeviceClose                               obj/main/NAZE/blackbox/blackbox_io.o (symbol from plugin)
                                                  obj/main/NAZE/blackbox/blackbox.o (symbol from plugin)
blackboxDeviceEndLog                              obj/main/NAZE/blackbox/blackbox_io.o (symbol from plugin)
                                                  obj/main/NAZE/blackbox/blackbox.o (symbol from plugin)
blackboxDeviceFlush                               obj/main/NAZE/blackbox/blackbox_io.o (symbol from plugin)
                                                  obj/main/NAZE/blackbox/blackbox.o (symbol from plugin)
blackboxDeviceFlushForce                          /tmp/ccGrItoW.ltrans30.ltrans.o
                                                  obj/main/NAZE/blackbox/blackbox_io.o (symbol from plugin)
                                                  /tmp/ccGrItoW.ltrans2.ltrans.o
                                                  obj/main/NAZE/blackbox/blackbox.o (symbol from plugin)
blackboxDeviceOpen                                obj/main/NAZE/blackbox/blackbox_io.o (symbol from plugin)
                                                  obj/main/NAZE/blackbox/blackbox.o (symbol from plugin)
blackboxDeviceReserveBufferSpace                  /tmp/ccGrItoW.ltrans30.ltrans.o
                                                  obj/main/NAZE/blackbox/blackbox_io.o (symbol from plugin)
                                                  /tmp/ccGrItoW.ltrans12.ltrans.o
                                                  /tmp/ccGrItoW.ltrans2.ltrans.o
                                                  obj/main/NAZE/blackbox/blackbox.o (symbol from plugin)
blackboxHeaderBudget                              /tmp/ccGrItoW.ltrans2.ltrans.o
                                                  obj/main/NAZE/blackbox/blackbox_io.o (symbol from plugin)
                                                  /tmp/ccGrItoW.ltrans30.ltrans.o
                                                  /tmp/ccGrItoW.ltrans12.ltrans.o
                                                  obj/main/NAZE/blackbox/blackbox.o (symbol from plugin)
blackboxHistory.lto_priv.498                      /tmp/ccGrItoW.ltrans21.ltrans.o
                                                  /tmp/ccGrItoW.ltrans12.ltrans.o
blackboxHistoryRing.lto_priv.499                  /tmp/ccGrItoW.ltrans21.ltrans.o
                                                  /tmp/ccGrItoW.ltrans12.ltrans.o
blackboxIFrameIndex.lto_priv.497                  /tmp/ccGrItoW.ltrans21.ltrans.o
                                                  /tmp/ccGrItoW.ltrans12.ltrans.o
blackboxIteration.lto_priv.387                    /tmp/ccGrItoW.ltrans2.ltrans.o
                                                  /tmp/ccGrItoW.ltrans21.ltrans.o
                                                  /tmp/ccGrItoW.ltrans12.ltrans.o
blackboxLastArmingBeep.lto_priv.500               /tmp/ccGrItoW.ltrans21.ltrans.o
                                                  /tmp/ccGrItoW.ltrans12.ltrans.o
blackboxLogEvent                                  obj/main/NAZE/blackbox/blackbox.o (symbol from plugin)
                                                  obj/main/NAZE/fc/rc_adjustments.o (symbol from plugin)
blackboxLogInflightAdjustmentEvent                /tmp/ccGrItoW.ltrans29.ltrans.o
                                                  obj/main/NAZE/fc/rc_adjustments.o (symbol from plugin)
                                                  /tmp/ccGrItoW.ltrans20.ltrans.o
                                                  /tmp/ccGrItoW.ltrans4.ltrans.o
blackboxLogInflightAdjustmentEventFloat           obj/main/NAZE/fc/rc_adjustments.o (symbol from plugin)
blackboxLogIteration.lto_priv.376                 /tmp/ccGrItoW.ltrans12.ltrans.o
                                                  /tmp/ccGrItoW.ltrans2.ltrans.o
blackboxLoggedAnyFrames.lto_priv.391              /tmp/ccGrItoW.ltrans2.ltrans.o
                                                  /tmp/ccGrItoW.ltrans21.ltrans.o
                                                  /tmp/ccGrItoW.ltrans12.ltrans.o
blackboxMaxHeaderBytesPerIteration.lto_priv.394   /tmp/ccGrItoW.ltrans2.ltrans.o
                                                  /tmp/ccGrItoW.ltrans21.ltrans.o
blackboxMayEditConfig                             obj/main/NAZE/blackbox/blackbox.o (symbol from plugin)
                                                  obj/main/NAZE/fc/msp_server_fc.o (symbol from plugin)
blackboxModeActivationConditionPresent.lto_priv.386 /tmp/ccGrItoW.ltrans2.ltrans.o
                                                  /tmp/ccGrItoW.ltrans21.ltrans.o
blackboxPFrameIndex.lto_priv.388                  /tmp/ccGrItoW.ltrans2.ltrans.o
                                                  /tmp/ccGrItoW.ltrans21.ltrans.o
                                                  /tmp/ccGrItoW.ltrans12.ltrans.o
blackboxPort.lto_priv.396                         /tmp/ccGrItoW.ltrans2.ltrans.o
                                                  /tmp/ccGrItoW.ltrans30.ltrans.o
                                                  /tmp/ccGrItoW.ltrans21.ltrans.o
blackboxPortSharing.lto_priv.395                  /tmp/ccGrItoW.ltrans2.ltrans.o
                                                  /tmp/ccGrItoW.ltrans21.ltrans.o
blackboxPrint                                     /tmp/ccGrItoW.ltrans30.ltrans.o
                                                  obj/main/NAZE/blackbox/blackbox_io.o (symbol from plugin)
                                                  /tmp/ccGrItoW.ltrans21.ltrans.o
                                                  /tmp/ccGrItoW.ltrans12.ltrans.o
                                                  obj/main/NAZE/blackbox/blackbox.o (symbol from plugin)
blackboxPrintf                                    /tmp/ccGrItoW.ltrans30.ltrans.o
                                                  obj/main/NAZE/blackbox/blackbox_io.o (symbol from plugin)
                                                  /tmp/ccGrItoW.ltrans12.ltrans.o
                                                  obj/main/NAZE/blackbox/blackbox.o (symbol from plugin)
blackboxPrintfHeaderLine                          /tmp/ccGrItoW.ltrans30.ltrans.o
                                                  obj/main/NAZE/blackbox/blackbox_io.o (symbol from plugin)
                                                  /tmp/ccGrItoW.ltrans2.ltrans.o
                                                  obj/main/NAZE/blackbox/blackbox.o (symbol from plugin)
blackboxReplenishHeaderBudget                     obj/main/NAZE/blackbox/blackbox_io.o (symbol from plugin)
                                                  obj/main/NAZE/blackbox/blackbox.o (symbol from plugin)
blackboxSlowFrameIterationTimer.lto_priv.393      /tmp/ccGrItoW.ltrans2.ltrans.o
                                                  /tmp/ccGrItoW.ltrans12.ltrans.o
blackboxState.lto_priv.291                        /tmp/ccGrItoW.ltrans1.ltrans.o
                                                  /tmp/ccGrItoW.ltrans29.ltrans.o
                                                  /tmp/ccGrItoW.ltrans21.ltrans.o
                                                  /tmp/ccGrItoW.ltrans12.ltrans.o
                                                  /tmp/ccGrItoW.ltrans2.ltrans.o
                                                  /tmp/ccGrItoW.ltrans0.ltrans.o
blackboxWrite                                     /tmp/ccGrItoW.ltrans30.ltrans.o
                                                  obj/main/NAZE/blackbox/blackbox_io.o (symbol from plugin)
                                                  /tmp/ccGrItoW.ltrans29.ltrans.o
                                                  /tmp/ccGrItoW.ltrans21.ltrans.o
                                                  /tmp/ccGrItoW.ltrans12.ltrans.o
                                                  /tmp/ccGrItoW.ltrans2.ltrans.o
                                                  obj/main/NAZE/blackbox/blackbox.o (symbol from plugin)
blackboxWriteFloat                                obj/main/NAZE/blackbox/blackbox_io.o (symbol from plugin)
                                                  obj/main/NAZE/blackbox/blackbox.o (symbol from plugin)
blackboxWriteS16                                  obj/main/NAZE/blackbox/blackbox_io.o (symbol from plugin)
                                                  obj/main/NAZE/blackbox/blackbox.o (symbol from plugin)
blackboxWriteSigned16VBArray                      obj/main/NAZE/blackbox/blackbox_io.o (symbol from plugin)
                                                  obj/main/NAZE/blackbox/blackbox.o (symbol from plugin)
blackboxWriteSigned16VBArray.constprop.56         /tmp/ccGrItoW.ltrans20.ltrans.o
                                                  /tmp/ccGrItoW.ltrans12.ltrans.o
blackboxWriteSignedVB                             /tmp/ccGrItoW.ltrans30.ltrans.o
                                                  obj/main/NAZE/blackbox/blackbox_io.o (symbol from plugin)
                                                  /tmp/ccGrItoW.ltrans29.ltrans.o
                                                  /tmp/ccGrItoW.ltrans20.ltrans.o
                                                  /tmp/ccGrItoW.ltrans12.ltrans.o
                                                  obj/main/NAZE/blackbox/blackbox.o (symbol from plugin)
blackboxWriteSignedVBArray                        obj/main/NAZE/blackbox/blackbox_io.o (symbol from plugin)
                                                  obj/main/NAZE/blackbox/blackbox.o (symbol from plugin)
blackboxWriteSignedVBArray.constprop.55           /tmp/ccGrItoW.ltrans20.ltrans.o
                                                  /tmp/ccGrItoW.ltrans12.ltrans.o
blackboxWriteTag2_3S32                            /tmp/ccGrItoW.ltrans30.ltrans.o
                                                  obj/main/NAZE/blackbox/blackbox_io.o (symbol from plugin)
                                                  /tmp/ccGrItoW.ltrans12.ltrans.o
                                                  obj/main/NAZE/blackbox/blackbox.o (symbol from plugin)
blackboxWriteTag8_4S16                            obj/main/NAZE/blackbox/blackbox_io.o (symbol from plugin)
                                                  obj/main/NAZE/blackbox/blackbox.o (symbol from plugin)
blackboxWriteTag8_8SVB                            obj/main/NAZE/blackbox/blackbox_io.o (symbol from plugin)
                                                  obj/main/NAZE/blackbox/blackbox.o (symbol from plugin)
blackboxWriteU32                                  obj/main/NAZE/blackbox/blackbox_io.o (symbol from plugin)
blackboxWriteUnsignedVB                           /tmp/ccGrItoW.ltrans30.ltrans.o
                                                  obj/main/NAZE/blackbox/blackbox_io.o (symbol from plugin)
                                                  /tmp/ccGrItoW.ltrans12.ltrans.o
                                                  /tmp/ccGrItoW.ltrans2.ltrans.o
                                                  obj/main/NAZE/blackbox/blackbox.o (symbol from plugin)
blinkMask.lto_priv.327                            /tmp/ccGrItoW.ltrans19.ltrans.o
                                                  /tmp/ccGrItoW.ltrans23.ltrans.o
                                                  /tmp/ccGrItoW.ltrans4.ltrans.o
bma280Detect                                      obj/main/NAZE/drivers/accgyro_bma280.o (symbol from plugin)
                                                  obj/main/NAZE/sensors/initialisation.o (symbol from plugin)
bma280Init.lto_priv.183                           /tmp/ccGrItoW.ltrans26.ltrans.o
                                                  /tmp/ccGrItoW.ltrans13.ltrans.o
bma280Read.lto_priv.184                           /tmp/ccGrItoW.ltrans26.ltrans.o
                                                  /tmp/ccGrItoW.ltrans13.ltrans.o
bmp085.lto_priv.551                               /tmp/ccGrItoW.ltrans13.ltrans.o
                                                  /tmp/ccGrItoW.ltrans6.ltrans.o
bmp085Detect                                      obj/main/NAZE/drivers/barometer_bmp085.o (symbol from plugin)
                                                  obj/main/NAZE/sensors/initialisation.o (symbol from plugin)
bmp085Disable                                     obj/main/NAZE/drivers/barometer_bmp085.o (symbol from plugin)
                                                  obj/main/NAZE/sensors/initialisation.o (symbol from plugin)
bmp085InitXCLRGpio                                /tmp/ccGrItoW.ltrans6.ltrans.o
                                                  obj/main/NAZE/drivers/barometer_bmp085.o (symbol from plugin)
                                                  /tmp/ccGrItoW.ltrans13.ltrans.o
bmp085TestEOCConnected                            obj/main/NAZE/drivers/barometer_bmp085.o (symbol from plugin)
bmp085_calculate.lto_priv.204                     /tmp/ccGrItoW.ltrans6.ltrans.o
                                                  /tmp/ccGrItoW.ltrans13.ltrans.o
bmp085_extiHandler                                /tmp/ccGrItoW.ltrans26.ltrans.o
                                                  obj/main/NAZE/drivers/barometer_bmp085.o (symbol from plugin)
                                                  /tmp/ccGrItoW.ltrans13.ltrans.o
bmp085_get_up.lto_priv.203                        /tmp/ccGrItoW.ltrans6.ltrans.o
                                                  /tmp/ccGrItoW.ltrans13.ltrans.o
bmp085_get_ut.lto_priv.201                        /tmp/ccGrItoW.ltrans6.ltrans.o
                                                  /tmp/ccGrItoW.ltrans13.ltrans.o
bmp085_start_up.lto_priv.202                      /tmp/ccGrItoW.ltrans6.ltrans.o
                                                  /tmp/ccGrItoW.ltrans13.ltrans.o
bmp085_start_ut.lto_priv.200                      /tmp/ccGrItoW.ltrans6.ltrans.o
                                                  /tmp/ccGrItoW.ltrans13.ltrans.o
bmp280Detect                                      obj/main/NAZE/drivers/barometer_bmp280.o (symbol from plugin)
                                                  obj/main/NAZE/sensors/initialisation.o (symbol from plugin)
bmp280_cal.lto_priv.549                           /tmp/ccGrItoW.ltrans13.ltrans.o
                                                  /tmp/ccGrItoW.ltrans6.ltrans.o
bmp280_calculate.lto_priv.194                     /tmp/ccGrItoW.ltrans6.ltrans.o
                                                  /tmp/ccGrItoW.ltrans13.ltrans.o
bmp280_get_up.lto_priv.193                        /tmp/ccGrItoW.ltrans6.ltrans.o
                                                  /tmp/ccGrItoW.ltrans13.ltrans.o
bmp280_get_ut.lto_priv.190                        /tmp/ccGrItoW.ltrans6.ltrans.o
                                                  /tmp/ccGrItoW.ltrans13.ltrans.o
bmp280_start_up.lto_priv.192                      /tmp/ccGrItoW.ltrans6.ltrans.o
                                                  /tmp/ccGrItoW.ltrans13.ltrans.o
bmp280_start_ut.lto_priv.191                      /tmp/ccGrItoW.ltrans6.ltrans.o
                                                  /tmp/ccGrItoW.ltrans13.ltrans.o
boardAlignment_Registry                           /tmp/ccGrItoW.ltrans1.ltrans.o
                                                  obj/main/NAZE/sensors/boardalignment.o (symbol from plugin)
boardAlignment_System                             /tmp/ccGrItoW.ltrans1.ltrans.o
                                                  obj/main/NAZE/sensors/boardalignment.o (symbol from plugin)
                                                  /tmp/ccGrItoW.ltrans0.ltrans.o
                                                  obj/main/NAZE/fc/msp_server_fc.o (symbol from plugin)
boardRotation.lto_priv.450                        /tmp/ccGrItoW.ltrans10.ltrans.o
                                                  /tmp/ccGrItoW.ltrans0.ltrans.o
boxes.lto_priv.283                                /tmp/ccGrItoW.ltrans1.ltrans.o
                                                  /tmp/ccGrItoW.ltrans8.ltrans.o
bufWriterAppend                                   obj/main/NAZE/drivers/buf_writer.o (symbol from plugin)
                                                  obj/main/NAZE/io/serial_cli.o (symbol from plugin)
bufWriterFlush                                    /tmp/ccGrItoW.ltrans18.ltrans.o
                                                  obj/main/NAZE/drivers/buf_writer.o (symbol from plugin)
                                                  /tmp/ccGrItoW.ltrans27.ltrans.o
                                                  /tmp/ccGrItoW.ltrans23.ltrans.o
                                                  /tmp/ccGrItoW.ltrans17.ltrans.o
                                                  /tmp/ccGrItoW.ltrans7.ltrans.o
                                                  obj/main/NAZE/io/serial_cli.o (symbol from plugin)
bufWriterInit                                     obj/main/NAZE/drivers/buf_writer.o (symbol from plugin)
                                                  obj/main/NAZE/io/serial_cli.o (symbol from plugin)
bufferHead.lto_priv.540                           /tmp/ccGrItoW.ltrans30.ltrans.o
                                                  /tmp/ccGrItoW.ltrans14.ltrans.o
bufferIndex.lto_priv.346                          /tmp/ccGrItoW.ltrans7.ltrans.o
                                                  /tmp/ccGrItoW.ltrans23.ltrans.o
bufferTail.lto_priv.541                           /tmp/ccGrItoW.ltrans30.ltrans.o
                                                  /tmp/ccGrItoW.ltrans14.ltrans.o
buildDate                                         /tmp/ccGrItoW.ltrans1.ltrans.o
                                                  obj/main/NAZE/build/version.o (symbol from plugin)
                                                  obj/main/NAZE/io/serial_cli.o (symbol from plugin)
                                                  obj/main/NAZE/fc/msp_server_fc.o (symbol from plugin)
                                                  obj/main/NAZE/blackbox/blackbox.o (symbol from plugin)
buildRotationMatrix                               obj/main/NAZE/common/maths.o (symbol from plugin)
                                                  obj/main/NAZE/sensors/boardalignment.o (symbol from plugin)
buildTime                                         /tmp/ccGrItoW.ltrans1.ltrans.o
                                                  obj/main/NAZE/build/version.o (symbol from plugin)
                                                  obj/main/NAZE/io/serial_cli.o (symbol from plugin)
                                                  obj/main/NAZE/fc/msp_server_fc.o (symbol from plugin)
                                                  obj/main/NAZE/blackbox/blackbox.o (symbol from plugin)
cachedRccCsrValue                                 /tmp/ccGrItoW.ltrans16.ltrans.o
                                                  obj/main/NAZE/drivers/system.o (symbol from plugin)
                                                  /tmp/ccGrItoW.ltrans0.ltrans.o
                                                  obj/main/NAZE/drivers/system_stm32f10x.o (symbol from plugin)
calcHorizonLevelStrength                          /tmp/ccGrItoW.ltrans8.ltrans.o
                                                  obj/main/NAZE/flight/pid.o (symbol from plugin)
                                                  /tmp/ccGrItoW.ltrans9.ltrans.o
                                                  obj/main/NAZE/flight/pid_mwrewrite.o (symbol from plugin)
                                                  obj/main/NAZE/flight/pid_luxfloat.o (symbol from plugin)
calculateAccZLowPassFilterRCTimeConstant          obj/main/NAZE/flight/imu.o (symbol from plugin)
calculateAltHoldThrottleAdjustment                obj/main/NAZE/flight/altitudehold.o (symbol from plugin)
calculateChannelRemapping                         obj/main/NAZE/rx/rx.o (symbol from plugin)
calculateEstimatedAltitude                        obj/main/NAZE/flight/altitudehold.o (symbol from plugin)
                                                  obj/main/NAZE/fc/cleanflight_fc.o (symbol from plugin)
calculateMotorOff                                 /tmp/ccGrItoW.ltrans9.ltrans.o
                                                  obj/main/NAZE/flight/mixer.o (symbol from plugin)
                                                  /tmp/ccGrItoW.ltrans0.ltrans.o
                                                  obj/main/NAZE/fc/boot.o (symbol from plugin)
calculateRollPitchCenterStatus                    obj/main/NAZE/fc/rc_controls.o (symbol from plugin)
                                                  obj/main/NAZE/fc/cleanflight_fc.o (symbol from plugin)
calculateRxChannelsAndUpdateFailsafe              obj/main/NAZE/rx/rx.o (symbol from plugin)
                                                  obj/main/NAZE/fc/cleanflight_fc.o (symbol from plugin)
calculateThrottleAngleCorrection                  obj/main/NAZE/flight/imu.o (symbol from plugin)
                                                  obj/main/NAZE/fc/cleanflight_fc.o (symbol from plugin)
calculateThrottleAngleScale                       obj/main/NAZE/flight/imu.o (symbol from plugin)
calculateThrottleStatus                           obj/main/NAZE/fc/rc_controls.o (symbol from plugin)
                                                  obj/main/NAZE/flight/failsafe.o (symbol from plugin)
                                                  obj/main/NAZE/fc/cleanflight_fc.o (symbol from plugin)
                                                  obj/main/NAZE/telemetry/frsky.o (symbol from plugin)
calculateThrottleStatus.constprop.60              /tmp/ccGrItoW.ltrans20.ltrans.o
                                                  /tmp/ccGrItoW.ltrans23.ltrans.o
                                                  /tmp/ccGrItoW.ltrans4.ltrans.o
                                                  /tmp/ccGrItoW.ltrans3.ltrans.o
calculatedAltitude.lto_priv.320                   /tmp/ccGrItoW.ltrans1.ltrans.o
                                                  /tmp/ccGrItoW.ltrans16.ltrans.o
                                                  /tmp/ccGrItoW.ltrans0.ltrans.o
calibratingA                                      /tmp/ccGrItoW.ltrans1.ltrans.o
                                                  obj/main/NAZE/sensors/acceleration.o (symbol from plugin)
                                                  /tmp/ccGrItoW.ltrans24.ltrans.o
                                                  /tmp/ccGrItoW.ltrans21.ltrans.o
                                                  /tmp/ccGrItoW.ltrans4.ltrans.o
                                                  /tmp/ccGrItoW.ltrans0.ltrans.o
calibratingB                                      /tmp/ccGrItoW.ltrans16.ltrans.o
                                                  obj/main/NAZE/sensors/barometer.o (symbol from plugin)
                                                  /tmp/ccGrItoW.ltrans21.ltrans.o
                                                  /tmp/ccGrItoW.ltrans4.ltrans.o
                                                  /tmp/ccGrItoW.ltrans0.ltrans.o
calibratingG.lto_priv.380                         /tmp/ccGrItoW.ltrans4.ltrans.o
                                                  /tmp/ccGrItoW.ltrans21.ltrans.o
                                                  /tmp/ccGrItoW.ltrans0.ltrans.o
canSendSmartPortTelemetry                         obj/main/NAZE/telemetry/smartport.o (symbol from plugin)
captures.lto_priv.340                             /tmp/ccGrItoW.ltrans10.ltrans.o
                                                  /tmp/ccGrItoW.ltrans23.ltrans.o
                                                  /tmp/ccGrItoW.ltrans15.ltrans.o
castFloatBytesToInt                               obj/main/NAZE/common/encoding.o (symbol from plugin)
                                                  obj/main/NAZE/blackbox/blackbox_io.o (symbol from plugin)
                                                  obj/main/NAZE/blackbox/blackbox.o (symbol from plugin)
cfTasks                                           /tmp/ccGrItoW.ltrans18.ltrans.o
                                                  obj/main/NAZE/fc/fc_tasks.o (symbol from plugin)
                                                  /tmp/ccGrItoW.ltrans11.ltrans.o
                                                  /tmp/ccGrItoW.ltrans10.ltrans.o
                                                  /tmp/ccGrItoW.ltrans2.ltrans.o
                                                  /tmp/ccGrItoW.ltrans0.ltrans.o
                                                  obj/main/NAZE/scheduler/scheduler.o (symbol from plugin)
changeControlRateProfile                          obj/main/NAZE/fc/rate_profile.o (symbol from plugin)
                                                  obj/main/NAZE/io/serial_cli.o (symbol from plugin)
                                                  obj/main/NAZE/fc/rc_adjustments.o (symbol from plugin)
changeProfile                                     /tmp/ccGrItoW.ltrans8.ltrans.o
                                                  obj/main/NAZE/fc/config.o (symbol from plugin)
                                                  /tmp/ccGrItoW.ltrans27.ltrans.o
                                                  /tmp/ccGrItoW.ltrans4.ltrans.o
                                                  /tmp/ccGrItoW.ltrans1.ltrans.o
                                                  obj/main/NAZE/io/serial_cli.o (symbol from plugin)
                                                  obj/main/NAZE/fc/msp_server_fc.o (symbol from plugin)
                                                  obj/main/NAZE/fc/rc_controls.o (symbol from plugin)
channelRanges_Registry                            /tmp/ccGrItoW.ltrans10.ltrans.o
                                                  obj/main/NAZE/rx/rx.o (symbol from plugin)
                                                  /tmp/ccGrItoW.ltrans7.ltrans.o
                                                  obj/main/NAZE/io/serial_cli.o (symbol from plugin)
channelRanges_SystemArray                         /tmp/ccGrItoW.ltrans10.ltrans.o
                                                  obj/main/NAZE/rx/rx.o (symbol from plugin)
                                                  /tmp/ccGrItoW.ltrans7.ltrans.o
                                                  /tmp/ccGrItoW.ltrans4.ltrans.o
                                                  obj/main/NAZE/io/serial_cli.o (symbol from plugin)
checkFrSkyTelemetryState                          obj/main/NAZE/telemetry/frsky.o (symbol from plugin)
                                                  obj/main/NAZE/telemetry/telemetry.o (symbol from plugin)
checkHoTTTelemetryState                           obj/main/NAZE/telemetry/hott.o (symbol from plugin)
                                                  obj/main/NAZE/telemetry/telemetry.o (symbol from plugin)
checkIbusTelemetryState                           obj/main/NAZE/telemetry/ibus.o (symbol from plugin)
                                                  obj/main/NAZE/telemetry/telemetry.o (symbol from plugin)
checkLtmTelemetryState                            obj/main/NAZE/telemetry/ltm.o (symbol from plugin)
                                                  obj/main/NAZE/telemetry/telemetry.o (symbol from plugin)
checkMAVLinkTelemetryState                        obj/main/NAZE/telemetry/mavlink.o (symbol from plugin)
                                                  obj/main/NAZE/telemetry/telemetry.o (symbol from plugin)
checkSmartPortTelemetryState                      obj/main/NAZE/telemetry/smartport.o (symbol from plugin)
                                                  obj/main/NAZE/telemetry/telemetry.o (symbol from plugin)
cleanup_glue                                      /usr/lib/gcc/arm-none-eabi/4.9.3/../../../arm-none-eabi/lib/armv7-m/libc_nano.a(lib_a-reent.o)
cliAdjustmentRange.lto_priv.227                   /tmp/ccGrItoW.ltrans17.ltrans.o
                                                  /tmp/ccGrItoW.ltrans27.ltrans.o
                                                  /tmp/ccGrItoW.ltrans7.ltrans.o
cliAux.lto_priv.228                               /tmp/ccGrItoW.ltrans17.ltrans.o
                                                  /tmp/ccGrItoW.ltrans27.ltrans.o
                                                  /tmp/ccGrItoW.ltrans7.ltrans.o
cliBuffer.lto_priv.347                            /tmp/ccGrItoW.ltrans7.ltrans.o
                                                  /tmp/ccGrItoW.ltrans23.ltrans.o
cliColor.lto_priv.229                             /tmp/ccGrItoW.ltrans7.ltrans.o
                                                  /tmp/ccGrItoW.ltrans27.ltrans.o
cliDefaults.lto_priv.348                          /tmp/ccGrItoW.ltrans27.ltrans.o
cliDump.lto_priv.231                              /tmp/ccGrItoW.ltrans7.ltrans.o
                                                  /tmp/ccGrItoW.ltrans27.ltrans.o
cliEnter                                          obj/main/NAZE/io/serial_cli.o (symbol from plugin)
                                                  obj/main/NAZE/fc/fc_serial.o (symbol from plugin)
cliExit.lto_priv.232                              /tmp/ccGrItoW.ltrans7.ltrans.o
                                                  /tmp/ccGrItoW.ltrans27.ltrans.o
                                                  /tmp/ccGrItoW.ltrans23.ltrans.o
cliFeature.lto_priv.233                           /tmp/ccGrItoW.ltrans7.ltrans.o
                                                  /tmp/ccGrItoW.ltrans27.ltrans.o
cliFlashErase.lto_priv.234                        /tmp/ccGrItoW.ltrans7.ltrans.o
                                                  /tmp/ccGrItoW.ltrans27.ltrans.o
cliFlashInfo.lto_priv.235                         /tmp/ccGrItoW.ltrans7.ltrans.o
                                                  /tmp/ccGrItoW.ltrans27.ltrans.o
cliGet.lto_priv.349                               /tmp/ccGrItoW.ltrans27.ltrans.o
cliGpsPassthrough.lto_priv.350                    /tmp/ccGrItoW.ltrans27.ltrans.o
cliHelp.lto_priv.351                              /tmp/ccGrItoW.ltrans27.ltrans.o
cliInit                                           obj/main/NAZE/io/serial_cli.o (symbol from plugin)
                                                  obj/main/NAZE/fc/boot.o (symbol from plugin)
cliLed.lto_priv.236                               /tmp/ccGrItoW.ltrans7.ltrans.o
                                                  /tmp/ccGrItoW.ltrans27.ltrans.o
cliMap.lto_priv.352                               /tmp/ccGrItoW.ltrans27.ltrans.o
cliMixer.lto_priv.353                             /tmp/ccGrItoW.ltrans27.ltrans.o
cliMode                                           /tmp/ccGrItoW.ltrans1.ltrans.o
                                                  obj/main/NAZE/io/serial_cli.o (symbol from plugin)
                                                  /tmp/ccGrItoW.ltrans23.ltrans.o
                                                  /tmp/ccGrItoW.ltrans7.ltrans.o
                                                  /tmp/ccGrItoW.ltrans4.ltrans.o
                                                  /tmp/ccGrItoW.ltrans3.ltrans.o
                                                  /tmp/ccGrItoW.ltrans2.ltrans.o
                                                  obj/main/NAZE/fc/cleanflight_fc.o (symbol from plugin)
cliModeColor.lto_priv.230                         /tmp/ccGrItoW.ltrans7.ltrans.o
                                                  /tmp/ccGrItoW.ltrans27.ltrans.o
cliMotor.lto_priv.354                             /tmp/ccGrItoW.ltrans27.ltrans.o
cliMotorMix.lto_priv.237                          /tmp/ccGrItoW.ltrans17.ltrans.o
                                                  /tmp/ccGrItoW.ltrans27.ltrans.o
cliPort.lto_priv.225                              /tmp/ccGrItoW.ltrans1.ltrans.o
                                                  /tmp/ccGrItoW.ltrans27.ltrans.o
                                                  /tmp/ccGrItoW.ltrans23.ltrans.o
                                                  /tmp/ccGrItoW.ltrans17.ltrans.o
cliPrint.lto_priv.178                             /tmp/ccGrItoW.ltrans27.ltrans.o
                                                  /tmp/ccGrItoW.ltrans23.ltrans.o
                                                  /tmp/ccGrItoW.ltrans17.ltrans.o
                                                  /tmp/ccGrItoW.ltrans10.ltrans.o
                                                  /tmp/ccGrItoW.ltrans7.ltrans.o
                                                  /tmp/ccGrItoW.ltrans1.ltrans.o
cliPrintVar.lto_priv.255                          /tmp/ccGrItoW.ltrans27.ltrans.o
                                                  /tmp/ccGrItoW.ltrans7.ltrans.o
cliPrintf.lto_priv.223                            /tmp/ccGrItoW.ltrans27.ltrans.o
                                                  /tmp/ccGrItoW.ltrans17.ltrans.o
                                                  /tmp/ccGrItoW.ltrans10.ltrans.o
                                                  /tmp/ccGrItoW.ltrans7.ltrans.o
cliProcess                                        obj/main/NAZE/io/serial_cli.o (symbol from plugin)
                                                  obj/main/NAZE/fc/cleanflight_fc.o (symbol from plugin)
cliProfile.lto_priv.253                           /tmp/ccGrItoW.ltrans27.ltrans.o
                                                  /tmp/ccGrItoW.ltrans7.ltrans.o
cliPrompt.lto_priv.177                            /tmp/ccGrItoW.ltrans17.ltrans.o
                                                  /tmp/ccGrItoW.ltrans23.ltrans.o
                                                  /tmp/ccGrItoW.ltrans1.ltrans.o
cliRateProfile.lto_priv.252                       /tmp/ccGrItoW.ltrans27.ltrans.o
                                                  /tmp/ccGrItoW.ltrans7.ltrans.o
cliReboot.lto_priv.251                            /tmp/ccGrItoW.ltrans27.ltrans.o
                                                  /tmp/ccGrItoW.ltrans7.ltrans.o
cliRxFail.lto_priv.239                            /tmp/ccGrItoW.ltrans17.ltrans.o
                                                  /tmp/ccGrItoW.ltrans27.ltrans.o
                                                  /tmp/ccGrItoW.ltrans7.ltrans.o
cliRxRange.lto_priv.238                           /tmp/ccGrItoW.ltrans7.ltrans.o
                                                  /tmp/ccGrItoW.ltrans27.ltrans.o
cliSave.lto_priv.355                              /tmp/ccGrItoW.ltrans27.ltrans.o
cliSerial.lto_priv.240                            /tmp/ccGrItoW.ltrans17.ltrans.o
                                                  /tmp/ccGrItoW.ltrans27.ltrans.o
                                                  /tmp/ccGrItoW.ltrans7.ltrans.o
cliSerialPassthrough.lto_priv.241                 /tmp/ccGrItoW.ltrans17.ltrans.o
                                                  /tmp/ccGrItoW.ltrans27.ltrans.o
cliServo.lto_priv.242                             /tmp/ccGrItoW.ltrans7.ltrans.o
                                                  /tmp/ccGrItoW.ltrans27.ltrans.o
cliServoMix.lto_priv.243                          /tmp/ccGrItoW.ltrans7.ltrans.o
                                                  /tmp/ccGrItoW.ltrans27.ltrans.o
cliSet.lto_priv.356                               /tmp/ccGrItoW.ltrans27.ltrans.o
cliShowArgumentRangeError.lto_priv.247            /tmp/ccGrItoW.ltrans17.ltrans.o
                                                  /tmp/ccGrItoW.ltrans27.ltrans.o
                                                  /tmp/ccGrItoW.ltrans7.ltrans.o
cliShowParseError.lto_priv.248                    /tmp/ccGrItoW.ltrans17.ltrans.o
                                                  /tmp/ccGrItoW.ltrans27.ltrans.o
                                                  /tmp/ccGrItoW.ltrans7.ltrans.o
cliStatus.lto_priv.244                            /tmp/ccGrItoW.ltrans10.ltrans.o
                                                  /tmp/ccGrItoW.ltrans27.ltrans.o
cliTasks.lto_priv.245                             /tmp/ccGrItoW.ltrans10.ltrans.o
                                                  /tmp/ccGrItoW.ltrans27.ltrans.o
cliVersion.lto_priv.246                           /tmp/ccGrItoW.ltrans10.ltrans.o
                                                  /tmp/ccGrItoW.ltrans27.ltrans.o
                                                  /tmp/ccGrItoW.ltrans7.ltrans.o
cliWrite.lto_priv.254                             /tmp/ccGrItoW.ltrans27.ltrans.o
                                                  /tmp/ccGrItoW.ltrans23.ltrans.o
                                                  /tmp/ccGrItoW.ltrans7.ltrans.o
cliWriter.lto_priv.224                            /tmp/ccGrItoW.ltrans1.ltrans.o
                                                  /tmp/ccGrItoW.ltrans27.ltrans.o
                                                  /tmp/ccGrItoW.ltrans23.ltrans.o
                                                  /tmp/ccGrItoW.ltrans17.ltrans.o
                                                  /tmp/ccGrItoW.ltrans7.ltrans.o
closeSerialPort                                   /tmp/ccGrItoW.ltrans18.ltrans.o
                                                  obj/main/NAZE/io/serial.o (symbol from plugin)
                                                  /tmp/ccGrItoW.ltrans11.ltrans.o
                                                  /tmp/ccGrItoW.ltrans2.ltrans.o
                                                  obj/main/NAZE/msp/msp_serial.o (symbol from plugin)
                                                  obj/main/NAZE/blackbox/blackbox_io.o (symbol from plugin)
                                                  obj/main/NAZE/telemetry/ibus.o (symbol from plugin)
                                                  obj/main/NAZE/telemetry/mavlink.o (symbol from plugin)
                                                  obj/main/NAZE/telemetry/ltm.o (symbol from plugin)
                                                  obj/main/NAZE/telemetry/smartport.o (symbol from plugin)
                                                  obj/main/NAZE/telemetry/hott.o (symbol from plugin)
                                                  obj/main/NAZE/telemetry/frsky.o (symbol from plugin)
cmdTable                                          /tmp/ccGrItoW.ltrans27.ltrans.o
                                                  obj/main/NAZE/io/serial_cli.o (symbol from plugin)
                                                  /tmp/ccGrItoW.ltrans23.ltrans.o
colors_Registry                                   /tmp/ccGrItoW.ltrans1.ltrans.o
                                                  obj/main/NAZE/io/ledstrip.o (symbol from plugin)
colors_SystemArray                                /tmp/ccGrItoW.ltrans1.ltrans.o
                                                  obj/main/NAZE/io/ledstrip.o (symbol from plugin)
                                                  /tmp/ccGrItoW.ltrans29.ltrans.o
                                                  /tmp/ccGrItoW.ltrans11.ltrans.o
                                                  /tmp/ccGrItoW.ltrans7.ltrans.o
                                                  obj/main/NAZE/io/serial_cli.o (symbol from plugin)
                                                  obj/main/NAZE/fc/msp_server_fc.o (symbol from plugin)
compassConfig_ProfileCurrent                      /tmp/ccGrItoW.ltrans1.ltrans.o
                                                  obj/main/NAZE/sensors/compass.o (symbol from plugin)
                                                  /tmp/ccGrItoW.ltrans8.ltrans.o
                                                  obj/main/NAZE/fc/msp_server_fc.o (symbol from plugin)
compassConfig_Registry                            /tmp/ccGrItoW.ltrans1.ltrans.o
                                                  obj/main/NAZE/sensors/compass.o (symbol from plugin)
compassInit                                       obj/main/NAZE/sensors/compass.o (symbol from plugin)
                                                  obj/main/NAZE/sensors/initialisation.o (symbol from plugin)
configTimeBase                                    /tmp/ccGrItoW.ltrans15.ltrans.o
                                                  obj/main/NAZE/drivers/timer.o (symbol from plugin)
                                                  /tmp/ccGrItoW.ltrans6.ltrans.o
                                                  obj/main/NAZE/drivers/pwm_output.o (symbol from plugin)
config_streamer_finish                            obj/main/NAZE/config/config_streamer.o (symbol from plugin)
                                                  obj/main/NAZE/config/config_eeprom.o (symbol from plugin)
config_streamer_flush                             obj/main/NAZE/config/config_streamer.o (symbol from plugin)
                                                  obj/main/NAZE/config/config_eeprom.o (symbol from plugin)
config_streamer_init                              obj/main/NAZE/config/config_streamer.o (symbol from plugin)
                                                  obj/main/NAZE/config/config_eeprom.o (symbol from plugin)
config_streamer_start                             obj/main/NAZE/config/config_streamer.o (symbol from plugin)
                                                  obj/main/NAZE/config/config_eeprom.o (symbol from plugin)
config_streamer_status                            obj/main/NAZE/config/config_streamer.o (symbol from plugin)
config_streamer_write                             /tmp/ccGrItoW.ltrans25.ltrans.o
                                                  obj/main/NAZE/config/config_streamer.o (symbol from plugin)
                                                  /tmp/ccGrItoW.ltrans8.ltrans.o
                                                  obj/main/NAZE/config/config_eeprom.o (symbol from plugin)
configureAdjustmentState                          obj/main/NAZE/fc/rc_adjustments.o (symbol from plugin)
configureFrSkyTelemetryPort                       obj/main/NAZE/telemetry/frsky.o (symbol from plugin)
configureHoTTTelemetryPort                        obj/main/NAZE/telemetry/hott.o (symbol from plugin)
configureIbusTelemetryPort                        obj/main/NAZE/telemetry/ibus.o (symbol from plugin)
configureLtmTelemetryPort                         obj/main/NAZE/telemetry/ltm.o (symbol from plugin)
configureMAVLinkTelemetryPort                     obj/main/NAZE/telemetry/mavlink.o (symbol from plugin)
configureMPUDataReadyInterruptHandling            obj/main/NAZE/drivers/accgyro_mpu.o (symbol from plugin)
configureRateProfileSelection                     obj/main/NAZE/fc/rate_profile.o (symbol from plugin)
                                                  obj/main/NAZE/fc/config.o (symbol from plugin)
configureScheduler                                obj/main/NAZE/fc/boot.o (symbol from plugin)
configureSmartPortTelemetryPort                   obj/main/NAZE/telemetry/smartport.o (symbol from plugin)
constrain                                         obj/main/NAZE/common/maths.o (symbol from plugin)
                                                  obj/main/NAZE/sensors/battery.o (symbol from plugin)
                                                  obj/main/NAZE/rx/rx.o (symbol from plugin)
                                                  obj/main/NAZE/io/serial_cli.o (symbol from plugin)
                                                  obj/main/NAZE/flight/servos.o (symbol from plugin)
                                                  obj/main/NAZE/flight/mixer.o (symbol from plugin)
                                                  obj/main/NAZE/flight/pid_mw23.o (symbol from plugin)
                                                  obj/main/NAZE/flight/pid_mwrewrite.o (symbol from plugin)
                                                  obj/main/NAZE/flight/pid_luxfloat.o (symbol from plugin)
                                                  obj/main/NAZE/flight/pid.o (symbol from plugin)
                                                  obj/main/NAZE/flight/altitudehold.o (symbol from plugin)
                                                  obj/main/NAZE/fc/msp_server_fc.o (symbol from plugin)
                                                  obj/main/NAZE/fc/rc_controls.o (symbol from plugin)
                                                  obj/main/NAZE/fc/rc_adjustments.o (symbol from plugin)
                                                  obj/main/NAZE/fc/cleanflight_fc.o (symbol from plugin)
                                                  obj/main/NAZE/blackbox/blackbox_io.o (symbol from plugin)
                                                  obj/main/NAZE/telemetry/mavlink.o (symbol from plugin)
                                                  obj/main/NAZE/telemetry/frsky.o (symbol from plugin)
                                                  obj/main/NAZE/flight/navigation.o (symbol from plugin)
constrainf                                        obj/main/NAZE/common/maths.o (symbol from plugin)
                                                  obj/main/NAZE/flight/pid_luxfloat.o (symbol from plugin)
controlRateProfiles_Registry                      /tmp/ccGrItoW.ltrans27.ltrans.o
                                                  obj/main/NAZE/fc/rate_profile.o (symbol from plugin)
controlRateProfiles_SystemArray                   /tmp/ccGrItoW.ltrans27.ltrans.o
                                                  obj/main/NAZE/fc/rate_profile.o (symbol from plugin)
                                                  /tmp/ccGrItoW.ltrans8.ltrans.o
                                                  /tmp/ccGrItoW.ltrans4.ltrans.o
                                                  /tmp/ccGrItoW.ltrans2.ltrans.o
                                                  obj/main/NAZE/blackbox/blackbox.o (symbol from plugin)
copysignf                                         /usr/lib/gcc/arm-none-eabi/4.9.3/../../../arm-none-eabi/lib/armv7-m/libm.a(lib_a-sf_copysign.o)
                                                  /usr/lib/gcc/arm-none-eabi/4.9.3/../../../arm-none-eabi/lib/armv7-m/libm.a(lib_a-sf_scalbn.o)
cosf                                              /tmp/ccGrItoW.ltrans25.ltrans.o
                                                  /tmp/ccGrItoW.ltrans22.ltrans.o
                                                  /tmp/ccGrItoW.ltrans14.ltrans.o
                                                  /tmp/ccGrItoW.ltrans4.ltrans.o
                                                  /tmp/ccGrItoW.ltrans2.ltrans.o
                                                  /tmp/ccGrItoW.ltrans0.ltrans.o
couldBeBusy.lto_priv.543                          /tmp/ccGrItoW.ltrans0.ltrans.o
                                                  /tmp/ccGrItoW.ltrans14.ltrans.o
                                                  /tmp/ccGrItoW.ltrans6.ltrans.o
crc16Byte.lto_priv.276                            /tmp/ccGrItoW.ltrans28.ltrans.o
crc16_CCITT                                       obj/main/NAZE/common/crc.o (symbol from plugin)
                                                  obj/main/NAZE/rx/srxl.o (symbol from plugin)
                                                  obj/main/NAZE/rx/xbus.o (symbol from plugin)
crc_accumulate.lto_priv.173                       /tmp/ccGrItoW.ltrans11.ltrans.o
                                                  /tmp/ccGrItoW.ltrans20.ltrans.o
currentBeeperEntry.lto_priv.341                   /tmp/ccGrItoW.ltrans19.ltrans.o
                                                  /tmp/ccGrItoW.ltrans23.ltrans.o
currentControlRateProfile                         /tmp/ccGrItoW.ltrans1.ltrans.o
                                                  obj/main/NAZE/fc/rate_profile.o (symbol from plugin)
                                                  /tmp/ccGrItoW.ltrans27.ltrans.o
                                                  /tmp/ccGrItoW.ltrans8.ltrans.o
                                                  /tmp/ccGrItoW.ltrans4.ltrans.o
                                                  /tmp/ccGrItoW.ltrans2.ltrans.o
                                                  obj/main/NAZE/fc/msp_server_fc.o (symbol from plugin)
                                                  obj/main/NAZE/fc/rc_curves.o (symbol from plugin)
                                                  obj/main/NAZE/fc/cleanflight_fc.o (symbol from plugin)
currentControlRateProfileIndex.lto_priv.287       /tmp/ccGrItoW.ltrans27.ltrans.o
                                                  /tmp/ccGrItoW.ltrans8.ltrans.o
                                                  /tmp/ccGrItoW.ltrans4.ltrans.o
currentMixer                                      /tmp/ccGrItoW.ltrans2.ltrans.o
                                                  obj/main/NAZE/flight/mixer.o (symbol from plugin)
                                                  /tmp/ccGrItoW.ltrans0.ltrans.o
                                                  obj/main/NAZE/flight/servos.o (symbol from plugin)
currentServoMixer.lto_priv.373                    /tmp/ccGrItoW.ltrans9.ltrans.o
                                                  /tmp/ccGrItoW.ltrans2.ltrans.o
                                                  /tmp/ccGrItoW.ltrans0.ltrans.o
currentTask.lto_priv.322                          /tmp/ccGrItoW.ltrans18.ltrans.o
                                                  /tmp/ccGrItoW.ltrans21.ltrans.o
                                                  /tmp/ccGrItoW.ltrans16.ltrans.o
                                                  /tmp/ccGrItoW.ltrans0.ltrans.o
currentTime                                       /tmp/ccGrItoW.ltrans16.ltrans.o
                                                  obj/main/NAZE/scheduler/scheduler.o (symbol from plugin)
                                                  /tmp/ccGrItoW.ltrans23.ltrans.o
                                                  /tmp/ccGrItoW.ltrans21.ltrans.o
                                                  /tmp/ccGrItoW.ltrans12.ltrans.o
                                                  /tmp/ccGrItoW.ltrans4.ltrans.o
                                                  /tmp/ccGrItoW.ltrans2.ltrans.o
                                                  /tmp/ccGrItoW.ltrans0.ltrans.o
                                                  obj/main/NAZE/sensors/compass.o (symbol from plugin)
                                                  obj/main/NAZE/fc/cleanflight_fc.o (symbol from plugin)
                                                  obj/main/NAZE/blackbox/blackbox.o (symbol from plugin)
customMixers                                      obj/main/NAZE/flight/mixer.o (symbol from plugin)
                                                  obj/main/NAZE/flight/servos.o (symbol from plugin)
customMotorMixer_Registry                         /tmp/ccGrItoW.ltrans7.ltrans.o
                                                  obj/main/NAZE/flight/mixer.o (symbol from plugin)
customMotorMixer_SystemArray                      /tmp/ccGrItoW.ltrans7.ltrans.o
                                                  obj/main/NAZE/flight/mixer.o (symbol from plugin)
                                                  /tmp/ccGrItoW.ltrans17.ltrans.o
                                                  /tmp/ccGrItoW.ltrans0.ltrans.o
                                                  obj/main/NAZE/io/serial_cli.o (symbol from plugin)
                                                  obj/main/NAZE/fc/boot.o (symbol from plugin)
customServoMixer_Registry                         /tmp/ccGrItoW.ltrans1.ltrans.o
                                                  obj/main/NAZE/flight/servos.o (symbol from plugin)
customServoMixer_SystemArray                      /tmp/ccGrItoW.ltrans1.ltrans.o
                                                  obj/main/NAZE/flight/servos.o (symbol from plugin)
                                                  /tmp/ccGrItoW.ltrans7.ltrans.o
                                                  /tmp/ccGrItoW.ltrans0.ltrans.o
                                                  obj/main/NAZE/io/serial_cli.o (symbol from plugin)
                                                  obj/main/NAZE/fc/msp_server_fc.o (symbol from plugin)
                                                  obj/main/NAZE/fc/boot.o (symbol from plugin)
customServoMixers.lto_priv.458                    /tmp/ccGrItoW.ltrans9.ltrans.o
                                                  /tmp/ccGrItoW.ltrans0.ltrans.o
debug                                             /tmp/ccGrItoW.ltrans1.ltrans.o
                                                  obj/main/NAZE/build/debug.o (symbol from plugin)
                                                  /tmp/ccGrItoW.ltrans21.ltrans.o
                                                  /tmp/ccGrItoW.ltrans2.ltrans.o
                                                  obj/main/NAZE/sensors/gyro.o (symbol from plugin)
                                                  obj/main/NAZE/fc/msp_server_fc.o (symbol from plugin)
                                                  obj/main/NAZE/fc/cleanflight_fc.o (symbol from plugin)
debugConfig_Registry                              /tmp/ccGrItoW.ltrans0.ltrans.o
                                                  obj/main/NAZE/fc/fc_debug.o (symbol from plugin)
debugConfig_System                                obj/main/NAZE/fc/fc_debug.o (symbol from plugin)
                                                  obj/main/NAZE/fc/boot.o (symbol from plugin)
debugMode                                         /tmp/ccGrItoW.ltrans2.ltrans.o
                                                  obj/main/NAZE/build/debug.o (symbol from plugin)
                                                  /tmp/ccGrItoW.ltrans21.ltrans.o
                                                  /tmp/ccGrItoW.ltrans0.ltrans.o
                                                  obj/main/NAZE/sensors/gyro.o (symbol from plugin)
                                                  obj/main/NAZE/fc/cleanflight_fc.o (symbol from plugin)
                                                  obj/main/NAZE/fc/boot.o (symbol from plugin)
degreesToRadians                                  obj/main/NAZE/common/maths.o (symbol from plugin)
                                                  obj/main/NAZE/sensors/boardalignment.o (symbol from plugin)
                                                  obj/main/NAZE/flight/imu.o (symbol from plugin)
                                                  obj/main/NAZE/fc/cleanflight_fc.o (symbol from plugin)
delay                                             /tmp/ccGrItoW.ltrans18.ltrans.o
                                                  obj/main/NAZE/drivers/system.o (symbol from plugin)
                                                  /tmp/ccGrItoW.ltrans26.ltrans.o
                                                  /tmp/ccGrItoW.ltrans23.ltrans.o
                                                  /tmp/ccGrItoW.ltrans20.ltrans.o
                                                  /tmp/ccGrItoW.ltrans15.ltrans.o
                                                  /tmp/ccGrItoW.ltrans13.ltrans.o
                                                  /tmp/ccGrItoW.ltrans9.ltrans.o
                                                  /tmp/ccGrItoW.ltrans8.ltrans.o
                                                  /tmp/ccGrItoW.ltrans7.ltrans.o
                                                  /tmp/ccGrItoW.ltrans6.ltrans.o
                                                  /tmp/ccGrItoW.ltrans0.ltrans.o
                                                  obj/main/NAZE/io/serial.o (symbol from plugin)
                                                  obj/main/NAZE/sensors/battery.o (symbol from plugin)
                                                  obj/main/NAZE/rx/spektrum.o (symbol from plugin)
                                                  obj/main/NAZE/io/serial_cli.o (symbol from plugin)
                                                  obj/main/NAZE/flight/mixer.o (symbol from plugin)
                                                  obj/main/NAZE/fc/config.o (symbol from plugin)
                                                  obj/main/NAZE/fc/boot.o (symbol from plugin)
                                                  obj/main/NAZE/hardware_revision.o (symbol from plugin)
                                                  obj/main/NAZE/drivers/serial_softserial.o (symbol from plugin)
                                                  obj/main/NAZE/drivers/flash_m25p16.o (symbol from plugin)
                                                  obj/main/NAZE/drivers/compass_hmc5883l.o (symbol from plugin)
                                                  obj/main/NAZE/drivers/barometer_bmp280.o (symbol from plugin)
                                                  obj/main/NAZE/drivers/barometer_ms5611.o (symbol from plugin)
                                                  obj/main/NAZE/drivers/barometer_bmp085.o (symbol from plugin)
                                                  obj/main/NAZE/drivers/accgyro_mpu6500.o (symbol from plugin)
                                                  obj/main/NAZE/drivers/accgyro_mpu6050.o (symbol from plugin)
                                                  obj/main/NAZE/drivers/accgyro_mpu3050.o (symbol from plugin)
                                                  obj/main/NAZE/drivers/accgyro_mpu.o (symbol from plugin)
                                                  obj/main/NAZE/drivers/accgyro_l3g4200d.o (symbol from plugin)
delayMicroseconds                                 /tmp/ccGrItoW.ltrans18.ltrans.o
                                                  obj/main/NAZE/drivers/system.o (symbol from plugin)
                                                  /tmp/ccGrItoW.ltrans28.ltrans.o
                                                  /tmp/ccGrItoW.ltrans16.ltrans.o
                                                  /tmp/ccGrItoW.ltrans13.ltrans.o
                                                  /tmp/ccGrItoW.ltrans5.ltrans.o
                                                  /tmp/ccGrItoW.ltrans0.ltrans.o
                                                  obj/main/NAZE/rx/spektrum.o (symbol from plugin)
                                                  obj/main/NAZE/io/serial_4way_stk500v2.o (symbol from plugin)
                                                  obj/main/NAZE/drivers/sonar_hcsr04.o (symbol from plugin)
                                                  obj/main/NAZE/drivers/barometer_ms5611.o (symbol from plugin)
                                                  obj/main/NAZE/drivers/barometer_bmp085.o (symbol from plugin)
                                                  obj/main/NAZE/drivers/bus_i2c_stm32f10x.o (symbol from plugin)
deltaFilter                                       obj/main/NAZE/flight/pid.o (symbol from plugin)
                                                  obj/main/NAZE/flight/pid_mw23.o (symbol from plugin)
                                                  obj/main/NAZE/flight/pid_mwrewrite.o (symbol from plugin)
                                                  obj/main/NAZE/flight/pid_luxfloat.o (symbol from plugin)
detectGyro                                        obj/main/NAZE/sensors/initialisation.o (symbol from plugin)
detectHardwareRevision                            obj/main/NAZE/hardware_revision.o (symbol from plugin)
                                                  obj/main/NAZE/fc/boot.o (symbol from plugin)
detectMpu                                         obj/main/NAZE/drivers/accgyro_mpu.o (symbol from plugin)
                                                  obj/main/NAZE/sensors/initialisation.o (symbol from plugin)
detectSpiDevice                                   obj/main/NAZE/hardware_revision.o (symbol from plugin)
detectedSensors                                   /tmp/ccGrItoW.ltrans13.ltrans.o
                                                  obj/main/NAZE/sensors/initialisation.o (symbol from plugin)
                                                  /tmp/ccGrItoW.ltrans10.ltrans.o
                                                  obj/main/NAZE/io/serial_cli.o (symbol from plugin)
determinePortSharing                              /tmp/ccGrItoW.ltrans18.ltrans.o
                                                  obj/main/NAZE/io/serial.o (symbol from plugin)
                                                  /tmp/ccGrItoW.ltrans21.ltrans.o
                                                  /tmp/ccGrItoW.ltrans0.ltrans.o
                                                  obj/main/NAZE/blackbox/blackbox_io.o (symbol from plugin)
                                                  obj/main/NAZE/telemetry/ibus.o (symbol from plugin)
                                                  obj/main/NAZE/telemetry/mavlink.o (symbol from plugin)
                                                  obj/main/NAZE/telemetry/ltm.o (symbol from plugin)
                                                  obj/main/NAZE/telemetry/smartport.o (symbol from plugin)
                                                  obj/main/NAZE/telemetry/hott.o (symbol from plugin)
                                                  obj/main/NAZE/telemetry/frsky.o (symbol from plugin)
determineServoMiddleOrForwardFromChannel          /tmp/ccGrItoW.ltrans9.ltrans.o
                                                  obj/main/NAZE/flight/servos.o (symbol from plugin)
                                                  /tmp/ccGrItoW.ltrans2.ltrans.o
devClear                                          obj/main/NAZE/common/maths.o (symbol from plugin)
                                                  obj/main/NAZE/sensors/gyro.o (symbol from plugin)
devPush                                           obj/main/NAZE/common/maths.o (symbol from plugin)
                                                  obj/main/NAZE/sensors/gyro.o (symbol from plugin)
devStandardDeviation                              obj/main/NAZE/common/maths.o (symbol from plugin)
                                                  obj/main/NAZE/sensors/gyro.o (symbol from plugin)
devVariance                                       obj/main/NAZE/common/maths.o (symbol from plugin)
disableFlightMode                                 /tmp/ccGrItoW.ltrans8.ltrans.o
                                                  obj/main/NAZE/fc/runtime_config.o (symbol from plugin)
                                                  /tmp/ccGrItoW.ltrans4.ltrans.o
                                                  /tmp/ccGrItoW.ltrans1.ltrans.o
                                                  obj/main/NAZE/flight/failsafe.o (symbol from plugin)
                                                  obj/main/NAZE/flight/altitudehold.o (symbol from plugin)
                                                  obj/main/NAZE/fc/msp_server_fc.o (symbol from plugin)
                                                  obj/main/NAZE/fc/cleanflight_fc.o (symbol from plugin)
                                                  obj/main/NAZE/flight/navigation.o (symbol from plugin)
disarmAt.lto_priv.384                             /tmp/ccGrItoW.ltrans4.ltrans.o
                                                  /tmp/ccGrItoW.ltrans21.ltrans.o
dmaChannels                                       /tmp/ccGrItoW.ltrans18.ltrans.o
                                                  obj/main/NAZE/drivers/dma.o (symbol from plugin)
                                                  /tmp/ccGrItoW.ltrans5.ltrans.o
                                                  /tmp/ccGrItoW.ltrans0.ltrans.o
                                                  obj/main/NAZE/drivers/light_ws2811strip.o (symbol from plugin)
                                                  obj/main/NAZE/drivers/serial_uart_stm32f10x.o (symbol from plugin)
dmaHandlerInit                                    obj/main/NAZE/drivers/dma.o (symbol from plugin)
                                                  obj/main/NAZE/drivers/light_ws2811strip.o (symbol from plugin)
                                                  obj/main/NAZE/drivers/serial_uart_stm32f10x.o (symbol from plugin)
dmaInit                                           obj/main/NAZE/drivers/dma.o (symbol from plugin)
                                                  obj/main/NAZE/fc/boot.o (symbol from plugin)
dmaSetHandler                                     obj/main/NAZE/drivers/dma.o (symbol from plugin)
                                                  obj/main/NAZE/drivers/light_ws2811strip.o (symbol from plugin)
                                                  obj/main/NAZE/drivers/serial_uart_stm32f10x.o (symbol from plugin)
doesConfigurationUsePort                          /tmp/ccGrItoW.ltrans18.ltrans.o
                                                  obj/main/NAZE/io/serial.o (symbol from plugin)
                                                  /tmp/ccGrItoW.ltrans0.ltrans.o
                                                  obj/main/NAZE/fc/boot.o (symbol from plugin)
dtermFilterLpf                                    /tmp/ccGrItoW.ltrans9.ltrans.o
                                                  obj/main/NAZE/flight/pid.o (symbol from plugin)
                                                  /tmp/ccGrItoW.ltrans8.ltrans.o
                                                  obj/main/NAZE/flight/pid_luxfloat.o (symbol from plugin)
dtermFilterNotch                                  /tmp/ccGrItoW.ltrans9.ltrans.o
                                                  obj/main/NAZE/flight/pid.o (symbol from plugin)
                                                  /tmp/ccGrItoW.ltrans8.ltrans.o
                                                  obj/main/NAZE/flight/pid_luxfloat.o (symbol from plugin)
dynD8                                             /tmp/ccGrItoW.ltrans9.ltrans.o
                                                  obj/main/NAZE/flight/pid_mw23.o (symbol from plugin)
                                                  /tmp/ccGrItoW.ltrans2.ltrans.o
                                                  obj/main/NAZE/fc/cleanflight_fc.o (symbol from plugin)
dynI8                                             obj/main/NAZE/flight/pid_mw23.o (symbol from plugin)
                                                  obj/main/NAZE/fc/cleanflight_fc.o (symbol from plugin)
dynP8                                             /tmp/ccGrItoW.ltrans9.ltrans.o
                                                  obj/main/NAZE/flight/pid_mw23.o (symbol from plugin)
                                                  /tmp/ccGrItoW.ltrans2.ltrans.o
                                                  obj/main/NAZE/fc/cleanflight_fc.o (symbol from plugin)
enableFlightMode                                  /tmp/ccGrItoW.ltrans8.ltrans.o
                                                  obj/main/NAZE/fc/runtime_config.o (symbol from plugin)
                                                  /tmp/ccGrItoW.ltrans4.ltrans.o
                                                  obj/main/NAZE/flight/failsafe.o (symbol from plugin)
                                                  obj/main/NAZE/flight/altitudehold.o (symbol from plugin)
                                                  obj/main/NAZE/fc/cleanflight_fc.o (symbol from plugin)
                                                  obj/main/NAZE/flight/navigation.o (symbol from plugin)
enableGPIOPowerUsageAndNoiseReductions            obj/main/NAZE/drivers/system_stm32f10x.o (symbol from plugin)
                                                  obj/main/NAZE/drivers/system.o (symbol from plugin)
enabledSensors.lto_priv.182                       /tmp/ccGrItoW.ltrans1.ltrans.o
                                                  /tmp/ccGrItoW.ltrans24.ltrans.o
                                                  /tmp/ccGrItoW.ltrans22.ltrans.o
                                                  /tmp/ccGrItoW.ltrans21.ltrans.o
                                                  /tmp/ccGrItoW.ltrans16.ltrans.o
                                                  /tmp/ccGrItoW.ltrans13.ltrans.o
                                                  /tmp/ccGrItoW.ltrans11.ltrans.o
                                                  /tmp/ccGrItoW.ltrans10.ltrans.o
                                                  /tmp/ccGrItoW.ltrans8.ltrans.o
                                                  /tmp/ccGrItoW.ltrans4.ltrans.o
                                                  /tmp/ccGrItoW.ltrans3.ltrans.o
                                                  /tmp/ccGrItoW.ltrans2.ltrans.o
                                                  /tmp/ccGrItoW.ltrans0.ltrans.o
end                                               /usr/lib/gcc/arm-none-eabi/4.9.3/../../../arm-none-eabi/lib/armv7-m/libnosys.a(sbrk.o)
ensureEEPROMContainsValidData                     obj/main/NAZE/fc/config.o (symbol from plugin)
                                                  obj/main/NAZE/fc/boot.o (symbol from plugin)
errno                                             /usr/lib/gcc/arm-none-eabi/4.9.3/../../../arm-none-eabi/lib/armv7-m/libc_nano.a(lib_a-reent.o)
                                                  /usr/lib/gcc/arm-none-eabi/4.9.3/../../../arm-none-eabi/lib/armv7-m/libc_nano.a(lib_a-sbrkr.o)
error.lto_priv.535                                /tmp/ccGrItoW.ltrans22.ltrans.o
                                                  /tmp/ccGrItoW.ltrans14.ltrans.o
errorVelocityI                                    /tmp/ccGrItoW.ltrans16.ltrans.o
                                                  obj/main/NAZE/flight/altitudehold.o (symbol from plugin)
                                                  /tmp/ccGrItoW.ltrans4.ltrans.o
                                                  /tmp/ccGrItoW.ltrans2.ltrans.o
esc4wayExitRequested                              obj/main/NAZE/io/serial_4way.o (symbol from plugin)
esc4wayInit                                       obj/main/NAZE/io/serial_4way.o (symbol from plugin)
                                                  obj/main/NAZE/fc/msp_server_fc.o (symbol from plugin)
esc4wayProcess                                    /tmp/ccGrItoW.ltrans19.ltrans.o
                                                  obj/main/NAZE/io/serial_4way.o (symbol from plugin)
                                                  /tmp/ccGrItoW.ltrans8.ltrans.o
                                                  obj/main/NAZE/fc/msp_server_fc.o (symbol from plugin)
esc4wayProcessCmd                                 obj/main/NAZE/io/serial_4way.o (symbol from plugin)
esc4wayRelease                                    obj/main/NAZE/io/serial_4way.o (symbol from plugin)
esc4wayStart                                      obj/main/NAZE/io/serial_4way.o (symbol from plugin)
escCount.lto_priv.263                             /tmp/ccGrItoW.ltrans1.ltrans.o
                                                  /tmp/ccGrItoW.ltrans19.ltrans.o
escHardware                                       /tmp/ccGrItoW.ltrans1.ltrans.o
                                                  obj/main/NAZE/io/serial_4way.o (symbol from plugin)
                                                  /tmp/ccGrItoW.ltrans28.ltrans.o
                                                  /tmp/ccGrItoW.ltrans19.ltrans.o
escSelected                                       /tmp/ccGrItoW.ltrans28.ltrans.o
                                                  obj/main/NAZE/io/serial_4way.o (symbol from plugin)
                                                  /tmp/ccGrItoW.ltrans19.ltrans.o
                                                  obj/main/NAZE/io/serial_4way_stk500v2.o (symbol from plugin)
                                                  obj/main/NAZE/io/serial_4way_avrootloader.o (symbol from plugin)
evaluateOtherData                                 obj/main/NAZE/fc/fc_serial.o (symbol from plugin)
                                                  obj/main/NAZE/msp/msp_serial.o (symbol from plugin)
extiChannelRecs                                   /tmp/ccGrItoW.ltrans13.ltrans.o
                                                  obj/main/NAZE/drivers/exti.o (symbol from plugin)
                                                  /tmp/ccGrItoW.ltrans9.ltrans.o
                                                  /tmp/ccGrItoW.ltrans0.ltrans.o
extiGroupPriority.lto_priv.462                    /tmp/ccGrItoW.ltrans9.ltrans.o
                                                  /tmp/ccGrItoW.ltrans0.ltrans.o
extractAndStoreRxByte                             obj/main/NAZE/drivers/serial_softserial.o (symbol from plugin)
fabsf                                             /usr/lib/gcc/arm-none-eabi/4.9.3/../../../arm-none-eabi/lib/armv7-m/libm.a(lib_a-sf_fabs.o)
                                                  /usr/lib/gcc/arm-none-eabi/4.9.3/../../../arm-none-eabi/lib/armv7-m/libm.a(lib_a-ef_pow.o)
failsafeActivate.lto_priv.333                     /tmp/ccGrItoW.ltrans8.ltrans.o
                                                  /tmp/ccGrItoW.ltrans4.ltrans.o
failsafeChannelConfigs_Registry                   /tmp/ccGrItoW.ltrans1.ltrans.o
                                                  obj/main/NAZE/rx/rx.o (symbol from plugin)
failsafeChannelConfigs_SystemArray                /tmp/ccGrItoW.ltrans1.ltrans.o
                                                  obj/main/NAZE/rx/rx.o (symbol from plugin)
                                                  /tmp/ccGrItoW.ltrans17.ltrans.o
                                                  /tmp/ccGrItoW.ltrans10.ltrans.o
                                                  obj/main/NAZE/io/serial_cli.o (symbol from plugin)
                                                  obj/main/NAZE/fc/msp_server_fc.o (symbol from plugin)
failsafeConfig_Registry                           /tmp/ccGrItoW.ltrans1.ltrans.o
                                                  obj/main/NAZE/flight/failsafe.o (symbol from plugin)
failsafeConfig_System                             /tmp/ccGrItoW.ltrans1.ltrans.o
                                                  obj/main/NAZE/flight/failsafe.o (symbol from plugin)
                                                  /tmp/ccGrItoW.ltrans8.ltrans.o
                                                  /tmp/ccGrItoW.ltrans4.ltrans.o
                                                  obj/main/NAZE/fc/msp_server_fc.o (symbol from plugin)
failsafeInit                                      obj/main/NAZE/flight/failsafe.o (symbol from plugin)
                                                  obj/main/NAZE/fc/boot.o (symbol from plugin)
failsafeIsActive                                  obj/main/NAZE/flight/failsafe.o (symbol from plugin)
                                                  obj/main/NAZE/flight/mixer.o (symbol from plugin)
                                                  obj/main/NAZE/fc/rc_controls.o (symbol from plugin)
                                                  obj/main/NAZE/fc/cleanflight_fc.o (symbol from plugin)
                                                  obj/main/NAZE/telemetry/mavlink.o (symbol from plugin)
                                                  obj/main/NAZE/telemetry/ltm.o (symbol from plugin)
                                                  obj/main/NAZE/io/ledstrip.o (symbol from plugin)
failsafeIsMonitoring                              obj/main/NAZE/flight/failsafe.o (symbol from plugin)
                                                  obj/main/NAZE/fc/cleanflight_fc.o (symbol from plugin)
failsafeIsReceivingRxData                         obj/main/NAZE/flight/failsafe.o (symbol from plugin)
failsafeOnRxResume                                obj/main/NAZE/flight/failsafe.o (symbol from plugin)
                                                  obj/main/NAZE/rx/rx.o (symbol from plugin)
failsafeOnRxSuspend                               obj/main/NAZE/flight/failsafe.o (symbol from plugin)
                                                  obj/main/NAZE/rx/rx.o (symbol from plugin)
failsafeOnValidDataFailed                         obj/main/NAZE/flight/failsafe.o (symbol from plugin)
                                                  obj/main/NAZE/rx/rx.o (symbol from plugin)
failsafeOnValidDataReceived                       obj/main/NAZE/flight/failsafe.o (symbol from plugin)
                                                  obj/main/NAZE/rx/rx.o (symbol from plugin)
failsafePhase                                     obj/main/NAZE/flight/failsafe.o (symbol from plugin)
                                                  obj/main/NAZE/fc/cleanflight_fc.o (symbol from plugin)
                                                  obj/main/NAZE/blackbox/blackbox.o (symbol from plugin)
failsafeStartMonitoring                           obj/main/NAZE/flight/failsafe.o (symbol from plugin)
                                                  obj/main/NAZE/fc/cleanflight_fc.o (symbol from plugin)
failsafeState.lto_priv.282                        /tmp/ccGrItoW.ltrans10.ltrans.o
                                                  /tmp/ccGrItoW.ltrans22.ltrans.o
                                                  /tmp/ccGrItoW.ltrans12.ltrans.o
                                                  /tmp/ccGrItoW.ltrans8.ltrans.o
                                                  /tmp/ccGrItoW.ltrans4.ltrans.o
                                                  /tmp/ccGrItoW.ltrans3.ltrans.o
                                                  /tmp/ccGrItoW.ltrans2.ltrans.o
                                                  /tmp/ccGrItoW.ltrans0.ltrans.o
failsafeUpdateState                               obj/main/NAZE/flight/failsafe.o (symbol from plugin)
                                                  obj/main/NAZE/fc/cleanflight_fc.o (symbol from plugin)
failureMode                                       /tmp/ccGrItoW.ltrans18.ltrans.o
                                                  obj/main/NAZE/drivers/system.o (symbol from plugin)
                                                  /tmp/ccGrItoW.ltrans26.ltrans.o
                                                  /tmp/ccGrItoW.ltrans13.ltrans.o
                                                  /tmp/ccGrItoW.ltrans8.ltrans.o
                                                  /tmp/ccGrItoW.ltrans0.ltrans.o
                                                  obj/main/NAZE/config/config_eeprom.o (symbol from plugin)
                                                  obj/main/NAZE/sensors/voltage.o (symbol from plugin)
                                                  obj/main/NAZE/fc/config.o (symbol from plugin)
                                                  obj/main/NAZE/fc/boot.o (symbol from plugin)
                                                  obj/main/NAZE/drivers/accgyro_mpu3050.o (symbol from plugin)
                                                  obj/main/NAZE/drivers/accgyro_mpu.o (symbol from plugin)
                                                  obj/main/NAZE/drivers/accgyro_l3g4200d.o (symbol from plugin)
fastA2F                                           /tmp/ccGrItoW.ltrans18.ltrans.o
                                                  obj/main/NAZE/common/typeconversion.o (symbol from plugin)
                                                  /tmp/ccGrItoW.ltrans27.ltrans.o
                                                  /tmp/ccGrItoW.ltrans17.ltrans.o
                                                  obj/main/NAZE/io/serial_cli.o (symbol from plugin)
fc_acc                                            /tmp/ccGrItoW.ltrans8.ltrans.o
                                                  obj/main/NAZE/flight/imu.o (symbol from plugin)
                                                  /tmp/ccGrItoW.ltrans24.ltrans.o
feature                                           obj/main/NAZE/config/feature.o (symbol from plugin)
                                                  obj/main/NAZE/sensors/acceleration.o (symbol from plugin)
                                                  obj/main/NAZE/rx/pwm.o (symbol from plugin)
                                                  obj/main/NAZE/rx/rx.o (symbol from plugin)
                                                  obj/main/NAZE/io/beeper.o (symbol from plugin)
                                                  obj/main/NAZE/flight/servos.o (symbol from plugin)
                                                  obj/main/NAZE/flight/mixer.o (symbol from plugin)
                                                  obj/main/NAZE/fc/msp_server_fc.o (symbol from plugin)
                                                  obj/main/NAZE/fc/config.o (symbol from plugin)
                                                  obj/main/NAZE/fc/rc_controls.o (symbol from plugin)
                                                  obj/main/NAZE/fc/rc_adjustments.o (symbol from plugin)
                                                  obj/main/NAZE/fc/cleanflight_fc.o (symbol from plugin)
                                                  obj/main/NAZE/fc/boot.o (symbol from plugin)
                                                  obj/main/NAZE/blackbox/blackbox.o (symbol from plugin)
                                                  obj/main/NAZE/sensors/sonar.o (symbol from plugin)
                                                  obj/main/NAZE/telemetry/mavlink.o (symbol from plugin)
                                                  obj/main/NAZE/telemetry/smartport.o (symbol from plugin)
                                                  obj/main/NAZE/telemetry/frsky.o (symbol from plugin)
                                                  obj/main/NAZE/io/ledstrip.o (symbol from plugin)
featureClear                                      /tmp/ccGrItoW.ltrans30.ltrans.o
                                                  obj/main/NAZE/config/feature.o (symbol from plugin)
                                                  /tmp/ccGrItoW.ltrans8.ltrans.o
                                                  /tmp/ccGrItoW.ltrans7.ltrans.o
                                                  /tmp/ccGrItoW.ltrans0.ltrans.o
                                                  obj/main/NAZE/rx/rx.o (symbol from plugin)
                                                  obj/main/NAZE/io/serial_cli.o (symbol from plugin)
                                                  obj/main/NAZE/fc/config.o (symbol from plugin)
                                                  obj/main/NAZE/io/gps.o (symbol from plugin)
featureClearAll                                   obj/main/NAZE/config/feature.o (symbol from plugin)
                                                  obj/main/NAZE/fc/msp_server_fc.o (symbol from plugin)
                                                  obj/main/NAZE/fc/config.o (symbol from plugin)
featureConfig_Registry                            /tmp/ccGrItoW.ltrans1.ltrans.o
                                                  obj/main/NAZE/config/feature.o (symbol from plugin)
featureConfig_System                              /tmp/ccGrItoW.ltrans1.ltrans.o
                                                  obj/main/NAZE/config/feature.o (symbol from plugin)
                                                  /tmp/ccGrItoW.ltrans30.ltrans.o
                                                  /tmp/ccGrItoW.ltrans8.ltrans.o
                                                  /tmp/ccGrItoW.ltrans7.ltrans.o
                                                  /tmp/ccGrItoW.ltrans0.ltrans.o
featureConfigured                                 obj/main/NAZE/config/feature.o (symbol from plugin)
                                                  obj/main/NAZE/fc/config.o (symbol from plugin)
featureMask                                       obj/main/NAZE/config/feature.o (symbol from plugin)
                                                  obj/main/NAZE/io/serial_cli.o (symbol from plugin)
                                                  obj/main/NAZE/fc/msp_server_fc.o (symbol from plugin)
featureSet                                        obj/main/NAZE/config/feature.o (symbol from plugin)
                                                  obj/main/NAZE/io/serial_cli.o (symbol from plugin)
                                                  obj/main/NAZE/fc/msp_server_fc.o (symbol from plugin)
                                                  obj/main/NAZE/fc/config.o (symbol from plugin)
filterRc                                          obj/main/NAZE/fc/cleanflight_fc.o (symbol from plugin)
filterServos                                      obj/main/NAZE/flight/servos.o (symbol from plugin)
                                                  obj/main/NAZE/fc/cleanflight_fc.o (symbol from plugin)
findBoxByBoxId.lto_priv.175                       /tmp/ccGrItoW.ltrans8.ltrans.o
                                                  /tmp/ccGrItoW.ltrans1.ltrans.o
                                                  /tmp/ccGrItoW.ltrans0.ltrans.o
findEEPROM                                        obj/main/NAZE/config/config_eeprom.o (symbol from plugin)
findNextSerialPortConfig                          obj/main/NAZE/io/serial.o (symbol from plugin)
                                                  obj/main/NAZE/msp/msp_serial.o (symbol from plugin)
findNextSharedSerialPort                          obj/main/NAZE/io/serial.o (symbol from plugin)
                                                  obj/main/NAZE/fc/cleanflight_fc.o (symbol from plugin)
findNextSharedSerialPort.constprop.20             /tmp/ccGrItoW.ltrans20.ltrans.o
                                                  /tmp/ccGrItoW.ltrans21.ltrans.o
                                                  /tmp/ccGrItoW.ltrans4.ltrans.o
findSerialPortConfig                              /tmp/ccGrItoW.ltrans18.ltrans.o
                                                  obj/main/NAZE/io/serial.o (symbol from plugin)
                                                  /tmp/ccGrItoW.ltrans21.ltrans.o
                                                  /tmp/ccGrItoW.ltrans20.ltrans.o
                                                  /tmp/ccGrItoW.ltrans0.ltrans.o
                                                  obj/main/NAZE/msp/msp_serial.o (symbol from plugin)
                                                  obj/main/NAZE/rx/srxl.o (symbol from plugin)
                                                  obj/main/NAZE/rx/ibus.o (symbol from plugin)
                                                  obj/main/NAZE/rx/xbus.o (symbol from plugin)
                                                  obj/main/NAZE/rx/spektrum.o (symbol from plugin)
                                                  obj/main/NAZE/rx/sumh.o (symbol from plugin)
                                                  obj/main/NAZE/rx/sumd.o (symbol from plugin)
                                                  obj/main/NAZE/rx/sbus.o (symbol from plugin)
                                                  obj/main/NAZE/blackbox/blackbox_io.o (symbol from plugin)
                                                  obj/main/NAZE/telemetry/ibus.o (symbol from plugin)
                                                  obj/main/NAZE/telemetry/mavlink.o (symbol from plugin)
                                                  obj/main/NAZE/telemetry/ltm.o (symbol from plugin)
                                                  obj/main/NAZE/telemetry/smartport.o (symbol from plugin)
                                                  obj/main/NAZE/telemetry/hott.o (symbol from plugin)
                                                  obj/main/NAZE/telemetry/frsky.o (symbol from plugin)
                                                  obj/main/NAZE/io/gps.o (symbol from plugin)
findSerialPortUsageByIdentifier                   /tmp/ccGrItoW.ltrans18.ltrans.o
                                                  obj/main/NAZE/io/serial.o (symbol from plugin)
                                                  /tmp/ccGrItoW.ltrans20.ltrans.o
                                                  /tmp/ccGrItoW.ltrans17.ltrans.o
                                                  /tmp/ccGrItoW.ltrans1.ltrans.o
                                                  obj/main/NAZE/io/serial_cli.o (symbol from plugin)
                                                  obj/main/NAZE/fc/msp_server_fc.o (symbol from plugin)
findSerialPortUsageByPort                         obj/main/NAZE/io/serial.o (symbol from plugin)
findSharedSerialPort                              obj/main/NAZE/io/serial.o (symbol from plugin)
                                                  obj/main/NAZE/fc/cleanflight_fc.o (symbol from plugin)
findSharedSerialPortState.lto_priv.328            /tmp/ccGrItoW.ltrans20.ltrans.o
                                                  /tmp/ccGrItoW.ltrans21.ltrans.o
                                                  /tmp/ccGrItoW.ltrans4.ltrans.o
finishBlackbox                                    obj/main/NAZE/blackbox/blackbox.o (symbol from plugin)
                                                  obj/main/NAZE/fc/cleanflight_fc.o (symbol from plugin)
finitef                                           /usr/lib/gcc/arm-none-eabi/4.9.3/../../../arm-none-eabi/lib/armv7-m/libm.a(lib_a-sf_finite.o)
                                                  /usr/lib/gcc/arm-none-eabi/4.9.3/../../../arm-none-eabi/lib/armv7-m/libm.a(lib_a-wf_pow.o)
flashLedsAndBeep                                  obj/main/NAZE/fc/boot.o (symbol from plugin)
flashWriteBuffer.lto_priv.542                     /tmp/ccGrItoW.ltrans30.ltrans.o
                                                  /tmp/ccGrItoW.ltrans14.ltrans.o
flashchipConfig_Registry                          /tmp/ccGrItoW.ltrans0.ltrans.o
                                                  obj/main/NAZE/fc/boot.o (symbol from plugin)
flashchipConfig_System                            obj/main/NAZE/fc/boot.o (symbol from plugin)
                                                  obj/main/NAZE/drivers/flash_m25p16.o (symbol from plugin)
flashfsAdvanceTailInBuffer.lto_priv.495           /tmp/ccGrItoW.ltrans14.ltrans.o
                                                  /tmp/ccGrItoW.ltrans30.ltrans.o
flashfsEraseCompletely                            /tmp/ccGrItoW.ltrans14.ltrans.o
                                                  obj/main/NAZE/io/flashfs.o (symbol from plugin)
                                                  /tmp/ccGrItoW.ltrans7.ltrans.o
                                                  /tmp/ccGrItoW.ltrans1.ltrans.o
                                                  obj/main/NAZE/io/serial_cli.o (symbol from plugin)
                                                  obj/main/NAZE/fc/msp_server_fc.o (symbol from plugin)
flashfsEraseRange                                 obj/main/NAZE/io/flashfs.o (symbol from plugin)
flashfsFlushAsync                                 /tmp/ccGrItoW.ltrans14.ltrans.o
                                                  obj/main/NAZE/io/flashfs.o (symbol from plugin)
                                                  /tmp/ccGrItoW.ltrans30.ltrans.o
                                                  /tmp/ccGrItoW.ltrans12.ltrans.o
                                                  obj/main/NAZE/blackbox/blackbox_io.o (symbol from plugin)
flashfsFlushSync                                  /tmp/ccGrItoW.ltrans14.ltrans.o
                                                  obj/main/NAZE/io/flashfs.o (symbol from plugin)
                                                  /tmp/ccGrItoW.ltrans1.ltrans.o
                                                  /tmp/ccGrItoW.ltrans0.ltrans.o
flashfsGetDirtyDataBuffers.lto_priv.493           /tmp/ccGrItoW.ltrans14.ltrans.o
                                                  /tmp/ccGrItoW.ltrans30.ltrans.o
flashfsGetGeometry                                obj/main/NAZE/io/flashfs.o (symbol from plugin)
                                                  obj/main/NAZE/io/serial_cli.o (symbol from plugin)
                                                  obj/main/NAZE/fc/msp_server_fc.o (symbol from plugin)
flashfsGetOffset                                  /tmp/ccGrItoW.ltrans14.ltrans.o
                                                  obj/main/NAZE/io/flashfs.o (symbol from plugin)
                                                  /tmp/ccGrItoW.ltrans7.ltrans.o
                                                  /tmp/ccGrItoW.ltrans1.ltrans.o
                                                  obj/main/NAZE/io/serial_cli.o (symbol from plugin)
                                                  obj/main/NAZE/fc/msp_server_fc.o (symbol from plugin)
flashfsGetSize                                    obj/main/NAZE/io/flashfs.o (symbol from plugin)
                                                  obj/main/NAZE/blackbox/blackbox_io.o (symbol from plugin)
flashfsGetWriteBufferFreeSpace                    obj/main/NAZE/io/flashfs.o (symbol from plugin)
                                                  obj/main/NAZE/blackbox/blackbox_io.o (symbol from plugin)
flashfsGetWriteBufferSize                         obj/main/NAZE/io/flashfs.o (symbol from plugin)
                                                  obj/main/NAZE/blackbox/blackbox_io.o (symbol from plugin)
flashfsIdentifyStartOfFreeSpace                   obj/main/NAZE/io/flashfs.o (symbol from plugin)
flashfsInit                                       obj/main/NAZE/io/flashfs.o (symbol from plugin)
                                                  obj/main/NAZE/fc/boot.o (symbol from plugin)
flashfsIsEOF                                      obj/main/NAZE/io/flashfs.o (symbol from plugin)
                                                  obj/main/NAZE/blackbox/blackbox_io.o (symbol from plugin)
flashfsIsReady                                    obj/main/NAZE/io/flashfs.o (symbol from plugin)
                                                  obj/main/NAZE/io/serial_cli.o (symbol from plugin)
                                                  obj/main/NAZE/fc/msp_server_fc.o (symbol from plugin)
flashfsReadAbs                                    obj/main/NAZE/io/flashfs.o (symbol from plugin)
                                                  obj/main/NAZE/fc/msp_server_fc.o (symbol from plugin)
flashfsSeekAbs                                    obj/main/NAZE/io/flashfs.o (symbol from plugin)
flashfsSeekRel                                    obj/main/NAZE/io/flashfs.o (symbol from plugin)
flashfsTransmitBufferUsed.lto_priv.378            /tmp/ccGrItoW.ltrans14.ltrans.o
                                                  /tmp/ccGrItoW.ltrans30.ltrans.o
                                                  /tmp/ccGrItoW.ltrans2.ltrans.o
flashfsWrite                                      obj/main/NAZE/io/flashfs.o (symbol from plugin)
                                                  obj/main/NAZE/blackbox/blackbox_io.o (symbol from plugin)
flashfsWriteBuffers.lto_priv.494                  /tmp/ccGrItoW.ltrans14.ltrans.o
                                                  /tmp/ccGrItoW.ltrans30.ltrans.o
flashfsWriteByte                                  obj/main/NAZE/io/flashfs.o (symbol from plugin)
                                                  obj/main/NAZE/blackbox/blackbox_io.o (symbol from plugin)
flightModeFlags                                   /tmp/ccGrItoW.ltrans1.ltrans.o
                                                  obj/main/NAZE/fc/runtime_config.o (symbol from plugin)
                                                  /tmp/ccGrItoW.ltrans29.ltrans.o
                                                  /tmp/ccGrItoW.ltrans22.ltrans.o
                                                  /tmp/ccGrItoW.ltrans12.ltrans.o
                                                  /tmp/ccGrItoW.ltrans9.ltrans.o
                                                  /tmp/ccGrItoW.ltrans8.ltrans.o
                                                  /tmp/ccGrItoW.ltrans4.ltrans.o
                                                  /tmp/ccGrItoW.ltrans3.ltrans.o
                                                  /tmp/ccGrItoW.ltrans2.ltrans.o
                                                  obj/main/NAZE/flight/servos.o (symbol from plugin)
                                                  obj/main/NAZE/flight/pid_mw23.o (symbol from plugin)
                                                  obj/main/NAZE/flight/pid_mwrewrite.o (symbol from plugin)
                                                  obj/main/NAZE/flight/pid_luxfloat.o (symbol from plugin)
                                                  obj/main/NAZE/flight/altitudehold.o (symbol from plugin)
                                                  obj/main/NAZE/fc/msp_server_fc.o (symbol from plugin)
                                                  obj/main/NAZE/fc/cleanflight_fc.o (symbol from plugin)
                                                  obj/main/NAZE/blackbox/blackbox.o (symbol from plugin)
                                                  obj/main/NAZE/telemetry/mavlink.o (symbol from plugin)
                                                  obj/main/NAZE/telemetry/ltm.o (symbol from plugin)
                                                  obj/main/NAZE/telemetry/smartport.o (symbol from plugin)
                                                  obj/main/NAZE/io/ledstrip.o (symbol from plugin)
                                                  obj/main/NAZE/flight/navigation.o (symbol from plugin)
flushHottRxBuffer.lto_priv.314                    /tmp/ccGrItoW.ltrans11.ltrans.o
                                                  /tmp/ccGrItoW.ltrans3.ltrans.o
frSkyDataIdTable                                  obj/main/NAZE/telemetry/smartport.o (symbol from plugin)
free                                              /usr/lib/gcc/arm-none-eabi/4.9.3/../../../arm-none-eabi/lib/armv7-m/libc_nano.a(lib_a-malloc.o)
freeFrSkyTelemetryPort                            obj/main/NAZE/telemetry/frsky.o (symbol from plugin)
freeHoTTTelemetryPort                             obj/main/NAZE/telemetry/hott.o (symbol from plugin)
freeIbusTelemetryPort                             obj/main/NAZE/telemetry/ibus.o (symbol from plugin)
freeLtmTelemetryPort                              obj/main/NAZE/telemetry/ltm.o (symbol from plugin)
freeMAVLinkTelemetryPort                          obj/main/NAZE/telemetry/mavlink.o (symbol from plugin)
freeSmartPortTelemetryPort                        obj/main/NAZE/telemetry/smartport.o (symbol from plugin)
frskyPortSharing.lto_priv.519                     /tmp/ccGrItoW.ltrans0.ltrans.o
                                                  /tmp/ccGrItoW.ltrans11.ltrans.o
frskyTelemetryConfig_Registry                     /tmp/ccGrItoW.ltrans3.ltrans.o
                                                  obj/main/NAZE/telemetry/frsky.o (symbol from plugin)
frskyTelemetryConfig_System                       /tmp/ccGrItoW.ltrans3.ltrans.o
                                                  obj/main/NAZE/telemetry/frsky.o (symbol from plugin)
                                                  /tmp/ccGrItoW.ltrans11.ltrans.o
frskyTelemetryEnabled.lto_priv.520                /tmp/ccGrItoW.ltrans3.ltrans.o
                                                  /tmp/ccGrItoW.ltrans11.ltrans.o
ftoa                                              /tmp/ccGrItoW.ltrans18.ltrans.o
                                                  obj/main/NAZE/common/typeconversion.o (symbol from plugin)
                                                  /tmp/ccGrItoW.ltrans27.ltrans.o
                                                  /tmp/ccGrItoW.ltrans17.ltrans.o
                                                  /tmp/ccGrItoW.ltrans7.ltrans.o
                                                  obj/main/NAZE/io/serial_cli.o (symbol from plugin)
g_pfnVectors                                      obj/main/NAZE/startup_stm32f10x_md_gcc.o
generateLedConfig                                 obj/main/NAZE/io/ledstrip.o (symbol from plugin)
                                                  obj/main/NAZE/io/serial_cli.o (symbol from plugin)
generatePitchRollCurve                            /tmp/ccGrItoW.ltrans8.ltrans.o
                                                  obj/main/NAZE/fc/rc_curves.o (symbol from plugin)
                                                  /tmp/ccGrItoW.ltrans27.ltrans.o
                                                  /tmp/ccGrItoW.ltrans4.ltrans.o
                                                  obj/main/NAZE/fc/rc_adjustments.o (symbol from plugin)
                                                  obj/main/NAZE/fc/rate_profile.o (symbol from plugin)
generateThrottleCurve                             /tmp/ccGrItoW.ltrans8.ltrans.o
                                                  obj/main/NAZE/fc/rc_curves.o (symbol from plugin)
                                                  /tmp/ccGrItoW.ltrans27.ltrans.o
                                                  /tmp/ccGrItoW.ltrans4.ltrans.o
                                                  obj/main/NAZE/fc/rc_adjustments.o (symbol from plugin)
                                                  obj/main/NAZE/fc/rate_profile.o (symbol from plugin)
generateYawCurve                                  /tmp/ccGrItoW.ltrans8.ltrans.o
                                                  obj/main/NAZE/fc/rc_curves.o (symbol from plugin)
                                                  /tmp/ccGrItoW.ltrans27.ltrans.o
                                                  /tmp/ccGrItoW.ltrans4.ltrans.o
                                                  obj/main/NAZE/fc/rate_profile.o (symbol from plugin)
geometry.lto_priv.250                             /tmp/ccGrItoW.ltrans1.ltrans.o
                                                  /tmp/ccGrItoW.ltrans30.ltrans.o
                                                  /tmp/ccGrItoW.ltrans21.ltrans.o
                                                  /tmp/ccGrItoW.ltrans14.ltrans.o
                                                  /tmp/ccGrItoW.ltrans7.ltrans.o
                                                  /tmp/ccGrItoW.ltrans0.ltrans.o
getAmperageMeter                                  obj/main/NAZE/sensors/amperage.o (symbol from plugin)
                                                  obj/main/NAZE/sensors/battery.o (symbol from plugin)
                                                  obj/main/NAZE/fc/msp_server_fc.o (symbol from plugin)
                                                  obj/main/NAZE/blackbox/blackbox.o (symbol from plugin)
                                                  obj/main/NAZE/telemetry/mavlink.o (symbol from plugin)
                                                  obj/main/NAZE/telemetry/smartport.o (symbol from plugin)
                                                  obj/main/NAZE/telemetry/hott.o (symbol from plugin)
                                                  obj/main/NAZE/telemetry/frsky.o (symbol from plugin)
getArmingBeepTimeMicros                           obj/main/NAZE/io/beeper.o (symbol from plugin)
                                                  obj/main/NAZE/blackbox/blackbox.o (symbol from plugin)
getArmingPreventionBlinkMask                      obj/main/NAZE/fc/cleanflight_fc.o (symbol from plugin)
getBatteryState                                   obj/main/NAZE/sensors/battery.o (symbol from plugin)
                                                  obj/main/NAZE/fc/msp_server_fc.o (symbol from plugin)
                                                  obj/main/NAZE/telemetry/hott.o (symbol from plugin)
                                                  obj/main/NAZE/io/ledstrip.o (symbol from plugin)
getBatteryStateString                             obj/main/NAZE/sensors/battery.o (symbol from plugin)
                                                  obj/main/NAZE/io/serial_cli.o (symbol from plugin)
getControlRateConfig                              obj/main/NAZE/fc/rate_profile.o (symbol from plugin)
getCosTiltAngle                                   obj/main/NAZE/flight/imu.o (symbol from plugin)
                                                  obj/main/NAZE/flight/altitudehold.o (symbol from plugin)
getCurrentControlRateProfile                      obj/main/NAZE/fc/rate_profile.o (symbol from plugin)
                                                  obj/main/NAZE/io/serial_cli.o (symbol from plugin)
                                                  obj/main/NAZE/fc/rc_adjustments.o (symbol from plugin)
getCurrentProfile                                 obj/main/NAZE/config/profile.o (symbol from plugin)
                                                  obj/main/NAZE/io/serial_cli.o (symbol from plugin)
                                                  obj/main/NAZE/fc/msp_server_fc.o (symbol from plugin)
                                                  obj/main/NAZE/fc/config.o (symbol from plugin)
                                                  obj/main/NAZE/blackbox/blackbox.o (symbol from plugin)
getLatestVoltageForADCChannel                     obj/main/NAZE/sensors/voltage.o (symbol from plugin)
                                                  obj/main/NAZE/sensors/battery.o (symbol from plugin)
                                                  obj/main/NAZE/blackbox/blackbox.o (symbol from plugin)
getLatestVoltageForADCChannel.constprop.54        /tmp/ccGrItoW.ltrans20.ltrans.o
                                                  /tmp/ccGrItoW.ltrans23.ltrans.o
                                                  /tmp/ccGrItoW.ltrans21.ltrans.o
                                                  /tmp/ccGrItoW.ltrans12.ltrans.o
getLedHsv                                         obj/main/NAZE/drivers/light_ws2811strip.o (symbol from plugin)
                                                  obj/main/NAZE/io/ledstrip.o (symbol from plugin)
getLedQuadrant.lto_priv.300                       /tmp/ccGrItoW.ltrans22.ltrans.o
                                                  /tmp/ccGrItoW.ltrans29.ltrans.o
                                                  /tmp/ccGrItoW.ltrans11.ltrans.o
getRcStickDeflection                              obj/main/NAZE/fc/rc_controls.o (symbol from plugin)
                                                  obj/main/NAZE/flight/pid.o (symbol from plugin)
getRxfailValue.lto_priv.334                       /tmp/ccGrItoW.ltrans10.ltrans.o
                                                  /tmp/ccGrItoW.ltrans4.ltrans.o
getTaskDeltaTime                                  obj/main/NAZE/scheduler/scheduler.o (symbol from plugin)
                                                  obj/main/NAZE/fc/cleanflight_fc.o (symbol from plugin)
getTaskInfo                                       obj/main/NAZE/scheduler/scheduler.o (symbol from plugin)
                                                  obj/main/NAZE/io/serial_cli.o (symbol from plugin)
getVoltageForADCChannel                           obj/main/NAZE/sensors/voltage.o (symbol from plugin)
                                                  obj/main/NAZE/sensors/battery.o (symbol from plugin)
getVoltageMeter                                   obj/main/NAZE/sensors/voltage.o (symbol from plugin)
                                                  obj/main/NAZE/fc/msp_server_fc.o (symbol from plugin)
getVoltageMeterConfig                             obj/main/NAZE/sensors/voltage.o (symbol from plugin)
                                                  obj/main/NAZE/blackbox/blackbox.o (symbol from plugin)
getdT                                             /tmp/ccGrItoW.ltrans8.ltrans.o
                                                  obj/main/NAZE/flight/pid.o (symbol from plugin)
                                                  /tmp/ccGrItoW.ltrans9.ltrans.o
                                                  obj/main/NAZE/flight/pid_mw23.o (symbol from plugin)
                                                  obj/main/NAZE/flight/pid_mwrewrite.o (symbol from plugin)
                                                  obj/main/NAZE/flight/pid_luxfloat.o (symbol from plugin)
gimbalConfig_ProfileCurrent                       obj/main/NAZE/io/gimbal.o (symbol from plugin)
                                                  obj/main/NAZE/flight/servos.o (symbol from plugin)
gimbalConfig_Registry                             /tmp/ccGrItoW.ltrans2.ltrans.o
                                                  obj/main/NAZE/io/gimbal.o (symbol from plugin)
gpioInit                                          /tmp/ccGrItoW.ltrans5.ltrans.o
                                                  obj/main/NAZE/drivers/gpio_stm32f10x.o (symbol from plugin)
                                                  /tmp/ccGrItoW.ltrans28.ltrans.o
                                                  /tmp/ccGrItoW.ltrans26.ltrans.o
                                                  /tmp/ccGrItoW.ltrans19.ltrans.o
                                                  /tmp/ccGrItoW.ltrans15.ltrans.o
                                                  /tmp/ccGrItoW.ltrans13.ltrans.o
                                                  /tmp/ccGrItoW.ltrans6.ltrans.o
                                                  /tmp/ccGrItoW.ltrans0.ltrans.o
                                                  obj/main/NAZE/rx/spektrum.o (symbol from plugin)
                                                  obj/main/NAZE/io/serial_4way.o (symbol from plugin)
                                                  obj/main/NAZE/drivers/timer.o (symbol from plugin)
                                                  obj/main/NAZE/drivers/sound_beeper_stm32f10x.o (symbol from plugin)
                                                  obj/main/NAZE/drivers/serial_softserial.o (symbol from plugin)
                                                  obj/main/NAZE/drivers/pwm_rx.o (symbol from plugin)
                                                  obj/main/NAZE/drivers/pwm_output.o (symbol from plugin)
                                                  obj/main/NAZE/drivers/sonar_hcsr04.o (symbol from plugin)
                                                  obj/main/NAZE/drivers/inverter.o (symbol from plugin)
                                                  obj/main/NAZE/drivers/compass_hmc5883l.o (symbol from plugin)
                                                  obj/main/NAZE/drivers/bus_spi.o (symbol from plugin)
                                                  obj/main/NAZE/drivers/barometer_bmp085.o (symbol from plugin)
                                                  obj/main/NAZE/drivers/accgyro_spi_mpu6500.o (symbol from plugin)
                                                  obj/main/NAZE/drivers/accgyro_mpu.o (symbol from plugin)
                                                  obj/main/NAZE/drivers/accgyro_mma845x.o (symbol from plugin)
                                                  obj/main/NAZE/drivers/system_stm32f10x.o (symbol from plugin)
                                                  obj/main/NAZE/drivers/serial_uart_stm32f10x.o (symbol from plugin)
                                                  obj/main/NAZE/drivers/serial_uart.o (symbol from plugin)
                                                  obj/main/NAZE/drivers/light_led_stm32f10x.o (symbol from plugin)
                                                  obj/main/NAZE/drivers/bus_i2c_stm32f10x.o (symbol from plugin)
gpioPinRemapConfig                                obj/main/NAZE/drivers/gpio_stm32f10x.o (symbol from plugin)
gpsConfig_Registry                                /tmp/ccGrItoW.ltrans1.ltrans.o
                                                  obj/main/NAZE/io/gps.o (symbol from plugin)
gpsConfig_System                                  /tmp/ccGrItoW.ltrans1.ltrans.o
                                                  obj/main/NAZE/io/gps.o (symbol from plugin)
                                                  /tmp/ccGrItoW.ltrans16.ltrans.o
                                                  /tmp/ccGrItoW.ltrans14.ltrans.o
                                                  /tmp/ccGrItoW.ltrans0.ltrans.o
                                                  obj/main/NAZE/fc/msp_server_fc.o (symbol from plugin)
gpsData                                           /tmp/ccGrItoW.ltrans16.ltrans.o
                                                  obj/main/NAZE/io/gps.o (symbol from plugin)
                                                  /tmp/ccGrItoW.ltrans22.ltrans.o
                                                  /tmp/ccGrItoW.ltrans14.ltrans.o
                                                  /tmp/ccGrItoW.ltrans0.ltrans.o
gpsEnablePassthrough                              obj/main/NAZE/io/gps.o (symbol from plugin)
                                                  obj/main/NAZE/io/serial_cli.o (symbol from plugin)
gpsHandlePassthrough.lto_priv.226                 /tmp/ccGrItoW.ltrans22.ltrans.o
                                                  /tmp/ccGrItoW.ltrans27.ltrans.o
gpsHistory.lto_priv.496                           /tmp/ccGrItoW.ltrans21.ltrans.o
                                                  /tmp/ccGrItoW.ltrans12.ltrans.o
gpsInit                                           obj/main/NAZE/io/gps.o (symbol from plugin)
                                                  obj/main/NAZE/fc/boot.o (symbol from plugin)
gpsInitData.lto_priv.417                          /tmp/ccGrItoW.ltrans16.ltrans.o
                                                  /tmp/ccGrItoW.ltrans0.ltrans.o
gpsInitHardware                                   obj/main/NAZE/io/gps.o (symbol from plugin)
gpsInitNmea                                       obj/main/NAZE/io/gps.o (symbol from plugin)
gpsInitUblox                                      obj/main/NAZE/io/gps.o (symbol from plugin)
gpsNewData.part.2.lto_priv.326                    /tmp/ccGrItoW.ltrans22.ltrans.o
                                                  /tmp/ccGrItoW.ltrans16.ltrans.o
gpsNewFrame                                       /tmp/ccGrItoW.ltrans14.ltrans.o
                                                  obj/main/NAZE/io/gps.o (symbol from plugin)
                                                  /tmp/ccGrItoW.ltrans22.ltrans.o
                                                  /tmp/ccGrItoW.ltrans16.ltrans.o
gpsPacketLog                                      /tmp/ccGrItoW.ltrans0.ltrans.o
                                                  obj/main/NAZE/io/gps.o (symbol from plugin)
                                                  /tmp/ccGrItoW.ltrans14.ltrans.o
gpsPort.lto_priv.324                              /tmp/ccGrItoW.ltrans27.ltrans.o
                                                  /tmp/ccGrItoW.ltrans16.ltrans.o
                                                  /tmp/ccGrItoW.ltrans0.ltrans.o
gpsProfile_ProfileCurrent                         /tmp/ccGrItoW.ltrans4.ltrans.o
                                                  obj/main/NAZE/flight/navigation.o (symbol from plugin)
                                                  /tmp/ccGrItoW.ltrans22.ltrans.o
                                                  /tmp/ccGrItoW.ltrans14.ltrans.o
                                                  /tmp/ccGrItoW.ltrans2.ltrans.o
gpsProfile_Registry                               /tmp/ccGrItoW.ltrans4.ltrans.o
                                                  obj/main/NAZE/flight/navigation.o (symbol from plugin)
gpsSetState.lto_priv.325                          /tmp/ccGrItoW.ltrans14.ltrans.o
                                                  /tmp/ccGrItoW.ltrans16.ltrans.o
                                                  /tmp/ccGrItoW.ltrans0.ltrans.o
gpsThread                                         obj/main/NAZE/io/gps.o (symbol from plugin)
                                                  obj/main/NAZE/fc/cleanflight_fc.o (symbol from plugin)
gpsUsePIDs                                        /tmp/ccGrItoW.ltrans14.ltrans.o
                                                  obj/main/NAZE/flight/navigation.o (symbol from plugin)
                                                  /tmp/ccGrItoW.ltrans8.ltrans.o
                                                  /tmp/ccGrItoW.ltrans0.ltrans.o
                                                  obj/main/NAZE/fc/config.o (symbol from plugin)
grab_fields.constprop.94                          /tmp/ccGrItoW.ltrans20.ltrans.o
                                                  /tmp/ccGrItoW.ltrans14.ltrans.o
gyro                                              /tmp/ccGrItoW.ltrans13.ltrans.o
                                                  obj/main/NAZE/sensors/gyro.o (symbol from plugin)
                                                  /tmp/ccGrItoW.ltrans21.ltrans.o
                                                  /tmp/ccGrItoW.ltrans9.ltrans.o
                                                  /tmp/ccGrItoW.ltrans2.ltrans.o
                                                  /tmp/ccGrItoW.ltrans0.ltrans.o
                                                  obj/main/NAZE/sensors/initialisation.o (symbol from plugin)
                                                  obj/main/NAZE/flight/imu.o (symbol from plugin)
                                                  obj/main/NAZE/flight/pid_luxfloat.o (symbol from plugin)
                                                  obj/main/NAZE/fc/cleanflight_fc.o (symbol from plugin)
                                                  obj/main/NAZE/fc/boot.o (symbol from plugin)
                                                  obj/main/NAZE/blackbox/blackbox.o (symbol from plugin)
gyroADC                                           /tmp/ccGrItoW.ltrans1.ltrans.o
                                                  obj/main/NAZE/sensors/gyro.o (symbol from plugin)
                                                  /tmp/ccGrItoW.ltrans24.ltrans.o
                                                  /tmp/ccGrItoW.ltrans21.ltrans.o
                                                  /tmp/ccGrItoW.ltrans12.ltrans.o
                                                  /tmp/ccGrItoW.ltrans9.ltrans.o
                                                  obj/main/NAZE/flight/imu.o (symbol from plugin)
                                                  obj/main/NAZE/flight/pid_mw23.o (symbol from plugin)
                                                  obj/main/NAZE/flight/pid_mwrewrite.o (symbol from plugin)
                                                  obj/main/NAZE/fc/msp_server_fc.o (symbol from plugin)
                                                  obj/main/NAZE/blackbox/blackbox.o (symbol from plugin)
gyroADCf                                          /tmp/ccGrItoW.ltrans9.ltrans.o
                                                  obj/main/NAZE/sensors/gyro.o (symbol from plugin)
                                                  /tmp/ccGrItoW.ltrans21.ltrans.o
                                                  obj/main/NAZE/flight/pid_luxfloat.o (symbol from plugin)
gyroAlign                                         /tmp/ccGrItoW.ltrans13.ltrans.o
                                                  obj/main/NAZE/sensors/gyro.o (symbol from plugin)
                                                  /tmp/ccGrItoW.ltrans21.ltrans.o
                                                  obj/main/NAZE/sensors/initialisation.o (symbol from plugin)
gyroConfig_Registry                               /tmp/ccGrItoW.ltrans13.ltrans.o
                                                  obj/main/NAZE/sensors/gyro.o (symbol from plugin)
gyroConfig_System                                 /tmp/ccGrItoW.ltrans13.ltrans.o
                                                  obj/main/NAZE/sensors/gyro.o (symbol from plugin)
                                                  /tmp/ccGrItoW.ltrans21.ltrans.o
                                                  /tmp/ccGrItoW.ltrans8.ltrans.o
                                                  /tmp/ccGrItoW.ltrans0.ltrans.o
                                                  obj/main/NAZE/sensors/initialisation.o (symbol from plugin)
                                                  obj/main/NAZE/fc/config.o (symbol from plugin)
                                                  obj/main/NAZE/fc/cleanflight_fc.o (symbol from plugin)
                                                  obj/main/NAZE/fc/boot.o (symbol from plugin)
gyroDataReady                                     /tmp/ccGrItoW.ltrans21.ltrans.o
                                                  obj/main/NAZE/drivers/gyro_sync.o (symbol from plugin)
                                                  /tmp/ccGrItoW.ltrans26.ltrans.o
gyroDeltaUs                                       /tmp/ccGrItoW.ltrans1.ltrans.o
                                                  obj/main/NAZE/fc/cleanflight_fc.o (symbol from plugin)
                                                  /tmp/ccGrItoW.ltrans21.ltrans.o
                                                  /tmp/ccGrItoW.ltrans10.ltrans.o
                                                  obj/main/NAZE/io/serial_cli.o (symbol from plugin)
                                                  obj/main/NAZE/fc/msp_server_fc.o (symbol from plugin)
gyroFilterLPF.lto_priv.381                        /tmp/ccGrItoW.ltrans13.ltrans.o
                                                  /tmp/ccGrItoW.ltrans21.ltrans.o
gyroFilterNotch.lto_priv.383                      /tmp/ccGrItoW.ltrans13.ltrans.o
                                                  /tmp/ccGrItoW.ltrans21.ltrans.o
gyroFilterPt1.lto_priv.382                        /tmp/ccGrItoW.ltrans13.ltrans.o
                                                  /tmp/ccGrItoW.ltrans21.ltrans.o
gyroInit                                          obj/main/NAZE/sensors/gyro.o (symbol from plugin)
                                                  obj/main/NAZE/sensors/initialisation.o (symbol from plugin)
gyroIntPeriod                                     obj/main/NAZE/fc/cleanflight_fc.o (symbol from plugin)
gyroReadyCounter                                  /tmp/ccGrItoW.ltrans2.ltrans.o
                                                  obj/main/NAZE/fc/cleanflight_fc.o (symbol from plugin)
                                                  /tmp/ccGrItoW.ltrans21.ltrans.o
gyroScale.lto_priv.446                            /tmp/ccGrItoW.ltrans24.ltrans.o
                                                  /tmp/ccGrItoW.ltrans0.ltrans.o
gyroSetCalibrationCycles                          obj/main/NAZE/sensors/gyro.o (symbol from plugin)
                                                  obj/main/NAZE/fc/rc_controls.o (symbol from plugin)
                                                  obj/main/NAZE/fc/boot.o (symbol from plugin)
gyroSyncIntHandler                                obj/main/NAZE/drivers/gyro_sync.o (symbol from plugin)
                                                  obj/main/NAZE/drivers/accgyro_mpu.o (symbol from plugin)
gyroSyncIsDataReady                               obj/main/NAZE/drivers/gyro_sync.o (symbol from plugin)
                                                  obj/main/NAZE/fc/cleanflight_fc.o (symbol from plugin)
gyroUpdate                                        obj/main/NAZE/sensors/gyro.o (symbol from plugin)
                                                  obj/main/NAZE/fc/cleanflight_fc.o (symbol from plugin)
gyroUpdateAt                                      obj/main/NAZE/fc/cleanflight_fc.o (symbol from plugin)
handleBlackbox                                    obj/main/NAZE/blackbox/blackbox.o (symbol from plugin)
                                                  obj/main/NAZE/fc/cleanflight_fc.o (symbol from plugin)
handleFrSkyTelemetry                              obj/main/NAZE/telemetry/frsky.o (symbol from plugin)
                                                  obj/main/NAZE/telemetry/telemetry.o (symbol from plugin)
handleHoTTTelemetry                               obj/main/NAZE/telemetry/hott.o (symbol from plugin)
                                                  obj/main/NAZE/telemetry/telemetry.o (symbol from plugin)
handleIbusTelemetry                               obj/main/NAZE/telemetry/ibus.o (symbol from plugin)
                                                  obj/main/NAZE/telemetry/telemetry.o (symbol from plugin)
handleInflightCalibrationStickPosition            obj/main/NAZE/fc/cleanflight_fc.o (symbol from plugin)
                                                  obj/main/NAZE/fc/rc_controls.o (symbol from plugin)
handleLtmTelemetry                                obj/main/NAZE/telemetry/ltm.o (symbol from plugin)
                                                  obj/main/NAZE/telemetry/telemetry.o (symbol from plugin)
handleMAVLinkTelemetry                            obj/main/NAZE/telemetry/mavlink.o (symbol from plugin)
                                                  obj/main/NAZE/telemetry/telemetry.o (symbol from plugin)
handleOneshotFeatureChangeOnRestart               /tmp/ccGrItoW.ltrans8.ltrans.o
                                                  obj/main/NAZE/fc/config.o (symbol from plugin)
                                                  /tmp/ccGrItoW.ltrans27.ltrans.o
                                                  obj/main/NAZE/io/serial_cli.o (symbol from plugin)
                                                  obj/main/NAZE/fc/msp_server_fc.o (symbol from plugin)
handleSmartPortTelemetry                          obj/main/NAZE/telemetry/smartport.o (symbol from plugin)
                                                  obj/main/NAZE/telemetry/telemetry.o (symbol from plugin)
hardwareRevision                                  /tmp/ccGrItoW.ltrans1.ltrans.o
                                                  obj/main/NAZE/hardware_revision.o (symbol from plugin)
                                                  /tmp/ccGrItoW.ltrans13.ltrans.o
                                                  /tmp/ccGrItoW.ltrans0.ltrans.o
                                                  obj/main/NAZE/sensors/initialisation.o (symbol from plugin)
                                                  obj/main/NAZE/fc/msp_server_fc.o (symbol from plugin)
                                                  obj/main/NAZE/fc/boot.o (symbol from plugin)
hasEnoughTimeLapsedSinceLastTelemetryTransmission obj/main/NAZE/telemetry/frsky.o (symbol from plugin)
hcsr04_extiCallbackRec                            obj/main/NAZE/drivers/sonar_hcsr04.o (symbol from plugin)
hcsr04_extiHandler                                /tmp/ccGrItoW.ltrans6.ltrans.o
                                                  obj/main/NAZE/drivers/sonar_hcsr04.o (symbol from plugin)
                                                  /tmp/ccGrItoW.ltrans0.ltrans.o
hcsr04_get_distance                               obj/main/NAZE/drivers/sonar_hcsr04.o (symbol from plugin)
                                                  obj/main/NAZE/sensors/sonar.o (symbol from plugin)
hcsr04_init                                       obj/main/NAZE/drivers/sonar_hcsr04.o (symbol from plugin)
                                                  obj/main/NAZE/sensors/sonar.o (symbol from plugin)
hcsr04_start_reading                              obj/main/NAZE/drivers/sonar_hcsr04.o (symbol from plugin)
                                                  obj/main/NAZE/sensors/sonar.o (symbol from plugin)
headFreeModeHold                                  /tmp/ccGrItoW.ltrans4.ltrans.o
                                                  obj/main/NAZE/fc/cleanflight_fc.o (symbol from plugin)
                                                  /tmp/ccGrItoW.ltrans21.ltrans.o
                                                  /tmp/ccGrItoW.ltrans2.ltrans.o
hiLoTsh.lto_priv.261                              /tmp/ccGrItoW.ltrans17.ltrans.o
                                                  /tmp/ccGrItoW.ltrans28.ltrans.o
hmc5883Config.lto_priv.548                        /tmp/ccGrItoW.ltrans13.ltrans.o
                                                  /tmp/ccGrItoW.ltrans6.ltrans.o
hmc5883_extiHandler                               obj/main/NAZE/drivers/compass_hmc5883l.o (symbol from plugin)
hmc5883lDetect                                    obj/main/NAZE/drivers/compass_hmc5883l.o (symbol from plugin)
                                                  obj/main/NAZE/sensors/initialisation.o (symbol from plugin)
hmc5883lInit                                      /tmp/ccGrItoW.ltrans6.ltrans.o
                                                  obj/main/NAZE/drivers/compass_hmc5883l.o (symbol from plugin)
                                                  /tmp/ccGrItoW.ltrans13.ltrans.o
hmc5883lRead                                      /tmp/ccGrItoW.ltrans6.ltrans.o
                                                  obj/main/NAZE/drivers/compass_hmc5883l.o (symbol from plugin)
                                                  /tmp/ccGrItoW.ltrans13.ltrans.o
hottEAMMessage.lto_priv.411                       /tmp/ccGrItoW.ltrans3.ltrans.o
                                                  /tmp/ccGrItoW.ltrans0.ltrans.o
hottGPSMessage.lto_priv.412                       /tmp/ccGrItoW.ltrans3.ltrans.o
                                                  /tmp/ccGrItoW.ltrans0.ltrans.o
hottPort.lto_priv.506                             /tmp/ccGrItoW.ltrans3.ltrans.o
                                                  /tmp/ccGrItoW.ltrans11.ltrans.o
hottPortSharing.lto_priv.517                      /tmp/ccGrItoW.ltrans0.ltrans.o
                                                  /tmp/ccGrItoW.ltrans11.ltrans.o
hottPrepareEAMResponse                            obj/main/NAZE/telemetry/hott.o (symbol from plugin)
hottPrepareGPSResponse                            obj/main/NAZE/telemetry/hott.o (symbol from plugin)
hottTelemetryConfig_Registry                      /tmp/ccGrItoW.ltrans3.ltrans.o
                                                  obj/main/NAZE/telemetry/hott.o (symbol from plugin)
hottTelemetryConfig_System                        obj/main/NAZE/telemetry/hott.o (symbol from plugin)
hottTelemetryEnabled.lto_priv.518                 /tmp/ccGrItoW.ltrans3.ltrans.o
                                                  /tmp/ccGrItoW.ltrans11.ltrans.o
hse_value                                         /tmp/ccGrItoW.ltrans31.ltrans.o
                                                  obj/main/NAZE/system_stm32f10x.o (symbol from plugin)
                                                  /tmp/ccGrItoW.ltrans0.ltrans.o
                                                  obj/main/NAZE/stm32f10x_rcc.o (symbol from plugin)
                                                  obj/main/NAZE/hardware_revision.o (symbol from plugin)
hsv                                               /tmp/ccGrItoW.ltrans29.ltrans.o
                                                  obj/main/NAZE/io/ledstrip.o (symbol from plugin)
                                                  /tmp/ccGrItoW.ltrans22.ltrans.o
                                                  /tmp/ccGrItoW.ltrans11.ltrans.o
hsvToRgb24                                        obj/main/NAZE/common/colorconversion.o (symbol from plugin)
                                                  obj/main/NAZE/drivers/light_ws2811strip.o (symbol from plugin)
i2a                                               obj/main/NAZE/common/typeconversion.o (symbol from plugin)
                                                  obj/main/NAZE/common/printf.o (symbol from plugin)
i2cErrorCount.lto_priv.221                        /tmp/ccGrItoW.ltrans1.ltrans.o
                                                  /tmp/ccGrItoW.ltrans10.ltrans.o
                                                  /tmp/ccGrItoW.ltrans5.ltrans.o
i2cGetErrorCounter                                obj/main/NAZE/drivers/bus_i2c_stm32f10x.o (symbol from plugin)
                                                  obj/main/NAZE/io/serial_cli.o (symbol from plugin)
                                                  obj/main/NAZE/fc/msp_server_fc.o (symbol from plugin)
i2cInit                                           /tmp/ccGrItoW.ltrans5.ltrans.o
                                                  obj/main/NAZE/drivers/bus_i2c_stm32f10x.o (symbol from plugin)
                                                  /tmp/ccGrItoW.ltrans0.ltrans.o
                                                  obj/main/NAZE/fc/boot.o (symbol from plugin)
i2cOverClock.lto_priv.559                         /tmp/ccGrItoW.ltrans0.ltrans.o
                                                  /tmp/ccGrItoW.ltrans5.ltrans.o
i2cRead                                           /tmp/ccGrItoW.ltrans5.ltrans.o
                                                  obj/main/NAZE/drivers/bus_i2c_stm32f10x.o (symbol from plugin)
                                                  /tmp/ccGrItoW.ltrans26.ltrans.o
                                                  /tmp/ccGrItoW.ltrans13.ltrans.o
                                                  /tmp/ccGrItoW.ltrans6.ltrans.o
                                                  obj/main/NAZE/drivers/compass_hmc5883l.o (symbol from plugin)
                                                  obj/main/NAZE/drivers/barometer_bmp280.o (symbol from plugin)
                                                  obj/main/NAZE/drivers/barometer_ms5611.o (symbol from plugin)
                                                  obj/main/NAZE/drivers/barometer_bmp085.o (symbol from plugin)
                                                  obj/main/NAZE/drivers/accgyro_mpu.o (symbol from plugin)
                                                  obj/main/NAZE/drivers/accgyro_mma845x.o (symbol from plugin)
                                                  obj/main/NAZE/drivers/accgyro_l3g4200d.o (symbol from plugin)
                                                  obj/main/NAZE/drivers/accgyro_bma280.o (symbol from plugin)
                                                  obj/main/NAZE/drivers/accgyro_adxl345.o (symbol from plugin)
i2cSetOverclock                                   obj/main/NAZE/drivers/bus_i2c_stm32f10x.o (symbol from plugin)
                                                  obj/main/NAZE/fc/boot.o (symbol from plugin)
i2cWrite                                          /tmp/ccGrItoW.ltrans5.ltrans.o
                                                  obj/main/NAZE/drivers/bus_i2c_stm32f10x.o (symbol from plugin)
                                                  /tmp/ccGrItoW.ltrans26.ltrans.o
                                                  /tmp/ccGrItoW.ltrans13.ltrans.o
                                                  /tmp/ccGrItoW.ltrans6.ltrans.o
                                                  obj/main/NAZE/drivers/display_ug2864hsweg01.o (symbol from plugin)
                                                  obj/main/NAZE/drivers/compass_hmc5883l.o (symbol from plugin)
                                                  obj/main/NAZE/drivers/barometer_bmp280.o (symbol from plugin)
                                                  obj/main/NAZE/drivers/barometer_ms5611.o (symbol from plugin)
                                                  obj/main/NAZE/drivers/barometer_bmp085.o (symbol from plugin)
                                                  obj/main/NAZE/drivers/accgyro_mpu.o (symbol from plugin)
                                                  obj/main/NAZE/drivers/accgyro_mma845x.o (symbol from plugin)
                                                  obj/main/NAZE/drivers/accgyro_l3g4200d.o (symbol from plugin)
                                                  obj/main/NAZE/drivers/accgyro_bma280.o (symbol from plugin)
                                                  obj/main/NAZE/drivers/accgyro_adxl345.o (symbol from plugin)
i2cWriteBuffer                                    obj/main/NAZE/drivers/bus_i2c_stm32f10x.o (symbol from plugin)
i2c_OLED_clear_display                            obj/main/NAZE/drivers/display_ug2864hsweg01.o (symbol from plugin)
i2c_OLED_clear_display_quick                      obj/main/NAZE/drivers/display_ug2864hsweg01.o (symbol from plugin)
i2c_OLED_send_char                                obj/main/NAZE/drivers/display_ug2864hsweg01.o (symbol from plugin)
i2c_OLED_send_string                              obj/main/NAZE/drivers/display_ug2864hsweg01.o (symbol from plugin)
i2c_OLED_set_line                                 obj/main/NAZE/drivers/display_ug2864hsweg01.o (symbol from plugin)
i2c_OLED_set_xy                                   obj/main/NAZE/drivers/display_ug2864hsweg01.o (symbol from plugin)
ibusBaseAddress.lto_priv.405                      /tmp/ccGrItoW.ltrans3.ltrans.o
                                                  /tmp/ccGrItoW.ltrans0.ltrans.o
ibusDataReceive.lto_priv.445                      /tmp/ccGrItoW.ltrans10.ltrans.o
                                                  /tmp/ccGrItoW.ltrans0.ltrans.o
ibusFrameStatus                                   /tmp/ccGrItoW.ltrans10.ltrans.o
                                                  obj/main/NAZE/rx/ibus.o (symbol from plugin)
                                                  /tmp/ccGrItoW.ltrans23.ltrans.o
                                                  /tmp/ccGrItoW.ltrans0.ltrans.o
                                                  obj/main/NAZE/rx/rx.o (symbol from plugin)
ibusInit                                          obj/main/NAZE/rx/ibus.o (symbol from plugin)
                                                  obj/main/NAZE/rx/rx.o (symbol from plugin)
ibusPortSharing.lto_priv.507                      /tmp/ccGrItoW.ltrans0.ltrans.o
                                                  /tmp/ccGrItoW.ltrans11.ltrans.o
ibusReadRawRC.lto_priv.444                        /tmp/ccGrItoW.ltrans10.ltrans.o
                                                  /tmp/ccGrItoW.ltrans0.ltrans.o
ibusSerialPort.lto_priv.502                       /tmp/ccGrItoW.ltrans3.ltrans.o
                                                  /tmp/ccGrItoW.ltrans11.ltrans.o
ibusSerialPortConfig.lto_priv.509                 /tmp/ccGrItoW.ltrans0.ltrans.o
                                                  /tmp/ccGrItoW.ltrans11.ltrans.o
ibusTelemetryConfig_Registry                      /tmp/ccGrItoW.ltrans3.ltrans.o
                                                  obj/main/NAZE/telemetry/ibus.o (symbol from plugin)
ibusTelemetryConfig_System                        obj/main/NAZE/telemetry/ibus.o (symbol from plugin)
ibusTelemetryEnabled.lto_priv.508                 /tmp/ccGrItoW.ltrans3.ltrans.o
                                                  /tmp/ccGrItoW.ltrans11.ltrans.o
imuCalculateAcceleration                          obj/main/NAZE/flight/imu.o (symbol from plugin)
imuComputeRotationMatrix.lto_priv.364             /tmp/ccGrItoW.ltrans9.ltrans.o
                                                  /tmp/ccGrItoW.ltrans24.ltrans.o
                                                  /tmp/ccGrItoW.ltrans0.ltrans.o
imuConfig_Registry                                /tmp/ccGrItoW.ltrans8.ltrans.o
                                                  obj/main/NAZE/flight/imu.o (symbol from plugin)
imuConfig_System                                  /tmp/ccGrItoW.ltrans8.ltrans.o
                                                  obj/main/NAZE/flight/imu.o (symbol from plugin)
                                                  /tmp/ccGrItoW.ltrans2.ltrans.o
                                                  obj/main/NAZE/fc/config.o (symbol from plugin)
                                                  obj/main/NAZE/fc/cleanflight_fc.o (symbol from plugin)
imuConfigure                                      obj/main/NAZE/flight/imu.o (symbol from plugin)
                                                  obj/main/NAZE/fc/config.o (symbol from plugin)
imuInit                                           obj/main/NAZE/flight/imu.o (symbol from plugin)
                                                  obj/main/NAZE/fc/boot.o (symbol from plugin)
imuIsAircraftArmable                              obj/main/NAZE/flight/imu.o (symbol from plugin)
                                                  obj/main/NAZE/fc/cleanflight_fc.o (symbol from plugin)
imuResetAccelerationSum                           obj/main/NAZE/flight/imu.o (symbol from plugin)
                                                  obj/main/NAZE/flight/altitudehold.o (symbol from plugin)
imuRuntimeConfig.lto_priv.357                     /tmp/ccGrItoW.ltrans8.ltrans.o
                                                  /tmp/ccGrItoW.ltrans24.ltrans.o
                                                  /tmp/ccGrItoW.ltrans0.ltrans.o
imuTransformVectorBodyToEarth                     obj/main/NAZE/flight/imu.o (symbol from plugin)
imuUpdateAccelerometer                            obj/main/NAZE/flight/imu.o (symbol from plugin)
                                                  obj/main/NAZE/fc/cleanflight_fc.o (symbol from plugin)
imuUpdateAttitude                                 obj/main/NAZE/flight/imu.o (symbol from plugin)
                                                  obj/main/NAZE/fc/cleanflight_fc.o (symbol from plugin)
init                                              obj/main/NAZE/fc/boot.o (symbol from plugin)
initBeeperHardware                                obj/main/NAZE/drivers/sound_beeper_stm32f10x.o (symbol from plugin)
                                                  obj/main/NAZE/drivers/sound_beeper.o (symbol from plugin)
initBlackbox                                      obj/main/NAZE/blackbox/blackbox.o (symbol from plugin)
                                                  obj/main/NAZE/fc/boot.o (symbol from plugin)
initBoardAlignment                                obj/main/NAZE/sensors/boardalignment.o (symbol from plugin)
                                                  obj/main/NAZE/fc/boot.o (symbol from plugin)
initEEPROM                                        obj/main/NAZE/config/config_eeprom.o (symbol from plugin)
                                                  obj/main/NAZE/fc/boot.o (symbol from plugin)
initFrSkyTelemetry                                obj/main/NAZE/telemetry/frsky.o (symbol from plugin)
                                                  obj/main/NAZE/telemetry/telemetry.o (symbol from plugin)
initHoTTTelemetry                                 obj/main/NAZE/telemetry/hott.o (symbol from plugin)
                                                  obj/main/NAZE/telemetry/telemetry.o (symbol from plugin)
initIbusTelemetry                                 obj/main/NAZE/telemetry/ibus.o (symbol from plugin)
                                                  obj/main/NAZE/telemetry/telemetry.o (symbol from plugin)
initInverter                                      obj/main/NAZE/drivers/inverter.o (symbol from plugin)
                                                  obj/main/NAZE/fc/boot.o (symbol from plugin)
initLtmTelemetry                                  obj/main/NAZE/telemetry/ltm.o (symbol from plugin)
                                                  obj/main/NAZE/telemetry/telemetry.o (symbol from plugin)
initMAVLinkTelemetry                              obj/main/NAZE/telemetry/mavlink.o (symbol from plugin)
                                                  obj/main/NAZE/telemetry/telemetry.o (symbol from plugin)
initSmartPortTelemetry                            obj/main/NAZE/telemetry/smartport.o (symbol from plugin)
                                                  obj/main/NAZE/telemetry/telemetry.o (symbol from plugin)
initSpi2                                          obj/main/NAZE/drivers/bus_spi.o (symbol from plugin)
init_printf                                       obj/main/NAZE/common/printf.o (symbol from plugin)
initialRawThrottleHold.lto_priv.368               /tmp/ccGrItoW.ltrans4.ltrans.o
                                                  /tmp/ccGrItoW.ltrans2.ltrans.o
initialThrottleHold.lto_priv.369                  /tmp/ccGrItoW.ltrans4.ltrans.o
                                                  /tmp/ccGrItoW.ltrans2.ltrans.o
inputSource_e                                     obj/main/NAZE/build/build_config.o (symbol from plugin)
                                                  obj/main/NAZE/io/serial_cli.o (symbol from plugin)
                                                  obj/main/NAZE/flight/servos.o (symbol from plugin)
                                                  obj/main/NAZE/fc/msp_server_fc.o (symbol from plugin)
                                                  obj/main/NAZE/fc/config.o (symbol from plugin)
                                                  obj/main/NAZE/fc/cleanflight_fc.o (symbol from plugin)
                                                  obj/main/NAZE/fc/boot.o (symbol from plugin)
                                                  obj/main/NAZE/blackbox/blackbox.o (symbol from plugin)
ioDefUsedMask.lto_priv.463                        /tmp/ccGrItoW.ltrans19.ltrans.o
                                                  /tmp/ccGrItoW.ltrans0.ltrans.o
ioPortDefs                                        obj/main/NAZE/drivers/io.o (symbol from plugin)
ioRecs                                            /tmp/ccGrItoW.ltrans19.ltrans.o
                                                  obj/main/NAZE/drivers/io.o (symbol from plugin)
                                                  /tmp/ccGrItoW.ltrans0.ltrans.o
isAccelerationCalibrationComplete                 obj/main/NAZE/sensors/acceleration.o (symbol from plugin)
                                                  obj/main/NAZE/fc/cleanflight_fc.o (symbol from plugin)
isBaroCalibrationComplete                         obj/main/NAZE/sensors/barometer.o (symbol from plugin)
                                                  obj/main/NAZE/flight/altitudehold.o (symbol from plugin)
                                                  obj/main/NAZE/fc/cleanflight_fc.o (symbol from plugin)
isBaroReady                                       obj/main/NAZE/sensors/barometer.o (symbol from plugin)
                                                  obj/main/NAZE/fc/cleanflight_fc.o (symbol from plugin)
isBlackboxDeviceFull                              /tmp/ccGrItoW.ltrans30.ltrans.o
                                                  obj/main/NAZE/blackbox/blackbox_io.o (symbol from plugin)
                                                  /tmp/ccGrItoW.ltrans21.ltrans.o
                                                  /tmp/ccGrItoW.ltrans2.ltrans.o
                                                  obj/main/NAZE/blackbox/blackbox.o (symbol from plugin)
isCalibrating                                     /tmp/ccGrItoW.ltrans21.ltrans.o
                                                  obj/main/NAZE/fc/cleanflight_fc.o (symbol from plugin)
                                                  /tmp/ccGrItoW.ltrans4.ltrans.o
                                                  /tmp/ccGrItoW.ltrans3.ltrans.o
                                                  obj/main/NAZE/telemetry/mavlink.o (symbol from plugin)
isConversionComplete.lto_priv.553                 /tmp/ccGrItoW.ltrans6.ltrans.o
                                                  /tmp/ccGrItoW.ltrans26.ltrans.o
isEEPROMContentValid                              obj/main/NAZE/config/config_eeprom.o (symbol from plugin)
                                                  obj/main/NAZE/fc/config.o (symbol from plugin)
isEOCConnected.lto_priv.552                       /tmp/ccGrItoW.ltrans13.ltrans.o
                                                  /tmp/ccGrItoW.ltrans6.ltrans.o
isEscHi                                           obj/main/NAZE/io/serial_4way.o (symbol from plugin)
                                                  obj/main/NAZE/io/serial_4way_stk500v2.o (symbol from plugin)
                                                  obj/main/NAZE/io/serial_4way_avrootloader.o (symbol from plugin)
isEscLo                                           obj/main/NAZE/io/serial_4way.o (symbol from plugin)
                                                  obj/main/NAZE/io/serial_4way_stk500v2.o (symbol from plugin)
isGyroCalibrationComplete                         obj/main/NAZE/sensors/gyro.o (symbol from plugin)
                                                  obj/main/NAZE/fc/cleanflight_fc.o (symbol from plugin)
isMPUSoftReset                                    obj/main/NAZE/drivers/system_stm32f10x.o (symbol from plugin)
                                                  obj/main/NAZE/rx/spektrum.o (symbol from plugin)
                                                  obj/main/NAZE/io/gps.o (symbol from plugin)
isMixerUsingServos                                obj/main/NAZE/flight/servos.o (symbol from plugin)
                                                  obj/main/NAZE/fc/boot.o (symbol from plugin)
isMotorBrushed                                    obj/main/NAZE/drivers/pwm_output.o (symbol from plugin)
                                                  obj/main/NAZE/drivers/pwm_mapping.o (symbol from plugin)
isOnFinalAccelerationCalibrationCycle             obj/main/NAZE/sensors/acceleration.o (symbol from plugin)
isOnFirstAccelerationCalibrationCycle             obj/main/NAZE/sensors/acceleration.o (symbol from plugin)
isPPMDataBeingReceived                            obj/main/NAZE/drivers/pwm_rx.o (symbol from plugin)
                                                  obj/main/NAZE/rx/rx.o (symbol from plugin)
isPWMDataBeingReceived                            obj/main/NAZE/drivers/pwm_rx.o (symbol from plugin)
                                                  obj/main/NAZE/rx/rx.o (symbol from plugin)
isRXDataNew.lto_priv.367                          /tmp/ccGrItoW.ltrans4.ltrans.o
                                                  /tmp/ccGrItoW.ltrans2.ltrans.o
isRangeActive                                     obj/main/NAZE/fc/rc_controls.o (symbol from plugin)
                                                  obj/main/NAZE/fc/rc_adjustments.o (symbol from plugin)
isRangeActive.part.0.lto_priv.332                 /tmp/ccGrItoW.ltrans29.ltrans.o
                                                  /tmp/ccGrItoW.ltrans4.ltrans.o
isSerialConfigValid                               obj/main/NAZE/io/serial.o (symbol from plugin)
                                                  obj/main/NAZE/fc/config.o (symbol from plugin)
isSerialPortOpen                                  obj/main/NAZE/io/serial.o (symbol from plugin)
                                                  obj/main/NAZE/msp/msp_serial.o (symbol from plugin)
isSerialPortShared                                obj/main/NAZE/io/serial.o (symbol from plugin)
isSerialTransmitBufferEmpty                       /tmp/ccGrItoW.ltrans18.ltrans.o
                                                  obj/main/NAZE/drivers/serial.o (symbol from plugin)
                                                  /tmp/ccGrItoW.ltrans30.ltrans.o
                                                  /tmp/ccGrItoW.ltrans25.ltrans.o
                                                  /tmp/ccGrItoW.ltrans16.ltrans.o
                                                  obj/main/NAZE/io/serial.o (symbol from plugin)
                                                  obj/main/NAZE/common/printf.o (symbol from plugin)
                                                  obj/main/NAZE/blackbox/blackbox_io.o (symbol from plugin)
                                                  obj/main/NAZE/io/gps.o (symbol from plugin)
isSmartPortTimedOut                               obj/main/NAZE/telemetry/smartport.o (symbol from plugin)
isSoftSerialTransmitBufferEmpty                   obj/main/NAZE/drivers/serial_softserial.o (symbol from plugin)
isThrustFacingDownwards                           obj/main/NAZE/flight/altitudehold.o (symbol from plugin)
isUartTransmitBufferEmpty                         obj/main/NAZE/drivers/serial_uart.o (symbol from plugin)
isUsingSticksForArming                            obj/main/NAZE/fc/rc_controls.o (symbol from plugin)
                                                  obj/main/NAZE/flight/failsafe.o (symbol from plugin)
                                                  obj/main/NAZE/fc/cleanflight_fc.o (symbol from plugin)
isUsingSticksToArm.lto_priv.286                   /tmp/ccGrItoW.ltrans1.ltrans.o
                                                  /tmp/ccGrItoW.ltrans8.ltrans.o
                                                  /tmp/ccGrItoW.ltrans4.ltrans.o
                                                  /tmp/ccGrItoW.ltrans2.ltrans.o
isWS2811LedStripReady                             obj/main/NAZE/drivers/light_ws2811strip.o (symbol from plugin)
                                                  obj/main/NAZE/io/ledstrip.o (symbol from plugin)
itoa                                              obj/main/NAZE/common/typeconversion.o (symbol from plugin)
                                                  obj/main/NAZE/io/serial_cli.o (symbol from plugin)
itoa.constprop.0                                  /tmp/ccGrItoW.ltrans20.ltrans.o
                                                  /tmp/ccGrItoW.ltrans18.ltrans.o
                                                  /tmp/ccGrItoW.ltrans17.ltrans.o
l3g4200dDetect                                    obj/main/NAZE/drivers/accgyro_l3g4200d.o (symbol from plugin)
lastBitTime.lto_priv.260                          /tmp/ccGrItoW.ltrans17.ltrans.o
                                                  /tmp/ccGrItoW.ltrans28.ltrans.o
lastITerm                                         /tmp/ccGrItoW.ltrans9.ltrans.o
                                                  obj/main/NAZE/flight/pid.o (symbol from plugin)
                                                  /tmp/ccGrItoW.ltrans4.ltrans.o
                                                  obj/main/NAZE/flight/pid_mw23.o (symbol from plugin)
                                                  obj/main/NAZE/flight/pid_mwrewrite.o (symbol from plugin)
lastITermf                                        /tmp/ccGrItoW.ltrans9.ltrans.o
                                                  obj/main/NAZE/flight/pid.o (symbol from plugin)
                                                  /tmp/ccGrItoW.ltrans4.ltrans.o
                                                  obj/main/NAZE/flight/pid_luxfloat.o (symbol from plugin)
lastMeasurementAt.lto_priv.416                    /tmp/ccGrItoW.ltrans16.ltrans.o
                                                  /tmp/ccGrItoW.ltrans0.ltrans.o
latchActiveFeatures                               obj/main/NAZE/config/feature.o (symbol from plugin)
                                                  obj/main/NAZE/fc/boot.o (symbol from plugin)
ledColorBuffer.lto_priv.414                       /tmp/ccGrItoW.ltrans29.ltrans.o
                                                  /tmp/ccGrItoW.ltrans22.ltrans.o
                                                  /tmp/ccGrItoW.ltrans11.ltrans.o
                                                  /tmp/ccGrItoW.ltrans6.ltrans.o
                                                  /tmp/ccGrItoW.ltrans0.ltrans.o
ledConfigs_Registry                               /tmp/ccGrItoW.ltrans1.ltrans.o
                                                  obj/main/NAZE/io/ledstrip.o (symbol from plugin)
ledConfigs_SystemArray                            /tmp/ccGrItoW.ltrans1.ltrans.o
                                                  obj/main/NAZE/io/ledstrip.o (symbol from plugin)
                                                  /tmp/ccGrItoW.ltrans29.ltrans.o
                                                  /tmp/ccGrItoW.ltrans22.ltrans.o
                                                  /tmp/ccGrItoW.ltrans11.ltrans.o
                                                  /tmp/ccGrItoW.ltrans7.ltrans.o
                                                  obj/main/NAZE/fc/msp_server_fc.o (symbol from plugin)
ledCounts.lto_priv.522                            /tmp/ccGrItoW.ltrans29.ltrans.o
                                                  /tmp/ccGrItoW.ltrans22.ltrans.o
                                                  /tmp/ccGrItoW.ltrans11.ltrans.o
ledInit                                           obj/main/NAZE/drivers/light_led_stm32f10x.o (symbol from plugin)
                                                  obj/main/NAZE/fc/boot.o (symbol from plugin)
ledStripDMABuffer                                 /tmp/ccGrItoW.ltrans0.ltrans.o
                                                  obj/main/NAZE/drivers/light_ws2811strip.o (symbol from plugin)
                                                  /tmp/ccGrItoW.ltrans6.ltrans.o
                                                  obj/main/NAZE/drivers/light_ws2811strip_stm32f10x.o (symbol from plugin)
ledStripEnable                                    obj/main/NAZE/io/ledstrip.o (symbol from plugin)
                                                  obj/main/NAZE/fc/boot.o (symbol from plugin)
ledStripInit                                      obj/main/NAZE/io/ledstrip.o (symbol from plugin)
                                                  obj/main/NAZE/fc/boot.o (symbol from plugin)
ledStripInitialised.lto_priv.413                  /tmp/ccGrItoW.ltrans29.ltrans.o
                                                  /tmp/ccGrItoW.ltrans0.ltrans.o
led_config                                        /tmp/ccGrItoW.ltrans20.ltrans.o
                                                  obj/main/NAZE/drivers/light_led_stm32f10x.o (symbol from plugin)
                                                  /tmp/ccGrItoW.ltrans23.ltrans.o
                                                  /tmp/ccGrItoW.ltrans19.ltrans.o
                                                  /tmp/ccGrItoW.ltrans18.ltrans.o
                                                  /tmp/ccGrItoW.ltrans16.ltrans.o
                                                  /tmp/ccGrItoW.ltrans13.ltrans.o
                                                  /tmp/ccGrItoW.ltrans6.ltrans.o
                                                  /tmp/ccGrItoW.ltrans4.ltrans.o
                                                  /tmp/ccGrItoW.ltrans0.ltrans.o
                                                  obj/main/NAZE/io/serial.o (symbol from plugin)
                                                  obj/main/NAZE/drivers/system.o (symbol from plugin)
                                                  obj/main/NAZE/sensors/compass.o (symbol from plugin)
                                                  obj/main/NAZE/rx/spektrum.o (symbol from plugin)
                                                  obj/main/NAZE/io/statusindicator.o (symbol from plugin)
                                                  obj/main/NAZE/io/serial_4way.o (symbol from plugin)
                                                  obj/main/NAZE/fc/cleanflight_fc.o (symbol from plugin)
                                                  obj/main/NAZE/fc/boot.o (symbol from plugin)
                                                  obj/main/NAZE/io/gps.o (symbol from plugin)
                                                  obj/main/NAZE/drivers/compass_hmc5883l.o (symbol from plugin)
li2a                                              obj/main/NAZE/common/typeconversion.o (symbol from plugin)
                                                  obj/main/NAZE/common/printf.o (symbol from plugin)
loadCustomServoMixer                              /tmp/ccGrItoW.ltrans9.ltrans.o
                                                  obj/main/NAZE/flight/servos.o (symbol from plugin)
                                                  /tmp/ccGrItoW.ltrans1.ltrans.o
                                                  /tmp/ccGrItoW.ltrans0.ltrans.o
                                                  obj/main/NAZE/fc/msp_server_fc.o (symbol from plugin)
loadEEPROM                                        obj/main/NAZE/config/config_eeprom.o (symbol from plugin)
                                                  obj/main/NAZE/fc/config.o (symbol from plugin)
log2f                                             /usr/lib/gcc/arm-none-eabi/4.9.3/../../../arm-none-eabi/lib/armv7-m/libm.a(lib_a-sf_log2.o)
                                                  /tmp/ccGrItoW.ltrans25.ltrans.o
logf                                              /usr/lib/gcc/arm-none-eabi/4.9.3/../../../arm-none-eabi/lib/armv7-m/libm.a(lib_a-wf_log.o)
                                                  /usr/lib/gcc/arm-none-eabi/4.9.3/../../../arm-none-eabi/lib/armv7-m/libm.a(lib_a-sf_log2.o)
lookupBaudRateIndex                               obj/main/NAZE/io/serial.o (symbol from plugin)
                                                  obj/main/NAZE/io/serial_cli.o (symbol from plugin)
                                                  obj/main/NAZE/io/gps.o (symbol from plugin)
lookupPitchRollRC.lto_priv.372                    /tmp/ccGrItoW.ltrans8.ltrans.o
                                                  /tmp/ccGrItoW.ltrans2.ltrans.o
lookupThrottleRC.lto_priv.370                     /tmp/ccGrItoW.ltrans8.ltrans.o
                                                  /tmp/ccGrItoW.ltrans2.ltrans.o
lookupTimerIndex.lto_priv.281                     /tmp/ccGrItoW.ltrans15.ltrans.o
                                                  /tmp/ccGrItoW.ltrans9.ltrans.o
lookupYawRC.lto_priv.371                          /tmp/ccGrItoW.ltrans8.ltrans.o
                                                  /tmp/ccGrItoW.ltrans2.ltrans.o
lrintf                                            /usr/lib/gcc/arm-none-eabi/4.9.3/../../../arm-none-eabi/lib/armv7-m/libm.a(lib_a-sf_lrint.o)
                                                  /tmp/ccGrItoW.ltrans24.ltrans.o
                                                  /tmp/ccGrItoW.ltrans21.ltrans.o
                                                  /tmp/ccGrItoW.ltrans16.ltrans.o
                                                  /tmp/ccGrItoW.ltrans10.ltrans.o
                                                  /tmp/ccGrItoW.ltrans9.ltrans.o
                                                  /tmp/ccGrItoW.ltrans2.ltrans.o
ltmEnabled.lto_priv.513                           /tmp/ccGrItoW.ltrans3.ltrans.o
                                                  /tmp/ccGrItoW.ltrans11.ltrans.o
ltmPort.lto_priv.504                              /tmp/ccGrItoW.ltrans3.ltrans.o
                                                  /tmp/ccGrItoW.ltrans11.ltrans.o
ltmPortSharing.lto_priv.512                       /tmp/ccGrItoW.ltrans0.ltrans.o
                                                  /tmp/ccGrItoW.ltrans11.ltrans.o
ltm_finalise.lto_priv.308                         /tmp/ccGrItoW.ltrans11.ltrans.o
                                                  /tmp/ccGrItoW.ltrans3.ltrans.o
ltm_initialise_packet.lto_priv.311                /tmp/ccGrItoW.ltrans11.ltrans.o
                                                  /tmp/ccGrItoW.ltrans3.ltrans.o
ltm_serialise_16.lto_priv.312                     /tmp/ccGrItoW.ltrans11.ltrans.o
                                                  /tmp/ccGrItoW.ltrans3.ltrans.o
ltm_serialise_32.lto_priv.310                     /tmp/ccGrItoW.ltrans11.ltrans.o
                                                  /tmp/ccGrItoW.ltrans3.ltrans.o
ltm_serialise_8.lto_priv.309                      /tmp/ccGrItoW.ltrans11.ltrans.o
                                                  /tmp/ccGrItoW.ltrans3.ltrans.o
m25p16_eraseCompletely                            obj/main/NAZE/drivers/flash_m25p16.o (symbol from plugin)
                                                  obj/main/NAZE/io/flashfs.o (symbol from plugin)
m25p16_eraseSector                                obj/main/NAZE/drivers/flash_m25p16.o (symbol from plugin)
                                                  obj/main/NAZE/io/flashfs.o (symbol from plugin)
m25p16_getGeometry                                obj/main/NAZE/drivers/flash_m25p16.o (symbol from plugin)
                                                  obj/main/NAZE/io/flashfs.o (symbol from plugin)
m25p16_init                                       obj/main/NAZE/drivers/flash_m25p16.o (symbol from plugin)
                                                  obj/main/NAZE/fc/boot.o (symbol from plugin)
m25p16_isReady                                    /tmp/ccGrItoW.ltrans6.ltrans.o
                                                  obj/main/NAZE/drivers/flash_m25p16.o (symbol from plugin)
                                                  /tmp/ccGrItoW.ltrans14.ltrans.o
                                                  /tmp/ccGrItoW.ltrans7.ltrans.o
                                                  /tmp/ccGrItoW.ltrans1.ltrans.o
                                                  obj/main/NAZE/io/flashfs.o (symbol from plugin)
m25p16_pageProgram                                obj/main/NAZE/drivers/flash_m25p16.o (symbol from plugin)
m25p16_pageProgramBegin                           obj/main/NAZE/drivers/flash_m25p16.o (symbol from plugin)
                                                  obj/main/NAZE/io/flashfs.o (symbol from plugin)
m25p16_pageProgramContinue                        obj/main/NAZE/drivers/flash_m25p16.o (symbol from plugin)
                                                  obj/main/NAZE/io/flashfs.o (symbol from plugin)
m25p16_pageProgramFinish                          obj/main/NAZE/drivers/flash_m25p16.o (symbol from plugin)
                                                  obj/main/NAZE/io/flashfs.o (symbol from plugin)
m25p16_readBytes                                  /tmp/ccGrItoW.ltrans6.ltrans.o
                                                  obj/main/NAZE/drivers/flash_m25p16.o (symbol from plugin)
                                                  /tmp/ccGrItoW.ltrans1.ltrans.o
                                                  /tmp/ccGrItoW.ltrans0.ltrans.o
                                                  obj/main/NAZE/io/flashfs.o (symbol from plugin)
m25p16_waitForReady                               /tmp/ccGrItoW.ltrans6.ltrans.o
                                                  obj/main/NAZE/drivers/flash_m25p16.o (symbol from plugin)
                                                  /tmp/ccGrItoW.ltrans14.ltrans.o
mag                                               /tmp/ccGrItoW.ltrans13.ltrans.o
                                                  obj/main/NAZE/sensors/compass.o (symbol from plugin)
                                                  /tmp/ccGrItoW.ltrans16.ltrans.o
                                                  obj/main/NAZE/sensors/initialisation.o (symbol from plugin)
magADC                                            /tmp/ccGrItoW.ltrans1.ltrans.o
                                                  obj/main/NAZE/sensors/compass.o (symbol from plugin)
                                                  /tmp/ccGrItoW.ltrans24.ltrans.o
                                                  /tmp/ccGrItoW.ltrans16.ltrans.o
                                                  /tmp/ccGrItoW.ltrans12.ltrans.o
                                                  obj/main/NAZE/flight/imu.o (symbol from plugin)
                                                  obj/main/NAZE/fc/msp_server_fc.o (symbol from plugin)
                                                  obj/main/NAZE/blackbox/blackbox.o (symbol from plugin)
magADCRaw                                         obj/main/NAZE/sensors/compass.o (symbol from plugin)
magAlign                                          /tmp/ccGrItoW.ltrans13.ltrans.o
                                                  obj/main/NAZE/sensors/compass.o (symbol from plugin)
                                                  /tmp/ccGrItoW.ltrans16.ltrans.o
                                                  obj/main/NAZE/sensors/initialisation.o (symbol from plugin)
magHold                                           /tmp/ccGrItoW.ltrans1.ltrans.o
                                                  obj/main/NAZE/fc/cleanflight_fc.o (symbol from plugin)
                                                  /tmp/ccGrItoW.ltrans22.ltrans.o
                                                  /tmp/ccGrItoW.ltrans4.ltrans.o
                                                  /tmp/ccGrItoW.ltrans2.ltrans.o
                                                  obj/main/NAZE/fc/msp_server_fc.o (symbol from plugin)
                                                  obj/main/NAZE/flight/navigation.o (symbol from plugin)
magInit.lto_priv.323                              /tmp/ccGrItoW.ltrans13.ltrans.o
                                                  /tmp/ccGrItoW.ltrans16.ltrans.o
magneticDeclination                               /tmp/ccGrItoW.ltrans8.ltrans.o
                                                  obj/main/NAZE/sensors/compass.o (symbol from plugin)
                                                  /tmp/ccGrItoW.ltrans24.ltrans.o
                                                  obj/main/NAZE/flight/imu.o (symbol from plugin)
main                                              /tmp/ccGrItoW.ltrans0.ltrans.o
                                                  obj/main/NAZE/fc/boot.o (symbol from plugin)
                                                  obj/main/NAZE/startup_stm32f10x_md_gcc.o
malloc                                            /usr/lib/gcc/arm-none-eabi/4.9.3/../../../arm-none-eabi/lib/armv7-m/libc_nano.a(lib_a-malloc.o)
                                                  /usr/lib/gcc/arm-none-eabi/4.9.3/../../../arm-none-eabi/lib/armv7-m/libc_nano.a(lib_a-strtok.o)
matherr                                           /usr/lib/gcc/arm-none-eabi/4.9.3/../../../arm-none-eabi/lib/armv7-m/libm.a(lib_a-s_matherr.o)
                                                  /usr/lib/gcc/arm-none-eabi/4.9.3/../../../arm-none-eabi/lib/armv7-m/libm.a(lib_a-wf_sqrt.o)
                                                  /usr/lib/gcc/arm-none-eabi/4.9.3/../../../arm-none-eabi/lib/armv7-m/libm.a(lib_a-wf_pow.o)
                                                  /usr/lib/gcc/arm-none-eabi/4.9.3/../../../arm-none-eabi/lib/armv7-m/libm.a(lib_a-wf_log.o)
mavBuffer.lto_priv.303                            /tmp/ccGrItoW.ltrans20.ltrans.o
mavMsg.lto_priv.302                               /tmp/ccGrItoW.ltrans20.ltrans.o
                                                  /tmp/ccGrItoW.ltrans3.ltrans.o
mavlinkPort.lto_priv.301                          /tmp/ccGrItoW.ltrans20.ltrans.o
                                                  /tmp/ccGrItoW.ltrans11.ltrans.o
                                                  /tmp/ccGrItoW.ltrans3.ltrans.o
mavlinkPortSharing.lto_priv.510                   /tmp/ccGrItoW.ltrans0.ltrans.o
                                                  /tmp/ccGrItoW.ltrans11.ltrans.o
mavlinkSendAttitude                               obj/main/NAZE/telemetry/mavlink.o (symbol from plugin)
mavlinkSendHUDAndHeartbeat                        obj/main/NAZE/telemetry/mavlink.o (symbol from plugin)
mavlinkSendPosition                               obj/main/NAZE/telemetry/mavlink.o (symbol from plugin)
mavlinkSendRCChannelsAndRSSI                      obj/main/NAZE/telemetry/mavlink.o (symbol from plugin)
mavlinkSendSystemStatus                           obj/main/NAZE/telemetry/mavlink.o (symbol from plugin)
mavlinkSerialWrite.constprop.82                   /tmp/ccGrItoW.ltrans20.ltrans.o
                                                  /tmp/ccGrItoW.ltrans3.ltrans.o
mavlinkStreamTrigger.lto_priv.307                 /tmp/ccGrItoW.ltrans11.ltrans.o
                                                  /tmp/ccGrItoW.ltrans3.ltrans.o
mavlinkTelemetryEnabled.lto_priv.511              /tmp/ccGrItoW.ltrans3.ltrans.o
                                                  /tmp/ccGrItoW.ltrans11.ltrans.o
mavlink_finalize_message_chan.constprop.79        /tmp/ccGrItoW.ltrans20.ltrans.o
                                                  /tmp/ccGrItoW.ltrans3.ltrans.o
mavlink_msg_to_send_buffer.constprop.81           /tmp/ccGrItoW.ltrans20.ltrans.o
                                                  /tmp/ccGrItoW.ltrans3.ltrans.o
measurement.lto_priv.547                          /tmp/ccGrItoW.ltrans11.ltrans.o
                                                  /tmp/ccGrItoW.ltrans6.ltrans.o
memcmp                                            /usr/lib/gcc/arm-none-eabi/4.9.3/../../../arm-none-eabi/lib/armv7-m/libc_nano.a(lib_a-memcmp.o)
                                                  /tmp/ccGrItoW.ltrans19.ltrans.o
                                                  /tmp/ccGrItoW.ltrans12.ltrans.o
memcpy                                            /usr/lib/gcc/arm-none-eabi/4.9.3/../../../arm-none-eabi/lib/armv7-m/libc_nano.a(lib_a-memcpy.o)
                                                  /tmp/ccGrItoW.ltrans30.ltrans.o
                                                  /tmp/ccGrItoW.ltrans25.ltrans.o
                                                  /tmp/ccGrItoW.ltrans20.ltrans.o
                                                  /tmp/ccGrItoW.ltrans18.ltrans.o
                                                  /tmp/ccGrItoW.ltrans11.ltrans.o
                                                  /tmp/ccGrItoW.ltrans8.ltrans.o
                                                  obj/main/NAZE/io/ledstrip.o (symbol from plugin)
memmove                                           /usr/lib/gcc/arm-none-eabi/4.9.3/../../../arm-none-eabi/lib/armv7-m/libc_nano.a(lib_a-memmove.o)
                                                  /tmp/ccGrItoW.ltrans18.ltrans.o
                                                  /tmp/ccGrItoW.ltrans3.ltrans.o
memset                                            /usr/lib/gcc/arm-none-eabi/4.9.3/../../../arm-none-eabi/lib/armv7-m/libc_nano.a(lib_a-memset.o)
                                                  /tmp/ccGrItoW.ltrans25.ltrans.o
                                                  /tmp/ccGrItoW.ltrans23.ltrans.o
                                                  /tmp/ccGrItoW.ltrans21.ltrans.o
                                                  /tmp/ccGrItoW.ltrans18.ltrans.o
                                                  /tmp/ccGrItoW.ltrans17.ltrans.o
                                                  /tmp/ccGrItoW.ltrans13.ltrans.o
                                                  /tmp/ccGrItoW.ltrans10.ltrans.o
                                                  /tmp/ccGrItoW.ltrans9.ltrans.o
                                                  /tmp/ccGrItoW.ltrans8.ltrans.o
                                                  /tmp/ccGrItoW.ltrans7.ltrans.o
                                                  /tmp/ccGrItoW.ltrans1.ltrans.o
                                                  /tmp/ccGrItoW.ltrans0.ltrans.o
micros                                            /tmp/ccGrItoW.ltrans18.ltrans.o
                                                  obj/main/NAZE/drivers/system.o (symbol from plugin)
                                                  /tmp/ccGrItoW.ltrans29.ltrans.o
                                                  /tmp/ccGrItoW.ltrans28.ltrans.o
                                                  /tmp/ccGrItoW.ltrans24.ltrans.o
                                                  /tmp/ccGrItoW.ltrans23.ltrans.o
                                                  /tmp/ccGrItoW.ltrans10.ltrans.o
                                                  /tmp/ccGrItoW.ltrans6.ltrans.o
                                                  /tmp/ccGrItoW.ltrans4.ltrans.o
                                                  /tmp/ccGrItoW.ltrans3.ltrans.o
                                                  /tmp/ccGrItoW.ltrans2.ltrans.o
                                                  /tmp/ccGrItoW.ltrans0.ltrans.o
                                                  obj/main/NAZE/scheduler/scheduler.o (symbol from plugin)
                                                  obj/main/NAZE/rx/srxl.o (symbol from plugin)
                                                  obj/main/NAZE/rx/ibus.o (symbol from plugin)
                                                  obj/main/NAZE/rx/xbus.o (symbol from plugin)
                                                  obj/main/NAZE/rx/spektrum.o (symbol from plugin)
                                                  obj/main/NAZE/rx/sumh.o (symbol from plugin)
                                                  obj/main/NAZE/rx/sumd.o (symbol from plugin)
                                                  obj/main/NAZE/rx/sbus.o (symbol from plugin)
                                                  obj/main/NAZE/rx/rx.o (symbol from plugin)
                                                  obj/main/NAZE/io/statusindicator.o (symbol from plugin)
                                                  obj/main/NAZE/io/serial_4way_stk500v2.o (symbol from plugin)
                                                  obj/main/NAZE/io/serial_4way_avrootloader.o (symbol from plugin)
                                                  obj/main/NAZE/io/beeper.o (symbol from plugin)
                                                  obj/main/NAZE/flight/imu.o (symbol from plugin)
                                                  obj/main/NAZE/fc/cleanflight_fc.o (symbol from plugin)
                                                  obj/main/NAZE/telemetry/mavlink.o (symbol from plugin)
                                                  obj/main/NAZE/telemetry/hott.o (symbol from plugin)
                                                  obj/main/NAZE/io/ledstrip.o (symbol from plugin)
                                                  obj/main/NAZE/drivers/sonar_hcsr04.o (symbol from plugin)
millis                                            obj/main/NAZE/drivers/system.o (symbol from plugin)
                                                  obj/main/NAZE/io/serial.o (symbol from plugin)
                                                  obj/main/NAZE/rx/rx.o (symbol from plugin)
                                                  obj/main/NAZE/io/serial_cli.o (symbol from plugin)
                                                  obj/main/NAZE/io/beeper.o (symbol from plugin)
                                                  obj/main/NAZE/flight/imu.o (symbol from plugin)
                                                  obj/main/NAZE/flight/failsafe.o (symbol from plugin)
                                                  obj/main/NAZE/fc/rc_adjustments.o (symbol from plugin)
                                                  obj/main/NAZE/fc/cleanflight_fc.o (symbol from plugin)
                                                  obj/main/NAZE/blackbox/blackbox.o (symbol from plugin)
                                                  obj/main/NAZE/telemetry/mavlink.o (symbol from plugin)
                                                  obj/main/NAZE/telemetry/ltm.o (symbol from plugin)
                                                  obj/main/NAZE/telemetry/smartport.o (symbol from plugin)
                                                  obj/main/NAZE/telemetry/hott.o (symbol from plugin)
                                                  obj/main/NAZE/telemetry/frsky.o (symbol from plugin)
                                                  obj/main/NAZE/io/gps.o (symbol from plugin)
                                                  obj/main/NAZE/flight/navigation.o (symbol from plugin)
                                                  obj/main/NAZE/drivers/sonar_hcsr04.o (symbol from plugin)
                                                  obj/main/NAZE/drivers/flash_m25p16.o (symbol from plugin)
mixConstrainMotorForFailsafeCondition             obj/main/NAZE/flight/mixer.o (symbol from plugin)
mixTable                                          obj/main/NAZE/flight/mixer.o (symbol from plugin)
                                                  obj/main/NAZE/fc/cleanflight_fc.o (symbol from plugin)
mixerAtail4.lto_priv.483                          /tmp/ccGrItoW.ltrans17.ltrans.o
mixerBicopter.lto_priv.471                        /tmp/ccGrItoW.ltrans17.ltrans.o
mixerConfig_Registry                              /tmp/ccGrItoW.ltrans1.ltrans.o
                                                  obj/main/NAZE/flight/mixer.o (symbol from plugin)
mixerConfig_System                                /tmp/ccGrItoW.ltrans1.ltrans.o
                                                  obj/main/NAZE/flight/mixer.o (symbol from plugin)
                                                  /tmp/ccGrItoW.ltrans27.ltrans.o
                                                  /tmp/ccGrItoW.ltrans21.ltrans.o
                                                  /tmp/ccGrItoW.ltrans8.ltrans.o
                                                  /tmp/ccGrItoW.ltrans7.ltrans.o
                                                  /tmp/ccGrItoW.ltrans4.ltrans.o
                                                  /tmp/ccGrItoW.ltrans3.ltrans.o
                                                  /tmp/ccGrItoW.ltrans2.ltrans.o
                                                  /tmp/ccGrItoW.ltrans0.ltrans.o
                                                  obj/main/NAZE/io/serial_cli.o (symbol from plugin)
                                                  obj/main/NAZE/flight/servos.o (symbol from plugin)
                                                  obj/main/NAZE/fc/msp_server_fc.o (symbol from plugin)
                                                  obj/main/NAZE/fc/config.o (symbol from plugin)
                                                  obj/main/NAZE/fc/cleanflight_fc.o (symbol from plugin)
                                                  obj/main/NAZE/fc/boot.o (symbol from plugin)
                                                  obj/main/NAZE/blackbox/blackbox.o (symbol from plugin)
                                                  obj/main/NAZE/telemetry/mavlink.o (symbol from plugin)
mixerDualcopter.lto_priv.482                      /tmp/ccGrItoW.ltrans17.ltrans.o
mixerHex6H.lto_priv.481                           /tmp/ccGrItoW.ltrans17.ltrans.o
mixerHex6P.lto_priv.473                           /tmp/ccGrItoW.ltrans17.ltrans.o
mixerHex6X.lto_priv.476                           /tmp/ccGrItoW.ltrans17.ltrans.o
mixerInit                                         obj/main/NAZE/flight/mixer.o (symbol from plugin)
                                                  obj/main/NAZE/fc/boot.o (symbol from plugin)
mixerInitServos                                   obj/main/NAZE/flight/servos.o (symbol from plugin)
                                                  obj/main/NAZE/fc/boot.o (symbol from plugin)
mixerInitialiseServoFiltering                     obj/main/NAZE/flight/servos.o (symbol from plugin)
                                                  obj/main/NAZE/fc/boot.o (symbol from plugin)
mixerLoadMix                                      obj/main/NAZE/flight/mixer.o (symbol from plugin)
                                                  obj/main/NAZE/io/serial_cli.o (symbol from plugin)
mixerNames.lto_priv.249                           /tmp/ccGrItoW.ltrans27.ltrans.o
                                                  /tmp/ccGrItoW.ltrans17.ltrans.o
                                                  /tmp/ccGrItoW.ltrans7.ltrans.o
mixerOctoFlatP.lto_priv.478                       /tmp/ccGrItoW.ltrans17.ltrans.o
mixerOctoFlatX.lto_priv.479                       /tmp/ccGrItoW.ltrans17.ltrans.o
mixerOctoX8.lto_priv.477                          /tmp/ccGrItoW.ltrans17.ltrans.o
mixerQuadP.lto_priv.469                           /tmp/ccGrItoW.ltrans17.ltrans.o
mixerQuadX.lto_priv.470                           /tmp/ccGrItoW.ltrans17.ltrans.o
mixerResetDisarmedMotors                          /tmp/ccGrItoW.ltrans9.ltrans.o
                                                  obj/main/NAZE/flight/mixer.o (symbol from plugin)
                                                  /tmp/ccGrItoW.ltrans7.ltrans.o
                                                  /tmp/ccGrItoW.ltrans0.ltrans.o
                                                  obj/main/NAZE/io/serial_cli.o (symbol from plugin)
                                                  obj/main/NAZE/flight/servos.o (symbol from plugin)
mixerSingleProp.lto_priv.474                      /tmp/ccGrItoW.ltrans17.ltrans.o
mixerTricopter.lto_priv.468                       /tmp/ccGrItoW.ltrans17.ltrans.o
mixerUseConfigs                                   obj/main/NAZE/flight/servos.o (symbol from plugin)
                                                  obj/main/NAZE/fc/config.o (symbol from plugin)
mixerUsePWMIOConfiguration                        obj/main/NAZE/flight/servos.o (symbol from plugin)
                                                  obj/main/NAZE/fc/boot.o (symbol from plugin)
mixerVtail4.lto_priv.480                          /tmp/ccGrItoW.ltrans17.ltrans.o
mixerY4.lto_priv.475                              /tmp/ccGrItoW.ltrans17.ltrans.o
mixerY6.lto_priv.472                              /tmp/ccGrItoW.ltrans17.ltrans.o
mixers                                            /tmp/ccGrItoW.ltrans17.ltrans.o
                                                  obj/main/NAZE/flight/mixer.o (symbol from plugin)
                                                  /tmp/ccGrItoW.ltrans0.ltrans.o
                                                  obj/main/NAZE/flight/servos.o (symbol from plugin)
mma8452Detect                                     obj/main/NAZE/drivers/accgyro_mma845x.o (symbol from plugin)
                                                  obj/main/NAZE/sensors/initialisation.o (symbol from plugin)
mma8452Init.lto_priv.185                          /tmp/ccGrItoW.ltrans26.ltrans.o
                                                  /tmp/ccGrItoW.ltrans13.ltrans.o
mma8452Read.lto_priv.186                          /tmp/ccGrItoW.ltrans26.ltrans.o
                                                  /tmp/ccGrItoW.ltrans13.ltrans.o
modeActivationProfile_ProfileCurrent              /tmp/ccGrItoW.ltrans1.ltrans.o
                                                  obj/main/NAZE/fc/rc_controls.o (symbol from plugin)
                                                  /tmp/ccGrItoW.ltrans21.ltrans.o
                                                  /tmp/ccGrItoW.ltrans17.ltrans.o
                                                  /tmp/ccGrItoW.ltrans8.ltrans.o
                                                  /tmp/ccGrItoW.ltrans4.ltrans.o
                                                  /tmp/ccGrItoW.ltrans0.ltrans.o
                                                  obj/main/NAZE/io/serial_cli.o (symbol from plugin)
                                                  obj/main/NAZE/fc/msp_server_fc.o (symbol from plugin)
                                                  obj/main/NAZE/fc/config.o (symbol from plugin)
                                                  obj/main/NAZE/fc/cleanflight_fc.o (symbol from plugin)
                                                  obj/main/NAZE/fc/boot.o (symbol from plugin)
                                                  obj/main/NAZE/blackbox/blackbox.o (symbol from plugin)
modeActivationProfile_Registry                    /tmp/ccGrItoW.ltrans1.ltrans.o
                                                  obj/main/NAZE/fc/rc_controls.o (symbol from plugin)
modeColors_Registry                               /tmp/ccGrItoW.ltrans1.ltrans.o
                                                  obj/main/NAZE/io/ledstrip.o (symbol from plugin)
modeColors_SystemArray                            /tmp/ccGrItoW.ltrans1.ltrans.o
                                                  obj/main/NAZE/io/ledstrip.o (symbol from plugin)
                                                  /tmp/ccGrItoW.ltrans29.ltrans.o
                                                  /tmp/ccGrItoW.ltrans7.ltrans.o
                                                  obj/main/NAZE/io/serial_cli.o (symbol from plugin)
                                                  obj/main/NAZE/fc/msp_server_fc.o (symbol from plugin)
motor                                             /tmp/ccGrItoW.ltrans1.ltrans.o
                                                  obj/main/NAZE/flight/mixer.o (symbol from plugin)
                                                  /tmp/ccGrItoW.ltrans12.ltrans.o
                                                  /tmp/ccGrItoW.ltrans9.ltrans.o
                                                  /tmp/ccGrItoW.ltrans2.ltrans.o
                                                  obj/main/NAZE/io/serial_4way.o (symbol from plugin)
                                                  obj/main/NAZE/flight/servos.o (symbol from plugin)
                                                  obj/main/NAZE/fc/msp_server_fc.o (symbol from plugin)
                                                  obj/main/NAZE/blackbox/blackbox.o (symbol from plugin)
motor3DConfig_Registry                            /tmp/ccGrItoW.ltrans1.ltrans.o
                                                  obj/main/NAZE/flight/mixer.o (symbol from plugin)
motor3DConfig_System                              /tmp/ccGrItoW.ltrans1.ltrans.o
                                                  obj/main/NAZE/flight/mixer.o (symbol from plugin)
                                                  /tmp/ccGrItoW.ltrans9.ltrans.o
                                                  /tmp/ccGrItoW.ltrans2.ltrans.o
                                                  obj/main/NAZE/fc/msp_server_fc.o (symbol from plugin)
motorConfig_Registry                              /tmp/ccGrItoW.ltrans1.ltrans.o
                                                  obj/main/NAZE/io/motors.o (symbol from plugin)
motorConfig_System                                /tmp/ccGrItoW.ltrans1.ltrans.o
                                                  obj/main/NAZE/io/motors.o (symbol from plugin)
                                                  /tmp/ccGrItoW.ltrans12.ltrans.o
                                                  /tmp/ccGrItoW.ltrans9.ltrans.o
                                                  /tmp/ccGrItoW.ltrans8.ltrans.o
                                                  /tmp/ccGrItoW.ltrans2.ltrans.o
                                                  /tmp/ccGrItoW.ltrans0.ltrans.o
                                                  obj/main/NAZE/flight/mixer.o (symbol from plugin)
                                                  obj/main/NAZE/flight/altitudehold.o (symbol from plugin)
                                                  obj/main/NAZE/fc/msp_server_fc.o (symbol from plugin)
                                                  obj/main/NAZE/fc/rc_curves.o (symbol from plugin)
                                                  obj/main/NAZE/fc/boot.o (symbol from plugin)
                                                  obj/main/NAZE/blackbox/blackbox.o (symbol from plugin)
motorControlEnable                                /tmp/ccGrItoW.ltrans2.ltrans.o
                                                  obj/main/NAZE/fc/cleanflight_fc.o (symbol from plugin)
                                                  /tmp/ccGrItoW.ltrans0.ltrans.o
                                                  obj/main/NAZE/fc/boot.o (symbol from plugin)
motorCount                                        /tmp/ccGrItoW.ltrans9.ltrans.o
                                                  obj/main/NAZE/flight/mixer.o (symbol from plugin)
                                                  /tmp/ccGrItoW.ltrans21.ltrans.o
                                                  /tmp/ccGrItoW.ltrans12.ltrans.o
                                                  /tmp/ccGrItoW.ltrans8.ltrans.o
                                                  /tmp/ccGrItoW.ltrans2.ltrans.o
                                                  /tmp/ccGrItoW.ltrans0.ltrans.o
                                                  obj/main/NAZE/flight/servos.o (symbol from plugin)
                                                  obj/main/NAZE/flight/pid_mw23.o (symbol from plugin)
                                                  obj/main/NAZE/flight/pid_mwrewrite.o (symbol from plugin)
                                                  obj/main/NAZE/flight/pid_luxfloat.o (symbol from plugin)
                                                  obj/main/NAZE/blackbox/blackbox.o (symbol from plugin)
motorLimitReached                                 /tmp/ccGrItoW.ltrans9.ltrans.o
                                                  obj/main/NAZE/flight/mixer.o (symbol from plugin)
                                                  /tmp/ccGrItoW.ltrans2.ltrans.o
                                                  obj/main/NAZE/flight/pid_mw23.o (symbol from plugin)
                                                  obj/main/NAZE/flight/pid_mwrewrite.o (symbol from plugin)
                                                  obj/main/NAZE/flight/pid_luxfloat.o (symbol from plugin)
motor_disarmed                                    /tmp/ccGrItoW.ltrans1.ltrans.o
                                                  obj/main/NAZE/flight/mixer.o (symbol from plugin)
                                                  /tmp/ccGrItoW.ltrans27.ltrans.o
                                                  /tmp/ccGrItoW.ltrans9.ltrans.o
                                                  /tmp/ccGrItoW.ltrans2.ltrans.o
                                                  obj/main/NAZE/io/serial_cli.o (symbol from plugin)
                                                  obj/main/NAZE/fc/msp_server_fc.o (symbol from plugin)
motors.lto_priv.285                               /tmp/ccGrItoW.ltrans9.ltrans.o
                                                  /tmp/ccGrItoW.ltrans15.ltrans.o
                                                  /tmp/ccGrItoW.ltrans8.ltrans.o
                                                  /tmp/ccGrItoW.ltrans0.ltrans.o
mpu3050Detect                                     obj/main/NAZE/drivers/accgyro_mpu3050.o (symbol from plugin)
                                                  obj/main/NAZE/sensors/initialisation.o (symbol from plugin)
mpu3050Init.lto_priv.206                          /tmp/ccGrItoW.ltrans26.ltrans.o
                                                  /tmp/ccGrItoW.ltrans13.ltrans.o
mpu3050ReadTemp.lto_priv.207                      /tmp/ccGrItoW.ltrans26.ltrans.o
                                                  /tmp/ccGrItoW.ltrans13.ltrans.o
mpu6050AccDetect                                  obj/main/NAZE/drivers/accgyro_mpu6050.o (symbol from plugin)
                                                  obj/main/NAZE/sensors/initialisation.o (symbol from plugin)
mpu6050AccInit.lto_priv.187                       /tmp/ccGrItoW.ltrans26.ltrans.o
                                                  /tmp/ccGrItoW.ltrans13.ltrans.o
mpu6050GyroDetect                                 obj/main/NAZE/drivers/accgyro_mpu6050.o (symbol from plugin)
                                                  obj/main/NAZE/sensors/initialisation.o (symbol from plugin)
mpu6050GyroInit.lto_priv.208                      /tmp/ccGrItoW.ltrans26.ltrans.o
                                                  /tmp/ccGrItoW.ltrans13.ltrans.o
mpu6500AccDetect                                  obj/main/NAZE/drivers/accgyro_mpu6500.o (symbol from plugin)
                                                  obj/main/NAZE/sensors/initialisation.o (symbol from plugin)
mpu6500AccInit                                    /tmp/ccGrItoW.ltrans26.ltrans.o
                                                  obj/main/NAZE/drivers/accgyro_mpu6500.o (symbol from plugin)
                                                  /tmp/ccGrItoW.ltrans13.ltrans.o
                                                  obj/main/NAZE/drivers/accgyro_spi_mpu6500.o (symbol from plugin)
mpu6500GyroDetect                                 obj/main/NAZE/drivers/accgyro_mpu6500.o (symbol from plugin)
                                                  obj/main/NAZE/sensors/initialisation.o (symbol from plugin)
mpu6500GyroInit                                   /tmp/ccGrItoW.ltrans26.ltrans.o
                                                  obj/main/NAZE/drivers/accgyro_mpu6500.o (symbol from plugin)
                                                  /tmp/ccGrItoW.ltrans13.ltrans.o
                                                  obj/main/NAZE/drivers/accgyro_spi_mpu6500.o (symbol from plugin)
mpu6500ReadRegister                               /tmp/ccGrItoW.ltrans26.ltrans.o
                                                  obj/main/NAZE/drivers/accgyro_spi_mpu6500.o (symbol from plugin)
                                                  /tmp/ccGrItoW.ltrans13.ltrans.o
                                                  obj/main/NAZE/drivers/accgyro_mpu.o (symbol from plugin)
mpu6500ReadTemp.lto_priv.205                      /tmp/ccGrItoW.ltrans26.ltrans.o
                                                  /tmp/ccGrItoW.ltrans13.ltrans.o
mpu6500SpiAccDetect                               obj/main/NAZE/drivers/accgyro_spi_mpu6500.o (symbol from plugin)
                                                  obj/main/NAZE/sensors/initialisation.o (symbol from plugin)
mpu6500SpiDetect                                  obj/main/NAZE/drivers/accgyro_spi_mpu6500.o (symbol from plugin)
                                                  obj/main/NAZE/drivers/accgyro_mpu.o (symbol from plugin)
mpu6500SpiGyroDetect                              obj/main/NAZE/drivers/accgyro_spi_mpu6500.o (symbol from plugin)
                                                  obj/main/NAZE/sensors/initialisation.o (symbol from plugin)
mpu6500WriteRegister                              /tmp/ccGrItoW.ltrans26.ltrans.o
                                                  obj/main/NAZE/drivers/accgyro_spi_mpu6500.o (symbol from plugin)
                                                  /tmp/ccGrItoW.ltrans13.ltrans.o
                                                  obj/main/NAZE/drivers/accgyro_mpu.o (symbol from plugin)
mpuAccRead                                        /tmp/ccGrItoW.ltrans26.ltrans.o
                                                  obj/main/NAZE/drivers/accgyro_mpu.o (symbol from plugin)
                                                  /tmp/ccGrItoW.ltrans13.ltrans.o
                                                  obj/main/NAZE/drivers/accgyro_spi_mpu6500.o (symbol from plugin)
                                                  obj/main/NAZE/drivers/accgyro_mpu6500.o (symbol from plugin)
                                                  obj/main/NAZE/drivers/accgyro_mpu6050.o (symbol from plugin)
mpuConfiguration                                  /tmp/ccGrItoW.ltrans13.ltrans.o
                                                  obj/main/NAZE/drivers/accgyro_mpu.o (symbol from plugin)
                                                  /tmp/ccGrItoW.ltrans26.ltrans.o
                                                  obj/main/NAZE/drivers/accgyro_mpu6500.o (symbol from plugin)
                                                  obj/main/NAZE/drivers/accgyro_mpu6050.o (symbol from plugin)
                                                  obj/main/NAZE/drivers/accgyro_mpu3050.o (symbol from plugin)
mpuDetectionResult                                /tmp/ccGrItoW.ltrans13.ltrans.o
                                                  obj/main/NAZE/drivers/accgyro_mpu.o (symbol from plugin)
                                                  /tmp/ccGrItoW.ltrans26.ltrans.o
                                                  obj/main/NAZE/drivers/accgyro_spi_mpu6500.o (symbol from plugin)
                                                  obj/main/NAZE/drivers/accgyro_mpu6500.o (symbol from plugin)
                                                  obj/main/NAZE/drivers/accgyro_mpu6050.o (symbol from plugin)
                                                  obj/main/NAZE/drivers/accgyro_mpu3050.o (symbol from plugin)
mpuGyroRead                                       /tmp/ccGrItoW.ltrans26.ltrans.o
                                                  obj/main/NAZE/drivers/accgyro_mpu.o (symbol from plugin)
                                                  /tmp/ccGrItoW.ltrans13.ltrans.o
                                                  obj/main/NAZE/drivers/accgyro_spi_mpu6500.o (symbol from plugin)
                                                  obj/main/NAZE/drivers/accgyro_mpu6500.o (symbol from plugin)
                                                  obj/main/NAZE/drivers/accgyro_mpu6050.o (symbol from plugin)
                                                  obj/main/NAZE/drivers/accgyro_mpu3050.o (symbol from plugin)
mpuIntCallbackRec                                 obj/main/NAZE/drivers/accgyro_mpu.o (symbol from plugin)
mpuIntDenominator                                 obj/main/NAZE/drivers/accgyro_mpu.o (symbol from plugin)
                                                  obj/main/NAZE/drivers/accgyro_mpu6500.o (symbol from plugin)
                                                  obj/main/NAZE/drivers/accgyro_mpu6050.o (symbol from plugin)
mpuIntExtiConfig.lto_priv.554                     /tmp/ccGrItoW.ltrans13.ltrans.o
                                                  /tmp/ccGrItoW.ltrans26.ltrans.o
mpuIntExtiHandler                                 obj/main/NAZE/drivers/accgyro_mpu.o (symbol from plugin)
mpuIntExtiInit                                    obj/main/NAZE/drivers/accgyro_mpu.o (symbol from plugin)
                                                  obj/main/NAZE/drivers/accgyro_mpu6500.o (symbol from plugin)
                                                  obj/main/NAZE/drivers/accgyro_mpu6050.o (symbol from plugin)
mpuReadRegisterI2C.lto_priv.209                   /tmp/ccGrItoW.ltrans26.ltrans.o
                                                  /tmp/ccGrItoW.ltrans13.ltrans.o
mpuWriteRegisterI2C.lto_priv.210                  /tmp/ccGrItoW.ltrans26.ltrans.o
                                                  /tmp/ccGrItoW.ltrans13.ltrans.o
ms5611Detect                                      obj/main/NAZE/drivers/barometer_ms5611.o (symbol from plugin)
                                                  obj/main/NAZE/sensors/initialisation.o (symbol from plugin)
ms5611_c.lto_priv.550                             /tmp/ccGrItoW.ltrans13.ltrans.o
                                                  /tmp/ccGrItoW.ltrans6.ltrans.o
ms5611_calculate.lto_priv.199                     /tmp/ccGrItoW.ltrans6.ltrans.o
                                                  /tmp/ccGrItoW.ltrans13.ltrans.o
ms5611_get_up.lto_priv.198                        /tmp/ccGrItoW.ltrans6.ltrans.o
                                                  /tmp/ccGrItoW.ltrans13.ltrans.o
ms5611_get_ut.lto_priv.196                        /tmp/ccGrItoW.ltrans6.ltrans.o
                                                  /tmp/ccGrItoW.ltrans13.ltrans.o
ms5611_start_up.lto_priv.197                      /tmp/ccGrItoW.ltrans6.ltrans.o
                                                  /tmp/ccGrItoW.ltrans13.ltrans.o
ms5611_start_ut.lto_priv.195                      /tmp/ccGrItoW.ltrans6.ltrans.o
                                                  /tmp/ccGrItoW.ltrans13.ltrans.o
msp4WayIfFn                                       /tmp/ccGrItoW.ltrans8.ltrans.o
                                                  obj/main/NAZE/fc/msp_server_fc.o (symbol from plugin)
                                                  /tmp/ccGrItoW.ltrans1.ltrans.o
mspFrame.lto_priv.218                             /tmp/ccGrItoW.ltrans1.ltrans.o
                                                  /tmp/ccGrItoW.ltrans10.ltrans.o
mspInit                                           obj/main/NAZE/fc/msp_server_fc.o (symbol from plugin)
                                                  obj/main/NAZE/fc/boot.o (symbol from plugin)
mspPorts                                          /tmp/ccGrItoW.ltrans1.ltrans.o
                                                  obj/main/NAZE/msp/msp_serial.o (symbol from plugin)
                                                  /tmp/ccGrItoW.ltrans18.ltrans.o
                                                  /tmp/ccGrItoW.ltrans0.ltrans.o
mspPostProcessFn                                  obj/main/NAZE/msp/msp_serial.o (symbol from plugin)
                                                  obj/main/NAZE/fc/msp_server_fc.o (symbol from plugin)
mspProcessCommand                                 obj/main/NAZE/msp/msp.o (symbol from plugin)
                                                  obj/main/NAZE/msp/msp_serial.o (symbol from plugin)
mspRebootFn                                       /tmp/ccGrItoW.ltrans8.ltrans.o
                                                  obj/main/NAZE/fc/msp_server_fc.o (symbol from plugin)
                                                  /tmp/ccGrItoW.ltrans1.ltrans.o
mspSerialAllocatePorts                            /tmp/ccGrItoW.ltrans18.ltrans.o
                                                  obj/main/NAZE/msp/msp_serial.o (symbol from plugin)
                                                  /tmp/ccGrItoW.ltrans4.ltrans.o
                                                  /tmp/ccGrItoW.ltrans2.ltrans.o
                                                  /tmp/ccGrItoW.ltrans0.ltrans.o
                                                  obj/main/NAZE/fc/cleanflight_fc.o (symbol from plugin)
                                                  obj/main/NAZE/blackbox/blackbox_io.o (symbol from plugin)
mspSerialEncode                                   /tmp/ccGrItoW.ltrans18.ltrans.o
                                                  obj/main/NAZE/msp/msp_serial.o (symbol from plugin)
                                                  /tmp/ccGrItoW.ltrans1.ltrans.o
mspSerialInit                                     obj/main/NAZE/msp/msp_serial.o (symbol from plugin)
                                                  obj/main/NAZE/fc/boot.o (symbol from plugin)
mspSerialPassthroughFn                            /tmp/ccGrItoW.ltrans8.ltrans.o
                                                  obj/main/NAZE/fc/msp_server_fc.o (symbol from plugin)
                                                  /tmp/ccGrItoW.ltrans1.ltrans.o
mspSerialProcess                                  /tmp/ccGrItoW.ltrans1.ltrans.o
                                                  obj/main/NAZE/msp/msp_serial.o (symbol from plugin)
                                                  /tmp/ccGrItoW.ltrans23.ltrans.o
                                                  obj/main/NAZE/fc/cleanflight_fc.o (symbol from plugin)
mspSerialReleasePortIfAllocated                   /tmp/ccGrItoW.ltrans18.ltrans.o
                                                  obj/main/NAZE/msp/msp_serial.o (symbol from plugin)
                                                  /tmp/ccGrItoW.ltrans21.ltrans.o
                                                  /tmp/ccGrItoW.ltrans4.ltrans.o
                                                  obj/main/NAZE/fc/cleanflight_fc.o (symbol from plugin)
mspServerCommandHandler                           obj/main/NAZE/fc/msp_server_fc.o (symbol from plugin)
                                                  obj/main/NAZE/msp/msp.o (symbol from plugin)
mspServerConfig_Registry                          /tmp/ccGrItoW.ltrans1.ltrans.o
                                                  obj/main/NAZE/msp/msp_server.o (symbol from plugin)
mspServerConfig_System                            obj/main/NAZE/msp/msp_server.o (symbol from plugin)
                                                  obj/main/NAZE/fc/msp_server_fc.o (symbol from plugin)
mwArm                                             /tmp/ccGrItoW.ltrans21.ltrans.o
                                                  obj/main/NAZE/fc/cleanflight_fc.o (symbol from plugin)
                                                  /tmp/ccGrItoW.ltrans4.ltrans.o
                                                  obj/main/NAZE/fc/rc_controls.o (symbol from plugin)
mwDisarm                                          /tmp/ccGrItoW.ltrans21.ltrans.o
                                                  obj/main/NAZE/fc/cleanflight_fc.o (symbol from plugin)
                                                  /tmp/ccGrItoW.ltrans4.ltrans.o
                                                  obj/main/NAZE/flight/failsafe.o (symbol from plugin)
                                                  obj/main/NAZE/fc/rc_controls.o (symbol from plugin)
nan                                               /usr/lib/gcc/arm-none-eabi/4.9.3/../../../arm-none-eabi/lib/armv7-m/libm.a(lib_a-s_nan.o)
                                                  /usr/lib/gcc/arm-none-eabi/4.9.3/../../../arm-none-eabi/lib/armv7-m/libm.a(lib_a-wf_log.o)
nanf                                              /usr/lib/gcc/arm-none-eabi/4.9.3/../../../arm-none-eabi/lib/armv7-m/libm.a(lib_a-sf_nan.o)
                                                  /usr/lib/gcc/arm-none-eabi/4.9.3/../../../arm-none-eabi/lib/armv7-m/libm.a(lib_a-ef_pow.o)
nav.lto_priv.365                                  /tmp/ccGrItoW.ltrans4.ltrans.o
                                                  /tmp/ccGrItoW.ltrans22.ltrans.o
                                                  /tmp/ccGrItoW.ltrans2.ltrans.o
navPID.lto_priv.525                               /tmp/ccGrItoW.ltrans4.ltrans.o
                                                  /tmp/ccGrItoW.ltrans22.ltrans.o
navPID_PARAM.lto_priv.538                         /tmp/ccGrItoW.ltrans22.ltrans.o
                                                  /tmp/ccGrItoW.ltrans14.ltrans.o
nav_bearing.lto_priv.532                          /tmp/ccGrItoW.ltrans22.ltrans.o
                                                  /tmp/ccGrItoW.ltrans14.ltrans.o
nav_mode                                          /tmp/ccGrItoW.ltrans1.ltrans.o
                                                  obj/main/NAZE/flight/navigation.o (symbol from plugin)
                                                  /tmp/ccGrItoW.ltrans22.ltrans.o
                                                  /tmp/ccGrItoW.ltrans4.ltrans.o
                                                  obj/main/NAZE/fc/msp_server_fc.o (symbol from plugin)
nav_rated.lto_priv.366                            /tmp/ccGrItoW.ltrans4.ltrans.o
                                                  /tmp/ccGrItoW.ltrans2.ltrans.o
nav_takeoff_bearing.lto_priv.539                  /tmp/ccGrItoW.ltrans22.ltrans.o
                                                  /tmp/ccGrItoW.ltrans14.ltrans.o
navigationInit                                    obj/main/NAZE/flight/navigation.o (symbol from plugin)
                                                  obj/main/NAZE/fc/boot.o (symbol from plugin)
nopConsumer.lto_priv.169                          /tmp/ccGrItoW.ltrans18.ltrans.o
                                                  /tmp/ccGrItoW.ltrans20.ltrans.o
normalizeV                                        obj/main/NAZE/common/maths.o (symbol from plugin)
nullFrameStatus.lto_priv.419                      /tmp/ccGrItoW.ltrans10.ltrans.o
                                                  /tmp/ccGrItoW.ltrans0.ltrans.o
nullReadRawRC.lto_priv.418                        /tmp/ccGrItoW.ltrans10.ltrans.o
                                                  /tmp/ccGrItoW.ltrans0.ltrans.o
onGpsNewData                                      obj/main/NAZE/flight/navigation.o (symbol from plugin)
                                                  obj/main/NAZE/io/gps.o (symbol from plugin)
onSerialRxPinChange                               obj/main/NAZE/drivers/serial_softserial.o (symbol from plugin)
onSerialTimer                                     obj/main/NAZE/drivers/serial_softserial.o (symbol from plugin)
openSerialPort                                    /tmp/ccGrItoW.ltrans18.ltrans.o
                                                  obj/main/NAZE/io/serial.o (symbol from plugin)
                                                  /tmp/ccGrItoW.ltrans21.ltrans.o
                                                  /tmp/ccGrItoW.ltrans20.ltrans.o
                                                  /tmp/ccGrItoW.ltrans17.ltrans.o
                                                  /tmp/ccGrItoW.ltrans11.ltrans.o
                                                  /tmp/ccGrItoW.ltrans1.ltrans.o
                                                  /tmp/ccGrItoW.ltrans0.ltrans.o
                                                  obj/main/NAZE/msp/msp_serial.o (symbol from plugin)
                                                  obj/main/NAZE/rx/srxl.o (symbol from plugin)
                                                  obj/main/NAZE/rx/ibus.o (symbol from plugin)
                                                  obj/main/NAZE/rx/xbus.o (symbol from plugin)
                                                  obj/main/NAZE/rx/spektrum.o (symbol from plugin)
                                                  obj/main/NAZE/rx/sumh.o (symbol from plugin)
                                                  obj/main/NAZE/rx/sumd.o (symbol from plugin)
                                                  obj/main/NAZE/rx/sbus.o (symbol from plugin)
                                                  obj/main/NAZE/io/serial_cli.o (symbol from plugin)
                                                  obj/main/NAZE/fc/msp_server_fc.o (symbol from plugin)
                                                  obj/main/NAZE/blackbox/blackbox_io.o (symbol from plugin)
                                                  obj/main/NAZE/telemetry/ibus.o (symbol from plugin)
                                                  obj/main/NAZE/telemetry/mavlink.o (symbol from plugin)
                                                  obj/main/NAZE/telemetry/ltm.o (symbol from plugin)
                                                  obj/main/NAZE/telemetry/smartport.o (symbol from plugin)
                                                  obj/main/NAZE/telemetry/hott.o (symbol from plugin)
                                                  obj/main/NAZE/telemetry/frsky.o (symbol from plugin)
                                                  obj/main/NAZE/io/gps.o (symbol from plugin)
openSoftSerial                                    /tmp/ccGrItoW.ltrans15.ltrans.o
                                                  obj/main/NAZE/drivers/serial_softserial.o (symbol from plugin)
                                                  /tmp/ccGrItoW.ltrans18.ltrans.o
                                                  obj/main/NAZE/io/serial.o (symbol from plugin)
original_target_bearing.lto_priv.533              /tmp/ccGrItoW.ltrans22.ltrans.o
                                                  /tmp/ccGrItoW.ltrans14.ltrans.o
outboundBytesToIgnoreOnRxCount.lto_priv.503       /tmp/ccGrItoW.ltrans3.ltrans.o
                                                  /tmp/ccGrItoW.ltrans11.ltrans.o
parseColor                                        obj/main/NAZE/io/ledstrip.o (symbol from plugin)
                                                  obj/main/NAZE/io/serial_cli.o (symbol from plugin)
parseLedStripConfig                               obj/main/NAZE/io/ledstrip.o (symbol from plugin)
                                                  obj/main/NAZE/io/serial_cli.o (symbol from plugin)
parseRcChannels                                   obj/main/NAZE/rx/rx.o (symbol from plugin)
                                                  obj/main/NAZE/io/serial_cli.o (symbol from plugin)
                                                  obj/main/NAZE/fc/config.o (symbol from plugin)
parseRcChannels.constprop.25                      /tmp/ccGrItoW.ltrans20.ltrans.o
                                                  /tmp/ccGrItoW.ltrans27.ltrans.o
                                                  /tmp/ccGrItoW.ltrans8.ltrans.o
passThroughPort.lto_priv.284                      /tmp/ccGrItoW.ltrans1.ltrans.o
                                                  /tmp/ccGrItoW.ltrans8.ltrans.o
performAcclerationCalibration                     obj/main/NAZE/sensors/acceleration.o (symbol from plugin)
performBaroCalibrationCycle                       obj/main/NAZE/sensors/barometer.o (symbol from plugin)
                                                  obj/main/NAZE/flight/altitudehold.o (symbol from plugin)
performInflightAccelerationCalibration            obj/main/NAZE/sensors/acceleration.o (symbol from plugin)
pgActivateProfile                                 /tmp/ccGrItoW.ltrans25.ltrans.o
                                                  obj/main/NAZE/config/parameter_group.o (symbol from plugin)
                                                  /tmp/ccGrItoW.ltrans8.ltrans.o
                                                  obj/main/NAZE/fc/config.o (symbol from plugin)
pgFind                                            obj/main/NAZE/config/parameter_group.o (symbol from plugin)
                                                  obj/main/NAZE/io/serial_cli.o (symbol from plugin)
pgLoad                                            obj/main/NAZE/config/parameter_group.o (symbol from plugin)
                                                  obj/main/NAZE/config/config_eeprom.o (symbol from plugin)
pgReset                                           /tmp/ccGrItoW.ltrans25.ltrans.o
                                                  obj/main/NAZE/config/parameter_group.o (symbol from plugin)
                                                  /tmp/ccGrItoW.ltrans8.ltrans.o
                                                  obj/main/NAZE/config/config_eeprom.o (symbol from plugin)
pgResetAll                                        obj/main/NAZE/config/parameter_group.o (symbol from plugin)
                                                  obj/main/NAZE/fc/config.o (symbol from plugin)
pgResetCurrent                                    /tmp/ccGrItoW.ltrans25.ltrans.o
                                                  obj/main/NAZE/config/parameter_group.o (symbol from plugin)
                                                  /tmp/ccGrItoW.ltrans8.ltrans.o
                                                  /tmp/ccGrItoW.ltrans7.ltrans.o
                                                  /tmp/ccGrItoW.ltrans1.ltrans.o
                                                  obj/main/NAZE/io/serial_cli.o (symbol from plugin)
                                                  obj/main/NAZE/fc/msp_server_fc.o (symbol from plugin)
                                                  obj/main/NAZE/fc/config.o (symbol from plugin)
pgResetFn_accelerometerConfig                     /tmp/ccGrItoW.ltrans10.ltrans.o
                                                  obj/main/NAZE/sensors/acceleration.o (symbol from plugin)
                                                  /tmp/ccGrItoW.ltrans1.ltrans.o
pgResetFn_amperageMeterConfig                     /tmp/ccGrItoW.ltrans10.ltrans.o
                                                  obj/main/NAZE/sensors/amperage.o (symbol from plugin)
                                                  /tmp/ccGrItoW.ltrans1.ltrans.o
pgResetFn_channelRanges                           /tmp/ccGrItoW.ltrans10.ltrans.o
                                                  obj/main/NAZE/rx/rx.o (symbol from plugin)
pgResetFn_colors                                  /tmp/ccGrItoW.ltrans11.ltrans.o
                                                  obj/main/NAZE/io/ledstrip.o (symbol from plugin)
                                                  /tmp/ccGrItoW.ltrans1.ltrans.o
pgResetFn_controlRateProfiles                     /tmp/ccGrItoW.ltrans29.ltrans.o
                                                  obj/main/NAZE/fc/rate_profile.o (symbol from plugin)
                                                  /tmp/ccGrItoW.ltrans27.ltrans.o
pgResetFn_failsafeChannelConfigs                  /tmp/ccGrItoW.ltrans10.ltrans.o
                                                  obj/main/NAZE/rx/rx.o (symbol from plugin)
                                                  /tmp/ccGrItoW.ltrans1.ltrans.o
pgResetFn_gpsConfig                               /tmp/ccGrItoW.ltrans14.ltrans.o
                                                  obj/main/NAZE/io/gps.o (symbol from plugin)
                                                  /tmp/ccGrItoW.ltrans1.ltrans.o
pgResetFn_ledConfigs                              /tmp/ccGrItoW.ltrans11.ltrans.o
                                                  obj/main/NAZE/io/ledstrip.o (symbol from plugin)
                                                  /tmp/ccGrItoW.ltrans1.ltrans.o
pgResetFn_modeColors                              /tmp/ccGrItoW.ltrans11.ltrans.o
                                                  obj/main/NAZE/io/ledstrip.o (symbol from plugin)
                                                  /tmp/ccGrItoW.ltrans1.ltrans.o
pgResetFn_serialConfig                            /tmp/ccGrItoW.ltrans8.ltrans.o
                                                  obj/main/NAZE/fc/fc_serial.o (symbol from plugin)
                                                  /tmp/ccGrItoW.ltrans20.ltrans.o
pgResetFn_servoProfile                            /tmp/ccGrItoW.ltrans9.ltrans.o
                                                  obj/main/NAZE/flight/servos.o (symbol from plugin)
                                                  /tmp/ccGrItoW.ltrans1.ltrans.o
pgResetFn_specialColors                           /tmp/ccGrItoW.ltrans11.ltrans.o
                                                  obj/main/NAZE/io/ledstrip.o (symbol from plugin)
                                                  /tmp/ccGrItoW.ltrans1.ltrans.o
pgResetFn_voltageMeterConfig                      /tmp/ccGrItoW.ltrans10.ltrans.o
                                                  obj/main/NAZE/sensors/voltage.o (symbol from plugin)
                                                  /tmp/ccGrItoW.ltrans20.ltrans.o
pgResetInstance.lto_priv.290                      /tmp/ccGrItoW.ltrans25.ltrans.o
                                                  /tmp/ccGrItoW.ltrans8.ltrans.o
pgResetTemplate_airplaneConfig                    /tmp/ccGrItoW.ltrans2.ltrans.o
                                                  obj/main/NAZE/flight/altitudehold.o (symbol from plugin)
pgResetTemplate_armingConfig                      /tmp/ccGrItoW.ltrans1.ltrans.o
                                                  obj/main/NAZE/fc/rc_controls.o (symbol from plugin)
pgResetTemplate_barometerConfig                   /tmp/ccGrItoW.ltrans16.ltrans.o
                                                  obj/main/NAZE/sensors/barometer.o (symbol from plugin)
pgResetTemplate_batteryConfig                     /tmp/ccGrItoW.ltrans1.ltrans.o
                                                  obj/main/NAZE/sensors/battery.o (symbol from plugin)
pgResetTemplate_blackboxConfig                    /tmp/ccGrItoW.ltrans1.ltrans.o
                                                  obj/main/NAZE/blackbox/blackbox.o (symbol from plugin)
pgResetTemplate_compassConfig                     /tmp/ccGrItoW.ltrans1.ltrans.o
                                                  obj/main/NAZE/sensors/compass.o (symbol from plugin)
pgResetTemplate_failsafeConfig                    /tmp/ccGrItoW.ltrans1.ltrans.o
                                                  obj/main/NAZE/flight/failsafe.o (symbol from plugin)
pgResetTemplate_flashchipConfig                   /tmp/ccGrItoW.ltrans5.ltrans.o
                                                  obj/main/NAZE/fc/boot.o (symbol from plugin)
pgResetTemplate_gpsProfile                        /tmp/ccGrItoW.ltrans4.ltrans.o
                                                  obj/main/NAZE/flight/navigation.o (symbol from plugin)
pgResetTemplate_gyroConfig                        /tmp/ccGrItoW.ltrans13.ltrans.o
                                                  obj/main/NAZE/sensors/gyro.o (symbol from plugin)
pgResetTemplate_hottTelemetryConfig               /tmp/ccGrItoW.ltrans3.ltrans.o
                                                  obj/main/NAZE/telemetry/hott.o (symbol from plugin)
pgResetTemplate_ibusTelemetryConfig               /tmp/ccGrItoW.ltrans3.ltrans.o
                                                  obj/main/NAZE/telemetry/ibus.o (symbol from plugin)
pgResetTemplate_imuConfig                         /tmp/ccGrItoW.ltrans8.ltrans.o
                                                  obj/main/NAZE/flight/imu.o (symbol from plugin)
pgResetTemplate_mixerConfig                       /tmp/ccGrItoW.ltrans1.ltrans.o
                                                  obj/main/NAZE/flight/mixer.o (symbol from plugin)
pgResetTemplate_motor3DConfig                     /tmp/ccGrItoW.ltrans1.ltrans.o
                                                  obj/main/NAZE/flight/mixer.o (symbol from plugin)
pgResetTemplate_motorConfig                       /tmp/ccGrItoW.ltrans1.ltrans.o
                                                  obj/main/NAZE/io/motors.o (symbol from plugin)
pgResetTemplate_pidProfile                        /tmp/ccGrItoW.ltrans1.ltrans.o
                                                  obj/main/NAZE/flight/pid.o (symbol from plugin)
pgResetTemplate_rcControlsConfig                  /tmp/ccGrItoW.ltrans1.ltrans.o
                                                  obj/main/NAZE/fc/rc_controls.o (symbol from plugin)
pgResetTemplate_rxConfig                          /tmp/ccGrItoW.ltrans20.ltrans.o
                                                  obj/main/NAZE/rx/rx.o (symbol from plugin)
pgResetTemplate_servoConfig                       /tmp/ccGrItoW.ltrans0.ltrans.o
                                                  obj/main/NAZE/io/servos.o (symbol from plugin)
pgResetTemplate_systemConfig                      /tmp/ccGrItoW.ltrans0.ltrans.o
                                                  obj/main/NAZE/fc/boot.o (symbol from plugin)
pgResetTemplate_telemetryConfig                   /tmp/ccGrItoW.ltrans3.ltrans.o
                                                  obj/main/NAZE/telemetry/telemetry.o (symbol from plugin)
pgResetTemplate_throttleCorrectionConfig          /tmp/ccGrItoW.ltrans8.ltrans.o
                                                  obj/main/NAZE/flight/imu.o (symbol from plugin)
pgStore                                           obj/main/NAZE/config/parameter_group.o (symbol from plugin)
pidDeltaUs                                        /tmp/ccGrItoW.ltrans1.ltrans.o
                                                  obj/main/NAZE/fc/cleanflight_fc.o (symbol from plugin)
                                                  /tmp/ccGrItoW.ltrans10.ltrans.o
                                                  /tmp/ccGrItoW.ltrans2.ltrans.o
                                                  obj/main/NAZE/io/serial_cli.o (symbol from plugin)
                                                  obj/main/NAZE/fc/msp_server_fc.o (symbol from plugin)
pidInitFilters                                    /tmp/ccGrItoW.ltrans8.ltrans.o
                                                  obj/main/NAZE/flight/pid.o (symbol from plugin)
                                                  /tmp/ccGrItoW.ltrans9.ltrans.o
                                                  /tmp/ccGrItoW.ltrans0.ltrans.o
                                                  obj/main/NAZE/flight/pid_mw23.o (symbol from plugin)
                                                  obj/main/NAZE/flight/pid_mwrewrite.o (symbol from plugin)
                                                  obj/main/NAZE/fc/config.o (symbol from plugin)
                                                  obj/main/NAZE/fc/boot.o (symbol from plugin)
pidLuxFloat                                       /tmp/ccGrItoW.ltrans9.ltrans.o
                                                  obj/main/NAZE/flight/pid_luxfloat.o (symbol from plugin)
                                                  /tmp/ccGrItoW.ltrans8.ltrans.o
                                                  obj/main/NAZE/flight/pid.o (symbol from plugin)
pidMultiWii23                                     /tmp/ccGrItoW.ltrans9.ltrans.o
                                                  obj/main/NAZE/flight/pid_mw23.o (symbol from plugin)
                                                  /tmp/ccGrItoW.ltrans8.ltrans.o
                                                  obj/main/NAZE/flight/pid.o (symbol from plugin)
pidMultiWiiRewrite                                /tmp/ccGrItoW.ltrans9.ltrans.o
                                                  obj/main/NAZE/flight/pid_mwrewrite.o (symbol from plugin)
                                                  /tmp/ccGrItoW.ltrans8.ltrans.o
                                                  obj/main/NAZE/flight/pid.o (symbol from plugin)
pidProfile_ProfileCurrent                         /tmp/ccGrItoW.ltrans1.ltrans.o
                                                  obj/main/NAZE/flight/pid.o (symbol from plugin)
                                                  /tmp/ccGrItoW.ltrans21.ltrans.o
                                                  /tmp/ccGrItoW.ltrans16.ltrans.o
                                                  /tmp/ccGrItoW.ltrans8.ltrans.o
                                                  /tmp/ccGrItoW.ltrans4.ltrans.o
                                                  /tmp/ccGrItoW.ltrans2.ltrans.o
                                                  /tmp/ccGrItoW.ltrans0.ltrans.o
                                                  obj/main/NAZE/flight/altitudehold.o (symbol from plugin)
                                                  obj/main/NAZE/fc/msp_server_fc.o (symbol from plugin)
                                                  obj/main/NAZE/fc/config.o (symbol from plugin)
                                                  obj/main/NAZE/fc/rc_adjustments.o (symbol from plugin)
                                                  obj/main/NAZE/fc/cleanflight_fc.o (symbol from plugin)
                                                  obj/main/NAZE/fc/boot.o (symbol from plugin)
                                                  obj/main/NAZE/blackbox/blackbox.o (symbol from plugin)
pidProfile_Registry                               /tmp/ccGrItoW.ltrans1.ltrans.o
                                                  obj/main/NAZE/flight/pid.o (symbol from plugin)
                                                  obj/main/NAZE/fc/msp_server_fc.o (symbol from plugin)
pidResetITerm                                     obj/main/NAZE/flight/pid.o (symbol from plugin)
                                                  obj/main/NAZE/fc/cleanflight_fc.o (symbol from plugin)
pidResetITermAngle                                obj/main/NAZE/flight/pid_mw23.o (symbol from plugin)
                                                  obj/main/NAZE/fc/cleanflight_fc.o (symbol from plugin)
pidSetController                                  /tmp/ccGrItoW.ltrans8.ltrans.o
                                                  obj/main/NAZE/flight/pid.o (symbol from plugin)
                                                  /tmp/ccGrItoW.ltrans1.ltrans.o
                                                  obj/main/NAZE/fc/msp_server_fc.o (symbol from plugin)
                                                  obj/main/NAZE/fc/config.o (symbol from plugin)
pidSetTargetLooptime                              obj/main/NAZE/flight/pid.o (symbol from plugin)
                                                  obj/main/NAZE/fc/boot.o (symbol from plugin)
pid_controller                                    /tmp/ccGrItoW.ltrans8.ltrans.o
                                                  obj/main/NAZE/flight/pid.o (symbol from plugin)
                                                  /tmp/ccGrItoW.ltrans2.ltrans.o
                                                  obj/main/NAZE/fc/cleanflight_fc.o (symbol from plugin)
portConfig.lto_priv.406                           /tmp/ccGrItoW.ltrans0.ltrans.o
                                                  /tmp/ccGrItoW.ltrans11.ltrans.o
portConfig.lto_priv.407                           /tmp/ccGrItoW.ltrans3.ltrans.o
                                                  /tmp/ccGrItoW.ltrans11.ltrans.o
                                                  /tmp/ccGrItoW.ltrans0.ltrans.o
portConfig.lto_priv.408                           /tmp/ccGrItoW.ltrans0.ltrans.o
                                                  /tmp/ccGrItoW.ltrans11.ltrans.o
portConfig.lto_priv.409                           /tmp/ccGrItoW.ltrans0.ltrans.o
                                                  /tmp/ccGrItoW.ltrans11.ltrans.o
portConfig.lto_priv.410                           /tmp/ccGrItoW.ltrans0.ltrans.o
                                                  /tmp/ccGrItoW.ltrans11.ltrans.o
posholdPID_PARAM.lto_priv.536                     /tmp/ccGrItoW.ltrans22.ltrans.o
                                                  /tmp/ccGrItoW.ltrans14.ltrans.o
poshold_ratePID.lto_priv.524                      /tmp/ccGrItoW.ltrans4.ltrans.o
                                                  /tmp/ccGrItoW.ltrans22.ltrans.o
poshold_ratePID_PARAM.lto_priv.537                /tmp/ccGrItoW.ltrans22.ltrans.o
                                                  /tmp/ccGrItoW.ltrans14.ltrans.o
powf                                              /usr/lib/gcc/arm-none-eabi/4.9.3/../../../arm-none-eabi/lib/armv7-m/libm.a(lib_a-wf_pow.o)
                                                  /tmp/ccGrItoW.ltrans25.ltrans.o
                                                  /tmp/ccGrItoW.ltrans16.ltrans.o
ppmAvoidPWMTimerClash                             obj/main/NAZE/drivers/pwm_rx.o (symbol from plugin)
ppmDev                                            /tmp/ccGrItoW.ltrans0.ltrans.o
                                                  obj/main/NAZE/drivers/pwm_rx.o (symbol from plugin)
                                                  /tmp/ccGrItoW.ltrans15.ltrans.o
ppmEdgeCallback.lto_priv.456                      /tmp/ccGrItoW.ltrans15.ltrans.o
                                                  /tmp/ccGrItoW.ltrans0.ltrans.o
ppmFrameCount.lto_priv.545                        /tmp/ccGrItoW.ltrans23.ltrans.o
                                                  /tmp/ccGrItoW.ltrans15.ltrans.o
ppmISREvent                                       obj/main/NAZE/drivers/pwm_rx.o (symbol from plugin)
ppmInConfig                                       obj/main/NAZE/drivers/pwm_rx.o (symbol from plugin)
                                                  obj/main/NAZE/drivers/pwm_mapping.o (symbol from plugin)
ppmOverflowCallback.lto_priv.457                  /tmp/ccGrItoW.ltrans15.ltrans.o
                                                  /tmp/ccGrItoW.ltrans0.ltrans.o
ppmRead                                           obj/main/NAZE/drivers/pwm_rx.o (symbol from plugin)
                                                  obj/main/NAZE/rx/pwm.o (symbol from plugin)
ppmReadRawRC.lto_priv.422                         /tmp/ccGrItoW.ltrans10.ltrans.o
                                                  /tmp/ccGrItoW.ltrans0.ltrans.o
prepareForNextRxByte                              obj/main/NAZE/drivers/serial_softserial.o (symbol from plugin)
printfSerialPort.lto_priv.181                     /tmp/ccGrItoW.ltrans1.ltrans.o
                                                  /tmp/ccGrItoW.ltrans25.ltrans.o
printfSupportInit                                 obj/main/NAZE/common/printf.o (symbol from plugin)
                                                  obj/main/NAZE/fc/boot.o (symbol from plugin)
processMAVLinkTelemetry                           obj/main/NAZE/telemetry/mavlink.o (symbol from plugin)
processRcAdjustments                              obj/main/NAZE/fc/rc_adjustments.o (symbol from plugin)
                                                  obj/main/NAZE/fc/cleanflight_fc.o (symbol from plugin)
processRcCommand                                  obj/main/NAZE/fc/cleanflight_fc.o (symbol from plugin)
processRcStickPositions                           obj/main/NAZE/fc/rc_controls.o (symbol from plugin)
                                                  obj/main/NAZE/fc/cleanflight_fc.o (symbol from plugin)
processRx                                         obj/main/NAZE/fc/cleanflight_fc.o (symbol from plugin)
processRxState                                    obj/main/NAZE/drivers/serial_softserial.o (symbol from plugin)
processTxState                                    obj/main/NAZE/drivers/serial_softserial.o (symbol from plugin)
profileSelection_Registry                         /tmp/ccGrItoW.ltrans1.ltrans.o
                                                  obj/main/NAZE/config/profile.o (symbol from plugin)
profileSelection_System                           /tmp/ccGrItoW.ltrans1.ltrans.o
                                                  obj/main/NAZE/config/profile.o (symbol from plugin)
                                                  /tmp/ccGrItoW.ltrans27.ltrans.o
                                                  /tmp/ccGrItoW.ltrans8.ltrans.o
                                                  /tmp/ccGrItoW.ltrans2.ltrans.o
pt1FilterApply                                    obj/main/NAZE/common/filter.o (symbol from plugin)
                                                  obj/main/NAZE/sensors/gyro.o (symbol from plugin)
pt1FilterApply4                                   /tmp/ccGrItoW.ltrans25.ltrans.o
                                                  obj/main/NAZE/common/filter.o (symbol from plugin)
                                                  /tmp/ccGrItoW.ltrans24.ltrans.o
                                                  /tmp/ccGrItoW.ltrans9.ltrans.o
                                                  obj/main/NAZE/flight/imu.o (symbol from plugin)
                                                  obj/main/NAZE/flight/pid_mw23.o (symbol from plugin)
                                                  obj/main/NAZE/flight/pid_mwrewrite.o (symbol from plugin)
                                                  obj/main/NAZE/flight/pid_luxfloat.o (symbol from plugin)
pt1FilterInit                                     obj/main/NAZE/common/filter.o (symbol from plugin)
                                                  obj/main/NAZE/sensors/gyro.o (symbol from plugin)
putcp.lto_priv.170                                /tmp/ccGrItoW.ltrans25.ltrans.o
                                                  /tmp/ccGrItoW.ltrans20.ltrans.o
pwmBrushedMotorConfig                             obj/main/NAZE/drivers/pwm_output.o (symbol from plugin)
                                                  obj/main/NAZE/drivers/pwm_mapping.o (symbol from plugin)
pwmBrushlessMotorConfig                           obj/main/NAZE/drivers/pwm_output.o (symbol from plugin)
                                                  obj/main/NAZE/drivers/pwm_mapping.o (symbol from plugin)
pwmCompleteOneshotMotorUpdate                     obj/main/NAZE/drivers/pwm_output.o (symbol from plugin)
                                                  obj/main/NAZE/flight/mixer.o (symbol from plugin)
pwmDisableMotors                                  obj/main/NAZE/drivers/pwm_output.o (symbol from plugin)
                                                  obj/main/NAZE/io/serial_4way.o (symbol from plugin)
pwmEdgeCallback.lto_priv.454                      /tmp/ccGrItoW.ltrans15.ltrans.o
                                                  /tmp/ccGrItoW.ltrans0.ltrans.o
pwmEnableMotors                                   obj/main/NAZE/drivers/pwm_output.o (symbol from plugin)
                                                  obj/main/NAZE/io/serial_4way.o (symbol from plugin)
pwmGetOutputConfiguration                         obj/main/NAZE/drivers/pwm_mapping.o (symbol from plugin)
                                                  obj/main/NAZE/io/serial_4way.o (symbol from plugin)
pwmICConfig                                       /tmp/ccGrItoW.ltrans15.ltrans.o
                                                  obj/main/NAZE/drivers/pwm_rx.o (symbol from plugin)
                                                  /tmp/ccGrItoW.ltrans0.ltrans.o
pwmIOConfiguration.lto_priv.451                   /tmp/ccGrItoW.ltrans1.ltrans.o
                                                  /tmp/ccGrItoW.ltrans0.ltrans.o
pwmInConfig                                       obj/main/NAZE/drivers/pwm_rx.o (symbol from plugin)
                                                  obj/main/NAZE/drivers/pwm_mapping.o (symbol from plugin)
pwmInit                                           obj/main/NAZE/drivers/pwm_mapping.o (symbol from plugin)
                                                  obj/main/NAZE/fc/boot.o (symbol from plugin)
pwmMotorsEnabled.lto_priv.278                     /tmp/ccGrItoW.ltrans19.ltrans.o
                                                  /tmp/ccGrItoW.ltrans9.ltrans.o
pwmOneshotMotorConfig                             obj/main/NAZE/drivers/pwm_output.o (symbol from plugin)
                                                  obj/main/NAZE/drivers/pwm_mapping.o (symbol from plugin)
pwmOutConfig.lto_priv.491                         /tmp/ccGrItoW.ltrans6.ltrans.o
                                                  /tmp/ccGrItoW.ltrans0.ltrans.o
pwmOverflowCallback.lto_priv.455                  /tmp/ccGrItoW.ltrans15.ltrans.o
                                                  /tmp/ccGrItoW.ltrans0.ltrans.o
pwmRead                                           obj/main/NAZE/drivers/pwm_rx.o (symbol from plugin)
                                                  obj/main/NAZE/rx/pwm.o (symbol from plugin)
pwmReadRawRC.lto_priv.421                         /tmp/ccGrItoW.ltrans10.ltrans.o
                                                  /tmp/ccGrItoW.ltrans0.ltrans.o
pwmRxConfig_Registry                              /tmp/ccGrItoW.ltrans15.ltrans.o
                                                  obj/main/NAZE/fc/boot.o (symbol from plugin)
pwmRxConfig_System                                obj/main/NAZE/fc/boot.o (symbol from plugin)
                                                  obj/main/NAZE/drivers/pwm_rx.o (symbol from plugin)
pwmRxInit                                         obj/main/NAZE/drivers/pwm_rx.o (symbol from plugin)
                                                  obj/main/NAZE/fc/boot.o (symbol from plugin)
pwmServoConfig                                    obj/main/NAZE/drivers/pwm_output.o (symbol from plugin)
                                                  obj/main/NAZE/drivers/pwm_mapping.o (symbol from plugin)
pwmShutdownPulsesForAllMotors                     obj/main/NAZE/drivers/pwm_output.o (symbol from plugin)
                                                  obj/main/NAZE/flight/mixer.o (symbol from plugin)
pwmWriteBrushed.lto_priv.453                      /tmp/ccGrItoW.ltrans15.ltrans.o
                                                  /tmp/ccGrItoW.ltrans0.ltrans.o
pwmWriteMotor                                     obj/main/NAZE/drivers/pwm_output.o (symbol from plugin)
                                                  obj/main/NAZE/flight/mixer.o (symbol from plugin)
pwmWriteServo                                     /tmp/ccGrItoW.ltrans15.ltrans.o
                                                  obj/main/NAZE/drivers/pwm_output.o (symbol from plugin)
                                                  /tmp/ccGrItoW.ltrans2.ltrans.o
                                                  obj/main/NAZE/flight/servos.o (symbol from plugin)
pwmWriteStandard.lto_priv.452                     /tmp/ccGrItoW.ltrans15.ltrans.o
                                                  /tmp/ccGrItoW.ltrans0.ltrans.o
q0.lto_priv.359                                   /tmp/ccGrItoW.ltrans9.ltrans.o
                                                  /tmp/ccGrItoW.ltrans24.ltrans.o
q1.lto_priv.360                                   /tmp/ccGrItoW.ltrans9.ltrans.o
                                                  /tmp/ccGrItoW.ltrans24.ltrans.o
q2.lto_priv.361                                   /tmp/ccGrItoW.ltrans9.ltrans.o
                                                  /tmp/ccGrItoW.ltrans24.ltrans.o
q3.lto_priv.362                                   /tmp/ccGrItoW.ltrans9.ltrans.o
                                                  /tmp/ccGrItoW.ltrans24.ltrans.o
quickMedianFilter3                                obj/main/NAZE/common/maths.o (symbol from plugin)
                                                  obj/main/NAZE/sensors/barometer.o (symbol from plugin)
quickMedianFilter5                                obj/main/NAZE/common/maths.o (symbol from plugin)
                                                  obj/main/NAZE/sensors/sonar.o (symbol from plugin)
quickMedianFilter7                                obj/main/NAZE/common/maths.o (symbol from plugin)
quickMedianFilter9                                obj/main/NAZE/common/maths.o (symbol from plugin)
rMat.lto_priv.321                                 /tmp/ccGrItoW.ltrans9.ltrans.o
                                                  /tmp/ccGrItoW.ltrans24.ltrans.o
                                                  /tmp/ccGrItoW.ltrans16.ltrans.o
                                                  /tmp/ccGrItoW.ltrans4.ltrans.o
                                                  /tmp/ccGrItoW.ltrans2.ltrans.o
rateProfileSelection_ProfileCurrent               obj/main/NAZE/fc/rate_profile.o (symbol from plugin)
                                                  obj/main/NAZE/fc/config.o (symbol from plugin)
rateProfileSelection_Registry                     /tmp/ccGrItoW.ltrans8.ltrans.o
                                                  obj/main/NAZE/fc/rate_profile.o (symbol from plugin)
rcChannelLetters                                  /tmp/ccGrItoW.ltrans20.ltrans.o
                                                  obj/main/NAZE/rx/rx.o (symbol from plugin)
                                                  /tmp/ccGrItoW.ltrans27.ltrans.o
                                                  /tmp/ccGrItoW.ltrans7.ltrans.o
                                                  obj/main/NAZE/io/serial_cli.o (symbol from plugin)
rcCommand                                         /tmp/ccGrItoW.ltrans9.ltrans.o
                                                  obj/main/NAZE/fc/rc_controls.o (symbol from plugin)
                                                  /tmp/ccGrItoW.ltrans23.ltrans.o
                                                  /tmp/ccGrItoW.ltrans12.ltrans.o
                                                  /tmp/ccGrItoW.ltrans11.ltrans.o
                                                  /tmp/ccGrItoW.ltrans4.ltrans.o
                                                  /tmp/ccGrItoW.ltrans3.ltrans.o
                                                  /tmp/ccGrItoW.ltrans2.ltrans.o
                                                  obj/main/NAZE/flight/servos.o (symbol from plugin)
                                                  obj/main/NAZE/flight/mixer.o (symbol from plugin)
                                                  obj/main/NAZE/flight/pid_mw23.o (symbol from plugin)
                                                  obj/main/NAZE/flight/pid_mwrewrite.o (symbol from plugin)
                                                  obj/main/NAZE/flight/pid_luxfloat.o (symbol from plugin)
                                                  obj/main/NAZE/flight/altitudehold.o (symbol from plugin)
                                                  obj/main/NAZE/fc/cleanflight_fc.o (symbol from plugin)
                                                  obj/main/NAZE/blackbox/blackbox.o (symbol from plugin)
                                                  obj/main/NAZE/telemetry/ibus.o (symbol from plugin)
                                                  obj/main/NAZE/telemetry/frsky.o (symbol from plugin)
                                                  obj/main/NAZE/io/ledstrip.o (symbol from plugin)
rcControlsConfig_ProfileCurrent                   /tmp/ccGrItoW.ltrans1.ltrans.o
                                                  obj/main/NAZE/fc/rc_controls.o (symbol from plugin)
                                                  /tmp/ccGrItoW.ltrans23.ltrans.o
                                                  /tmp/ccGrItoW.ltrans4.ltrans.o
                                                  /tmp/ccGrItoW.ltrans3.ltrans.o
                                                  /tmp/ccGrItoW.ltrans2.ltrans.o
                                                  obj/main/NAZE/flight/mixer.o (symbol from plugin)
                                                  obj/main/NAZE/flight/failsafe.o (symbol from plugin)
                                                  obj/main/NAZE/flight/altitudehold.o (symbol from plugin)
                                                  obj/main/NAZE/fc/msp_server_fc.o (symbol from plugin)
                                                  obj/main/NAZE/fc/cleanflight_fc.o (symbol from plugin)
rcControlsConfig_Registry                         /tmp/ccGrItoW.ltrans1.ltrans.o
                                                  obj/main/NAZE/fc/rc_controls.o (symbol from plugin)
rcData                                            /tmp/ccGrItoW.ltrans20.ltrans.o
                                                  obj/main/NAZE/rx/rx.o (symbol from plugin)
                                                  /tmp/ccGrItoW.ltrans29.ltrans.o
                                                  /tmp/ccGrItoW.ltrans10.ltrans.o
                                                  /tmp/ccGrItoW.ltrans9.ltrans.o
                                                  /tmp/ccGrItoW.ltrans8.ltrans.o
                                                  /tmp/ccGrItoW.ltrans4.ltrans.o
                                                  /tmp/ccGrItoW.ltrans3.ltrans.o
                                                  /tmp/ccGrItoW.ltrans2.ltrans.o
                                                  /tmp/ccGrItoW.ltrans1.ltrans.o
                                                  /tmp/ccGrItoW.ltrans0.ltrans.o
                                                  obj/main/NAZE/flight/servos.o (symbol from plugin)
                                                  obj/main/NAZE/flight/mixer.o (symbol from plugin)
                                                  obj/main/NAZE/flight/failsafe.o (symbol from plugin)
                                                  obj/main/NAZE/flight/altitudehold.o (symbol from plugin)
                                                  obj/main/NAZE/fc/msp_server_fc.o (symbol from plugin)
                                                  obj/main/NAZE/fc/rc_controls.o (symbol from plugin)
                                                  obj/main/NAZE/fc/rc_adjustments.o (symbol from plugin)
                                                  obj/main/NAZE/fc/cleanflight_fc.o (symbol from plugin)
                                                  obj/main/NAZE/telemetry/mavlink.o (symbol from plugin)
                                                  obj/main/NAZE/io/ledstrip.o (symbol from plugin)
rcInvalidPulsPeriod                               /tmp/ccGrItoW.ltrans4.ltrans.o
                                                  obj/main/NAZE/rx/rx.o (symbol from plugin)
                                                  /tmp/ccGrItoW.ltrans0.ltrans.o
rcLookupPitchRoll                                 obj/main/NAZE/fc/rc_curves.o (symbol from plugin)
                                                  obj/main/NAZE/fc/cleanflight_fc.o (symbol from plugin)
rcLookupThrottle                                  obj/main/NAZE/fc/rc_curves.o (symbol from plugin)
                                                  obj/main/NAZE/fc/cleanflight_fc.o (symbol from plugin)
rcLookupYaw                                       obj/main/NAZE/fc/rc_curves.o (symbol from plugin)
                                                  obj/main/NAZE/fc/cleanflight_fc.o (symbol from plugin)
rcModeActivationMask.lto_priv.279                 /tmp/ccGrItoW.ltrans1.ltrans.o
                                                  /tmp/ccGrItoW.ltrans29.ltrans.o
                                                  /tmp/ccGrItoW.ltrans23.ltrans.o
                                                  /tmp/ccGrItoW.ltrans21.ltrans.o
                                                  /tmp/ccGrItoW.ltrans11.ltrans.o
                                                  /tmp/ccGrItoW.ltrans9.ltrans.o
                                                  /tmp/ccGrItoW.ltrans4.ltrans.o
                                                  /tmp/ccGrItoW.ltrans2.ltrans.o
rcModeIsActivationConditionPresent                /tmp/ccGrItoW.ltrans29.ltrans.o
                                                  obj/main/NAZE/fc/rc_controls.o (symbol from plugin)
                                                  /tmp/ccGrItoW.ltrans21.ltrans.o
                                                  /tmp/ccGrItoW.ltrans8.ltrans.o
                                                  /tmp/ccGrItoW.ltrans1.ltrans.o
                                                  obj/main/NAZE/blackbox/blackbox.o (symbol from plugin)
rcModeIsActive                                    obj/main/NAZE/fc/rc_controls.o (symbol from plugin)
                                                  obj/main/NAZE/rx/rx.o (symbol from plugin)
                                                  obj/main/NAZE/io/beeper.o (symbol from plugin)
                                                  obj/main/NAZE/flight/servos.o (symbol from plugin)
                                                  obj/main/NAZE/flight/mixer.o (symbol from plugin)
                                                  obj/main/NAZE/flight/pid_mw23.o (symbol from plugin)
                                                  obj/main/NAZE/flight/pid_mwrewrite.o (symbol from plugin)
                                                  obj/main/NAZE/flight/pid_luxfloat.o (symbol from plugin)
                                                  obj/main/NAZE/flight/failsafe.o (symbol from plugin)
                                                  obj/main/NAZE/flight/altitudehold.o (symbol from plugin)
                                                  obj/main/NAZE/fc/msp_server_fc.o (symbol from plugin)
                                                  obj/main/NAZE/fc/cleanflight_fc.o (symbol from plugin)
                                                  obj/main/NAZE/blackbox/blackbox.o (symbol from plugin)
                                                  obj/main/NAZE/telemetry/telemetry.o (symbol from plugin)
                                                  obj/main/NAZE/io/ledstrip.o (symbol from plugin)
                                                  obj/main/NAZE/flight/navigation.o (symbol from plugin)
rcModeUpdateActivated                             obj/main/NAZE/fc/rc_controls.o (symbol from plugin)
                                                  obj/main/NAZE/fc/cleanflight_fc.o (symbol from plugin)
rcRaw                                             obj/main/NAZE/rx/rx.o (symbol from plugin)
rcSampleIndex.lto_priv.420                        /tmp/ccGrItoW.ltrans4.ltrans.o
                                                  /tmp/ccGrItoW.ltrans0.ltrans.o
readEEPROM                                        /tmp/ccGrItoW.ltrans8.ltrans.o
                                                  obj/main/NAZE/fc/config.o (symbol from plugin)
                                                  /tmp/ccGrItoW.ltrans1.ltrans.o
                                                  /tmp/ccGrItoW.ltrans0.ltrans.o
                                                  obj/main/NAZE/fc/msp_server_fc.o (symbol from plugin)
                                                  obj/main/NAZE/fc/boot.o (symbol from plugin)
realtimeGuardInterval.lto_priv.397                /tmp/ccGrItoW.ltrans18.ltrans.o
                                                  /tmp/ccGrItoW.ltrans0.ltrans.o
recalculateMagneticDeclination                    obj/main/NAZE/sensors/compass.o (symbol from plugin)
                                                  obj/main/NAZE/fc/config.o (symbol from plugin)
reconfigureAlignment                              obj/main/NAZE/sensors/initialisation.o (symbol from plugin)
reevaluateLedConfig                               /tmp/ccGrItoW.ltrans22.ltrans.o
                                                  obj/main/NAZE/io/ledstrip.o (symbol from plugin)
                                                  /tmp/ccGrItoW.ltrans7.ltrans.o
                                                  /tmp/ccGrItoW.ltrans1.ltrans.o
                                                  /tmp/ccGrItoW.ltrans0.ltrans.o
                                                  obj/main/NAZE/fc/msp_server_fc.o (symbol from plugin)
releaseSharedTelemetryPorts                       obj/main/NAZE/fc/cleanflight_fc.o (symbol from plugin)
rescheduleTask                                    obj/main/NAZE/scheduler/scheduler.o (symbol from plugin)
                                                  obj/main/NAZE/fc/cleanflight_fc.o (symbol from plugin)
                                                  obj/main/NAZE/fc/boot.o (symbol from plugin)
                                                  obj/main/NAZE/telemetry/ibus.o (symbol from plugin)
resetAdjustmentStates                             obj/main/NAZE/fc/rc_adjustments.o (symbol from plugin)
                                                  obj/main/NAZE/fc/config.o (symbol from plugin)
resetConf.lto_priv.176                            /tmp/ccGrItoW.ltrans8.ltrans.o
                                                  /tmp/ccGrItoW.ltrans27.ltrans.o
                                                  /tmp/ccGrItoW.ltrans1.ltrans.o
                                                  /tmp/ccGrItoW.ltrans0.ltrans.o
resetEEPROM                                       obj/main/NAZE/fc/config.o (symbol from plugin)
                                                  obj/main/NAZE/io/serial_cli.o (symbol from plugin)
                                                  obj/main/NAZE/fc/msp_server_fc.o (symbol from plugin)
resetPPMDataReceivedState                         obj/main/NAZE/drivers/pwm_rx.o (symbol from plugin)
                                                  obj/main/NAZE/rx/rx.o (symbol from plugin)
resetRollAndPitchTrims                            obj/main/NAZE/sensors/acceleration.o (symbol from plugin)
resumeRxSignal                                    /tmp/ccGrItoW.ltrans10.ltrans.o
                                                  obj/main/NAZE/rx/rx.o (symbol from plugin)
                                                  /tmp/ccGrItoW.ltrans8.ltrans.o
                                                  obj/main/NAZE/fc/config.o (symbol from plugin)
rint                                              /usr/lib/gcc/arm-none-eabi/4.9.3/../../../arm-none-eabi/lib/armv7-m/libm.a(lib_a-s_rint.o)
                                                  /usr/lib/gcc/arm-none-eabi/4.9.3/../../../arm-none-eabi/lib/armv7-m/libm.a(lib_a-wf_pow.o)
rotateV                                           obj/main/NAZE/common/maths.o (symbol from plugin)
rssi                                              /tmp/ccGrItoW.ltrans1.ltrans.o
                                                  obj/main/NAZE/rx/rx.o (symbol from plugin)
                                                  /tmp/ccGrItoW.ltrans29.ltrans.o
                                                  /tmp/ccGrItoW.ltrans12.ltrans.o
                                                  /tmp/ccGrItoW.ltrans11.ltrans.o
                                                  /tmp/ccGrItoW.ltrans4.ltrans.o
                                                  /tmp/ccGrItoW.ltrans3.ltrans.o
                                                  obj/main/NAZE/fc/msp_server_fc.o (symbol from plugin)
                                                  obj/main/NAZE/blackbox/blackbox.o (symbol from plugin)
                                                  obj/main/NAZE/telemetry/mavlink.o (symbol from plugin)
                                                  obj/main/NAZE/telemetry/ltm.o (symbol from plugin)
                                                  obj/main/NAZE/io/ledstrip.o (symbol from plugin)
rxAreFlightChannelsValid                          obj/main/NAZE/rx/rx.o (symbol from plugin)
                                                  obj/main/NAZE/blackbox/blackbox.o (symbol from plugin)
rxConfig_Registry                                 /tmp/ccGrItoW.ltrans20.ltrans.o
                                                  obj/main/NAZE/rx/rx.o (symbol from plugin)
rxConfig_System                                   /tmp/ccGrItoW.ltrans20.ltrans.o
                                                  obj/main/NAZE/rx/rx.o (symbol from plugin)
                                                  /tmp/ccGrItoW.ltrans27.ltrans.o
                                                  /tmp/ccGrItoW.ltrans23.ltrans.o
                                                  /tmp/ccGrItoW.ltrans21.ltrans.o
                                                  /tmp/ccGrItoW.ltrans10.ltrans.o
                                                  /tmp/ccGrItoW.ltrans7.ltrans.o
                                                  /tmp/ccGrItoW.ltrans4.ltrans.o
                                                  /tmp/ccGrItoW.ltrans2.ltrans.o
                                                  /tmp/ccGrItoW.ltrans1.ltrans.o
                                                  /tmp/ccGrItoW.ltrans0.ltrans.o
                                                  obj/main/NAZE/io/serial_cli.o (symbol from plugin)
                                                  obj/main/NAZE/flight/servos.o (symbol from plugin)
                                                  obj/main/NAZE/flight/mixer.o (symbol from plugin)
                                                  obj/main/NAZE/flight/failsafe.o (symbol from plugin)
                                                  obj/main/NAZE/fc/msp_server_fc.o (symbol from plugin)
                                                  obj/main/NAZE/fc/config.o (symbol from plugin)
                                                  obj/main/NAZE/fc/cleanflight_fc.o (symbol from plugin)
                                                  obj/main/NAZE/fc/boot.o (symbol from plugin)
                                                  obj/main/NAZE/blackbox/blackbox.o (symbol from plugin)
                                                  obj/main/NAZE/telemetry/frsky.o (symbol from plugin)
rxFlightChannelsValid.lto_priv.501                /tmp/ccGrItoW.ltrans4.ltrans.o
                                                  /tmp/ccGrItoW.ltrans12.ltrans.o
rxGetRefreshRate                                  obj/main/NAZE/rx/rx.o (symbol from plugin)
                                                  obj/main/NAZE/fc/cleanflight_fc.o (symbol from plugin)
rxInit                                            obj/main/NAZE/rx/rx.o (symbol from plugin)
                                                  obj/main/NAZE/fc/boot.o (symbol from plugin)
rxIsInFailsafeMode.lto_priv.336                   /tmp/ccGrItoW.ltrans4.ltrans.o
                                                  /tmp/ccGrItoW.ltrans23.ltrans.o
rxIsInFailsafeModeNotDataDriven.lto_priv.339      /tmp/ccGrItoW.ltrans4.ltrans.o
                                                  /tmp/ccGrItoW.ltrans23.ltrans.o
rxIsReceivingSignal                               obj/main/NAZE/rx/rx.o (symbol from plugin)
                                                  obj/main/NAZE/fc/rc_controls.o (symbol from plugin)
                                                  obj/main/NAZE/fc/rc_adjustments.o (symbol from plugin)
                                                  obj/main/NAZE/blackbox/blackbox.o (symbol from plugin)
                                                  obj/main/NAZE/io/ledstrip.o (symbol from plugin)
rxMspFrameDone.lto_priv.217                       /tmp/ccGrItoW.ltrans1.ltrans.o
                                                  /tmp/ccGrItoW.ltrans10.ltrans.o
rxMspFrameReceive                                 obj/main/NAZE/rx/msp.o (symbol from plugin)
                                                  obj/main/NAZE/fc/msp_server_fc.o (symbol from plugin)
rxMspFrameStatus                                  /tmp/ccGrItoW.ltrans10.ltrans.o
                                                  obj/main/NAZE/rx/msp.o (symbol from plugin)
                                                  /tmp/ccGrItoW.ltrans23.ltrans.o
                                                  /tmp/ccGrItoW.ltrans0.ltrans.o
                                                  obj/main/NAZE/rx/rx.o (symbol from plugin)
rxMspInit                                         obj/main/NAZE/rx/msp.o (symbol from plugin)
                                                  obj/main/NAZE/rx/rx.o (symbol from plugin)
rxMspReadRawRC.lto_priv.423                       /tmp/ccGrItoW.ltrans10.ltrans.o
                                                  /tmp/ccGrItoW.ltrans0.ltrans.o
rxPwmInit                                         obj/main/NAZE/rx/pwm.o (symbol from plugin)
                                                  obj/main/NAZE/rx/rx.o (symbol from plugin)
rxRuntimeConfig                                   /tmp/ccGrItoW.ltrans20.ltrans.o
                                                  obj/main/NAZE/rx/rx.o (symbol from plugin)
                                                  /tmp/ccGrItoW.ltrans9.ltrans.o
                                                  /tmp/ccGrItoW.ltrans4.ltrans.o
                                                  /tmp/ccGrItoW.ltrans3.ltrans.o
                                                  /tmp/ccGrItoW.ltrans1.ltrans.o
                                                  /tmp/ccGrItoW.ltrans0.ltrans.o
                                                  obj/main/NAZE/flight/servos.o (symbol from plugin)
                                                  obj/main/NAZE/fc/msp_server_fc.o (symbol from plugin)
                                                  obj/main/NAZE/telemetry/mavlink.o (symbol from plugin)
rxRuntimeConfigPtr.lto_priv.215                   /tmp/ccGrItoW.ltrans20.ltrans.o
                                                  /tmp/ccGrItoW.ltrans10.ltrans.o
rxSignalReceived.lto_priv.337                     /tmp/ccGrItoW.ltrans4.ltrans.o
                                                  /tmp/ccGrItoW.ltrans23.ltrans.o
                                                  /tmp/ccGrItoW.ltrans12.ltrans.o
                                                  /tmp/ccGrItoW.ltrans11.ltrans.o
rxSignalReceivedNotDataDriven.lto_priv.338        /tmp/ccGrItoW.ltrans4.ltrans.o
                                                  /tmp/ccGrItoW.ltrans23.ltrans.o
rxUpdateAt.lto_priv.335                           /tmp/ccGrItoW.ltrans4.ltrans.o
                                                  /tmp/ccGrItoW.ltrans23.ltrans.o
saveConfigAndNotify                               /tmp/ccGrItoW.ltrans8.ltrans.o
                                                  obj/main/NAZE/fc/config.o (symbol from plugin)
                                                  /tmp/ccGrItoW.ltrans24.ltrans.o
                                                  /tmp/ccGrItoW.ltrans16.ltrans.o
                                                  /tmp/ccGrItoW.ltrans4.ltrans.o
                                                  /tmp/ccGrItoW.ltrans0.ltrans.o
                                                  obj/main/NAZE/sensors/compass.o (symbol from plugin)
                                                  obj/main/NAZE/sensors/acceleration.o (symbol from plugin)
                                                  obj/main/NAZE/rx/spektrum.o (symbol from plugin)
                                                  obj/main/NAZE/fc/rc_controls.o (symbol from plugin)
                                                  obj/main/NAZE/fc/cleanflight_fc.o (symbol from plugin)
sbufAdvance                                       obj/main/NAZE/common/streambuf.o (symbol from plugin)
                                                  obj/main/NAZE/fc/msp_server_fc.o (symbol from plugin)
sbufBytesRemaining                                obj/main/NAZE/common/streambuf.o (symbol from plugin)
                                                  obj/main/NAZE/msp/msp_serial.o (symbol from plugin)
                                                  obj/main/NAZE/fc/msp_server_fc.o (symbol from plugin)
sbufConstPtr                                      obj/main/NAZE/common/streambuf.o (symbol from plugin)
sbufPtr                                           obj/main/NAZE/common/streambuf.o (symbol from plugin)
                                                  obj/main/NAZE/msp/msp_serial.o (symbol from plugin)
                                                  obj/main/NAZE/fc/msp_server_fc.o (symbol from plugin)
sbufReadData                                      obj/main/NAZE/common/streambuf.o (symbol from plugin)
sbufReadU16                                       /tmp/ccGrItoW.ltrans18.ltrans.o
                                                  obj/main/NAZE/common/streambuf.o (symbol from plugin)
                                                  /tmp/ccGrItoW.ltrans1.ltrans.o
                                                  obj/main/NAZE/fc/msp_server_fc.o (symbol from plugin)
sbufReadU32                                       /tmp/ccGrItoW.ltrans18.ltrans.o
                                                  obj/main/NAZE/common/streambuf.o (symbol from plugin)
                                                  /tmp/ccGrItoW.ltrans1.ltrans.o
                                                  obj/main/NAZE/fc/msp_server_fc.o (symbol from plugin)
sbufReadU8                                        obj/main/NAZE/common/streambuf.o (symbol from plugin)
                                                  obj/main/NAZE/fc/msp_server_fc.o (symbol from plugin)
sbufSwitchToReader                                obj/main/NAZE/common/streambuf.o (symbol from plugin)
                                                  obj/main/NAZE/msp/msp_serial.o (symbol from plugin)
sbufWriteData                                     /tmp/ccGrItoW.ltrans18.ltrans.o
                                                  obj/main/NAZE/common/streambuf.o (symbol from plugin)
                                                  /tmp/ccGrItoW.ltrans1.ltrans.o
                                                  obj/main/NAZE/fc/msp_server_fc.o (symbol from plugin)
sbufWriteString                                   obj/main/NAZE/common/streambuf.o (symbol from plugin)
                                                  obj/main/NAZE/fc/msp_server_fc.o (symbol from plugin)
sbufWriteU16                                      /tmp/ccGrItoW.ltrans18.ltrans.o
                                                  obj/main/NAZE/common/streambuf.o (symbol from plugin)
                                                  /tmp/ccGrItoW.ltrans1.ltrans.o
                                                  obj/main/NAZE/fc/msp_server_fc.o (symbol from plugin)
sbufWriteU32                                      /tmp/ccGrItoW.ltrans18.ltrans.o
                                                  obj/main/NAZE/common/streambuf.o (symbol from plugin)
                                                  /tmp/ccGrItoW.ltrans1.ltrans.o
                                                  obj/main/NAZE/fc/msp_server_fc.o (symbol from plugin)
sbufWriteU8                                       obj/main/NAZE/common/streambuf.o (symbol from plugin)
                                                  obj/main/NAZE/fc/msp_server_fc.o (symbol from plugin)
sbusChannelData.lto_priv.424                      /tmp/ccGrItoW.ltrans10.ltrans.o
                                                  /tmp/ccGrItoW.ltrans0.ltrans.o
sbusDataReceive.lto_priv.426                      /tmp/ccGrItoW.ltrans10.ltrans.o
                                                  /tmp/ccGrItoW.ltrans0.ltrans.o
sbusFrameStatus                                   /tmp/ccGrItoW.ltrans10.ltrans.o
                                                  obj/main/NAZE/rx/sbus.o (symbol from plugin)
                                                  /tmp/ccGrItoW.ltrans23.ltrans.o
                                                  /tmp/ccGrItoW.ltrans0.ltrans.o
                                                  obj/main/NAZE/rx/rx.o (symbol from plugin)
sbusInit                                          obj/main/NAZE/rx/sbus.o (symbol from plugin)
                                                  obj/main/NAZE/rx/rx.o (symbol from plugin)
sbusReadRawRC.lto_priv.425                        /tmp/ccGrItoW.ltrans10.ltrans.o
                                                  /tmp/ccGrItoW.ltrans0.ltrans.o
scalbnf                                           /usr/lib/gcc/arm-none-eabi/4.9.3/../../../arm-none-eabi/lib/armv7-m/libm.a(lib_a-sf_scalbn.o)
                                                  /usr/lib/gcc/arm-none-eabi/4.9.3/../../../arm-none-eabi/lib/armv7-m/libm.a(lib_a-ef_pow.o)
scaleLedValue                                     obj/main/NAZE/drivers/light_ws2811strip.o (symbol from plugin)
scaleRange                                        obj/main/NAZE/common/maths.o (symbol from plugin)
                                                  obj/main/NAZE/rx/rx.o (symbol from plugin)
                                                  obj/main/NAZE/flight/servos.o (symbol from plugin)
                                                  obj/main/NAZE/telemetry/mavlink.o (symbol from plugin)
                                                  obj/main/NAZE/io/ledstrip.o (symbol from plugin)
scaledThrottle.lto_priv.521                       /tmp/ccGrItoW.ltrans29.ltrans.o
                                                  /tmp/ccGrItoW.ltrans11.ltrans.o
scanEEPROM                                        obj/main/NAZE/config/config_eeprom.o (symbol from plugin)
scanEEPROM.part.4.lto_priv.288                    /tmp/ccGrItoW.ltrans25.ltrans.o
                                                  /tmp/ccGrItoW.ltrans8.ltrans.o
                                                  /tmp/ccGrItoW.ltrans0.ltrans.o
scheduler                                         obj/main/NAZE/scheduler/scheduler.o (symbol from plugin)
                                                  obj/main/NAZE/fc/boot.o (symbol from plugin)
schedulerInit                                     obj/main/NAZE/scheduler/scheduler.o (symbol from plugin)
                                                  obj/main/NAZE/fc/boot.o (symbol from plugin)
sectionTimes                                      obj/main/NAZE/build/debug.o (symbol from plugin)
selectMPUIntExtiConfig                            obj/main/NAZE/sensors/initialisation.o (symbol from plugin)
sendDataHead.lto_priv.318                         /tmp/ccGrItoW.ltrans11.ltrans.o
                                                  /tmp/ccGrItoW.ltrans3.ltrans.o
sendFieldDefinition.lto_priv.377                  /tmp/ccGrItoW.ltrans12.ltrans.o
                                                  /tmp/ccGrItoW.ltrans2.ltrans.o
sendIbusMeasurement.lto_priv.306                  /tmp/ccGrItoW.ltrans11.ltrans.o
                                                  /tmp/ccGrItoW.ltrans3.ltrans.o
sendLatLong.lto_priv.319                          /tmp/ccGrItoW.ltrans11.ltrans.o
                                                  /tmp/ccGrItoW.ltrans3.ltrans.o
sendTelemetryTail.lto_priv.316                    /tmp/ccGrItoW.ltrans11.ltrans.o
                                                  /tmp/ccGrItoW.ltrans3.ltrans.o
sensorAlignmentConfig_Registry                    /tmp/ccGrItoW.ltrans1.ltrans.o
                                                  obj/main/NAZE/sensors/sensors.o (symbol from plugin)
sensorAlignmentConfig_System                      /tmp/ccGrItoW.ltrans1.ltrans.o
                                                  obj/main/NAZE/sensors/sensors.o (symbol from plugin)
                                                  /tmp/ccGrItoW.ltrans13.ltrans.o
                                                  obj/main/NAZE/sensors/initialisation.o (symbol from plugin)
                                                  obj/main/NAZE/fc/msp_server_fc.o (symbol from plugin)
sensorSelectionConfig_Registry                    /tmp/ccGrItoW.ltrans13.ltrans.o
                                                  obj/main/NAZE/sensors/sensors.o (symbol from plugin)
sensorSelectionConfig_System                      obj/main/NAZE/sensors/sensors.o (symbol from plugin)
                                                  obj/main/NAZE/sensors/initialisation.o (symbol from plugin)
sensorTrims_Registry                              /tmp/ccGrItoW.ltrans8.ltrans.o
                                                  obj/main/NAZE/sensors/sensors.o (symbol from plugin)
sensorTrims_System                                /tmp/ccGrItoW.ltrans8.ltrans.o
                                                  obj/main/NAZE/sensors/sensors.o (symbol from plugin)
                                                  /tmp/ccGrItoW.ltrans16.ltrans.o
                                                  obj/main/NAZE/fc/config.o (symbol from plugin)
                                                  obj/main/NAZE/fc/cleanflight_fc.o (symbol from plugin)
sensors                                           obj/main/NAZE/fc/runtime_config.o (symbol from plugin)
                                                  obj/main/NAZE/sensors/compass.o (symbol from plugin)
                                                  obj/main/NAZE/flight/imu.o (symbol from plugin)
                                                  obj/main/NAZE/fc/msp_server_fc.o (symbol from plugin)
                                                  obj/main/NAZE/fc/rc_controls.o (symbol from plugin)
                                                  obj/main/NAZE/fc/cleanflight_fc.o (symbol from plugin)
                                                  obj/main/NAZE/fc/boot.o (symbol from plugin)
                                                  obj/main/NAZE/blackbox/blackbox.o (symbol from plugin)
                                                  obj/main/NAZE/telemetry/mavlink.o (symbol from plugin)
                                                  obj/main/NAZE/telemetry/ltm.o (symbol from plugin)
                                                  obj/main/NAZE/telemetry/smartport.o (symbol from plugin)
                                                  obj/main/NAZE/telemetry/hott.o (symbol from plugin)
                                                  obj/main/NAZE/telemetry/frsky.o (symbol from plugin)
                                                  obj/main/NAZE/io/ledstrip.o (symbol from plugin)
sensorsAutodetect                                 /tmp/ccGrItoW.ltrans13.ltrans.o
                                                  obj/main/NAZE/sensors/initialisation.o (symbol from plugin)
                                                  /tmp/ccGrItoW.ltrans0.ltrans.o
                                                  obj/main/NAZE/fc/boot.o (symbol from plugin)
sensorsClear                                      obj/main/NAZE/fc/runtime_config.o (symbol from plugin)
                                                  obj/main/NAZE/sensors/initialisation.o (symbol from plugin)
                                                  obj/main/NAZE/io/gps.o (symbol from plugin)
sensorsMask                                       obj/main/NAZE/fc/runtime_config.o (symbol from plugin)
                                                  obj/main/NAZE/io/serial_cli.o (symbol from plugin)
sensorsSet                                        obj/main/NAZE/fc/runtime_config.o (symbol from plugin)
                                                  obj/main/NAZE/sensors/initialisation.o (symbol from plugin)
                                                  obj/main/NAZE/sensors/sonar.o (symbol from plugin)
                                                  obj/main/NAZE/io/gps.o (symbol from plugin)
serialBeginWrite                                  /tmp/ccGrItoW.ltrans18.ltrans.o
                                                  obj/main/NAZE/drivers/serial.o (symbol from plugin)
                                                  /tmp/ccGrItoW.ltrans19.ltrans.o
                                                  obj/main/NAZE/msp/msp_serial.o (symbol from plugin)
                                                  obj/main/NAZE/io/serial_4way.o (symbol from plugin)
serialConfig_Registry                             /tmp/ccGrItoW.ltrans20.ltrans.o
                                                  obj/main/NAZE/fc/fc_serial.o (symbol from plugin)
                                                  /tmp/ccGrItoW.ltrans8.ltrans.o
                                                  obj/main/NAZE/fc/config.o (symbol from plugin)
serialConfig_System                               /tmp/ccGrItoW.ltrans20.ltrans.o
                                                  obj/main/NAZE/fc/fc_serial.o (symbol from plugin)
                                                  /tmp/ccGrItoW.ltrans18.ltrans.o
                                                  /tmp/ccGrItoW.ltrans17.ltrans.o
                                                  /tmp/ccGrItoW.ltrans8.ltrans.o
                                                  /tmp/ccGrItoW.ltrans1.ltrans.o
                                                  obj/main/NAZE/io/serial.o (symbol from plugin)
                                                  obj/main/NAZE/io/serial_cli.o (symbol from plugin)
                                                  obj/main/NAZE/fc/msp_server_fc.o (symbol from plugin)
                                                  obj/main/NAZE/fc/config.o (symbol from plugin)
serialEndWrite                                    /tmp/ccGrItoW.ltrans18.ltrans.o
                                                  obj/main/NAZE/drivers/serial.o (symbol from plugin)
                                                  /tmp/ccGrItoW.ltrans19.ltrans.o
                                                  obj/main/NAZE/msp/msp_serial.o (symbol from plugin)
                                                  obj/main/NAZE/io/serial_4way.o (symbol from plugin)
serialFindPortConfiguration                       obj/main/NAZE/io/serial.o (symbol from plugin)
                                                  obj/main/NAZE/io/serial_cli.o (symbol from plugin)
                                                  obj/main/NAZE/fc/msp_server_fc.o (symbol from plugin)
serialGetAvailablePortCount                       obj/main/NAZE/io/serial.o (symbol from plugin)
serialGetBaudRate                                 obj/main/NAZE/drivers/serial.o (symbol from plugin)
                                                  obj/main/NAZE/io/gps.o (symbol from plugin)
serialInit                                        obj/main/NAZE/io/serial.o (symbol from plugin)
                                                  obj/main/NAZE/fc/boot.o (symbol from plugin)
serialInputPortConfig                             obj/main/NAZE/drivers/serial_softserial.o (symbol from plugin)
serialIsPortAvailable                             obj/main/NAZE/io/serial.o (symbol from plugin)
                                                  obj/main/NAZE/io/serial_cli.o (symbol from plugin)
                                                  obj/main/NAZE/fc/msp_server_fc.o (symbol from plugin)
serialPassthrough                                 obj/main/NAZE/io/serial.o (symbol from plugin)
                                                  obj/main/NAZE/io/serial_cli.o (symbol from plugin)
                                                  obj/main/NAZE/fc/msp_server_fc.o (symbol from plugin)
                                                  obj/main/NAZE/io/gps.o (symbol from plugin)
serialPassthrough.constprop.93                    /tmp/ccGrItoW.ltrans20.ltrans.o
                                                  /tmp/ccGrItoW.ltrans27.ltrans.o
                                                  /tmp/ccGrItoW.ltrans17.ltrans.o
                                                  /tmp/ccGrItoW.ltrans8.ltrans.o
serialPortCount.lto_priv.459                      /tmp/ccGrItoW.ltrans18.ltrans.o
                                                  /tmp/ccGrItoW.ltrans0.ltrans.o
serialPortIdentifiers                             /tmp/ccGrItoW.ltrans8.ltrans.o
                                                  obj/main/NAZE/io/serial.o (symbol from plugin)
                                                  /tmp/ccGrItoW.ltrans0.ltrans.o
                                                  obj/main/NAZE/fc/fc_serial.o (symbol from plugin)
serialPortUsageList.lto_priv.179                  /tmp/ccGrItoW.ltrans1.ltrans.o
                                                  /tmp/ccGrItoW.ltrans18.ltrans.o
                                                  /tmp/ccGrItoW.ltrans17.ltrans.o
                                                  /tmp/ccGrItoW.ltrans0.ltrans.o
serialPrint                                       obj/main/NAZE/drivers/serial.o (symbol from plugin)
                                                  obj/main/NAZE/io/gps.o (symbol from plugin)
serialRead                                        /tmp/ccGrItoW.ltrans18.ltrans.o
                                                  obj/main/NAZE/drivers/serial.o (symbol from plugin)
                                                  /tmp/ccGrItoW.ltrans23.ltrans.o
                                                  /tmp/ccGrItoW.ltrans20.ltrans.o
                                                  /tmp/ccGrItoW.ltrans19.ltrans.o
                                                  /tmp/ccGrItoW.ltrans16.ltrans.o
                                                  /tmp/ccGrItoW.ltrans11.ltrans.o
                                                  /tmp/ccGrItoW.ltrans3.ltrans.o
                                                  /tmp/ccGrItoW.ltrans1.ltrans.o
                                                  obj/main/NAZE/msp/msp_serial.o (symbol from plugin)
                                                  obj/main/NAZE/io/serial.o (symbol from plugin)
                                                  obj/main/NAZE/io/serial_cli.o (symbol from plugin)
                                                  obj/main/NAZE/io/serial_4way.o (symbol from plugin)
                                                  obj/main/NAZE/telemetry/ibus.o (symbol from plugin)
                                                  obj/main/NAZE/telemetry/smartport.o (symbol from plugin)
                                                  obj/main/NAZE/telemetry/hott.o (symbol from plugin)
                                                  obj/main/NAZE/io/gps.o (symbol from plugin)
serialRemovePort                                  /tmp/ccGrItoW.ltrans18.ltrans.o
                                                  obj/main/NAZE/io/serial.o (symbol from plugin)
                                                  /tmp/ccGrItoW.ltrans0.ltrans.o
                                                  obj/main/NAZE/fc/boot.o (symbol from plugin)
serialRxBytesWaiting                              /tmp/ccGrItoW.ltrans18.ltrans.o
                                                  obj/main/NAZE/drivers/serial.o (symbol from plugin)
                                                  /tmp/ccGrItoW.ltrans23.ltrans.o
                                                  /tmp/ccGrItoW.ltrans20.ltrans.o
                                                  /tmp/ccGrItoW.ltrans19.ltrans.o
                                                  /tmp/ccGrItoW.ltrans16.ltrans.o
                                                  /tmp/ccGrItoW.ltrans11.ltrans.o
                                                  /tmp/ccGrItoW.ltrans3.ltrans.o
                                                  /tmp/ccGrItoW.ltrans1.ltrans.o
                                                  obj/main/NAZE/msp/msp_serial.o (symbol from plugin)
                                                  obj/main/NAZE/io/serial.o (symbol from plugin)
                                                  obj/main/NAZE/io/serial_cli.o (symbol from plugin)
                                                  obj/main/NAZE/io/serial_4way.o (symbol from plugin)
                                                  obj/main/NAZE/telemetry/ibus.o (symbol from plugin)
                                                  obj/main/NAZE/telemetry/smartport.o (symbol from plugin)
                                                  obj/main/NAZE/telemetry/hott.o (symbol from plugin)
                                                  obj/main/NAZE/io/gps.o (symbol from plugin)
serialRxFrameStatus                               obj/main/NAZE/rx/rx.o (symbol from plugin)
serialRxInit                                      obj/main/NAZE/rx/rx.o (symbol from plugin)
serialSetBaudRate                                 /tmp/ccGrItoW.ltrans18.ltrans.o
                                                  obj/main/NAZE/drivers/serial.o (symbol from plugin)
                                                  /tmp/ccGrItoW.ltrans16.ltrans.o
                                                  obj/main/NAZE/io/gps.o (symbol from plugin)
serialSetMode                                     /tmp/ccGrItoW.ltrans18.ltrans.o
                                                  obj/main/NAZE/drivers/serial.o (symbol from plugin)
                                                  /tmp/ccGrItoW.ltrans27.ltrans.o
                                                  /tmp/ccGrItoW.ltrans17.ltrans.o
                                                  /tmp/ccGrItoW.ltrans3.ltrans.o
                                                  obj/main/NAZE/io/serial.o (symbol from plugin)
                                                  obj/main/NAZE/io/serial_cli.o (symbol from plugin)
                                                  obj/main/NAZE/telemetry/hott.o (symbol from plugin)
                                                  obj/main/NAZE/io/gps.o (symbol from plugin)
serialTxBytesFree                                 obj/main/NAZE/drivers/serial.o (symbol from plugin)
                                                  obj/main/NAZE/blackbox/blackbox_io.o (symbol from plugin)
serialUART1                                       obj/main/NAZE/drivers/serial_uart_stm32f10x.o (symbol from plugin)
                                                  obj/main/NAZE/drivers/serial_uart.o (symbol from plugin)
serialUART2                                       obj/main/NAZE/drivers/serial_uart_stm32f10x.o (symbol from plugin)
                                                  obj/main/NAZE/drivers/serial_uart.o (symbol from plugin)
serialUART3                                       obj/main/NAZE/drivers/serial_uart_stm32f10x.o (symbol from plugin)
                                                  obj/main/NAZE/drivers/serial_uart.o (symbol from plugin)
serialWrite                                       /tmp/ccGrItoW.ltrans18.ltrans.o
                                                  obj/main/NAZE/drivers/serial.o (symbol from plugin)
                                                  /tmp/ccGrItoW.ltrans30.ltrans.o
                                                  /tmp/ccGrItoW.ltrans25.ltrans.o
                                                  /tmp/ccGrItoW.ltrans20.ltrans.o
                                                  /tmp/ccGrItoW.ltrans19.ltrans.o
                                                  /tmp/ccGrItoW.ltrans16.ltrans.o
                                                  /tmp/ccGrItoW.ltrans11.ltrans.o
                                                  /tmp/ccGrItoW.ltrans3.ltrans.o
                                                  obj/main/NAZE/msp/msp_serial.o (symbol from plugin)
                                                  obj/main/NAZE/io/serial.o (symbol from plugin)
                                                  obj/main/NAZE/common/printf.o (symbol from plugin)
                                                  obj/main/NAZE/io/serial_4way.o (symbol from plugin)
                                                  obj/main/NAZE/blackbox/blackbox_io.o (symbol from plugin)
                                                  obj/main/NAZE/telemetry/ibus.o (symbol from plugin)
                                                  obj/main/NAZE/telemetry/mavlink.o (symbol from plugin)
                                                  obj/main/NAZE/telemetry/ltm.o (symbol from plugin)
                                                  obj/main/NAZE/telemetry/smartport.o (symbol from plugin)
                                                  obj/main/NAZE/telemetry/hott.o (symbol from plugin)
                                                  obj/main/NAZE/telemetry/frsky.o (symbol from plugin)
                                                  obj/main/NAZE/io/gps.o (symbol from plugin)
serialWriteBuf                                    obj/main/NAZE/drivers/serial.o (symbol from plugin)
                                                  obj/main/NAZE/msp/msp_serial.o (symbol from plugin)
serialWriteBufShim                                /tmp/ccGrItoW.ltrans18.ltrans.o
                                                  obj/main/NAZE/drivers/serial.o (symbol from plugin)
                                                  /tmp/ccGrItoW.ltrans1.ltrans.o
                                                  obj/main/NAZE/io/serial_cli.o (symbol from plugin)
serialize16.lto_priv.317                          /tmp/ccGrItoW.ltrans11.ltrans.o
                                                  /tmp/ccGrItoW.ltrans3.ltrans.o
servo                                             /tmp/ccGrItoW.ltrans1.ltrans.o
                                                  obj/main/NAZE/flight/servos.o (symbol from plugin)
                                                  /tmp/ccGrItoW.ltrans12.ltrans.o
                                                  /tmp/ccGrItoW.ltrans2.ltrans.o
                                                  /tmp/ccGrItoW.ltrans0.ltrans.o
                                                  obj/main/NAZE/fc/msp_server_fc.o (symbol from plugin)
                                                  obj/main/NAZE/blackbox/blackbox.o (symbol from plugin)
servoConf.lto_priv.277                            /tmp/ccGrItoW.ltrans7.ltrans.o
                                                  /tmp/ccGrItoW.ltrans9.ltrans.o
                                                  /tmp/ccGrItoW.ltrans8.ltrans.o
                                                  /tmp/ccGrItoW.ltrans2.ltrans.o
servoConfig_Registry                              /tmp/ccGrItoW.ltrans0.ltrans.o
                                                  obj/main/NAZE/io/servos.o (symbol from plugin)
servoConfig_System                                obj/main/NAZE/io/servos.o (symbol from plugin)
                                                  obj/main/NAZE/fc/boot.o (symbol from plugin)
servoDirection                                    obj/main/NAZE/flight/servos.o (symbol from plugin)
                                                  obj/main/NAZE/io/serial_cli.o (symbol from plugin)
servoFilterState.lto_priv.447                     /tmp/ccGrItoW.ltrans2.ltrans.o
                                                  /tmp/ccGrItoW.ltrans0.ltrans.o
servoMixTable                                     obj/main/NAZE/flight/servos.o (symbol from plugin)
                                                  obj/main/NAZE/flight/mixer.o (symbol from plugin)
servoMixerAirplane.lto_priv.488                   /tmp/ccGrItoW.ltrans7.ltrans.o
servoMixerBI.lto_priv.485                         /tmp/ccGrItoW.ltrans7.ltrans.o
servoMixerDual.lto_priv.489                       /tmp/ccGrItoW.ltrans7.ltrans.o
servoMixerFlyingWing.lto_priv.487                 /tmp/ccGrItoW.ltrans7.ltrans.o
servoMixerGimbal.lto_priv.486                     /tmp/ccGrItoW.ltrans7.ltrans.o
servoMixerLoadMix                                 obj/main/NAZE/flight/servos.o (symbol from plugin)
                                                  obj/main/NAZE/io/serial_cli.o (symbol from plugin)
servoMixerSingle.lto_priv.490                     /tmp/ccGrItoW.ltrans7.ltrans.o
servoMixerTri.lto_priv.484                        /tmp/ccGrItoW.ltrans7.ltrans.o
servoMixers                                       /tmp/ccGrItoW.ltrans7.ltrans.o
                                                  obj/main/NAZE/flight/servos.o (symbol from plugin)
                                                  /tmp/ccGrItoW.ltrans0.ltrans.o
servoProfile_ProfileCurrent                       /tmp/ccGrItoW.ltrans1.ltrans.o
                                                  obj/main/NAZE/flight/servos.o (symbol from plugin)
                                                  /tmp/ccGrItoW.ltrans8.ltrans.o
                                                  /tmp/ccGrItoW.ltrans7.ltrans.o
                                                  obj/main/NAZE/io/serial_cli.o (symbol from plugin)
                                                  obj/main/NAZE/fc/msp_server_fc.o (symbol from plugin)
                                                  obj/main/NAZE/fc/config.o (symbol from plugin)
servoProfile_Registry                             /tmp/ccGrItoW.ltrans1.ltrans.o
                                                  obj/main/NAZE/flight/servos.o (symbol from plugin)
servoRuleCount.lto_priv.374                       /tmp/ccGrItoW.ltrans9.ltrans.o
                                                  /tmp/ccGrItoW.ltrans2.ltrans.o
                                                  /tmp/ccGrItoW.ltrans0.ltrans.o
servos.lto_priv.546                               /tmp/ccGrItoW.ltrans0.ltrans.o
                                                  /tmp/ccGrItoW.ltrans15.ltrans.o
setAccelerationTrims                              obj/main/NAZE/sensors/acceleration.o (symbol from plugin)
                                                  obj/main/NAZE/fc/config.o (symbol from plugin)
setAdjustment.constprop.18                        /tmp/ccGrItoW.ltrans20.ltrans.o
                                                  /tmp/ccGrItoW.ltrans4.ltrans.o
setControlRateProfile                             obj/main/NAZE/fc/rate_profile.o (symbol from plugin)
                                                  obj/main/NAZE/fc/config.o (symbol from plugin)
setEscHi                                          obj/main/NAZE/io/serial_4way.o (symbol from plugin)
                                                  obj/main/NAZE/io/serial_4way_stk500v2.o (symbol from plugin)
                                                  obj/main/NAZE/io/serial_4way_avrootloader.o (symbol from plugin)
setEscInput                                       obj/main/NAZE/io/serial_4way.o (symbol from plugin)
                                                  obj/main/NAZE/io/serial_4way_stk500v2.o (symbol from plugin)
                                                  obj/main/NAZE/io/serial_4way_avrootloader.o (symbol from plugin)
setEscLo                                          obj/main/NAZE/io/serial_4way.o (symbol from plugin)
                                                  obj/main/NAZE/io/serial_4way_stk500v2.o (symbol from plugin)
                                                  obj/main/NAZE/io/serial_4way_avrootloader.o (symbol from plugin)
setEscOutput                                      obj/main/NAZE/io/serial_4way.o (symbol from plugin)
                                                  obj/main/NAZE/io/serial_4way_stk500v2.o (symbol from plugin)
                                                  obj/main/NAZE/io/serial_4way_avrootloader.o (symbol from plugin)
setLedHsv                                         obj/main/NAZE/drivers/light_ws2811strip.o (symbol from plugin)
                                                  obj/main/NAZE/io/ledstrip.o (symbol from plugin)
setLedValue                                       obj/main/NAZE/drivers/light_ws2811strip.o (symbol from plugin)
setModeColor                                      obj/main/NAZE/io/ledstrip.o (symbol from plugin)
                                                  obj/main/NAZE/io/serial_cli.o (symbol from plugin)
                                                  obj/main/NAZE/fc/msp_server_fc.o (symbol from plugin)
setPrintfSerialPort                               obj/main/NAZE/common/printf.o (symbol from plugin)
                                                  obj/main/NAZE/io/serial_cli.o (symbol from plugin)
setProfile                                        obj/main/NAZE/config/profile.o (symbol from plugin)
                                                  obj/main/NAZE/fc/config.o (symbol from plugin)
setStripColor                                     obj/main/NAZE/drivers/light_ws2811strip.o (symbol from plugin)
                                                  obj/main/NAZE/io/ledstrip.o (symbol from plugin)
                                                  obj/main/NAZE/drivers/light_ws2811strip_stm32f10x.o (symbol from plugin)
setStripColors                                    obj/main/NAZE/drivers/light_ws2811strip.o (symbol from plugin)
setTaskEnabled                                    /tmp/ccGrItoW.ltrans18.ltrans.o
                                                  obj/main/NAZE/scheduler/scheduler.o (symbol from plugin)
                                                  /tmp/ccGrItoW.ltrans0.ltrans.o
                                                  obj/main/NAZE/fc/boot.o (symbol from plugin)
setTxSignal                                       obj/main/NAZE/drivers/serial_softserial.o (symbol from plugin)
setVelocity                                       /tmp/ccGrItoW.ltrans16.ltrans.o
                                                  obj/main/NAZE/flight/altitudehold.o (symbol from plugin)
                                                  /tmp/ccGrItoW.ltrans2.ltrans.o
shortGitRevision                                  /tmp/ccGrItoW.ltrans1.ltrans.o
                                                  obj/main/NAZE/build/version.o (symbol from plugin)
                                                  obj/main/NAZE/io/serial_cli.o (symbol from plugin)
                                                  obj/main/NAZE/fc/msp_server_fc.o (symbol from plugin)
                                                  obj/main/NAZE/blackbox/blackbox.o (symbol from plugin)
shouldProcessGyro                                 obj/main/NAZE/fc/cleanflight_fc.o (symbol from plugin)
shouldProcessRx                                   obj/main/NAZE/rx/rx.o (symbol from plugin)
                                                  obj/main/NAZE/fc/cleanflight_fc.o (symbol from plugin)
sinf                                              /tmp/ccGrItoW.ltrans25.ltrans.o
                                                  /tmp/ccGrItoW.ltrans24.ltrans.o
                                                  /tmp/ccGrItoW.ltrans22.ltrans.o
                                                  /tmp/ccGrItoW.ltrans2.ltrans.o
                                                  /tmp/ccGrItoW.ltrans0.ltrans.o
skipRxSamples.lto_priv.330                        /tmp/ccGrItoW.ltrans10.ltrans.o
                                                  /tmp/ccGrItoW.ltrans4.ltrans.o
smallAngleCosZ                                    /tmp/ccGrItoW.ltrans24.ltrans.o
                                                  obj/main/NAZE/flight/imu.o (symbol from plugin)
                                                  /tmp/ccGrItoW.ltrans0.ltrans.o
smartPortLastRequestTime.lto_priv.516             /tmp/ccGrItoW.ltrans3.ltrans.o
                                                  /tmp/ccGrItoW.ltrans11.ltrans.o
smartPortPortSharing.lto_priv.514                 /tmp/ccGrItoW.ltrans0.ltrans.o
                                                  /tmp/ccGrItoW.ltrans11.ltrans.o
smartPortSendPackage.lto_priv.313                 /tmp/ccGrItoW.ltrans11.ltrans.o
                                                  /tmp/ccGrItoW.ltrans3.ltrans.o
smartPortSerialPort.lto_priv.505                  /tmp/ccGrItoW.ltrans3.ltrans.o
                                                  /tmp/ccGrItoW.ltrans11.ltrans.o
smartPortState                                    /tmp/ccGrItoW.ltrans3.ltrans.o
                                                  obj/main/NAZE/telemetry/smartport.o (symbol from plugin)
                                                  /tmp/ccGrItoW.ltrans11.ltrans.o
smartPortTelemetryEnabled.lto_priv.515            /tmp/ccGrItoW.ltrans3.ltrans.o
                                                  /tmp/ccGrItoW.ltrans11.ltrans.o
softSerialPorts                                   obj/main/NAZE/drivers/serial_softserial.o (symbol from plugin)
softSerialReadByte                                obj/main/NAZE/drivers/serial_softserial.o (symbol from plugin)
softSerialRxBytesWaiting                          obj/main/NAZE/drivers/serial_softserial.o (symbol from plugin)
softSerialSetBaudRate                             obj/main/NAZE/drivers/serial_softserial.o (symbol from plugin)
softSerialSetMode                                 obj/main/NAZE/drivers/serial_softserial.o (symbol from plugin)
softSerialTxBytesFree                             obj/main/NAZE/drivers/serial_softserial.o (symbol from plugin)
softSerialVTable                                  obj/main/NAZE/drivers/serial_softserial.o (symbol from plugin)
softSerialWriteByte                               obj/main/NAZE/drivers/serial_softserial.o (symbol from plugin)
sonarCalculateAltitude                            obj/main/NAZE/sensors/sonar.o (symbol from plugin)
                                                  obj/main/NAZE/flight/altitudehold.o (symbol from plugin)
sonarCfAltCm                                      /tmp/ccGrItoW.ltrans16.ltrans.o
                                                  obj/main/NAZE/sensors/sonar.o (symbol from plugin)
                                                  /tmp/ccGrItoW.ltrans0.ltrans.o
                                                  obj/main/NAZE/flight/altitudehold.o (symbol from plugin)
sonarGetHardwareConfiguration                     obj/main/NAZE/sensors/sonar.o (symbol from plugin)
                                                  obj/main/NAZE/fc/boot.o (symbol from plugin)
sonarGetLatestAltitude                            obj/main/NAZE/sensors/sonar.o (symbol from plugin)
                                                  obj/main/NAZE/fc/msp_server_fc.o (symbol from plugin)
sonarHardware.lto_priv.415                        /tmp/ccGrItoW.ltrans16.ltrans.o
                                                  /tmp/ccGrItoW.ltrans6.ltrans.o
                                                  /tmp/ccGrItoW.ltrans0.ltrans.o
sonarInit                                         obj/main/NAZE/sensors/sonar.o (symbol from plugin)
                                                  obj/main/NAZE/fc/boot.o (symbol from plugin)
sonarMaxAltWithTiltCm                             /tmp/ccGrItoW.ltrans16.ltrans.o
                                                  obj/main/NAZE/sensors/sonar.o (symbol from plugin)
                                                  /tmp/ccGrItoW.ltrans0.ltrans.o
                                                  obj/main/NAZE/flight/altitudehold.o (symbol from plugin)
sonarMaxRangeCm                                   obj/main/NAZE/sensors/sonar.o (symbol from plugin)
sonarMaxTiltCos                                   /tmp/ccGrItoW.ltrans16.ltrans.o
                                                  obj/main/NAZE/sensors/sonar.o (symbol from plugin)
                                                  /tmp/ccGrItoW.ltrans0.ltrans.o
sonarRead                                         /tmp/ccGrItoW.ltrans11.ltrans.o
                                                  obj/main/NAZE/sensors/sonar.o (symbol from plugin)
                                                  /tmp/ccGrItoW.ltrans16.ltrans.o
                                                  /tmp/ccGrItoW.ltrans12.ltrans.o
                                                  obj/main/NAZE/flight/altitudehold.o (symbol from plugin)
                                                  obj/main/NAZE/blackbox/blackbox.o (symbol from plugin)
sonarUpdate                                       obj/main/NAZE/sensors/sonar.o (symbol from plugin)
                                                  obj/main/NAZE/fc/cleanflight_fc.o (symbol from plugin)
specialColors_Registry                            /tmp/ccGrItoW.ltrans1.ltrans.o
                                                  obj/main/NAZE/io/ledstrip.o (symbol from plugin)
specialColors_System                              /tmp/ccGrItoW.ltrans1.ltrans.o
                                                  obj/main/NAZE/io/ledstrip.o (symbol from plugin)
                                                  /tmp/ccGrItoW.ltrans29.ltrans.o
                                                  /tmp/ccGrItoW.ltrans11.ltrans.o
                                                  /tmp/ccGrItoW.ltrans7.ltrans.o
                                                  obj/main/NAZE/io/serial_cli.o (symbol from plugin)
                                                  obj/main/NAZE/fc/msp_server_fc.o (symbol from plugin)
spekHiRes.lto_priv.213                            /tmp/ccGrItoW.ltrans20.ltrans.o
                                                  /tmp/ccGrItoW.ltrans10.ltrans.o
spekShouldBind                                    obj/main/NAZE/rx/spektrum.o (symbol from plugin)
spek_chan_mask.lto_priv.216                       /tmp/ccGrItoW.ltrans20.ltrans.o
                                                  /tmp/ccGrItoW.ltrans10.ltrans.o
spek_chan_shift.lto_priv.214                      /tmp/ccGrItoW.ltrans20.ltrans.o
                                                  /tmp/ccGrItoW.ltrans10.ltrans.o
spektrumBind                                      obj/main/NAZE/rx/spektrum.o (symbol from plugin)
                                                  obj/main/NAZE/fc/boot.o (symbol from plugin)
spektrumDataReceive.lto_priv.172                  /tmp/ccGrItoW.ltrans10.ltrans.o
                                                  /tmp/ccGrItoW.ltrans20.ltrans.o
spektrumFrameStatus                               /tmp/ccGrItoW.ltrans10.ltrans.o
                                                  obj/main/NAZE/rx/spektrum.o (symbol from plugin)
                                                  /tmp/ccGrItoW.ltrans23.ltrans.o
                                                  /tmp/ccGrItoW.ltrans20.ltrans.o
                                                  obj/main/NAZE/rx/rx.o (symbol from plugin)
spektrumInit                                      obj/main/NAZE/rx/spektrum.o (symbol from plugin)
                                                  obj/main/NAZE/rx/rx.o (symbol from plugin)
spektrumInit.constprop.41                         /tmp/ccGrItoW.ltrans20.ltrans.o
                                                  /tmp/ccGrItoW.ltrans0.ltrans.o
spektrumReadRawRC.lto_priv.171                    /tmp/ccGrItoW.ltrans10.ltrans.o
                                                  /tmp/ccGrItoW.ltrans20.ltrans.o
spiInit                                           obj/main/NAZE/drivers/bus_spi.o (symbol from plugin)
                                                  obj/main/NAZE/fc/boot.o (symbol from plugin)
spiIsBusBusy                                      obj/main/NAZE/drivers/bus_spi.o (symbol from plugin)
spiSetDivisor                                     obj/main/NAZE/drivers/bus_spi.o (symbol from plugin)
                                                  obj/main/NAZE/drivers/flash_m25p16.o (symbol from plugin)
                                                  obj/main/NAZE/drivers/accgyro_spi_mpu6500.o (symbol from plugin)
spiTransfer                                       obj/main/NAZE/drivers/bus_spi.o (symbol from plugin)
                                                  obj/main/NAZE/hardware_revision.o (symbol from plugin)
                                                  obj/main/NAZE/drivers/flash_m25p16.o (symbol from plugin)
                                                  obj/main/NAZE/drivers/accgyro_spi_mpu6500.o (symbol from plugin)
spiTransfer.constprop.139                         /tmp/ccGrItoW.ltrans20.ltrans.o
                                                  /tmp/ccGrItoW.ltrans26.ltrans.o
                                                  /tmp/ccGrItoW.ltrans14.ltrans.o
                                                  /tmp/ccGrItoW.ltrans6.ltrans.o
                                                  /tmp/ccGrItoW.ltrans0.ltrans.o
spiTransferByte                                   obj/main/NAZE/drivers/bus_spi.o (symbol from plugin)
                                                  obj/main/NAZE/hardware_revision.o (symbol from plugin)
                                                  obj/main/NAZE/drivers/flash_m25p16.o (symbol from plugin)
                                                  obj/main/NAZE/drivers/accgyro_spi_mpu6500.o (symbol from plugin)
spiTransferByte.constprop.137                     /tmp/ccGrItoW.ltrans20.ltrans.o
                                                  /tmp/ccGrItoW.ltrans26.ltrans.o
                                                  /tmp/ccGrItoW.ltrans14.ltrans.o
                                                  /tmp/ccGrItoW.ltrans0.ltrans.o
sqrtf                                             /usr/lib/gcc/arm-none-eabi/4.9.3/../../../arm-none-eabi/lib/armv7-m/libm.a(lib_a-wf_sqrt.o)
                                                  /tmp/ccGrItoW.ltrans25.ltrans.o
                                                  /tmp/ccGrItoW.ltrans24.ltrans.o
                                                  /tmp/ccGrItoW.ltrans21.ltrans.o
                                                  /tmp/ccGrItoW.ltrans14.ltrans.o
srxlChannelCount.lto_priv.435                     /tmp/ccGrItoW.ltrans10.ltrans.o
                                                  /tmp/ccGrItoW.ltrans0.ltrans.o
srxlDataIncoming.lto_priv.432                     /tmp/ccGrItoW.ltrans10.ltrans.o
                                                  /tmp/ccGrItoW.ltrans0.ltrans.o
srxlDataReceive.lto_priv.437                      /tmp/ccGrItoW.ltrans10.ltrans.o
                                                  /tmp/ccGrItoW.ltrans0.ltrans.o
srxlFrameLength.lto_priv.434                      /tmp/ccGrItoW.ltrans10.ltrans.o
                                                  /tmp/ccGrItoW.ltrans0.ltrans.o
srxlFramePosition.lto_priv.433                    /tmp/ccGrItoW.ltrans10.ltrans.o
                                                  /tmp/ccGrItoW.ltrans0.ltrans.o
srxlFrameReceived.lto_priv.431                    /tmp/ccGrItoW.ltrans10.ltrans.o
                                                  /tmp/ccGrItoW.ltrans0.ltrans.o
srxlFrameStatus                                   /tmp/ccGrItoW.ltrans10.ltrans.o
                                                  obj/main/NAZE/rx/srxl.o (symbol from plugin)
                                                  /tmp/ccGrItoW.ltrans23.ltrans.o
                                                  /tmp/ccGrItoW.ltrans0.ltrans.o
                                                  obj/main/NAZE/rx/rx.o (symbol from plugin)
srxlInit                                          obj/main/NAZE/rx/srxl.o (symbol from plugin)
                                                  obj/main/NAZE/rx/rx.o (symbol from plugin)
srxlReadRawRC.lto_priv.436                        /tmp/ccGrItoW.ltrans10.ltrans.o
                                                  /tmp/ccGrItoW.ltrans0.ltrans.o
standardBoardAlignment.lto_priv.449               /tmp/ccGrItoW.ltrans10.ltrans.o
                                                  /tmp/ccGrItoW.ltrans0.ltrans.o
startBlackbox                                     obj/main/NAZE/blackbox/blackbox.o (symbol from plugin)
                                                  obj/main/NAZE/fc/cleanflight_fc.o (symbol from plugin)
stateFlags                                        /tmp/ccGrItoW.ltrans1.ltrans.o
                                                  obj/main/NAZE/fc/runtime_config.o (symbol from plugin)
                                                  /tmp/ccGrItoW.ltrans24.ltrans.o
                                                  /tmp/ccGrItoW.ltrans23.ltrans.o
                                                  /tmp/ccGrItoW.ltrans22.ltrans.o
                                                  /tmp/ccGrItoW.ltrans21.ltrans.o
                                                  /tmp/ccGrItoW.ltrans16.ltrans.o
                                                  /tmp/ccGrItoW.ltrans14.ltrans.o
                                                  /tmp/ccGrItoW.ltrans12.ltrans.o
                                                  /tmp/ccGrItoW.ltrans11.ltrans.o
                                                  /tmp/ccGrItoW.ltrans9.ltrans.o
                                                  /tmp/ccGrItoW.ltrans4.ltrans.o
                                                  /tmp/ccGrItoW.ltrans3.ltrans.o
                                                  /tmp/ccGrItoW.ltrans2.ltrans.o
                                                  /tmp/ccGrItoW.ltrans0.ltrans.o
                                                  obj/main/NAZE/sensors/compass.o (symbol from plugin)
                                                  obj/main/NAZE/io/beeper.o (symbol from plugin)
                                                  obj/main/NAZE/flight/servos.o (symbol from plugin)
                                                  obj/main/NAZE/flight/imu.o (symbol from plugin)
                                                  obj/main/NAZE/flight/pid_mw23.o (symbol from plugin)
                                                  obj/main/NAZE/flight/pid_mwrewrite.o (symbol from plugin)
                                                  obj/main/NAZE/flight/pid_luxfloat.o (symbol from plugin)
                                                  obj/main/NAZE/flight/altitudehold.o (symbol from plugin)
                                                  obj/main/NAZE/fc/msp_server_fc.o (symbol from plugin)
                                                  obj/main/NAZE/fc/rc_controls.o (symbol from plugin)
                                                  obj/main/NAZE/fc/cleanflight_fc.o (symbol from plugin)
                                                  obj/main/NAZE/fc/boot.o (symbol from plugin)
                                                  obj/main/NAZE/blackbox/blackbox.o (symbol from plugin)
                                                  obj/main/NAZE/telemetry/mavlink.o (symbol from plugin)
                                                  obj/main/NAZE/telemetry/ltm.o (symbol from plugin)
                                                  obj/main/NAZE/telemetry/smartport.o (symbol from plugin)
                                                  obj/main/NAZE/telemetry/hott.o (symbol from plugin)
                                                  obj/main/NAZE/telemetry/frsky.o (symbol from plugin)
                                                  obj/main/NAZE/io/ledstrip.o (symbol from plugin)
                                                  obj/main/NAZE/io/gps.o (symbol from plugin)
                                                  obj/main/NAZE/flight/navigation.o (symbol from plugin)
stdout_putf.lto_priv.465                          /tmp/ccGrItoW.ltrans25.ltrans.o
                                                  /tmp/ccGrItoW.ltrans0.ltrans.o
stdout_putp.lto_priv.467                          /tmp/ccGrItoW.ltrans25.ltrans.o
                                                  /tmp/ccGrItoW.ltrans0.ltrans.o
stkInBuf.lto_priv.265                             /tmp/ccGrItoW.ltrans17.ltrans.o
                                                  /tmp/ccGrItoW.ltrans19.ltrans.o
stopMotors                                        /tmp/ccGrItoW.ltrans9.ltrans.o
                                                  obj/main/NAZE/flight/mixer.o (symbol from plugin)
                                                  /tmp/ccGrItoW.ltrans27.ltrans.o
                                                  /tmp/ccGrItoW.ltrans21.ltrans.o
                                                  /tmp/ccGrItoW.ltrans8.ltrans.o
                                                  obj/main/NAZE/io/serial_cli.o (symbol from plugin)
                                                  obj/main/NAZE/fc/msp_server_fc.o (symbol from plugin)
                                                  obj/main/NAZE/fc/boot.o (symbol from plugin)
strcasecmp                                        /usr/lib/gcc/arm-none-eabi/4.9.3/../../../arm-none-eabi/lib/armv7-m/libc_nano.a(lib_a-strcasecmp.o)
                                                  /tmp/ccGrItoW.ltrans27.ltrans.o
                                                  /tmp/ccGrItoW.ltrans7.ltrans.o
strcat                                            /usr/lib/gcc/arm-none-eabi/4.9.3/../../../arm-none-eabi/lib/armv7-m/libc_nano.a(lib_a-strcat.o)
                                                  /tmp/ccGrItoW.ltrans18.ltrans.o
strchr                                            /usr/lib/gcc/arm-none-eabi/4.9.3/../../../arm-none-eabi/lib/armv7-m/libc_nano.a(lib_a-strchr.o)
                                                  /tmp/ccGrItoW.ltrans27.ltrans.o
                                                  /tmp/ccGrItoW.ltrans23.ltrans.o
                                                  /tmp/ccGrItoW.ltrans20.ltrans.o
                                                  /tmp/ccGrItoW.ltrans17.ltrans.o
                                                  /tmp/ccGrItoW.ltrans7.ltrans.o
string.8253.lto_priv.527                          /tmp/ccGrItoW.ltrans20.ltrans.o
                                                  /tmp/ccGrItoW.ltrans14.ltrans.o
strlen                                            /usr/lib/gcc/arm-none-eabi/4.9.3/../../../arm-none-eabi/lib/armv7-m/libc_nano.a(lib_a-strlen.o)
                                                  /tmp/ccGrItoW.ltrans30.ltrans.o
                                                  /tmp/ccGrItoW.ltrans27.ltrans.o
                                                  /tmp/ccGrItoW.ltrans23.ltrans.o
                                                  /tmp/ccGrItoW.ltrans18.ltrans.o
                                                  /tmp/ccGrItoW.ltrans17.ltrans.o
                                                  /tmp/ccGrItoW.ltrans12.ltrans.o
                                                  /tmp/ccGrItoW.ltrans7.ltrans.o
                                                  /tmp/ccGrItoW.ltrans1.ltrans.o
strncasecmp                                       /usr/lib/gcc/arm-none-eabi/4.9.3/../../../arm-none-eabi/lib/armv7-m/libc_nano.a(lib_a-strncasecmp.o)
                                                  /tmp/ccGrItoW.ltrans27.ltrans.o
                                                  /tmp/ccGrItoW.ltrans23.ltrans.o
                                                  /tmp/ccGrItoW.ltrans17.ltrans.o
                                                  /tmp/ccGrItoW.ltrans7.ltrans.o
strncpy                                           /usr/lib/gcc/arm-none-eabi/4.9.3/../../../arm-none-eabi/lib/armv7-m/libc_nano.a(lib_a-strncpy.o)
                                                  /tmp/ccGrItoW.ltrans18.ltrans.o
strstr                                            /usr/lib/gcc/arm-none-eabi/4.9.3/../../../arm-none-eabi/lib/armv7-m/libc_nano.a(lib_a-strstr.o)
                                                  /tmp/ccGrItoW.ltrans27.ltrans.o
                                                  /tmp/ccGrItoW.ltrans17.ltrans.o
strtok                                            /usr/lib/gcc/arm-none-eabi/4.9.3/../../../arm-none-eabi/lib/armv7-m/libc_nano.a(lib_a-strtok.o)
                                                  /tmp/ccGrItoW.ltrans17.ltrans.o
                                                  /tmp/ccGrItoW.ltrans7.ltrans.o
                                                  obj/main/NAZE/io/serial_cli.o (symbol from plugin)
strtok_r                                          /usr/lib/gcc/arm-none-eabi/4.9.3/../../../arm-none-eabi/lib/armv7-m/libc_nano.a(lib_a-strtok_r.o)
                                                  /tmp/ccGrItoW.ltrans27.ltrans.o
                                                  obj/main/NAZE/io/serial_cli.o (symbol from plugin)
strtol                                            /usr/lib/gcc/arm-none-eabi/4.9.3/../../../arm-none-eabi/lib/armv7-m/libc_nano.a(lib_a-strtol.o)
                                                  /usr/lib/gcc/arm-none-eabi/4.9.3/../../../arm-none-eabi/lib/armv7-m/libc_nano.a(lib_a-atoi.o)
suart_getc.lto_priv.275                           /tmp/ccGrItoW.ltrans28.ltrans.o
                                                  /tmp/ccGrItoW.ltrans19.ltrans.o
subTaskMainSubprocesses                           obj/main/NAZE/fc/cleanflight_fc.o (symbol from plugin)
subTaskMotorUpdate                                obj/main/NAZE/fc/cleanflight_fc.o (symbol from plugin)
subTaskPidController                              obj/main/NAZE/fc/cleanflight_fc.o (symbol from plugin)
sumdDataReceive.lto_priv.428                      /tmp/ccGrItoW.ltrans10.ltrans.o
                                                  /tmp/ccGrItoW.ltrans0.ltrans.o
sumdFrameStatus                                   /tmp/ccGrItoW.ltrans10.ltrans.o
                                                  obj/main/NAZE/rx/sumd.o (symbol from plugin)
                                                  /tmp/ccGrItoW.ltrans23.ltrans.o
                                                  /tmp/ccGrItoW.ltrans0.ltrans.o
                                                  obj/main/NAZE/rx/rx.o (symbol from plugin)
sumdInit                                          obj/main/NAZE/rx/sumd.o (symbol from plugin)
                                                  obj/main/NAZE/rx/rx.o (symbol from plugin)
sumdReadRawRC.lto_priv.427                        /tmp/ccGrItoW.ltrans10.ltrans.o
                                                  /tmp/ccGrItoW.ltrans0.ltrans.o
sumhDataReceive.lto_priv.430                      /tmp/ccGrItoW.ltrans10.ltrans.o
                                                  /tmp/ccGrItoW.ltrans0.ltrans.o
sumhFrameStatus                                   /tmp/ccGrItoW.ltrans10.ltrans.o
                                                  obj/main/NAZE/rx/sumh.o (symbol from plugin)
                                                  /tmp/ccGrItoW.ltrans23.ltrans.o
                                                  /tmp/ccGrItoW.ltrans0.ltrans.o
                                                  obj/main/NAZE/rx/rx.o (symbol from plugin)
sumhInit                                          obj/main/NAZE/rx/sumh.o (symbol from plugin)
                                                  obj/main/NAZE/rx/rx.o (symbol from plugin)
sumhReadRawRC.lto_priv.429                        /tmp/ccGrItoW.ltrans10.ltrans.o
                                                  /tmp/ccGrItoW.ltrans0.ltrans.o
suspendRxSignal                                   /tmp/ccGrItoW.ltrans10.ltrans.o
                                                  obj/main/NAZE/rx/rx.o (symbol from plugin)
                                                  /tmp/ccGrItoW.ltrans8.ltrans.o
                                                  obj/main/NAZE/fc/config.o (symbol from plugin)
suspendRxSignalUntil.lto_priv.331                 /tmp/ccGrItoW.ltrans10.ltrans.o
                                                  /tmp/ccGrItoW.ltrans4.ltrans.o
sysTickUptime.lto_priv.180                        /tmp/ccGrItoW.ltrans20.ltrans.o
                                                  /tmp/ccGrItoW.ltrans24.ltrans.o
                                                  /tmp/ccGrItoW.ltrans23.ltrans.o
                                                  /tmp/ccGrItoW.ltrans22.ltrans.o
                                                  /tmp/ccGrItoW.ltrans21.ltrans.o
                                                  /tmp/ccGrItoW.ltrans18.ltrans.o
                                                  /tmp/ccGrItoW.ltrans16.ltrans.o
                                                  /tmp/ccGrItoW.ltrans14.ltrans.o
                                                  /tmp/ccGrItoW.ltrans11.ltrans.o
                                                  /tmp/ccGrItoW.ltrans10.ltrans.o
                                                  /tmp/ccGrItoW.ltrans8.ltrans.o
                                                  /tmp/ccGrItoW.ltrans6.ltrans.o
                                                  /tmp/ccGrItoW.ltrans4.ltrans.o
                                                  /tmp/ccGrItoW.ltrans3.ltrans.o
                                                  /tmp/ccGrItoW.ltrans2.ltrans.o
                                                  /tmp/ccGrItoW.ltrans0.ltrans.o
systemBeep                                        /tmp/ccGrItoW.ltrans19.ltrans.o
                                                  obj/main/NAZE/drivers/sound_beeper.o (symbol from plugin)
                                                  /tmp/ccGrItoW.ltrans23.ltrans.o
                                                  /tmp/ccGrItoW.ltrans18.ltrans.o
                                                  /tmp/ccGrItoW.ltrans0.ltrans.o
                                                  obj/main/NAZE/drivers/system.o (symbol from plugin)
                                                  obj/main/NAZE/io/beeper.o (symbol from plugin)
                                                  obj/main/NAZE/fc/boot.o (symbol from plugin)
systemBeepPtr                                     /tmp/ccGrItoW.ltrans19.ltrans.o
                                                  obj/main/NAZE/drivers/sound_beeper.o (symbol from plugin)
                                                  /tmp/ccGrItoW.ltrans0.ltrans.o
systemConfig_Registry                             /tmp/ccGrItoW.ltrans0.ltrans.o
                                                  obj/main/NAZE/fc/boot.o (symbol from plugin)
systemConfig_System                               obj/main/NAZE/fc/boot.o (symbol from plugin)
systemInit                                        obj/main/NAZE/drivers/system.o (symbol from plugin)
                                                  obj/main/NAZE/fc/boot.o (symbol from plugin)
systemReset                                       obj/main/NAZE/drivers/system_stm32f10x.o (symbol from plugin)
                                                  obj/main/NAZE/drivers/system.o (symbol from plugin)
                                                  obj/main/NAZE/io/serial_cli.o (symbol from plugin)
                                                  obj/main/NAZE/fc/msp_server_fc.o (symbol from plugin)
systemResetToBootloader                           obj/main/NAZE/drivers/system_stm32f10x.o (symbol from plugin)
                                                  obj/main/NAZE/fc/fc_serial.o (symbol from plugin)
systemState.lto_priv.400                          /tmp/ccGrItoW.ltrans21.ltrans.o
                                                  /tmp/ccGrItoW.ltrans0.ltrans.o
tailAddress.lto_priv.492                          /tmp/ccGrItoW.ltrans0.ltrans.o
                                                  /tmp/ccGrItoW.ltrans30.ltrans.o
                                                  /tmp/ccGrItoW.ltrans14.ltrans.o
targetName                                        obj/main/NAZE/build/version.o (symbol from plugin)
                                                  obj/main/NAZE/io/serial_cli.o (symbol from plugin)
targetPidLooptime                                 /tmp/ccGrItoW.ltrans9.ltrans.o
                                                  obj/main/NAZE/flight/pid.o (symbol from plugin)
                                                  /tmp/ccGrItoW.ltrans21.ltrans.o
                                                  /tmp/ccGrItoW.ltrans8.ltrans.o
                                                  /tmp/ccGrItoW.ltrans2.ltrans.o
                                                  /tmp/ccGrItoW.ltrans0.ltrans.o
                                                  obj/main/NAZE/flight/pid_mwrewrite.o (symbol from plugin)
                                                  obj/main/NAZE/fc/cleanflight_fc.o (symbol from plugin)
                                                  obj/main/NAZE/fc/boot.o (symbol from plugin)
                                                  obj/main/NAZE/blackbox/blackbox_io.o (symbol from plugin)
target_bearing.lto_priv.531                       /tmp/ccGrItoW.ltrans22.ltrans.o
                                                  /tmp/ccGrItoW.ltrans14.ltrans.o
taskCalculateAltitude                             /tmp/ccGrItoW.ltrans16.ltrans.o
                                                  obj/main/NAZE/fc/cleanflight_fc.o (symbol from plugin)
                                                  /tmp/ccGrItoW.ltrans18.ltrans.o
                                                  obj/main/NAZE/fc/fc_tasks.o (symbol from plugin)
taskCount                                         /tmp/ccGrItoW.ltrans18.ltrans.o
                                                  obj/main/NAZE/fc/fc_tasks.o (symbol from plugin)
                                                  obj/main/NAZE/scheduler/scheduler.o (symbol from plugin)
taskGyro                                          /tmp/ccGrItoW.ltrans21.ltrans.o
                                                  obj/main/NAZE/fc/cleanflight_fc.o (symbol from plugin)
                                                  /tmp/ccGrItoW.ltrans18.ltrans.o
                                                  obj/main/NAZE/fc/fc_tasks.o (symbol from plugin)
taskGyroCheck                                     /tmp/ccGrItoW.ltrans21.ltrans.o
                                                  obj/main/NAZE/fc/cleanflight_fc.o (symbol from plugin)
                                                  /tmp/ccGrItoW.ltrans18.ltrans.o
                                                  obj/main/NAZE/fc/fc_tasks.o (symbol from plugin)
taskHandleSerial                                  /tmp/ccGrItoW.ltrans23.ltrans.o
                                                  obj/main/NAZE/fc/cleanflight_fc.o (symbol from plugin)
                                                  /tmp/ccGrItoW.ltrans18.ltrans.o
                                                  obj/main/NAZE/fc/fc_tasks.o (symbol from plugin)
taskLedStrip                                      /tmp/ccGrItoW.ltrans29.ltrans.o
                                                  obj/main/NAZE/fc/cleanflight_fc.o (symbol from plugin)
                                                  /tmp/ccGrItoW.ltrans18.ltrans.o
                                                  obj/main/NAZE/fc/fc_tasks.o (symbol from plugin)
taskPid                                           /tmp/ccGrItoW.ltrans2.ltrans.o
                                                  obj/main/NAZE/fc/cleanflight_fc.o (symbol from plugin)
                                                  /tmp/ccGrItoW.ltrans18.ltrans.o
                                                  obj/main/NAZE/fc/fc_tasks.o (symbol from plugin)
taskPidCheck                                      /tmp/ccGrItoW.ltrans21.ltrans.o
                                                  obj/main/NAZE/fc/cleanflight_fc.o (symbol from plugin)
                                                  /tmp/ccGrItoW.ltrans18.ltrans.o
                                                  obj/main/NAZE/fc/fc_tasks.o (symbol from plugin)
taskProcessGPS                                    /tmp/ccGrItoW.ltrans16.ltrans.o
                                                  obj/main/NAZE/fc/cleanflight_fc.o (symbol from plugin)
                                                  /tmp/ccGrItoW.ltrans18.ltrans.o
                                                  obj/main/NAZE/fc/fc_tasks.o (symbol from plugin)
taskQueueArray                                    /tmp/ccGrItoW.ltrans18.ltrans.o
                                                  obj/main/NAZE/fc/fc_tasks.o (symbol from plugin)
                                                  /tmp/ccGrItoW.ltrans10.ltrans.o
                                                  /tmp/ccGrItoW.ltrans0.ltrans.o
                                                  obj/main/NAZE/scheduler/scheduler.o (symbol from plugin)
taskQueueArraySize                                obj/main/NAZE/fc/fc_tasks.o (symbol from plugin)
                                                  obj/main/NAZE/scheduler/scheduler.o (symbol from plugin)
taskQueueSize.lto_priv.220                        /tmp/ccGrItoW.ltrans18.ltrans.o
                                                  /tmp/ccGrItoW.ltrans10.ltrans.o
                                                  /tmp/ccGrItoW.ltrans0.ltrans.o
taskSystem                                        obj/main/NAZE/scheduler/scheduler.o (symbol from plugin)
                                                  obj/main/NAZE/fc/fc_tasks.o (symbol from plugin)
taskTelemetry                                     /tmp/ccGrItoW.ltrans3.ltrans.o
                                                  obj/main/NAZE/fc/cleanflight_fc.o (symbol from plugin)
                                                  /tmp/ccGrItoW.ltrans18.ltrans.o
                                                  obj/main/NAZE/fc/fc_tasks.o (symbol from plugin)
taskUpdateAccelerometer                           /tmp/ccGrItoW.ltrans24.ltrans.o
                                                  obj/main/NAZE/fc/cleanflight_fc.o (symbol from plugin)
                                                  /tmp/ccGrItoW.ltrans18.ltrans.o
                                                  obj/main/NAZE/fc/fc_tasks.o (symbol from plugin)
taskUpdateAttitude                                /tmp/ccGrItoW.ltrans24.ltrans.o
                                                  obj/main/NAZE/fc/cleanflight_fc.o (symbol from plugin)
                                                  /tmp/ccGrItoW.ltrans18.ltrans.o
                                                  obj/main/NAZE/fc/fc_tasks.o (symbol from plugin)
taskUpdateBaro                                    /tmp/ccGrItoW.ltrans16.ltrans.o
                                                  obj/main/NAZE/fc/cleanflight_fc.o (symbol from plugin)
                                                  /tmp/ccGrItoW.ltrans18.ltrans.o
                                                  obj/main/NAZE/fc/fc_tasks.o (symbol from plugin)
taskUpdateBattery                                 /tmp/ccGrItoW.ltrans23.ltrans.o
                                                  obj/main/NAZE/fc/cleanflight_fc.o (symbol from plugin)
                                                  /tmp/ccGrItoW.ltrans18.ltrans.o
                                                  obj/main/NAZE/fc/fc_tasks.o (symbol from plugin)
taskUpdateBeeper                                  /tmp/ccGrItoW.ltrans23.ltrans.o
                                                  obj/main/NAZE/fc/cleanflight_fc.o (symbol from plugin)
                                                  /tmp/ccGrItoW.ltrans18.ltrans.o
                                                  obj/main/NAZE/fc/fc_tasks.o (symbol from plugin)
taskUpdateCompass                                 /tmp/ccGrItoW.ltrans16.ltrans.o
                                                  obj/main/NAZE/fc/cleanflight_fc.o (symbol from plugin)
                                                  /tmp/ccGrItoW.ltrans18.ltrans.o
                                                  obj/main/NAZE/fc/fc_tasks.o (symbol from plugin)
taskUpdateRxCheck                                 /tmp/ccGrItoW.ltrans23.ltrans.o
                                                  obj/main/NAZE/fc/cleanflight_fc.o (symbol from plugin)
                                                  /tmp/ccGrItoW.ltrans18.ltrans.o
                                                  obj/main/NAZE/fc/fc_tasks.o (symbol from plugin)
taskUpdateRxMain                                  /tmp/ccGrItoW.ltrans4.ltrans.o
                                                  obj/main/NAZE/fc/cleanflight_fc.o (symbol from plugin)
                                                  /tmp/ccGrItoW.ltrans18.ltrans.o
                                                  obj/main/NAZE/fc/fc_tasks.o (symbol from plugin)
taskUpdateSonar                                   /tmp/ccGrItoW.ltrans16.ltrans.o
                                                  obj/main/NAZE/fc/cleanflight_fc.o (symbol from plugin)
                                                  /tmp/ccGrItoW.ltrans18.ltrans.o
                                                  obj/main/NAZE/fc/fc_tasks.o (symbol from plugin)
telemTemperature1                                 obj/main/NAZE/fc/cleanflight_fc.o (symbol from plugin)
telemetryCheckState                               /tmp/ccGrItoW.ltrans11.ltrans.o
                                                  obj/main/NAZE/telemetry/telemetry.o (symbol from plugin)
                                                  /tmp/ccGrItoW.ltrans4.ltrans.o
                                                  /tmp/ccGrItoW.ltrans3.ltrans.o
                                                  /tmp/ccGrItoW.ltrans0.ltrans.o
                                                  obj/main/NAZE/fc/cleanflight_fc.o (symbol from plugin)
telemetryConfig_Registry                          /tmp/ccGrItoW.ltrans3.ltrans.o
                                                  obj/main/NAZE/telemetry/telemetry.o (symbol from plugin)
telemetryConfig_System                            /tmp/ccGrItoW.ltrans3.ltrans.o
                                                  obj/main/NAZE/telemetry/telemetry.o (symbol from plugin)
                                                  /tmp/ccGrItoW.ltrans11.ltrans.o
                                                  /tmp/ccGrItoW.ltrans4.ltrans.o
                                                  /tmp/ccGrItoW.ltrans0.ltrans.o
                                                  obj/main/NAZE/fc/msp_server_fc.o (symbol from plugin)
                                                  obj/main/NAZE/fc/cleanflight_fc.o (symbol from plugin)
                                                  obj/main/NAZE/telemetry/smartport.o (symbol from plugin)
                                                  obj/main/NAZE/telemetry/frsky.o (symbol from plugin)
telemetryDetermineEnabledState                    obj/main/NAZE/telemetry/telemetry.o (symbol from plugin)
                                                  obj/main/NAZE/telemetry/ibus.o (symbol from plugin)
                                                  obj/main/NAZE/telemetry/mavlink.o (symbol from plugin)
                                                  obj/main/NAZE/telemetry/ltm.o (symbol from plugin)
                                                  obj/main/NAZE/telemetry/smartport.o (symbol from plugin)
                                                  obj/main/NAZE/telemetry/hott.o (symbol from plugin)
                                                  obj/main/NAZE/telemetry/frsky.o (symbol from plugin)
telemetryInit                                     obj/main/NAZE/telemetry/telemetry.o (symbol from plugin)
                                                  obj/main/NAZE/fc/boot.o (symbol from plugin)
telemetryProcess                                  obj/main/NAZE/telemetry/telemetry.o (symbol from plugin)
                                                  obj/main/NAZE/fc/cleanflight_fc.o (symbol from plugin)
tfp_format                                        /tmp/ccGrItoW.ltrans25.ltrans.o
                                                  obj/main/NAZE/common/printf.o (symbol from plugin)
                                                  /tmp/ccGrItoW.ltrans30.ltrans.o
                                                  /tmp/ccGrItoW.ltrans27.ltrans.o
                                                  /tmp/ccGrItoW.ltrans20.ltrans.o
                                                  obj/main/NAZE/io/serial_cli.o (symbol from plugin)
                                                  obj/main/NAZE/blackbox/blackbox_io.o (symbol from plugin)
tfp_printf                                        /tmp/ccGrItoW.ltrans25.ltrans.o
                                                  obj/main/NAZE/common/printf.o (symbol from plugin)
                                                  /tmp/ccGrItoW.ltrans17.ltrans.o
                                                  obj/main/NAZE/io/serial_cli.o (symbol from plugin)
tfp_sprintf                                       obj/main/NAZE/common/printf.o (symbol from plugin)
                                                  obj/main/NAZE/io/ledstrip.o (symbol from plugin)
tfp_sprintf.constprop.89                          /tmp/ccGrItoW.ltrans20.ltrans.o
                                                  /tmp/ccGrItoW.ltrans7.ltrans.o
throttleAngleScale                                /tmp/ccGrItoW.ltrans8.ltrans.o
                                                  obj/main/NAZE/flight/imu.o (symbol from plugin)
                                                  /tmp/ccGrItoW.ltrans2.ltrans.o
throttleCorrectionConfig_ProfileCurrent           /tmp/ccGrItoW.ltrans8.ltrans.o
                                                  obj/main/NAZE/flight/imu.o (symbol from plugin)
                                                  /tmp/ccGrItoW.ltrans2.ltrans.o
                                                  obj/main/NAZE/fc/config.o (symbol from plugin)
                                                  obj/main/NAZE/fc/cleanflight_fc.o (symbol from plugin)
throttleCorrectionConfig_Registry                 /tmp/ccGrItoW.ltrans8.ltrans.o
                                                  obj/main/NAZE/flight/imu.o (symbol from plugin)
timCCxHandler.lto_priv.544                        /tmp/ccGrItoW.ltrans15.ltrans.o
                                                  /tmp/ccGrItoW.ltrans14.ltrans.o
timerChCCHandlerInit                              obj/main/NAZE/drivers/timer.o (symbol from plugin)
                                                  obj/main/NAZE/drivers/serial_softserial.o (symbol from plugin)
                                                  obj/main/NAZE/drivers/pwm_rx.o (symbol from plugin)
timerChCCR                                        obj/main/NAZE/drivers/timer.o (symbol from plugin)
timerChCCRHi                                      obj/main/NAZE/drivers/timer.o (symbol from plugin)
timerChCCRLo                                      obj/main/NAZE/drivers/timer.o (symbol from plugin)
timerChClearCCFlag                                obj/main/NAZE/drivers/timer.o (symbol from plugin)
timerChConfigCallbacks                            /tmp/ccGrItoW.ltrans15.ltrans.o
                                                  obj/main/NAZE/drivers/timer.o (symbol from plugin)
                                                  /tmp/ccGrItoW.ltrans0.ltrans.o
                                                  obj/main/NAZE/drivers/serial_softserial.o (symbol from plugin)
                                                  obj/main/NAZE/drivers/pwm_rx.o (symbol from plugin)
timerChConfigCallbacksDual                        obj/main/NAZE/drivers/timer.o (symbol from plugin)
timerChConfigGPIO                                 obj/main/NAZE/drivers/timer.o (symbol from plugin)
timerChConfigIC                                   obj/main/NAZE/drivers/timer.o (symbol from plugin)
timerChConfigICDual                               obj/main/NAZE/drivers/timer.o (symbol from plugin)
timerChConfigOC                                   obj/main/NAZE/drivers/timer.o (symbol from plugin)
timerChICPolarity                                 obj/main/NAZE/drivers/timer.o (symbol from plugin)
timerChITConfig                                   obj/main/NAZE/drivers/timer.o (symbol from plugin)
timerChITConfigDualLo                             obj/main/NAZE/drivers/timer.o (symbol from plugin)
timerChInit                                       obj/main/NAZE/drivers/timer.o (symbol from plugin)
timerChOvrHandlerInit                             obj/main/NAZE/drivers/timer.o (symbol from plugin)
                                                  obj/main/NAZE/drivers/pwm_rx.o (symbol from plugin)
timerChannelInfo                                  obj/main/NAZE/drivers/timer.o (symbol from plugin)
timerConfig                                       /tmp/ccGrItoW.ltrans9.ltrans.o
                                                  obj/main/NAZE/drivers/timer.o (symbol from plugin)
                                                  /tmp/ccGrItoW.ltrans15.ltrans.o
                                                  /tmp/ccGrItoW.ltrans14.ltrans.o
                                                  /tmp/ccGrItoW.ltrans0.ltrans.o
timerConfigure                                    /tmp/ccGrItoW.ltrans15.ltrans.o
                                                  obj/main/NAZE/drivers/timer.o (symbol from plugin)
                                                  /tmp/ccGrItoW.ltrans0.ltrans.o
                                                  obj/main/NAZE/drivers/serial_softserial.o (symbol from plugin)
                                                  obj/main/NAZE/drivers/pwm_rx.o (symbol from plugin)
timerForceOverflow                                obj/main/NAZE/drivers/timer.o (symbol from plugin)
                                                  obj/main/NAZE/drivers/pwm_output.o (symbol from plugin)
timerHardware                                     /tmp/ccGrItoW.ltrans0.ltrans.o
                                                  obj/main/NAZE/drivers/timer.o (symbol from plugin)
                                                  /tmp/ccGrItoW.ltrans15.ltrans.o
                                                  obj/main/NAZE/drivers/serial_softserial.o (symbol from plugin)
                                                  obj/main/NAZE/drivers/pwm_mapping.o (symbol from plugin)
timerInfo                                         obj/main/NAZE/drivers/timer.o (symbol from plugin)
timerInit                                         obj/main/NAZE/drivers/timer.o (symbol from plugin)
                                                  obj/main/NAZE/fc/boot.o (symbol from plugin)
timerNVICConfigure                                obj/main/NAZE/drivers/timer.o (symbol from plugin)
timerStart                                        obj/main/NAZE/drivers/timer.o (symbol from plugin)
                                                  obj/main/NAZE/fc/boot.o (symbol from plugin)
totalWaitingTasks.lto_priv.399                    /tmp/ccGrItoW.ltrans18.ltrans.o
                                                  /tmp/ccGrItoW.ltrans0.ltrans.o
totalWaitingTasksSamples.lto_priv.398             /tmp/ccGrItoW.ltrans18.ltrans.o
                                                  /tmp/ccGrItoW.ltrans0.ltrans.o
transmitIbusPacket.lto_priv.305                   /tmp/ccGrItoW.ltrans11.ltrans.o
                                                  /tmp/ccGrItoW.ltrans3.ltrans.o
uartOpen                                          /tmp/ccGrItoW.ltrans5.ltrans.o
                                                  obj/main/NAZE/drivers/serial_uart.o (symbol from plugin)
                                                  /tmp/ccGrItoW.ltrans18.ltrans.o
                                                  obj/main/NAZE/io/serial.o (symbol from plugin)
uartPort1.lto_priv.558                            /tmp/ccGrItoW.ltrans26.ltrans.o
                                                  /tmp/ccGrItoW.ltrans5.ltrans.o
uartPort2.lto_priv.557                            /tmp/ccGrItoW.ltrans26.ltrans.o
                                                  /tmp/ccGrItoW.ltrans5.ltrans.o
uartPort3.lto_priv.556                            /tmp/ccGrItoW.ltrans26.ltrans.o
                                                  /tmp/ccGrItoW.ltrans5.ltrans.o
uartRead                                          obj/main/NAZE/drivers/serial_uart.o (symbol from plugin)
uartSetBaudRate                                   obj/main/NAZE/drivers/serial_uart.o (symbol from plugin)
uartSetMode                                       obj/main/NAZE/drivers/serial_uart.o (symbol from plugin)
uartStartTxDMA                                    /tmp/ccGrItoW.ltrans5.ltrans.o
                                                  obj/main/NAZE/drivers/serial_uart.o (symbol from plugin)
                                                  /tmp/ccGrItoW.ltrans26.ltrans.o
                                                  obj/main/NAZE/drivers/serial_uart_stm32f10x.o (symbol from plugin)
uartTotalRxBytesWaiting                           obj/main/NAZE/drivers/serial_uart.o (symbol from plugin)
uartTotalTxBytesFree                              obj/main/NAZE/drivers/serial_uart.o (symbol from plugin)
uartVTable                                        obj/main/NAZE/drivers/serial_uart.o (symbol from plugin)
                                                  obj/main/NAZE/drivers/serial_uart_stm32f10x.o (symbol from plugin)
uartWrite                                         obj/main/NAZE/drivers/serial_uart.o (symbol from plugin)
ubs_nav_fix_type                                  obj/main/NAZE/io/gps.o (symbol from plugin)
ubx_nav_status_bits                               obj/main/NAZE/io/gps.o (symbol from plugin)
ubx_protocol_bytes                                obj/main/NAZE/io/gps.o (symbol from plugin)
ug2864hsweg01InitI2C                              obj/main/NAZE/drivers/display_ug2864hsweg01.o (symbol from plugin)
ui2a                                              /tmp/ccGrItoW.ltrans18.ltrans.o
                                                  obj/main/NAZE/common/typeconversion.o (symbol from plugin)
                                                  /tmp/ccGrItoW.ltrans25.ltrans.o
                                                  obj/main/NAZE/common/printf.o (symbol from plugin)
uli2a                                             /tmp/ccGrItoW.ltrans18.ltrans.o
                                                  obj/main/NAZE/common/typeconversion.o (symbol from plugin)
                                                  /tmp/ccGrItoW.ltrans25.ltrans.o
                                                  obj/main/NAZE/common/printf.o (symbol from plugin)
updateAccelerationReadings                        obj/main/NAZE/sensors/acceleration.o (symbol from plugin)
                                                  obj/main/NAZE/flight/imu.o (symbol from plugin)
updateAdjustmentStates                            obj/main/NAZE/fc/rc_adjustments.o (symbol from plugin)
                                                  obj/main/NAZE/fc/cleanflight_fc.o (symbol from plugin)
updateAltHoldState                                obj/main/NAZE/flight/altitudehold.o (symbol from plugin)
                                                  obj/main/NAZE/fc/cleanflight_fc.o (symbol from plugin)
updateCompass                                     obj/main/NAZE/sensors/compass.o (symbol from plugin)
                                                  obj/main/NAZE/fc/cleanflight_fc.o (symbol from plugin)
updateGpsIndicator                                obj/main/NAZE/io/gps.o (symbol from plugin)
                                                  obj/main/NAZE/fc/cleanflight_fc.o (symbol from plugin)
updateGpsStateForHomeAndHoldMode                  obj/main/NAZE/flight/navigation.o (symbol from plugin)
                                                  obj/main/NAZE/fc/cleanflight_fc.o (symbol from plugin)
updateGpsWaypointsAndMode                         obj/main/NAZE/flight/navigation.o (symbol from plugin)
                                                  obj/main/NAZE/fc/cleanflight_fc.o (symbol from plugin)
updateHardwareRevision                            obj/main/NAZE/hardware_revision.o (symbol from plugin)
                                                  obj/main/NAZE/fc/boot.o (symbol from plugin)
updateInflightCalibrationState                    obj/main/NAZE/fc/cleanflight_fc.o (symbol from plugin)
updateLedStrip                                    obj/main/NAZE/io/ledstrip.o (symbol from plugin)
                                                  obj/main/NAZE/fc/cleanflight_fc.o (symbol from plugin)
updateMagHold                                     obj/main/NAZE/fc/cleanflight_fc.o (symbol from plugin)
updateRSSI                                        obj/main/NAZE/rx/rx.o (symbol from plugin)
                                                  obj/main/NAZE/fc/cleanflight_fc.o (symbol from plugin)
updateRSSIADC                                     obj/main/NAZE/rx/rx.o (symbol from plugin)
updateRSSIPWM                                     obj/main/NAZE/rx/rx.o (symbol from plugin)
updateRx                                          obj/main/NAZE/rx/rx.o (symbol from plugin)
                                                  obj/main/NAZE/fc/cleanflight_fc.o (symbol from plugin)
updateSonarAltHoldState                           obj/main/NAZE/flight/altitudehold.o (symbol from plugin)
                                                  obj/main/NAZE/fc/cleanflight_fc.o (symbol from plugin)
usTicks.lto_priv.464                              /tmp/ccGrItoW.ltrans18.ltrans.o
                                                  /tmp/ccGrItoW.ltrans0.ltrans.o
usartInitAllIOSignals                             obj/main/NAZE/drivers/serial_uart.o (symbol from plugin)
                                                  obj/main/NAZE/drivers/system.o (symbol from plugin)
usartIrqHandler                                   /tmp/ccGrItoW.ltrans5.ltrans.o
                                                  obj/main/NAZE/drivers/serial_uart_stm32f10x.o (symbol from plugin)
                                                  /tmp/ccGrItoW.ltrans26.ltrans.o
useFailsafeConfig                                 obj/main/NAZE/flight/failsafe.o (symbol from plugin)
                                                  obj/main/NAZE/fc/config.o (symbol from plugin)
useFifo.lto_priv.555                              /tmp/ccGrItoW.ltrans13.ltrans.o
                                                  /tmp/ccGrItoW.ltrans26.ltrans.o
useRcControlsConfig                               obj/main/NAZE/fc/rc_controls.o (symbol from plugin)
                                                  obj/main/NAZE/fc/msp_server_fc.o (symbol from plugin)
                                                  obj/main/NAZE/fc/config.o (symbol from plugin)
usedTimers                                        obj/main/NAZE/drivers/timer.o (symbol from plugin)
valueTable                                        /tmp/ccGrItoW.ltrans27.ltrans.o
                                                  obj/main/NAZE/io/serial_cli.o (symbol from plugin)
                                                  /tmp/ccGrItoW.ltrans7.ltrans.o
vario                                             /tmp/ccGrItoW.ltrans1.ltrans.o
                                                  obj/main/NAZE/flight/altitudehold.o (symbol from plugin)
                                                  /tmp/ccGrItoW.ltrans16.ltrans.o
                                                  /tmp/ccGrItoW.ltrans3.ltrans.o
                                                  obj/main/NAZE/fc/msp_server_fc.o (symbol from plugin)
                                                  obj/main/NAZE/telemetry/smartport.o (symbol from plugin)
                                                  obj/main/NAZE/telemetry/frsky.o (symbol from plugin)
vbat                                              /tmp/ccGrItoW.ltrans1.ltrans.o
                                                  obj/main/NAZE/sensors/battery.o (symbol from plugin)
                                                  /tmp/ccGrItoW.ltrans23.ltrans.o
                                                  /tmp/ccGrItoW.ltrans10.ltrans.o
                                                  /tmp/ccGrItoW.ltrans3.ltrans.o
                                                  obj/main/NAZE/io/serial_cli.o (symbol from plugin)
                                                  obj/main/NAZE/fc/msp_server_fc.o (symbol from plugin)
                                                  obj/main/NAZE/telemetry/ibus.o (symbol from plugin)
                                                  obj/main/NAZE/telemetry/mavlink.o (symbol from plugin)
                                                  obj/main/NAZE/telemetry/ltm.o (symbol from plugin)
                                                  obj/main/NAZE/telemetry/smartport.o (symbol from plugin)
                                                  obj/main/NAZE/telemetry/hott.o (symbol from plugin)
                                                  obj/main/NAZE/telemetry/frsky.o (symbol from plugin)
vbatReference.lto_priv.385                        /tmp/ccGrItoW.ltrans2.ltrans.o
                                                  /tmp/ccGrItoW.ltrans21.ltrans.o
                                                  /tmp/ccGrItoW.ltrans12.ltrans.o
velocityControl                                   /tmp/ccGrItoW.ltrans16.ltrans.o
                                                  obj/main/NAZE/flight/altitudehold.o (symbol from plugin)
                                                  /tmp/ccGrItoW.ltrans2.ltrans.o
voltageMeterConfig_Registry                       /tmp/ccGrItoW.ltrans20.ltrans.o
                                                  obj/main/NAZE/sensors/voltage.o (symbol from plugin)
voltageMeterConfig_SystemArray                    /tmp/ccGrItoW.ltrans20.ltrans.o
                                                  obj/main/NAZE/sensors/voltage.o (symbol from plugin)
                                                  /tmp/ccGrItoW.ltrans10.ltrans.o
                                                  /tmp/ccGrItoW.ltrans2.ltrans.o
                                                  /tmp/ccGrItoW.ltrans1.ltrans.o
                                                  obj/main/NAZE/fc/msp_server_fc.o (symbol from plugin)
voltageMeterInit                                  obj/main/NAZE/sensors/voltage.o (symbol from plugin)
                                                  obj/main/NAZE/fc/boot.o (symbol from plugin)
voltageMeterStates                                /tmp/ccGrItoW.ltrans20.ltrans.o
                                                  obj/main/NAZE/sensors/voltage.o (symbol from plugin)
                                                  /tmp/ccGrItoW.ltrans23.ltrans.o
                                                  /tmp/ccGrItoW.ltrans10.ltrans.o
                                                  /tmp/ccGrItoW.ltrans1.ltrans.o
                                                  /tmp/ccGrItoW.ltrans0.ltrans.o
voltageMeterUpdate                                /tmp/ccGrItoW.ltrans10.ltrans.o
                                                  obj/main/NAZE/sensors/voltage.o (symbol from plugin)
                                                  /tmp/ccGrItoW.ltrans23.ltrans.o
                                                  obj/main/NAZE/sensors/battery.o (symbol from plugin)
                                                  obj/main/NAZE/fc/cleanflight_fc.o (symbol from plugin)
waitForSerialPortToFinishTransmitting             /tmp/ccGrItoW.ltrans18.ltrans.o
                                                  obj/main/NAZE/io/serial.o (symbol from plugin)
                                                  /tmp/ccGrItoW.ltrans27.ltrans.o
                                                  /tmp/ccGrItoW.ltrans20.ltrans.o
                                                  /tmp/ccGrItoW.ltrans8.ltrans.o
                                                  obj/main/NAZE/io/serial_cli.o (symbol from plugin)
                                                  obj/main/NAZE/fc/msp_server_fc.o (symbol from plugin)
                                                  obj/main/NAZE/io/gps.o (symbol from plugin)
warningLedBeeper                                  obj/main/NAZE/io/statusindicator.o (symbol from plugin)
                                                  obj/main/NAZE/io/beeper.o (symbol from plugin)
warningLedCode                                    obj/main/NAZE/io/statusindicator.o (symbol from plugin)
warningLedPulse                                   obj/main/NAZE/io/statusindicator.o (symbol from plugin)
warningLedRefresh                                 obj/main/NAZE/io/statusindicator.o (symbol from plugin)
warningLedSetBlinkMask                            obj/main/NAZE/io/statusindicator.o (symbol from plugin)
                                                  obj/main/NAZE/fc/cleanflight_fc.o (symbol from plugin)
warningLedUpdate                                  obj/main/NAZE/io/statusindicator.o (symbol from plugin)
                                                  obj/main/NAZE/fc/cleanflight_fc.o (symbol from plugin)
waypoint_speed_gov.lto_priv.534                   /tmp/ccGrItoW.ltrans22.ltrans.o
                                                  /tmp/ccGrItoW.ltrans14.ltrans.o
workAroundForHottTelemetryOnUsart.isra.0.lto_priv.315 /tmp/ccGrItoW.ltrans11.ltrans.o
                                                  /tmp/ccGrItoW.ltrans3.ltrans.o
wp_distance.lto_priv.530                          /tmp/ccGrItoW.ltrans22.ltrans.o
                                                  /tmp/ccGrItoW.ltrans14.ltrans.o
wrap_18000.lto_priv.379                           /tmp/ccGrItoW.ltrans14.ltrans.o
                                                  /tmp/ccGrItoW.ltrans22.ltrans.o
                                                  /tmp/ccGrItoW.ltrans2.ltrans.o
writeAllMotors                                    obj/main/NAZE/flight/mixer.o (symbol from plugin)
writeConfigToEEPROM                               obj/main/NAZE/config/config_eeprom.o (symbol from plugin)
                                                  obj/main/NAZE/fc/config.o (symbol from plugin)
writeEEPROM                                       /tmp/ccGrItoW.ltrans8.ltrans.o
                                                  obj/main/NAZE/fc/config.o (symbol from plugin)
                                                  /tmp/ccGrItoW.ltrans27.ltrans.o
                                                  /tmp/ccGrItoW.ltrans1.ltrans.o
                                                  /tmp/ccGrItoW.ltrans0.ltrans.o
                                                  obj/main/NAZE/io/serial_cli.o (symbol from plugin)
                                                  obj/main/NAZE/fc/msp_server_fc.o (symbol from plugin)
writeMotors                                       /tmp/ccGrItoW.ltrans9.ltrans.o
                                                  obj/main/NAZE/flight/mixer.o (symbol from plugin)
                                                  /tmp/ccGrItoW.ltrans2.ltrans.o
                                                  obj/main/NAZE/fc/cleanflight_fc.o (symbol from plugin)
writeServos                                       obj/main/NAZE/flight/servos.o (symbol from plugin)
                                                  obj/main/NAZE/fc/cleanflight_fc.o (symbol from plugin)
write_word.lto_priv.289                           /tmp/ccGrItoW.ltrans25.ltrans.o
                                                  /tmp/ccGrItoW.ltrans8.ltrans.o
ws2811DMAHandler                                  /tmp/ccGrItoW.ltrans6.ltrans.o
                                                  obj/main/NAZE/drivers/light_ws2811strip.o (symbol from plugin)
                                                  /tmp/ccGrItoW.ltrans0.ltrans.o
ws2811LedDataTransferInProgress                   /tmp/ccGrItoW.ltrans29.ltrans.o
                                                  obj/main/NAZE/drivers/light_ws2811strip.o (symbol from plugin)
                                                  /tmp/ccGrItoW.ltrans6.ltrans.o
ws2811LedStripDMAEnable                           obj/main/NAZE/drivers/light_ws2811strip_stm32f10x.o (symbol from plugin)
                                                  obj/main/NAZE/drivers/light_ws2811strip.o (symbol from plugin)
ws2811LedStripHardwareInit                        obj/main/NAZE/drivers/light_ws2811strip_stm32f10x.o (symbol from plugin)
                                                  obj/main/NAZE/drivers/light_ws2811strip.o (symbol from plugin)
ws2811LedStripInit                                obj/main/NAZE/drivers/light_ws2811strip.o (symbol from plugin)
                                                  obj/main/NAZE/io/ledstrip.o (symbol from plugin)
ws2811UpdateStrip                                 /tmp/ccGrItoW.ltrans6.ltrans.o
                                                  obj/main/NAZE/drivers/light_ws2811strip.o (symbol from plugin)
                                                  /tmp/ccGrItoW.ltrans29.ltrans.o
                                                  /tmp/ccGrItoW.ltrans0.ltrans.o
                                                  obj/main/NAZE/io/ledstrip.o (symbol from plugin)
                                                  obj/main/NAZE/drivers/light_ws2811strip_stm32f10x.o (symbol from plugin)
xBusCRC8                                          obj/main/NAZE/rx/xbus.o (symbol from plugin)
xBusChannelCount.lto_priv.442                     /tmp/ccGrItoW.ltrans10.ltrans.o
                                                  /tmp/ccGrItoW.ltrans0.ltrans.o
xBusDataIncoming.lto_priv.440                     /tmp/ccGrItoW.ltrans10.ltrans.o
                                                  /tmp/ccGrItoW.ltrans0.ltrans.o
xBusDataReceive.lto_priv.443                      /tmp/ccGrItoW.ltrans10.ltrans.o
                                                  /tmp/ccGrItoW.ltrans0.ltrans.o
xBusFramePosition.lto_priv.441                    /tmp/ccGrItoW.ltrans10.ltrans.o
                                                  /tmp/ccGrItoW.ltrans0.ltrans.o
xBusFrameReceived.lto_priv.439                    /tmp/ccGrItoW.ltrans10.ltrans.o
                                                  /tmp/ccGrItoW.ltrans0.ltrans.o
xBusFrameStatus                                   /tmp/ccGrItoW.ltrans10.ltrans.o
                                                  obj/main/NAZE/rx/xbus.o (symbol from plugin)
                                                  /tmp/ccGrItoW.ltrans23.ltrans.o
                                                  /tmp/ccGrItoW.ltrans0.ltrans.o
                                                  obj/main/NAZE/rx/rx.o (symbol from plugin)
xBusInit                                          obj/main/NAZE/rx/xbus.o (symbol from plugin)
                                                  obj/main/NAZE/rx/rx.o (symbol from plugin)
xBusReadRawRC.lto_priv.438                        /tmp/ccGrItoW.ltrans10.ltrans.o
                                                  /tmp/ccGrItoW.ltrans0.ltrans.o
xmitState.lto_priv.392                            /tmp/ccGrItoW.ltrans2.ltrans.o
                                                  /tmp/ccGrItoW.ltrans21.ltrans.o
                                                  /tmp/ccGrItoW.ltrans12.ltrans.o
yawFilter                                         obj/main/NAZE/flight/pid.o (symbol from plugin)
                                                  obj/main/NAZE/flight/pid_mwrewrite.o (symbol from plugin)
                                                  obj/main/NAZE/flight/pid_luxfloat.o (symbol from plugin)
zigzagEncode                                      obj/main/NAZE/common/encoding.o (symbol from plugin)
                                                  obj/main/NAZE/blackbox/blackbox_io.o (symbol from plugin)
