Archive member included to satisfy reference by file (symbol)

/usr/lib/gcc/arm-none-eabi/4.9.3/../../../arm-none-eabi/lib/armv7-m/libc_nano.a(lib_a-atoi.o)
                              obj/main/NAZE/io/ledstrip.o (symbol from plugin) (atoi)
/usr/lib/gcc/arm-none-eabi/4.9.3/../../../arm-none-eabi/lib/armv7-m/libc_nano.a(lib_a-ctype_.o)
                              obj/main/NAZE/flight/gps_conversion.o (symbol from plugin) (__ctype_ptr__)
/usr/lib/gcc/arm-none-eabi/4.9.3/../../../arm-none-eabi/lib/armv7-m/libc_nano.a(lib_a-strtok.o)
                              obj/main/NAZE/io/serial_cli.o (symbol from plugin) (strtok)
/usr/lib/gcc/arm-none-eabi/4.9.3/../../../arm-none-eabi/lib/armv7-m/libc_nano.a(lib_a-strtok_r.o)
                              /usr/lib/gcc/arm-none-eabi/4.9.3/../../../arm-none-eabi/lib/armv7-m/libc_nano.a(lib_a-strtok.o) (__strtok_r)
/usr/lib/gcc/arm-none-eabi/4.9.3/../../../arm-none-eabi/lib/armv7-m/libc_nano.a(lib_a-strtol.o)
                              /usr/lib/gcc/arm-none-eabi/4.9.3/../../../arm-none-eabi/lib/armv7-m/libc_nano.a(lib_a-atoi.o) (_strtol_r)
/usr/lib/gcc/arm-none-eabi/4.9.3/../../../arm-none-eabi/lib/armv7-m/libc_nano.a(lib_a-impure.o)
                              /usr/lib/gcc/arm-none-eabi/4.9.3/../../../arm-none-eabi/lib/armv7-m/libc_nano.a(lib_a-strtok.o) (_impure_ptr)
/usr/lib/gcc/arm-none-eabi/4.9.3/../../../arm-none-eabi/lib/armv7-m/libc_nano.a(lib_a-malloc.o)
                              /usr/lib/gcc/arm-none-eabi/4.9.3/../../../arm-none-eabi/lib/armv7-m/libc_nano.a(lib_a-strtok.o) (malloc)
/usr/lib/gcc/arm-none-eabi/4.9.3/../../../arm-none-eabi/lib/armv7-m/libc_nano.a(lib_a-nano-freer.o)
                              /usr/lib/gcc/arm-none-eabi/4.9.3/../../../arm-none-eabi/lib/armv7-m/libc_nano.a(lib_a-malloc.o) (_free_r)
/usr/lib/gcc/arm-none-eabi/4.9.3/../../../arm-none-eabi/lib/armv7-m/libc_nano.a(lib_a-nano-mallocr.o)
                              /usr/lib/gcc/arm-none-eabi/4.9.3/../../../arm-none-eabi/lib/armv7-m/libc_nano.a(lib_a-malloc.o) (_malloc_r)
/usr/lib/gcc/arm-none-eabi/4.9.3/../../../arm-none-eabi/lib/armv7-m/libc_nano.a(lib_a-sbrkr.o)
                              /usr/lib/gcc/arm-none-eabi/4.9.3/../../../arm-none-eabi/lib/armv7-m/libc_nano.a(lib_a-nano-mallocr.o) (_sbrk_r)
/usr/lib/gcc/arm-none-eabi/4.9.3/../../../arm-none-eabi/lib/armv7-m/libc_nano.a(lib_a-reent.o)
                              /usr/lib/gcc/arm-none-eabi/4.9.3/../../../arm-none-eabi/lib/armv7-m/libc_nano.a(lib_a-sbrkr.o) (errno)
/usr/lib/gcc/arm-none-eabi/4.9.3/../../../arm-none-eabi/lib/armv7-m/libnosys.a(sbrk.o)
                              /usr/lib/gcc/arm-none-eabi/4.9.3/../../../arm-none-eabi/lib/armv7-m/libc_nano.a(lib_a-sbrkr.o) (_sbrk)
/usr/lib/gcc/arm-none-eabi/4.9.3/../../../arm-none-eabi/lib/armv7-m/libm.a(lib_a-sf_lrint.o)
                              /tmp/cc8DLllS.ltrans1.ltrans.o (lrintf)
/usr/lib/gcc/arm-none-eabi/4.9.3/../../../arm-none-eabi/lib/armv7-m/libm.a(lib_a-wf_pow.o)
                              /tmp/cc8DLllS.ltrans19.ltrans.o (powf)
/usr/lib/gcc/arm-none-eabi/4.9.3/../../../arm-none-eabi/lib/armv7-m/libm.a(lib_a-wf_sqrt.o)
                              /tmp/cc8DLllS.ltrans1.ltrans.o (sqrtf)
/usr/lib/gcc/arm-none-eabi/4.9.3/../../../arm-none-eabi/lib/armv7-m/libm.a(lib_a-ef_pow.o)
                              /usr/lib/gcc/arm-none-eabi/4.9.3/../../../arm-none-eabi/lib/armv7-m/libm.a(lib_a-wf_pow.o) (__ieee754_powf)
/usr/lib/gcc/arm-none-eabi/4.9.3/../../../arm-none-eabi/lib/armv7-m/libm.a(lib_a-ef_sqrt.o)
                              /usr/lib/gcc/arm-none-eabi/4.9.3/../../../arm-none-eabi/lib/armv7-m/libm.a(lib_a-wf_sqrt.o) (__ieee754_sqrtf)
/usr/lib/gcc/arm-none-eabi/4.9.3/../../../arm-none-eabi/lib/armv7-m/libm.a(lib_a-s_lib_ver.o)
                              /usr/lib/gcc/arm-none-eabi/4.9.3/../../../arm-none-eabi/lib/armv7-m/libm.a(lib_a-wf_pow.o) (__fdlib_version)
/usr/lib/gcc/arm-none-eabi/4.9.3/../../../arm-none-eabi/lib/armv7-m/libm.a(lib_a-s_matherr.o)
                              /usr/lib/gcc/arm-none-eabi/4.9.3/../../../arm-none-eabi/lib/armv7-m/libm.a(lib_a-wf_pow.o) (matherr)
/usr/lib/gcc/arm-none-eabi/4.9.3/../../../arm-none-eabi/lib/armv7-m/libm.a(lib_a-s_rint.o)
                              /usr/lib/gcc/arm-none-eabi/4.9.3/../../../arm-none-eabi/lib/armv7-m/libm.a(lib_a-wf_pow.o) (rint)
/usr/lib/gcc/arm-none-eabi/4.9.3/../../../arm-none-eabi/lib/armv7-m/libm.a(lib_a-sf_fabs.o)
                              /usr/lib/gcc/arm-none-eabi/4.9.3/../../../arm-none-eabi/lib/armv7-m/libm.a(lib_a-ef_pow.o) (fabsf)
/usr/lib/gcc/arm-none-eabi/4.9.3/../../../arm-none-eabi/lib/armv7-m/libm.a(lib_a-sf_finite.o)
                              /usr/lib/gcc/arm-none-eabi/4.9.3/../../../arm-none-eabi/lib/armv7-m/libm.a(lib_a-wf_pow.o) (finitef)
/usr/lib/gcc/arm-none-eabi/4.9.3/../../../arm-none-eabi/lib/armv7-m/libm.a(lib_a-sf_fpclassify.o)
                              /usr/lib/gcc/arm-none-eabi/4.9.3/../../../arm-none-eabi/lib/armv7-m/libm.a(lib_a-wf_pow.o) (__fpclassifyf)
/usr/lib/gcc/arm-none-eabi/4.9.3/../../../arm-none-eabi/lib/armv7-m/libm.a(lib_a-sf_nan.o)
                              /usr/lib/gcc/arm-none-eabi/4.9.3/../../../arm-none-eabi/lib/armv7-m/libm.a(lib_a-ef_pow.o) (nanf)
/usr/lib/gcc/arm-none-eabi/4.9.3/../../../arm-none-eabi/lib/armv7-m/libm.a(lib_a-sf_scalbn.o)
                              /usr/lib/gcc/arm-none-eabi/4.9.3/../../../arm-none-eabi/lib/armv7-m/libm.a(lib_a-ef_pow.o) (scalbnf)
/usr/lib/gcc/arm-none-eabi/4.9.3/../../../arm-none-eabi/lib/armv7-m/libm.a(lib_a-sf_copysign.o)
                              /usr/lib/gcc/arm-none-eabi/4.9.3/../../../arm-none-eabi/lib/armv7-m/libm.a(lib_a-sf_scalbn.o) (copysignf)
/usr/lib/gcc/arm-none-eabi/4.9.3/../../../arm-none-eabi/lib/armv7-m/libc_nano.a(lib_a-calloc.o)
                              /tmp/cc8DLllS.ltrans25.ltrans.o (calloc)
/usr/lib/gcc/arm-none-eabi/4.9.3/../../../arm-none-eabi/lib/armv7-m/libc_nano.a(lib_a-errno.o)
                              /usr/lib/gcc/arm-none-eabi/4.9.3/../../../arm-none-eabi/lib/armv7-m/libm.a(lib_a-wf_pow.o) (__errno)
/usr/lib/gcc/arm-none-eabi/4.9.3/../../../arm-none-eabi/lib/armv7-m/libc_nano.a(lib_a-memcmp.o)
                              /tmp/cc8DLllS.ltrans11.ltrans.o (memcmp)
/usr/lib/gcc/arm-none-eabi/4.9.3/../../../arm-none-eabi/lib/armv7-m/libc_nano.a(lib_a-memcpy.o)
                              /tmp/cc8DLllS.ltrans6.ltrans.o (memcpy)
/usr/lib/gcc/arm-none-eabi/4.9.3/../../../arm-none-eabi/lib/armv7-m/libc_nano.a(lib_a-memset.o)
                              /tmp/cc8DLllS.ltrans0.ltrans.o (memset)
/usr/lib/gcc/arm-none-eabi/4.9.3/../../../arm-none-eabi/lib/armv7-m/libc_nano.a(lib_a-nano-callocr.o)
                              /usr/lib/gcc/arm-none-eabi/4.9.3/../../../arm-none-eabi/lib/armv7-m/libc_nano.a(lib_a-calloc.o) (_calloc_r)
/usr/lib/gcc/arm-none-eabi/4.9.3/../../../arm-none-eabi/lib/armv7-m/libc_nano.a(lib_a-strcasecmp.o)
                              /tmp/cc8DLllS.ltrans9.ltrans.o (strcasecmp)
/usr/lib/gcc/arm-none-eabi/4.9.3/../../../arm-none-eabi/lib/armv7-m/libc_nano.a(lib_a-strcat.o)
                              /tmp/cc8DLllS.ltrans6.ltrans.o (strcat)
/usr/lib/gcc/arm-none-eabi/4.9.3/../../../arm-none-eabi/lib/armv7-m/libc_nano.a(lib_a-strchr.o)
                              /tmp/cc8DLllS.ltrans2.ltrans.o (strchr)
/usr/lib/gcc/arm-none-eabi/4.9.3/../../../arm-none-eabi/lib/armv7-m/libc_nano.a(lib_a-strcpy.o)
                              /tmp/cc8DLllS.ltrans24.ltrans.o (strcpy)
/usr/lib/gcc/arm-none-eabi/4.9.3/../../../arm-none-eabi/lib/armv7-m/libc_nano.a(lib_a-strlen.o)
                              /tmp/cc8DLllS.ltrans2.ltrans.o (strlen)
/usr/lib/gcc/arm-none-eabi/4.9.3/../../../arm-none-eabi/lib/armv7-m/libc_nano.a(lib_a-strncasecmp.o)
                              /tmp/cc8DLllS.ltrans2.ltrans.o (strncasecmp)
/usr/lib/gcc/arm-none-eabi/4.9.3/../../../arm-none-eabi/lib/armv7-m/libc_nano.a(lib_a-strncpy.o)
                              /tmp/cc8DLllS.ltrans6.ltrans.o (strncpy)
/usr/lib/gcc/arm-none-eabi/4.9.3/../../../arm-none-eabi/lib/armv7-m/libc_nano.a(lib_a-strstr.o)
                              /tmp/cc8DLllS.ltrans9.ltrans.o (strstr)
/usr/lib/gcc/arm-none-eabi/4.9.3/armv7-m/libgcc.a(_arm_addsubdf3.o)
                              /tmp/cc8DLllS.ltrans24.ltrans.o (__aeabi_dsub)
/usr/lib/gcc/arm-none-eabi/4.9.3/armv7-m/libgcc.a(_arm_muldivdf3.o)
                              /tmp/cc8DLllS.ltrans24.ltrans.o (__aeabi_dmul)
/usr/lib/gcc/arm-none-eabi/4.9.3/armv7-m/libgcc.a(_arm_cmpdf2.o)
                              /usr/lib/gcc/arm-none-eabi/4.9.3/../../../arm-none-eabi/lib/armv7-m/libm.a(lib_a-wf_pow.o) (__aeabi_dcmpeq)
/usr/lib/gcc/arm-none-eabi/4.9.3/armv7-m/libgcc.a(_arm_fixunsdfsi.o)
                              /tmp/cc8DLllS.ltrans24.ltrans.o (__aeabi_d2uiz)
/usr/lib/gcc/arm-none-eabi/4.9.3/armv7-m/libgcc.a(_arm_truncdfsf2.o)
                              /tmp/cc8DLllS.ltrans30.ltrans.o (__aeabi_d2f)
/usr/lib/gcc/arm-none-eabi/4.9.3/armv7-m/libgcc.a(_arm_addsubsf3.o)
                              /tmp/cc8DLllS.ltrans0.ltrans.o (__aeabi_fsub)
/usr/lib/gcc/arm-none-eabi/4.9.3/armv7-m/libgcc.a(_arm_muldivsf3.o)
                              /tmp/cc8DLllS.ltrans0.ltrans.o (__aeabi_fmul)
/usr/lib/gcc/arm-none-eabi/4.9.3/armv7-m/libgcc.a(_arm_cmpsf2.o)
                              /tmp/cc8DLllS.ltrans0.ltrans.o (__aeabi_fcmpeq)
/usr/lib/gcc/arm-none-eabi/4.9.3/armv7-m/libgcc.a(_arm_fixsfsi.o)
                              /tmp/cc8DLllS.ltrans1.ltrans.o (__aeabi_f2iz)
/usr/lib/gcc/arm-none-eabi/4.9.3/armv7-m/libgcc.a(_arm_fixunssfsi.o)
                              /tmp/cc8DLllS.ltrans1.ltrans.o (__aeabi_f2uiz)
/usr/lib/gcc/arm-none-eabi/4.9.3/armv7-m/libgcc.a(_aeabi_ldivmod.o)
                              /tmp/cc8DLllS.ltrans4.ltrans.o (__aeabi_ldivmod)
/usr/lib/gcc/arm-none-eabi/4.9.3/armv7-m/libgcc.a(bpabi.o)
                              /usr/lib/gcc/arm-none-eabi/4.9.3/armv7-m/libgcc.a(_aeabi_ldivmod.o) (__gnu_ldivmod_helper)
/usr/lib/gcc/arm-none-eabi/4.9.3/armv7-m/libgcc.a(_dvmd_tls.o)
                              /usr/lib/gcc/arm-none-eabi/4.9.3/armv7-m/libgcc.a(_aeabi_ldivmod.o) (__aeabi_ldiv0)
/usr/lib/gcc/arm-none-eabi/4.9.3/armv7-m/libgcc.a(_divdi3.o)
                              /usr/lib/gcc/arm-none-eabi/4.9.3/armv7-m/libgcc.a(bpabi.o) (__divdi3)
/usr/lib/gcc/arm-none-eabi/4.9.3/armv7-m/libgcc.a(_udivdi3.o)
                              /usr/lib/gcc/arm-none-eabi/4.9.3/armv7-m/libgcc.a(bpabi.o) (__udivdi3)

Allocating common symbols
Common symbol       size              file

timerChannelInfo    0xe               obj/main/NAZE/drivers/timer.o (symbol from plugin)
ledGridWidth        0x1               obj/main/NAZE/io/ledstrip.o (symbol from plugin)
baro_cf_alt         0x4               obj/main/NAZE/sensors/sonar.o (symbol from plugin)
ubx_nav_status_bits
                    0x1               obj/main/NAZE/io/gps.o (symbol from plugin)
softSerialPorts     0x4a0             obj/main/NAZE/drivers/serial_softserial.o (symbol from plugin)
filteredCycleTime   0x2               obj/main/NAZE/mw.o (symbol from plugin)
telemTemperature1   0x2               obj/main/NAZE/mw.o (symbol from plugin)
sonarMaxRangeCm     0x2               obj/main/NAZE/sensors/sonar.o (symbol from plugin)
errno               0x4               /usr/lib/gcc/arm-none-eabi/4.9.3/../../../arm-none-eabi/lib/armv7-m/libc_nano.a(lib_a-reent.o)
rcRaw               0x24              obj/main/NAZE/rx/rx.o (symbol from plugin)
escCount            0x1               obj/main/NAZE/io/serial_1wire.o (symbol from plugin)
ubx_protocol_bytes  0x1               obj/main/NAZE/io/gps.o (symbol from plugin)
inputSource_e       0x1               obj/main/NAZE/telemetry/frsky.o (symbol from plugin)
timerInfo           0x4               obj/main/NAZE/drivers/timer.o (symbol from plugin)
magADCRaw           0x6               obj/main/NAZE/sensors/compass.o (symbol from plugin)
ledsInRingCount     0x1               obj/main/NAZE/io/ledstrip.o (symbol from plugin)
axis                0x4               obj/main/NAZE/sensors/gyro.o (symbol from plugin)
g_i2c_port          0x30              obj/main/NAZE/drivers/bus_i2c.o (symbol from plugin)
dynI8               0x3               obj/main/NAZE/flight/pid.o (symbol from plugin)
sectionTimes        0x20              obj/main/NAZE/debug.o (symbol from plugin)
cachedRccCsrValue   0x4               obj/main/NAZE/drivers/system.o (symbol from plugin)
baro_cf_vel         0x4               obj/main/NAZE/sensors/sonar.o (symbol from plugin)
ubs_nav_fix_type    0x1               obj/main/NAZE/io/gps.o (symbol from plugin)
ledGridHeight       0x1               obj/main/NAZE/io/ledstrip.o (symbol from plugin)

Discarded input sections

 .text          0x00000000       0x14 obj/main/NAZE/startup_stm32f10x_md_gcc.o
 .data          0x00000000        0x0 obj/main/NAZE/startup_stm32f10x_md_gcc.o
 .bss           0x00000000        0x0 obj/main/NAZE/startup_stm32f10x_md_gcc.o
 .text          0x00000000        0x0 obj/main/NAZE/drivers/accgyro_adxl345.o (symbol from plugin)
 .data          0x00000000        0x0 /tmp/cc8DLllS.ltrans0.ltrans.o
 .data          0x00000000        0x0 /tmp/cc8DLllS.ltrans1.ltrans.o
 .data          0x00000000        0x0 /tmp/cc8DLllS.ltrans2.ltrans.o
 .data          0x00000000        0x0 /tmp/cc8DLllS.ltrans7.ltrans.o
 .data          0x00000000        0x0 /tmp/cc8DLllS.ltrans9.ltrans.o
 .rodata.targetName
                0x00000000        0x4 /tmp/cc8DLllS.ltrans9.ltrans.o
 .data          0x00000000        0x0 /tmp/cc8DLllS.ltrans10.ltrans.o
 .data          0x00000000        0x0 /tmp/cc8DLllS.ltrans11.ltrans.o
 .data          0x00000000        0x0 /tmp/cc8DLllS.ltrans12.ltrans.o
 .data          0x00000000        0x0 /tmp/cc8DLllS.ltrans15.ltrans.o
 .data          0x00000000        0x0 /tmp/cc8DLllS.ltrans17.ltrans.o
 .data          0x00000000        0x0 /tmp/cc8DLllS.ltrans19.ltrans.o
 .data          0x00000000        0x0 /tmp/cc8DLllS.ltrans20.ltrans.o
 .data          0x00000000        0x0 /tmp/cc8DLllS.ltrans21.ltrans.o
 .data          0x00000000        0x0 /tmp/cc8DLllS.ltrans23.ltrans.o
 .data          0x00000000        0x0 /tmp/cc8DLllS.ltrans25.ltrans.o
 .data          0x00000000        0x0 /tmp/cc8DLllS.ltrans26.ltrans.o
 .data          0x00000000        0x0 /tmp/cc8DLllS.ltrans28.ltrans.o
 .data          0x00000000        0x0 /tmp/cc8DLllS.ltrans29.ltrans.o
 .text          0x00000000        0x0 obj/main/NAZE/drivers/accgyro_bma280.o (symbol from plugin)
 .text          0x00000000        0x0 obj/main/NAZE/drivers/accgyro_mma845x.o (symbol from plugin)
 .text          0x00000000        0x0 obj/main/NAZE/drivers/accgyro_mpu.o (symbol from plugin)
 .text          0x00000000        0x0 obj/main/NAZE/drivers/accgyro_mpu3050.o (symbol from plugin)
 .text          0x00000000        0x0 obj/main/NAZE/drivers/accgyro_mpu6050.o (symbol from plugin)
 .text          0x00000000        0x0 obj/main/NAZE/drivers/accgyro_mpu6500.o (symbol from plugin)
 .text          0x00000000        0x0 obj/main/NAZE/drivers/accgyro_spi_mpu6500.o (symbol from plugin)
 .text          0x00000000        0x0 obj/main/NAZE/drivers/adc.o (symbol from plugin)
 .text          0x00000000        0x0 obj/main/NAZE/drivers/adc_stm32f10x.o (symbol from plugin)
 .text          0x00000000        0x0 obj/main/NAZE/drivers/barometer_bmp085.o (symbol from plugin)
 .text          0x00000000        0x0 obj/main/NAZE/drivers/barometer_ms5611.o (symbol from plugin)
 .text          0x00000000        0x0 obj/main/NAZE/drivers/barometer_bmp280.o (symbol from plugin)
 .text          0x00000000        0x0 obj/main/NAZE/drivers/bus_spi.o (symbol from plugin)
 .text          0x00000000        0x0 obj/main/NAZE/drivers/bus_i2c_stm32f10x.o (symbol from plugin)
 .text          0x00000000        0x0 obj/main/NAZE/drivers/compass_hmc5883l.o (symbol from plugin)
 .text          0x00000000        0x0 obj/main/NAZE/drivers/display_ug2864hsweg01.o (symbol from plugin)
 .text          0x00000000        0x0 obj/main/NAZE/drivers/flash_m25p16.o (symbol from plugin)
 .text          0x00000000        0x0 obj/main/NAZE/drivers/gpio_stm32f10x.o (symbol from plugin)
 .text          0x00000000        0x0 obj/main/NAZE/drivers/inverter.o (symbol from plugin)
 .text          0x00000000        0x0 obj/main/NAZE/drivers/light_led_stm32f10x.o (symbol from plugin)
 .text          0x00000000        0x0 obj/main/NAZE/drivers/light_ws2811strip.o (symbol from plugin)
 .text          0x00000000        0x0 obj/main/NAZE/drivers/light_ws2811strip_stm32f10x.o (symbol from plugin)
 .text          0x00000000        0x0 obj/main/NAZE/drivers/sonar_hcsr04.o (symbol from plugin)
 .text          0x00000000        0x0 obj/main/NAZE/drivers/pwm_mapping.o (symbol from plugin)
 .text          0x00000000        0x0 obj/main/NAZE/drivers/pwm_output.o (symbol from plugin)
 .text          0x00000000        0x0 obj/main/NAZE/drivers/pwm_rx.o (symbol from plugin)
 .text          0x00000000        0x0 obj/main/NAZE/drivers/serial_softserial.o (symbol from plugin)
 .text          0x00000000        0x0 obj/main/NAZE/drivers/serial_uart.o (symbol from plugin)
 .text          0x00000000        0x0 obj/main/NAZE/drivers/serial_uart_stm32f10x.o (symbol from plugin)
 .text          0x00000000        0x0 obj/main/NAZE/drivers/sound_beeper_stm32f10x.o (symbol from plugin)
 .text          0x00000000        0x0 obj/main/NAZE/drivers/system_stm32f10x.o (symbol from plugin)
 .text          0x00000000        0x0 obj/main/NAZE/drivers/timer.o (symbol from plugin)
 .text          0x00000000        0x0 obj/main/NAZE/drivers/timer_stm32f10x.o (symbol from plugin)
 .text          0x00000000        0x0 obj/main/NAZE/io/flashfs.o (symbol from plugin)
 .text          0x00000000        0x0 obj/main/NAZE/hardware_revision.o (symbol from plugin)
 .text          0x00000000        0x0 obj/main/NAZE/flight/gtune.o (symbol from plugin)
 .text          0x00000000        0x0 obj/main/NAZE/flight/navigation.o (symbol from plugin)
 .text          0x00000000        0x0 obj/main/NAZE/flight/gps_conversion.o (symbol from plugin)
 .text          0x00000000        0x0 obj/main/NAZE/common/colorconversion.o (symbol from plugin)
 .text          0x00000000        0x0 obj/main/NAZE/io/gps.o (symbol from plugin)
 .text          0x00000000        0x0 obj/main/NAZE/io/ledstrip.o (symbol from plugin)
 .text          0x00000000        0x0 obj/main/NAZE/io/display.o (symbol from plugin)
 .text          0x00000000        0x0 obj/main/NAZE/telemetry/telemetry.o (symbol from plugin)
 .text          0x00000000        0x0 obj/main/NAZE/telemetry/frsky.o (symbol from plugin)
 .text          0x00000000        0x0 obj/main/NAZE/telemetry/hott.o (symbol from plugin)
 .text          0x00000000        0x0 obj/main/NAZE/telemetry/smartport.o (symbol from plugin)
 .text          0x00000000        0x0 obj/main/NAZE/telemetry/ltm.o (symbol from plugin)
 .text          0x00000000        0x0 obj/main/NAZE/sensors/sonar.o (symbol from plugin)
 .text          0x00000000        0x0 obj/main/NAZE/sensors/barometer.o (symbol from plugin)
 .text          0x00000000        0x0 obj/main/NAZE/blackbox/blackbox.o (symbol from plugin)
 .text          0x00000000        0x0 obj/main/NAZE/blackbox/blackbox_io.o (symbol from plugin)
 .text          0x00000000        0x0 obj/main/NAZE/pif/source/core/pif.o (symbol from plugin)
 .text          0x00000000        0x0 obj/main/NAZE/pif/source/core/pif_comm.o (symbol from plugin)
 .text          0x00000000        0x0 obj/main/NAZE/pif/source/core/pif_i2c.o (symbol from plugin)
 .text          0x00000000        0x0 obj/main/NAZE/pif/source/core/pif_list.o (symbol from plugin)
 .text          0x00000000        0x0 obj/main/NAZE/pif/source/core/pif_log.o (symbol from plugin)
 .text          0x00000000        0x0 obj/main/NAZE/pif/source/core/pif_ring_buffer.o (symbol from plugin)
 .text          0x00000000        0x0 obj/main/NAZE/pif/source/core/pif_task.o (symbol from plugin)
 .text          0x00000000        0x0 obj/main/NAZE/pif/source/core/pif_timer.o (symbol from plugin)
 .text          0x00000000        0x0 obj/main/NAZE/pif/source/sensor/pif_imu_sensor.o (symbol from plugin)
 .text          0x00000000        0x0 obj/main/NAZE/pif/source/sensor/pif_mpu6500.o (symbol from plugin)
 .text          0x00000000        0x0 obj/main/NAZE/pif/source/sensor/pif_bmp280.o (symbol from plugin)
 .text          0x00000000        0x0 obj/main/NAZE/build_config.o (symbol from plugin)
 .text          0x00000000        0x0 obj/main/NAZE/debug.o (symbol from plugin)
 .text          0x00000000        0x0 obj/main/NAZE/version.o (symbol from plugin)
 .text          0x00000000        0x0 obj/main/NAZE/config/config.o (symbol from plugin)
 .text          0x00000000        0x0 obj/main/NAZE/config/runtime_config.o (symbol from plugin)
 .text          0x00000000        0x0 obj/main/NAZE/common/maths.o (symbol from plugin)
 .text          0x00000000        0x0 obj/main/NAZE/common/printf.o (symbol from plugin)
 .text          0x00000000        0x0 obj/main/NAZE/common/typeconversion.o (symbol from plugin)
 .text          0x00000000        0x0 obj/main/NAZE/common/encoding.o (symbol from plugin)
 .text          0x00000000        0x0 obj/main/NAZE/common/filter.o (symbol from plugin)
 .text          0x00000000        0x0 obj/main/NAZE/scheduler.o (symbol from plugin)
 .text          0x00000000        0x0 obj/main/NAZE/scheduler_tasks.o (symbol from plugin)
 .text          0x00000000        0x0 obj/main/NAZE/main.o (symbol from plugin)
 .text          0x00000000        0x0 obj/main/NAZE/mw.o (symbol from plugin)
 .text          0x00000000        0x0 obj/main/NAZE/flight/altitudehold.o (symbol from plugin)
 .text          0x00000000        0x0 obj/main/NAZE/flight/failsafe.o (symbol from plugin)
 .text          0x00000000        0x0 obj/main/NAZE/flight/pid.o (symbol from plugin)
 .text          0x00000000        0x0 obj/main/NAZE/flight/imu.o (symbol from plugin)
 .text          0x00000000        0x0 obj/main/NAZE/flight/mixer.o (symbol from plugin)
 .text          0x00000000        0x0 obj/main/NAZE/drivers/bus_i2c.o (symbol from plugin)
 .text          0x00000000        0x0 obj/main/NAZE/drivers/bus_i2c_soft.o (symbol from plugin)
 .text          0x00000000        0x0 obj/main/NAZE/drivers/sensor.o (symbol from plugin)
 .text          0x00000000        0x0 obj/main/NAZE/drivers/serial.o (symbol from plugin)
 .text          0x00000000        0x0 obj/main/NAZE/drivers/sound_beeper.o (symbol from plugin)
 .text          0x00000000        0x0 obj/main/NAZE/drivers/system.o (symbol from plugin)
 .text          0x00000000        0x0 obj/main/NAZE/drivers/dma.o (symbol from plugin)
 .text          0x00000000        0x0 obj/main/NAZE/drivers/buf_writer.o (symbol from plugin)
 .text          0x00000000        0x0 obj/main/NAZE/drivers/gyro_sync.o (symbol from plugin)
 .text          0x00000000        0x0 obj/main/NAZE/io/beeper.o (symbol from plugin)
 .text          0x00000000        0x0 obj/main/NAZE/io/rc_controls.o (symbol from plugin)
 .text          0x00000000        0x0 obj/main/NAZE/io/rc_curves.o (symbol from plugin)
 .text          0x00000000        0x0 obj/main/NAZE/io/serial.o (symbol from plugin)
 .text          0x00000000        0x0 obj/main/NAZE/io/serial_1wire.o (symbol from plugin)
 .text          0x00000000        0x0 obj/main/NAZE/io/serial_cli.o (symbol from plugin)
 .text          0x00000000        0x0 obj/main/NAZE/io/serial_msp.o (symbol from plugin)
 .text          0x00000000        0x0 obj/main/NAZE/io/statusindicator.o (symbol from plugin)
 .text          0x00000000        0x0 obj/main/NAZE/rx/rx.o (symbol from plugin)
 .text          0x00000000        0x0 obj/main/NAZE/rx/pwm.o (symbol from plugin)
 .text          0x00000000        0x0 obj/main/NAZE/rx/msp.o (symbol from plugin)
 .text          0x00000000        0x0 obj/main/NAZE/rx/sbus.o (symbol from plugin)
 .text          0x00000000        0x0 obj/main/NAZE/rx/sumd.o (symbol from plugin)
 .text          0x00000000        0x0 obj/main/NAZE/rx/sumh.o (symbol from plugin)
 .text          0x00000000        0x0 obj/main/NAZE/rx/spektrum.o (symbol from plugin)
 .text          0x00000000        0x0 obj/main/NAZE/rx/xbus.o (symbol from plugin)
 .text          0x00000000        0x0 obj/main/NAZE/rx/ibus.o (symbol from plugin)
 .text          0x00000000        0x0 obj/main/NAZE/sensors/acceleration.o (symbol from plugin)
 .text          0x00000000        0x0 obj/main/NAZE/sensors/battery.o (symbol from plugin)
 .text          0x00000000        0x0 obj/main/NAZE/sensors/boardalignment.o (symbol from plugin)
 .text          0x00000000        0x0 obj/main/NAZE/sensors/compass.o (symbol from plugin)
 .text          0x00000000        0x0 obj/main/NAZE/sensors/gyro.o (symbol from plugin)
 .text          0x00000000        0x0 obj/main/NAZE/sensors/initialisation.o (symbol from plugin)
 .text          0x00000000        0x0 obj/main/NAZE/sensors/sensors.o (symbol from plugin)
 .text          0x00000000        0x0 obj/main/NAZE/core_cm3.o (symbol from plugin)
 .text          0x00000000        0x0 obj/main/NAZE/system_stm32f10x.o (symbol from plugin)
 .text          0x00000000        0x0 obj/main/NAZE/stm32f10x_dma.o (symbol from plugin)
 .text          0x00000000        0x0 obj/main/NAZE/stm32f10x_dbgmcu.o (symbol from plugin)
 .text          0x00000000        0x0 obj/main/NAZE/stm32f10x_dac.o (symbol from plugin)
 .text          0x00000000        0x0 obj/main/NAZE/stm32f10x_rtc.o (symbol from plugin)
 .text          0x00000000        0x0 obj/main/NAZE/stm32f10x_pwr.o (symbol from plugin)
 .text          0x00000000        0x0 obj/main/NAZE/stm32f10x_i2c.o (symbol from plugin)
 .text          0x00000000        0x0 obj/main/NAZE/stm32f10x_sdio.o (symbol from plugin)
 .text          0x00000000        0x0 obj/main/NAZE/stm32f10x_rcc.o (symbol from plugin)
 .text          0x00000000        0x0 obj/main/NAZE/stm32f10x_flash.o (symbol from plugin)
 .text          0x00000000        0x0 obj/main/NAZE/stm32f10x_usart.o (symbol from plugin)
 .text          0x00000000        0x0 obj/main/NAZE/stm32f10x_tim.o (symbol from plugin)
 .text          0x00000000        0x0 obj/main/NAZE/stm32f10x_wwdg.o (symbol from plugin)
 .text          0x00000000        0x0 obj/main/NAZE/misc.o (symbol from plugin)
 .text          0x00000000        0x0 obj/main/NAZE/stm32f10x_iwdg.o (symbol from plugin)
 .text          0x00000000        0x0 obj/main/NAZE/stm32f10x_adc.o (symbol from plugin)
 .text          0x00000000        0x0 obj/main/NAZE/stm32f10x_spi.o (symbol from plugin)
 .text          0x00000000        0x0 obj/main/NAZE/stm32f10x_bkp.o (symbol from plugin)
 .text          0x00000000        0x0 obj/main/NAZE/stm32f10x_exti.o (symbol from plugin)
 .text          0x00000000        0x0 obj/main/NAZE/stm32f10x_fsmc.o (symbol from plugin)
 .text          0x00000000        0x0 obj/main/NAZE/stm32f10x_gpio.o (symbol from plugin)
 .text          0x00000000        0x0 /usr/lib/gcc/arm-none-eabi/4.9.3/../../../arm-none-eabi/lib/armv7-m/libc_nano.a(lib_a-atoi.o)
 .data          0x00000000        0x0 /usr/lib/gcc/arm-none-eabi/4.9.3/../../../arm-none-eabi/lib/armv7-m/libc_nano.a(lib_a-atoi.o)
 .bss           0x00000000        0x0 /usr/lib/gcc/arm-none-eabi/4.9.3/../../../arm-none-eabi/lib/armv7-m/libc_nano.a(lib_a-atoi.o)
 .text._atoi_r  0x00000000        0x8 /usr/lib/gcc/arm-none-eabi/4.9.3/../../../arm-none-eabi/lib/armv7-m/libc_nano.a(lib_a-atoi.o)
 .text          0x00000000        0x0 /usr/lib/gcc/arm-none-eabi/4.9.3/../../../arm-none-eabi/lib/armv7-m/libc_nano.a(lib_a-ctype_.o)
 .data          0x00000000        0x0 /usr/lib/gcc/arm-none-eabi/4.9.3/../../../arm-none-eabi/lib/armv7-m/libc_nano.a(lib_a-ctype_.o)
 .bss           0x00000000        0x0 /usr/lib/gcc/arm-none-eabi/4.9.3/../../../arm-none-eabi/lib/armv7-m/libc_nano.a(lib_a-ctype_.o)
 .text          0x00000000        0x0 /usr/lib/gcc/arm-none-eabi/4.9.3/../../../arm-none-eabi/lib/armv7-m/libc_nano.a(lib_a-strtok.o)
 .data          0x00000000        0x0 /usr/lib/gcc/arm-none-eabi/4.9.3/../../../arm-none-eabi/lib/armv7-m/libc_nano.a(lib_a-strtok.o)
 .bss           0x00000000        0x0 /usr/lib/gcc/arm-none-eabi/4.9.3/../../../arm-none-eabi/lib/armv7-m/libc_nano.a(lib_a-strtok.o)
 .text          0x00000000        0x0 /usr/lib/gcc/arm-none-eabi/4.9.3/../../../arm-none-eabi/lib/armv7-m/libc_nano.a(lib_a-strtok_r.o)
 .data          0x00000000        0x0 /usr/lib/gcc/arm-none-eabi/4.9.3/../../../arm-none-eabi/lib/armv7-m/libc_nano.a(lib_a-strtok_r.o)
 .bss           0x00000000        0x0 /usr/lib/gcc/arm-none-eabi/4.9.3/../../../arm-none-eabi/lib/armv7-m/libc_nano.a(lib_a-strtok_r.o)
 .text          0x00000000        0x0 /usr/lib/gcc/arm-none-eabi/4.9.3/../../../arm-none-eabi/lib/armv7-m/libc_nano.a(lib_a-strtol.o)
 .data          0x00000000        0x0 /usr/lib/gcc/arm-none-eabi/4.9.3/../../../arm-none-eabi/lib/armv7-m/libc_nano.a(lib_a-strtol.o)
 .bss           0x00000000        0x0 /usr/lib/gcc/arm-none-eabi/4.9.3/../../../arm-none-eabi/lib/armv7-m/libc_nano.a(lib_a-strtol.o)
 .text          0x00000000        0x0 /usr/lib/gcc/arm-none-eabi/4.9.3/../../../arm-none-eabi/lib/armv7-m/libc_nano.a(lib_a-impure.o)
 .data          0x00000000        0x0 /usr/lib/gcc/arm-none-eabi/4.9.3/../../../arm-none-eabi/lib/armv7-m/libc_nano.a(lib_a-impure.o)
 .bss           0x00000000        0x0 /usr/lib/gcc/arm-none-eabi/4.9.3/../../../arm-none-eabi/lib/armv7-m/libc_nano.a(lib_a-impure.o)
 .rodata._global_impure_ptr
                0x00000000        0x4 /usr/lib/gcc/arm-none-eabi/4.9.3/../../../arm-none-eabi/lib/armv7-m/libc_nano.a(lib_a-impure.o)
 .text          0x00000000        0x0 /usr/lib/gcc/arm-none-eabi/4.9.3/../../../arm-none-eabi/lib/armv7-m/libc_nano.a(lib_a-malloc.o)
 .data          0x00000000        0x0 /usr/lib/gcc/arm-none-eabi/4.9.3/../../../arm-none-eabi/lib/armv7-m/libc_nano.a(lib_a-malloc.o)
 .bss           0x00000000        0x0 /usr/lib/gcc/arm-none-eabi/4.9.3/../../../arm-none-eabi/lib/armv7-m/libc_nano.a(lib_a-malloc.o)
 .text          0x00000000        0x0 /usr/lib/gcc/arm-none-eabi/4.9.3/../../../arm-none-eabi/lib/armv7-m/libc_nano.a(lib_a-nano-freer.o)
 .data          0x00000000        0x0 /usr/lib/gcc/arm-none-eabi/4.9.3/../../../arm-none-eabi/lib/armv7-m/libc_nano.a(lib_a-nano-freer.o)
 .bss           0x00000000        0x0 /usr/lib/gcc/arm-none-eabi/4.9.3/../../../arm-none-eabi/lib/armv7-m/libc_nano.a(lib_a-nano-freer.o)
 .text          0x00000000        0x0 /usr/lib/gcc/arm-none-eabi/4.9.3/../../../arm-none-eabi/lib/armv7-m/libc_nano.a(lib_a-nano-mallocr.o)
 .data          0x00000000        0x0 /usr/lib/gcc/arm-none-eabi/4.9.3/../../../arm-none-eabi/lib/armv7-m/libc_nano.a(lib_a-nano-mallocr.o)
 .bss           0x00000000        0x0 /usr/lib/gcc/arm-none-eabi/4.9.3/../../../arm-none-eabi/lib/armv7-m/libc_nano.a(lib_a-nano-mallocr.o)
 .text          0x00000000        0x0 /usr/lib/gcc/arm-none-eabi/4.9.3/../../../arm-none-eabi/lib/armv7-m/libc_nano.a(lib_a-sbrkr.o)
 .data          0x00000000        0x0 /usr/lib/gcc/arm-none-eabi/4.9.3/../../../arm-none-eabi/lib/armv7-m/libc_nano.a(lib_a-sbrkr.o)
 .bss           0x00000000        0x0 /usr/lib/gcc/arm-none-eabi/4.9.3/../../../arm-none-eabi/lib/armv7-m/libc_nano.a(lib_a-sbrkr.o)
 .text          0x00000000        0x0 /usr/lib/gcc/arm-none-eabi/4.9.3/../../../arm-none-eabi/lib/armv7-m/libc_nano.a(lib_a-reent.o)
 .data          0x00000000        0x0 /usr/lib/gcc/arm-none-eabi/4.9.3/../../../arm-none-eabi/lib/armv7-m/libc_nano.a(lib_a-reent.o)
 .bss           0x00000000        0x0 /usr/lib/gcc/arm-none-eabi/4.9.3/../../../arm-none-eabi/lib/armv7-m/libc_nano.a(lib_a-reent.o)
 .text.cleanup_glue
                0x00000000       0x1a /usr/lib/gcc/arm-none-eabi/4.9.3/../../../arm-none-eabi/lib/armv7-m/libc_nano.a(lib_a-reent.o)
 .text._reclaim_reent
                0x00000000       0xb4 /usr/lib/gcc/arm-none-eabi/4.9.3/../../../arm-none-eabi/lib/armv7-m/libc_nano.a(lib_a-reent.o)
 .text          0x00000000        0x0 /usr/lib/gcc/arm-none-eabi/4.9.3/../../../arm-none-eabi/lib/armv7-m/libnosys.a(sbrk.o)
 .data          0x00000000        0x0 /usr/lib/gcc/arm-none-eabi/4.9.3/../../../arm-none-eabi/lib/armv7-m/libnosys.a(sbrk.o)
 .bss           0x00000000        0x0 /usr/lib/gcc/arm-none-eabi/4.9.3/../../../arm-none-eabi/lib/armv7-m/libnosys.a(sbrk.o)
 .text          0x00000000        0x0 /usr/lib/gcc/arm-none-eabi/4.9.3/../../../arm-none-eabi/lib/armv7-m/libm.a(lib_a-sf_lrint.o)
 .data          0x00000000        0x0 /usr/lib/gcc/arm-none-eabi/4.9.3/../../../arm-none-eabi/lib/armv7-m/libm.a(lib_a-sf_lrint.o)
 .bss           0x00000000        0x0 /usr/lib/gcc/arm-none-eabi/4.9.3/../../../arm-none-eabi/lib/armv7-m/libm.a(lib_a-sf_lrint.o)
 .text          0x00000000        0x0 /usr/lib/gcc/arm-none-eabi/4.9.3/../../../arm-none-eabi/lib/armv7-m/libm.a(lib_a-wf_pow.o)
 .data          0x00000000        0x0 /usr/lib/gcc/arm-none-eabi/4.9.3/../../../arm-none-eabi/lib/armv7-m/libm.a(lib_a-wf_pow.o)
 .bss           0x00000000        0x0 /usr/lib/gcc/arm-none-eabi/4.9.3/../../../arm-none-eabi/lib/armv7-m/libm.a(lib_a-wf_pow.o)
 .text          0x00000000        0x0 /usr/lib/gcc/arm-none-eabi/4.9.3/../../../arm-none-eabi/lib/armv7-m/libm.a(lib_a-wf_sqrt.o)
 .data          0x00000000        0x0 /usr/lib/gcc/arm-none-eabi/4.9.3/../../../arm-none-eabi/lib/armv7-m/libm.a(lib_a-wf_sqrt.o)
 .bss           0x00000000        0x0 /usr/lib/gcc/arm-none-eabi/4.9.3/../../../arm-none-eabi/lib/armv7-m/libm.a(lib_a-wf_sqrt.o)
 .text          0x00000000        0x0 /usr/lib/gcc/arm-none-eabi/4.9.3/../../../arm-none-eabi/lib/armv7-m/libm.a(lib_a-ef_pow.o)
 .data          0x00000000        0x0 /usr/lib/gcc/arm-none-eabi/4.9.3/../../../arm-none-eabi/lib/armv7-m/libm.a(lib_a-ef_pow.o)
 .bss           0x00000000        0x0 /usr/lib/gcc/arm-none-eabi/4.9.3/../../../arm-none-eabi/lib/armv7-m/libm.a(lib_a-ef_pow.o)
 .text          0x00000000        0x0 /usr/lib/gcc/arm-none-eabi/4.9.3/../../../arm-none-eabi/lib/armv7-m/libm.a(lib_a-ef_sqrt.o)
 .data          0x00000000        0x0 /usr/lib/gcc/arm-none-eabi/4.9.3/../../../arm-none-eabi/lib/armv7-m/libm.a(lib_a-ef_sqrt.o)
 .bss           0x00000000        0x0 /usr/lib/gcc/arm-none-eabi/4.9.3/../../../arm-none-eabi/lib/armv7-m/libm.a(lib_a-ef_sqrt.o)
 .text          0x00000000        0x0 /usr/lib/gcc/arm-none-eabi/4.9.3/../../../arm-none-eabi/lib/armv7-m/libm.a(lib_a-s_lib_ver.o)
 .data          0x00000000        0x0 /usr/lib/gcc/arm-none-eabi/4.9.3/../../../arm-none-eabi/lib/armv7-m/libm.a(lib_a-s_lib_ver.o)
 .bss           0x00000000        0x0 /usr/lib/gcc/arm-none-eabi/4.9.3/../../../arm-none-eabi/lib/armv7-m/libm.a(lib_a-s_lib_ver.o)
 .text          0x00000000        0x0 /usr/lib/gcc/arm-none-eabi/4.9.3/../../../arm-none-eabi/lib/armv7-m/libm.a(lib_a-s_matherr.o)
 .data          0x00000000        0x0 /usr/lib/gcc/arm-none-eabi/4.9.3/../../../arm-none-eabi/lib/armv7-m/libm.a(lib_a-s_matherr.o)
 .bss           0x00000000        0x0 /usr/lib/gcc/arm-none-eabi/4.9.3/../../../arm-none-eabi/lib/armv7-m/libm.a(lib_a-s_matherr.o)
 .text          0x00000000        0x0 /usr/lib/gcc/arm-none-eabi/4.9.3/../../../arm-none-eabi/lib/armv7-m/libm.a(lib_a-s_rint.o)
 .data          0x00000000        0x0 /usr/lib/gcc/arm-none-eabi/4.9.3/../../../arm-none-eabi/lib/armv7-m/libm.a(lib_a-s_rint.o)
 .bss           0x00000000        0x0 /usr/lib/gcc/arm-none-eabi/4.9.3/../../../arm-none-eabi/lib/armv7-m/libm.a(lib_a-s_rint.o)
 .text          0x00000000        0x0 /usr/lib/gcc/arm-none-eabi/4.9.3/../../../arm-none-eabi/lib/armv7-m/libm.a(lib_a-sf_fabs.o)
 .data          0x00000000        0x0 /usr/lib/gcc/arm-none-eabi/4.9.3/../../../arm-none-eabi/lib/armv7-m/libm.a(lib_a-sf_fabs.o)
 .bss           0x00000000        0x0 /usr/lib/gcc/arm-none-eabi/4.9.3/../../../arm-none-eabi/lib/armv7-m/libm.a(lib_a-sf_fabs.o)
 .text          0x00000000        0x0 /usr/lib/gcc/arm-none-eabi/4.9.3/../../../arm-none-eabi/lib/armv7-m/libm.a(lib_a-sf_finite.o)
 .data          0x00000000        0x0 /usr/lib/gcc/arm-none-eabi/4.9.3/../../../arm-none-eabi/lib/armv7-m/libm.a(lib_a-sf_finite.o)
 .bss           0x00000000        0x0 /usr/lib/gcc/arm-none-eabi/4.9.3/../../../arm-none-eabi/lib/armv7-m/libm.a(lib_a-sf_finite.o)
 .text          0x00000000        0x0 /usr/lib/gcc/arm-none-eabi/4.9.3/../../../arm-none-eabi/lib/armv7-m/libm.a(lib_a-sf_fpclassify.o)
 .data          0x00000000        0x0 /usr/lib/gcc/arm-none-eabi/4.9.3/../../../arm-none-eabi/lib/armv7-m/libm.a(lib_a-sf_fpclassify.o)
 .bss           0x00000000        0x0 /usr/lib/gcc/arm-none-eabi/4.9.3/../../../arm-none-eabi/lib/armv7-m/libm.a(lib_a-sf_fpclassify.o)
 .text          0x00000000        0x0 /usr/lib/gcc/arm-none-eabi/4.9.3/../../../arm-none-eabi/lib/armv7-m/libm.a(lib_a-sf_nan.o)
 .data          0x00000000        0x0 /usr/lib/gcc/arm-none-eabi/4.9.3/../../../arm-none-eabi/lib/armv7-m/libm.a(lib_a-sf_nan.o)
 .bss           0x00000000        0x0 /usr/lib/gcc/arm-none-eabi/4.9.3/../../../arm-none-eabi/lib/armv7-m/libm.a(lib_a-sf_nan.o)
 .text          0x00000000        0x0 /usr/lib/gcc/arm-none-eabi/4.9.3/../../../arm-none-eabi/lib/armv7-m/libm.a(lib_a-sf_scalbn.o)
 .data          0x00000000        0x0 /usr/lib/gcc/arm-none-eabi/4.9.3/../../../arm-none-eabi/lib/armv7-m/libm.a(lib_a-sf_scalbn.o)
 .bss           0x00000000        0x0 /usr/lib/gcc/arm-none-eabi/4.9.3/../../../arm-none-eabi/lib/armv7-m/libm.a(lib_a-sf_scalbn.o)
 .text          0x00000000        0x0 /usr/lib/gcc/arm-none-eabi/4.9.3/../../../arm-none-eabi/lib/armv7-m/libm.a(lib_a-sf_copysign.o)
 .data          0x00000000        0x0 /usr/lib/gcc/arm-none-eabi/4.9.3/../../../arm-none-eabi/lib/armv7-m/libm.a(lib_a-sf_copysign.o)
 .bss           0x00000000        0x0 /usr/lib/gcc/arm-none-eabi/4.9.3/../../../arm-none-eabi/lib/armv7-m/libm.a(lib_a-sf_copysign.o)
 .text          0x00000000        0x0 /usr/lib/gcc/arm-none-eabi/4.9.3/../../../arm-none-eabi/lib/armv7-m/libc_nano.a(lib_a-calloc.o)
 .data          0x00000000        0x0 /usr/lib/gcc/arm-none-eabi/4.9.3/../../../arm-none-eabi/lib/armv7-m/libc_nano.a(lib_a-calloc.o)
 .bss           0x00000000        0x0 /usr/lib/gcc/arm-none-eabi/4.9.3/../../../arm-none-eabi/lib/armv7-m/libc_nano.a(lib_a-calloc.o)
 .text          0x00000000        0x0 /usr/lib/gcc/arm-none-eabi/4.9.3/../../../arm-none-eabi/lib/armv7-m/libc_nano.a(lib_a-errno.o)
 .data          0x00000000        0x0 /usr/lib/gcc/arm-none-eabi/4.9.3/../../../arm-none-eabi/lib/armv7-m/libc_nano.a(lib_a-errno.o)
 .bss           0x00000000        0x0 /usr/lib/gcc/arm-none-eabi/4.9.3/../../../arm-none-eabi/lib/armv7-m/libc_nano.a(lib_a-errno.o)
 .text          0x00000000        0x0 /usr/lib/gcc/arm-none-eabi/4.9.3/../../../arm-none-eabi/lib/armv7-m/libc_nano.a(lib_a-memcmp.o)
 .data          0x00000000        0x0 /usr/lib/gcc/arm-none-eabi/4.9.3/../../../arm-none-eabi/lib/armv7-m/libc_nano.a(lib_a-memcmp.o)
 .bss           0x00000000        0x0 /usr/lib/gcc/arm-none-eabi/4.9.3/../../../arm-none-eabi/lib/armv7-m/libc_nano.a(lib_a-memcmp.o)
 .text          0x00000000        0x0 /usr/lib/gcc/arm-none-eabi/4.9.3/../../../arm-none-eabi/lib/armv7-m/libc_nano.a(lib_a-memcpy.o)
 .data          0x00000000        0x0 /usr/lib/gcc/arm-none-eabi/4.9.3/../../../arm-none-eabi/lib/armv7-m/libc_nano.a(lib_a-memcpy.o)
 .bss           0x00000000        0x0 /usr/lib/gcc/arm-none-eabi/4.9.3/../../../arm-none-eabi/lib/armv7-m/libc_nano.a(lib_a-memcpy.o)
 .text          0x00000000        0x0 /usr/lib/gcc/arm-none-eabi/4.9.3/../../../arm-none-eabi/lib/armv7-m/libc_nano.a(lib_a-memset.o)
 .data          0x00000000        0x0 /usr/lib/gcc/arm-none-eabi/4.9.3/../../../arm-none-eabi/lib/armv7-m/libc_nano.a(lib_a-memset.o)
 .bss           0x00000000        0x0 /usr/lib/gcc/arm-none-eabi/4.9.3/../../../arm-none-eabi/lib/armv7-m/libc_nano.a(lib_a-memset.o)
 .text          0x00000000        0x0 /usr/lib/gcc/arm-none-eabi/4.9.3/../../../arm-none-eabi/lib/armv7-m/libc_nano.a(lib_a-nano-callocr.o)
 .data          0x00000000        0x0 /usr/lib/gcc/arm-none-eabi/4.9.3/../../../arm-none-eabi/lib/armv7-m/libc_nano.a(lib_a-nano-callocr.o)
 .bss           0x00000000        0x0 /usr/lib/gcc/arm-none-eabi/4.9.3/../../../arm-none-eabi/lib/armv7-m/libc_nano.a(lib_a-nano-callocr.o)
 .text          0x00000000        0x0 /usr/lib/gcc/arm-none-eabi/4.9.3/../../../arm-none-eabi/lib/armv7-m/libc_nano.a(lib_a-strcasecmp.o)
 .data          0x00000000        0x0 /usr/lib/gcc/arm-none-eabi/4.9.3/../../../arm-none-eabi/lib/armv7-m/libc_nano.a(lib_a-strcasecmp.o)
 .bss           0x00000000        0x0 /usr/lib/gcc/arm-none-eabi/4.9.3/../../../arm-none-eabi/lib/armv7-m/libc_nano.a(lib_a-strcasecmp.o)
 .text          0x00000000        0x0 /usr/lib/gcc/arm-none-eabi/4.9.3/../../../arm-none-eabi/lib/armv7-m/libc_nano.a(lib_a-strcat.o)
 .data          0x00000000        0x0 /usr/lib/gcc/arm-none-eabi/4.9.3/../../../arm-none-eabi/lib/armv7-m/libc_nano.a(lib_a-strcat.o)
 .bss           0x00000000        0x0 /usr/lib/gcc/arm-none-eabi/4.9.3/../../../arm-none-eabi/lib/armv7-m/libc_nano.a(lib_a-strcat.o)
 .text          0x00000000        0x0 /usr/lib/gcc/arm-none-eabi/4.9.3/../../../arm-none-eabi/lib/armv7-m/libc_nano.a(lib_a-strchr.o)
 .data          0x00000000        0x0 /usr/lib/gcc/arm-none-eabi/4.9.3/../../../arm-none-eabi/lib/armv7-m/libc_nano.a(lib_a-strchr.o)
 .bss           0x00000000        0x0 /usr/lib/gcc/arm-none-eabi/4.9.3/../../../arm-none-eabi/lib/armv7-m/libc_nano.a(lib_a-strchr.o)
 .text          0x00000000        0x0 /usr/lib/gcc/arm-none-eabi/4.9.3/../../../arm-none-eabi/lib/armv7-m/libc_nano.a(lib_a-strcpy.o)
 .data          0x00000000        0x0 /usr/lib/gcc/arm-none-eabi/4.9.3/../../../arm-none-eabi/lib/armv7-m/libc_nano.a(lib_a-strcpy.o)
 .bss           0x00000000        0x0 /usr/lib/gcc/arm-none-eabi/4.9.3/../../../arm-none-eabi/lib/armv7-m/libc_nano.a(lib_a-strcpy.o)
 .text          0x00000000        0x0 /usr/lib/gcc/arm-none-eabi/4.9.3/../../../arm-none-eabi/lib/armv7-m/libc_nano.a(lib_a-strlen.o)
 .data          0x00000000        0x0 /usr/lib/gcc/arm-none-eabi/4.9.3/../../../arm-none-eabi/lib/armv7-m/libc_nano.a(lib_a-strlen.o)
 .bss           0x00000000        0x0 /usr/lib/gcc/arm-none-eabi/4.9.3/../../../arm-none-eabi/lib/armv7-m/libc_nano.a(lib_a-strlen.o)
 .text          0x00000000        0x0 /usr/lib/gcc/arm-none-eabi/4.9.3/../../../arm-none-eabi/lib/armv7-m/libc_nano.a(lib_a-strncasecmp.o)
 .data          0x00000000        0x0 /usr/lib/gcc/arm-none-eabi/4.9.3/../../../arm-none-eabi/lib/armv7-m/libc_nano.a(lib_a-strncasecmp.o)
 .bss           0x00000000        0x0 /usr/lib/gcc/arm-none-eabi/4.9.3/../../../arm-none-eabi/lib/armv7-m/libc_nano.a(lib_a-strncasecmp.o)
 .text          0x00000000        0x0 /usr/lib/gcc/arm-none-eabi/4.9.3/../../../arm-none-eabi/lib/armv7-m/libc_nano.a(lib_a-strncpy.o)
 .data          0x00000000        0x0 /usr/lib/gcc/arm-none-eabi/4.9.3/../../../arm-none-eabi/lib/armv7-m/libc_nano.a(lib_a-strncpy.o)
 .bss           0x00000000        0x0 /usr/lib/gcc/arm-none-eabi/4.9.3/../../../arm-none-eabi/lib/armv7-m/libc_nano.a(lib_a-strncpy.o)
 .text          0x00000000        0x0 /usr/lib/gcc/arm-none-eabi/4.9.3/../../../arm-none-eabi/lib/armv7-m/libc_nano.a(lib_a-strstr.o)
 .data          0x00000000        0x0 /usr/lib/gcc/arm-none-eabi/4.9.3/../../../arm-none-eabi/lib/armv7-m/libc_nano.a(lib_a-strstr.o)
 .bss           0x00000000        0x0 /usr/lib/gcc/arm-none-eabi/4.9.3/../../../arm-none-eabi/lib/armv7-m/libc_nano.a(lib_a-strstr.o)
 .data          0x00000000        0x0 /usr/lib/gcc/arm-none-eabi/4.9.3/armv7-m/libgcc.a(_arm_addsubdf3.o)
 .bss           0x00000000        0x0 /usr/lib/gcc/arm-none-eabi/4.9.3/armv7-m/libgcc.a(_arm_addsubdf3.o)
 .data          0x00000000        0x0 /usr/lib/gcc/arm-none-eabi/4.9.3/armv7-m/libgcc.a(_arm_muldivdf3.o)
 .bss           0x00000000        0x0 /usr/lib/gcc/arm-none-eabi/4.9.3/armv7-m/libgcc.a(_arm_muldivdf3.o)
 .data          0x00000000        0x0 /usr/lib/gcc/arm-none-eabi/4.9.3/armv7-m/libgcc.a(_arm_cmpdf2.o)
 .bss           0x00000000        0x0 /usr/lib/gcc/arm-none-eabi/4.9.3/armv7-m/libgcc.a(_arm_cmpdf2.o)
 .data          0x00000000        0x0 /usr/lib/gcc/arm-none-eabi/4.9.3/armv7-m/libgcc.a(_arm_fixunsdfsi.o)
 .bss           0x00000000        0x0 /usr/lib/gcc/arm-none-eabi/4.9.3/armv7-m/libgcc.a(_arm_fixunsdfsi.o)
 .data          0x00000000        0x0 /usr/lib/gcc/arm-none-eabi/4.9.3/armv7-m/libgcc.a(_arm_truncdfsf2.o)
 .bss           0x00000000        0x0 /usr/lib/gcc/arm-none-eabi/4.9.3/armv7-m/libgcc.a(_arm_truncdfsf2.o)
 .data          0x00000000        0x0 /usr/lib/gcc/arm-none-eabi/4.9.3/armv7-m/libgcc.a(_arm_addsubsf3.o)
 .bss           0x00000000        0x0 /usr/lib/gcc/arm-none-eabi/4.9.3/armv7-m/libgcc.a(_arm_addsubsf3.o)
 .data          0x00000000        0x0 /usr/lib/gcc/arm-none-eabi/4.9.3/armv7-m/libgcc.a(_arm_muldivsf3.o)
 .bss           0x00000000        0x0 /usr/lib/gcc/arm-none-eabi/4.9.3/armv7-m/libgcc.a(_arm_muldivsf3.o)
 .data          0x00000000        0x0 /usr/lib/gcc/arm-none-eabi/4.9.3/armv7-m/libgcc.a(_arm_cmpsf2.o)
 .bss           0x00000000        0x0 /usr/lib/gcc/arm-none-eabi/4.9.3/armv7-m/libgcc.a(_arm_cmpsf2.o)
 .data          0x00000000        0x0 /usr/lib/gcc/arm-none-eabi/4.9.3/armv7-m/libgcc.a(_arm_fixsfsi.o)
 .bss           0x00000000        0x0 /usr/lib/gcc/arm-none-eabi/4.9.3/armv7-m/libgcc.a(_arm_fixsfsi.o)
 .data          0x00000000        0x0 /usr/lib/gcc/arm-none-eabi/4.9.3/armv7-m/libgcc.a(_arm_fixunssfsi.o)
 .bss           0x00000000        0x0 /usr/lib/gcc/arm-none-eabi/4.9.3/armv7-m/libgcc.a(_arm_fixunssfsi.o)
 .data          0x00000000        0x0 /usr/lib/gcc/arm-none-eabi/4.9.3/armv7-m/libgcc.a(_aeabi_ldivmod.o)
 .bss           0x00000000        0x0 /usr/lib/gcc/arm-none-eabi/4.9.3/armv7-m/libgcc.a(_aeabi_ldivmod.o)
 .data          0x00000000        0x0 /usr/lib/gcc/arm-none-eabi/4.9.3/armv7-m/libgcc.a(bpabi.o)
 .bss           0x00000000        0x0 /usr/lib/gcc/arm-none-eabi/4.9.3/armv7-m/libgcc.a(bpabi.o)
 .data          0x00000000        0x0 /usr/lib/gcc/arm-none-eabi/4.9.3/armv7-m/libgcc.a(_dvmd_tls.o)
 .bss           0x00000000        0x0 /usr/lib/gcc/arm-none-eabi/4.9.3/armv7-m/libgcc.a(_dvmd_tls.o)
 .data          0x00000000        0x0 /usr/lib/gcc/arm-none-eabi/4.9.3/armv7-m/libgcc.a(_divdi3.o)
 .bss           0x00000000        0x0 /usr/lib/gcc/arm-none-eabi/4.9.3/armv7-m/libgcc.a(_divdi3.o)
 .ARM.extab     0x00000000        0x0 /usr/lib/gcc/arm-none-eabi/4.9.3/armv7-m/libgcc.a(_divdi3.o)
 .data          0x00000000        0x0 /usr/lib/gcc/arm-none-eabi/4.9.3/armv7-m/libgcc.a(_udivdi3.o)
 .bss           0x00000000        0x0 /usr/lib/gcc/arm-none-eabi/4.9.3/armv7-m/libgcc.a(_udivdi3.o)
 .ARM.extab     0x00000000        0x0 /usr/lib/gcc/arm-none-eabi/4.9.3/armv7-m/libgcc.a(_udivdi3.o)

Memory Configuration

Name             Origin             Length             Attributes
FLASH            0x08000000         0x0001f000         xr
RAM              0x20000000         0x00005000         xrw
MEMORY_B1        0x60000000         0x00000000         xr
*default*        0x00000000         0xffffffff

Linker script and memory map

LOAD obj/main/NAZE/startup_stm32f10x_md_gcc.o
LOAD obj/main/NAZE/drivers/accgyro_adxl345.o
LOAD /tmp/cc8DLllS.ltrans0.ltrans.o
LOAD /tmp/cc8DLllS.ltrans1.ltrans.o
LOAD /tmp/cc8DLllS.ltrans2.ltrans.o
LOAD /tmp/cc8DLllS.ltrans3.ltrans.o
LOAD /tmp/cc8DLllS.ltrans4.ltrans.o
LOAD /tmp/cc8DLllS.ltrans5.ltrans.o
LOAD /tmp/cc8DLllS.ltrans6.ltrans.o
LOAD /tmp/cc8DLllS.ltrans7.ltrans.o
LOAD /tmp/cc8DLllS.ltrans8.ltrans.o
LOAD /tmp/cc8DLllS.ltrans9.ltrans.o
LOAD /tmp/cc8DLllS.ltrans10.ltrans.o
LOAD /tmp/cc8DLllS.ltrans11.ltrans.o
LOAD /tmp/cc8DLllS.ltrans12.ltrans.o
LOAD /tmp/cc8DLllS.ltrans13.ltrans.o
LOAD /tmp/cc8DLllS.ltrans14.ltrans.o
LOAD /tmp/cc8DLllS.ltrans15.ltrans.o
LOAD /tmp/cc8DLllS.ltrans16.ltrans.o
LOAD /tmp/cc8DLllS.ltrans17.ltrans.o
LOAD /tmp/cc8DLllS.ltrans18.ltrans.o
LOAD /tmp/cc8DLllS.ltrans19.ltrans.o
LOAD /tmp/cc8DLllS.ltrans20.ltrans.o
LOAD /tmp/cc8DLllS.ltrans21.ltrans.o
LOAD /tmp/cc8DLllS.ltrans22.ltrans.o
LOAD /tmp/cc8DLllS.ltrans23.ltrans.o
LOAD /tmp/cc8DLllS.ltrans24.ltrans.o
LOAD /tmp/cc8DLllS.ltrans25.ltrans.o
LOAD /tmp/cc8DLllS.ltrans26.ltrans.o
LOAD /tmp/cc8DLllS.ltrans27.ltrans.o
LOAD /tmp/cc8DLllS.ltrans28.ltrans.o
LOAD /tmp/cc8DLllS.ltrans29.ltrans.o
LOAD /tmp/cc8DLllS.ltrans30.ltrans.o
LOAD obj/main/NAZE/drivers/accgyro_bma280.o
LOAD obj/main/NAZE/drivers/accgyro_mma845x.o
LOAD obj/main/NAZE/drivers/accgyro_mpu.o
LOAD obj/main/NAZE/drivers/accgyro_mpu3050.o
LOAD obj/main/NAZE/drivers/accgyro_mpu6050.o
LOAD obj/main/NAZE/drivers/accgyro_mpu6500.o
LOAD obj/main/NAZE/drivers/accgyro_spi_mpu6500.o
LOAD obj/main/NAZE/drivers/adc.o
LOAD obj/main/NAZE/drivers/adc_stm32f10x.o
LOAD obj/main/NAZE/drivers/barometer_bmp085.o
LOAD obj/main/NAZE/drivers/barometer_ms5611.o
LOAD obj/main/NAZE/drivers/barometer_bmp280.o
LOAD obj/main/NAZE/drivers/bus_spi.o
LOAD obj/main/NAZE/drivers/bus_i2c_stm32f10x.o
LOAD obj/main/NAZE/drivers/compass_hmc5883l.o
LOAD obj/main/NAZE/drivers/display_ug2864hsweg01.o
LOAD obj/main/NAZE/drivers/flash_m25p16.o
LOAD obj/main/NAZE/drivers/gpio_stm32f10x.o
LOAD obj/main/NAZE/drivers/inverter.o
LOAD obj/main/NAZE/drivers/light_led_stm32f10x.o
LOAD obj/main/NAZE/drivers/light_ws2811strip.o
LOAD obj/main/NAZE/drivers/light_ws2811strip_stm32f10x.o
LOAD obj/main/NAZE/drivers/sonar_hcsr04.o
LOAD obj/main/NAZE/drivers/pwm_mapping.o
LOAD obj/main/NAZE/drivers/pwm_output.o
LOAD obj/main/NAZE/drivers/pwm_rx.o
LOAD obj/main/NAZE/drivers/serial_softserial.o
LOAD obj/main/NAZE/drivers/serial_uart.o
LOAD obj/main/NAZE/drivers/serial_uart_stm32f10x.o
LOAD obj/main/NAZE/drivers/sound_beeper_stm32f10x.o
LOAD obj/main/NAZE/drivers/system_stm32f10x.o
LOAD obj/main/NAZE/drivers/timer.o
LOAD obj/main/NAZE/drivers/timer_stm32f10x.o
LOAD obj/main/NAZE/io/flashfs.o
LOAD obj/main/NAZE/hardware_revision.o
LOAD obj/main/NAZE/flight/gtune.o
LOAD obj/main/NAZE/flight/navigation.o
LOAD obj/main/NAZE/flight/gps_conversion.o
LOAD obj/main/NAZE/common/colorconversion.o
LOAD obj/main/NAZE/io/gps.o
LOAD obj/main/NAZE/io/ledstrip.o
LOAD obj/main/NAZE/io/display.o
LOAD obj/main/NAZE/telemetry/telemetry.o
LOAD obj/main/NAZE/telemetry/frsky.o
LOAD obj/main/NAZE/telemetry/hott.o
LOAD obj/main/NAZE/telemetry/smartport.o
LOAD obj/main/NAZE/telemetry/ltm.o
LOAD obj/main/NAZE/sensors/sonar.o
LOAD obj/main/NAZE/sensors/barometer.o
LOAD obj/main/NAZE/blackbox/blackbox.o
LOAD obj/main/NAZE/blackbox/blackbox_io.o
LOAD obj/main/NAZE/pif/source/core/pif.o
LOAD obj/main/NAZE/pif/source/core/pif_comm.o
LOAD obj/main/NAZE/pif/source/core/pif_i2c.o
LOAD obj/main/NAZE/pif/source/core/pif_list.o
LOAD obj/main/NAZE/pif/source/core/pif_log.o
LOAD obj/main/NAZE/pif/source/core/pif_ring_buffer.o
LOAD obj/main/NAZE/pif/source/core/pif_task.o
LOAD obj/main/NAZE/pif/source/core/pif_timer.o
LOAD obj/main/NAZE/pif/source/sensor/pif_imu_sensor.o
LOAD obj/main/NAZE/pif/source/sensor/pif_mpu6500.o
LOAD obj/main/NAZE/pif/source/sensor/pif_bmp280.o
LOAD obj/main/NAZE/build_config.o
LOAD obj/main/NAZE/debug.o
LOAD obj/main/NAZE/version.o
LOAD obj/main/NAZE/config/config.o
LOAD obj/main/NAZE/config/runtime_config.o
LOAD obj/main/NAZE/common/maths.o
LOAD obj/main/NAZE/common/printf.o
LOAD obj/main/NAZE/common/typeconversion.o
LOAD obj/main/NAZE/common/encoding.o
LOAD obj/main/NAZE/common/filter.o
LOAD obj/main/NAZE/scheduler.o
LOAD obj/main/NAZE/scheduler_tasks.o
LOAD obj/main/NAZE/main.o
LOAD obj/main/NAZE/mw.o
LOAD obj/main/NAZE/flight/altitudehold.o
LOAD obj/main/NAZE/flight/failsafe.o
LOAD obj/main/NAZE/flight/pid.o
LOAD obj/main/NAZE/flight/imu.o
LOAD obj/main/NAZE/flight/mixer.o
LOAD obj/main/NAZE/drivers/bus_i2c.o
LOAD obj/main/NAZE/drivers/bus_i2c_soft.o
LOAD obj/main/NAZE/drivers/sensor.o
LOAD obj/main/NAZE/drivers/serial.o
LOAD obj/main/NAZE/drivers/sound_beeper.o
LOAD obj/main/NAZE/drivers/system.o
LOAD obj/main/NAZE/drivers/dma.o
LOAD obj/main/NAZE/drivers/buf_writer.o
LOAD obj/main/NAZE/drivers/gyro_sync.o
LOAD obj/main/NAZE/io/beeper.o
LOAD obj/main/NAZE/io/rc_controls.o
LOAD obj/main/NAZE/io/rc_curves.o
LOAD obj/main/NAZE/io/serial.o
LOAD obj/main/NAZE/io/serial_1wire.o
LOAD obj/main/NAZE/io/serial_cli.o
LOAD obj/main/NAZE/io/serial_msp.o
LOAD obj/main/NAZE/io/statusindicator.o
LOAD obj/main/NAZE/rx/rx.o
LOAD obj/main/NAZE/rx/pwm.o
LOAD obj/main/NAZE/rx/msp.o
LOAD obj/main/NAZE/rx/sbus.o
LOAD obj/main/NAZE/rx/sumd.o
LOAD obj/main/NAZE/rx/sumh.o
LOAD obj/main/NAZE/rx/spektrum.o
LOAD obj/main/NAZE/rx/xbus.o
LOAD obj/main/NAZE/rx/ibus.o
LOAD obj/main/NAZE/sensors/acceleration.o
LOAD obj/main/NAZE/sensors/battery.o
LOAD obj/main/NAZE/sensors/boardalignment.o
LOAD obj/main/NAZE/sensors/compass.o
LOAD obj/main/NAZE/sensors/gyro.o
LOAD obj/main/NAZE/sensors/initialisation.o
LOAD obj/main/NAZE/sensors/sensors.o
LOAD obj/main/NAZE/core_cm3.o
LOAD obj/main/NAZE/system_stm32f10x.o
LOAD obj/main/NAZE/stm32f10x_dma.o
LOAD obj/main/NAZE/stm32f10x_dbgmcu.o
LOAD obj/main/NAZE/stm32f10x_dac.o
LOAD obj/main/NAZE/stm32f10x_rtc.o
LOAD obj/main/NAZE/stm32f10x_pwr.o
LOAD obj/main/NAZE/stm32f10x_i2c.o
LOAD obj/main/NAZE/stm32f10x_sdio.o
LOAD obj/main/NAZE/stm32f10x_rcc.o
LOAD obj/main/NAZE/stm32f10x_flash.o
LOAD obj/main/NAZE/stm32f10x_usart.o
LOAD obj/main/NAZE/stm32f10x_tim.o
LOAD obj/main/NAZE/stm32f10x_wwdg.o
LOAD obj/main/NAZE/misc.o
LOAD obj/main/NAZE/stm32f10x_iwdg.o
LOAD obj/main/NAZE/stm32f10x_adc.o
LOAD obj/main/NAZE/stm32f10x_spi.o
LOAD obj/main/NAZE/stm32f10x_bkp.o
LOAD obj/main/NAZE/stm32f10x_exti.o
LOAD obj/main/NAZE/stm32f10x_fsmc.o
LOAD obj/main/NAZE/stm32f10x_gpio.o
LOAD /usr/lib/gcc/arm-none-eabi/4.9.3/../../../arm-none-eabi/lib/armv7-m/libm.a
LOAD /usr/lib/gcc/arm-none-eabi/4.9.3/../../../arm-none-eabi/lib/armv7-m/libc_nano.a
LOAD /usr/lib/gcc/arm-none-eabi/4.9.3/../../../arm-none-eabi/lib/armv7-m/libnosys.a
START GROUP
LOAD /usr/lib/gcc/arm-none-eabi/4.9.3/armv7-m/libgcc.a
LOAD /usr/lib/gcc/arm-none-eabi/4.9.3/../../../arm-none-eabi/lib/armv7-m/libg_nano.a
LOAD /usr/lib/gcc/arm-none-eabi/4.9.3/../../../arm-none-eabi/lib/armv7-m/libc_nano.a
END GROUP
START GROUP
LOAD /usr/lib/gcc/arm-none-eabi/4.9.3/armv7-m/libgcc.a
LOAD /usr/lib/gcc/arm-none-eabi/4.9.3/../../../arm-none-eabi/lib/armv7-m/libc_nano.a
END GROUP
                0x20005000                _estack = (ORIGIN (RAM) + LENGTH (RAM))
                0x00000000                _Min_Heap_Size = 0x0
                0x00000400                _Min_Stack_Size = 0x400

.isr_vector     0x08000000      0x10c
                0x08000000                . = ALIGN (0x4)
                [!provide]                PROVIDE (isr_vector_table_base, .)
 *(.isr_vector)
 .isr_vector    0x08000000      0x10c obj/main/NAZE/startup_stm32f10x_md_gcc.o
                0x08000000                g_pfnVectors
                0x0800010c                . = ALIGN (0x4)

.text           0x08000110    0x1e5b0
                0x08000110                . = ALIGN (0x4)
 *(.text)
 .text          0x08000110     0x22e8 /tmp/cc8DLllS.ltrans0.ltrans.o
                0x08000110                init
 .text          0x080023f8     0x2284 /tmp/cc8DLllS.ltrans1.ltrans.o
                0x080023f8                taskMainPidLoopChecker
 .text          0x0800467c     0x20f0 /tmp/cc8DLllS.ltrans2.ltrans.o
                0x0800467c                taskHandleSerial
 .text          0x0800676c     0x16ac /tmp/cc8DLllS.ltrans3.ltrans.o
                0x0800676c                taskUpdateRxMain
 .text          0x08007e18     0x12ac /tmp/cc8DLllS.ltrans4.ltrans.o
                0x08008264                mpu6500SpiGyroDetect
                0x080082e4                mpu6500SpiAccDetect
                0x0800835c                mpu6500GyroDetect
                0x08008394                mpu6500AccDetect
                0x080083c4                mpu6050GyroDetect
                0x080083fc                mpu6050AccDetect
                0x08008474                mpu3050Detect
                0x080085c8                mpuReadRegisterI2C.lto_priv.450
                0x08008638                mma8452Detect
                0x080086e2                bma280Detect
                0x080087f8                adxl345Detect
                0x080088b0                mpuWriteRegisterI2C.lto_priv.451
                0x08008934                bmp280Detect
                0x080089c4                ms5611Detect
                0x08008ad0                bmp085Disable
                0x08008bd8                bmp085Detect
                0x08009018                mpu6500ReadRegister
                0x08009044                mpu6500WriteRegister
                0x080090b4                I2C2_EV_IRQHandler
                0x080090b8                I2C2_ER_IRQHandler
                0x080090bc                I2C1_EV_IRQHandler
                0x080090c0                I2C1_ER_IRQHandler
 .text          0x080090c4      0xcc4 /tmp/cc8DLllS.ltrans5.ltrans.o
                0x080090c4                taskTelemetry
 .text          0x08009d88      0xedc /tmp/cc8DLllS.ltrans6.ltrans.o
                0x08009d88                taskSystem
                0x08009ec6                _putc.lto_priv.469
                0x08009ed4                createTask.part.1.lto_priv.398
                0x08009f00                applyBiQuadFilter
                0x08009f66                BiQuadNewLpf
                0x0800a038                fastA2F
                0x0800a164                ftoa
                0x0800a230                _i2a.lto_priv.186
                0x0800a258                tfp_format
                0x0800a42e                tfp_sprintf
                0x0800a458                applyDeadband
                0x0800a476                acosf
                0x0800a4f0                atan2f
                0x0800a5f4                sinf
                0x0800a6dc                cosf
                0x0800a6f0                disableFlightMode
                0x0800a710                enableFlightMode
                0x0800a730                featureClear
                0x0800a740                handleOneshotFeatureChangeOnRestart
                0x0800a794                writeEEPROM
                0x0800a8e0                readEEPROM
                0x0800ac50                saveConfigAndNotify
 .text          0x0800ac64      0xb98 /tmp/cc8DLllS.ltrans7.ltrans.o
                0x0800ac84                pwmOverflowCallback.lto_priv.461
                0x0800acac                ppmEdgeCallback.lto_priv.462
                0x0800ae48                ppmOverflowCallback.lto_priv.463
                0x0800ae88                pwmWriteStandard.lto_priv.458
                0x0800ae98                pwmWriteBrushed.lto_priv.459
                0x0800aebc                ws2811DMAHandler
                0x0800af40                applyChangedBits
                0x0800af6a                serialICConfig.lto_priv.562
                0x0800b09e                pwmICConfig
                0x0800b0d8                pwmEdgeCallback.lto_priv.460
                0x0800b130                pwmWriteServo
                0x0800b148                EXTI9_5_IRQHandler
                0x0800b14a                EXTI1_IRQHandler
                0x0800b14c                EXTI0_IRQHandler
                0x0800b14e                ws2811UpdateStrip
                0x0800b320                gpioExtiLineConfig
                0x0800b34a                gpioInit
                0x0800b3ae                openSoftSerial
                0x0800b548                pwmOutConfig.lto_priv.496
 .text          0x0800b7fc      0x634 /tmp/cc8DLllS.ltrans8.ltrans.o
                0x0800b7fc                taskLedStrip
 .text          0x0800be30      0xd6c /tmp/cc8DLllS.ltrans9.ltrans.o
                0x0800be30                ibusReadRawRC.lto_priv.439
                0x0800be3c                xBusReadRawRC.lto_priv.437
                0x0800befc                spektrumReadRawRC.lto_priv.187
                0x0800bf28                sumhReadRawRC.lto_priv.430
                0x0800bf40                sumdReadRawRC.lto_priv.428
                0x0800bf54                sbusReadRawRC.lto_priv.426
                0x0800bf84                rxMspReadRawRC.lto_priv.441
                0x0800bf94                ppmReadRawRC.lto_priv.443
                0x0800bfa4                pwmReadRawRC.lto_priv.442
                0x0800bfb4                nullReadRawRC.lto_priv.189
                0x0800bfb8                ibusDataReceive.lto_priv.440
                0x0800c004                xBusDataReceive.lto_priv.438
                0x0800c0e0                spektrumDataReceive.lto_priv.188
                0x0800c130                sumhDataReceive.lto_priv.431
                0x0800c17c                sumdDataReceive.lto_priv.429
                0x0800c228                sbusDataReceive.lto_priv.427
                0x0800c284                batteryAdcToVoltage
                0x0800c2b0                getRxfailValue.lto_priv.307
                0x0800c310                resumeRxSignal
                0x0800c338                suspendRxSignal
                0x0800c364                warningLedRefresh
                0x0800c3ac                packFlightModeFlags.lto_priv.354
                0x0800c4dc                mspReleasePortIfAllocated
                0x0800c51c                read8.lto_priv.349
                0x0800c534                read16.lto_priv.350
                0x0800c548                read32.lto_priv.351
                0x0800c55a                serialize8.lto_priv.348
                0x0800c57c                tailSerialReply.lto_priv.346
                0x0800c5a0                headSerialResponse.lto_priv.191
                0x0800c5ec                headSerialReply.lto_priv.347
                0x0800c5f2                serialize16.lto_priv.352
                0x0800c604                serialize32.lto_priv.353
                0x0800c616                cliWrite.lto_priv.217
                0x0800c628                cliPrintf.lto_priv.213
                0x0800c654                cliVersion.lto_priv.210
                0x0800c688                cliTasks.lto_priv.209
                0x0800c700                cliPrintVar.lto_priv.218
                0x0800c7ec                cliPrint.lto_priv.211
                0x0800c808                cliStatus.lto_priv.208
                0x0800c940                cliGet.lto_priv.200
                0x0800c998                cliSet.lto_priv.207
 .text          0x0800cb9c      0xcdc /tmp/cc8DLllS.ltrans10.ltrans.o
                0x0800cbf2                cliShowArgumentRangeError.lto_priv.214
                0x0800cc0c                cliAux.lto_priv.198
                0x0800ccf8                cliShowParseError.lto_priv.215
                0x0800cd04                cliServo.lto_priv.206
                0x0800ce48                cliColor.lto_priv.199
                0x0800cf28                cliLed.lto_priv.201
                0x0800d140                cliRxRange.lto_priv.203
                0x0800d21c                cliMotorMix.lto_priv.202
                0x0800d414                cliAdjustmentRange.lto_priv.197
                0x0800d570                cliSerial.lto_priv.205
                0x0800d6b4                cliRxFail.lto_priv.204
                0x0800d7ec                cliPrompt.lto_priv.355
                0x0800d808                waitForSerialPortToFinishTransmitting
                0x0800d81e                serialRemovePort
                0x0800d850                closeSerialPort
 .text          0x0800d878      0xa84 /tmp/cc8DLllS.ltrans11.ltrans.o
                0x0800d9c0                blackboxWrite
                0x0800db58                blackboxAdvanceIterationTimers.lto_priv.375
                0x0800db94                blackboxLogEvent
                0x0800dc44                blackboxLogIteration.lto_priv.376
                0x0800e1a0                sendFieldDefinition.lto_priv.377
 .text          0x0800e2fc      0x41c /tmp/cc8DLllS.ltrans12.ltrans.o
                0x0800e2fc                mwArm
                0x0800e694                mwDisarm
                0x0800e6fc                HardFault_Handler
 .text          0x0800e718      0xd74 /tmp/cc8DLllS.ltrans13.ltrans.o
                0x0800e730                gpsNewFrame
                0x0800ecd8                gpsSetState.lto_priv.269
                0x0800ecf4                GPS_distance_cm_bearing.isra.3.lto_priv.558
                0x0800ed78                gpsNewData.part.2.lto_priv.216
 .text          0x0800f48c      0xcd0 /tmp/cc8DLllS.ltrans14.ltrans.o
                0x0800f4c8                cliDefaults.lto_priv.330
                0x0800f4e4                cliSave.lto_priv.344
                0x0800f4fc                cliRateProfile.lto_priv.343
                0x0800f548                cliHelp.lto_priv.337
                0x0800f58c                cliProfile.lto_priv.342
                0x0800f5cc                cliPlaySound.lto_priv.341
                0x0800f678                cliMotor.lto_priv.340
                0x0800f718                cliMixer.lto_priv.339
                0x0800f7bc                cliMap.lto_priv.338
                0x0800f860                cliGpsPassthrough.lto_priv.336
                0x0800f918                cliFeature.lto_priv.333
                0x0800fa10                cliExit.lto_priv.332
                0x0800fa90                cliDump.lto_priv.331
                0x0800fde0                cliFlashErase.lto_priv.334
                0x0800fe0c                cliFlashInfo.lto_priv.335
                0x0800fe44                cliServoMix.lto_priv.345
 .text          0x0801015c      0x718 /tmp/cc8DLllS.ltrans15.ltrans.o
                0x080101e6                isSoftSerialTransmitBufferEmpty
                0x080101f2                softSerialSetMode
                0x080101f6                softSerialWriteByte
                0x08010214                softSerialTxBytesFree
                0x08010236                softSerialRxBytesWaiting
                0x08010254                softSerialReadByte
                0x080103b0                softSerialSetBaudRate
                0x080103c0                onSerialRxPinChange
                0x0801045e                usartIrqCallback
                0x080104c2                uartStartTxDMA
                0x08010524                uartOpen
 .text          0x08010874      0xa20 /tmp/cc8DLllS.ltrans16.ltrans.o
                0x08010874                dmaNoOpHandler
                0x08010876                micros
                0x080108ac                beepInverted.lto_priv.465
                0x080108c0                beepNormal.lto_priv.466
                0x080108d4                actI2cRead
                0x080108e4                actI2cWrite
                0x080108f4                serialFindPortConfiguration
                0x0801091c                doesConfigurationUsePort
                0x08010932                determinePortSharing
                0x08010946                findNextSerialPortConfig
                0x08010978                findSerialPortConfig
                0x08010984                generateThrottleCurve
                0x08010a14                generatePitchRollCurve
                0x08010a48                isRangeActive.part.3.lto_priv.305
                0x08010a90                isModeActivationConditionPresent
                0x08010ab2                calculateThrottleStatus
                0x08010ae8                blackboxLogInflightAdjustmentEvent
                0x08010b10                bufWriterFlush
                0x08010b28                bufWriterAppend
                0x08010b44                DMA1_Channel7_IRQHandler
                0x08010b54                DMA1_Channel6_IRQHandler
                0x08010b64                DMA1_Channel3_IRQHandler
                0x08010b74                DMA1_Channel2_IRQHandler
                0x08010b84                delayMicroseconds
                0x08010b9a                delay
                0x08010bae                SysTick_Handler
                0x08010d0c                EXTI15_10_IRQHandler
                0x08010d2c                systemBeep
                0x08010d38                beeperSilence
                0x08010d64                beeper
                0x08010da8                beeperConfirmationBeeps
                0x08010dd8                failureMode
                0x08010e6c                registerExtiCallbackHandler
                0x08010e94                serialSetMode
                0x08010e9a                openSerialPort
                0x08010f38                isSerialTransmitBufferEmpty
                0x08010f3e                serialSetBaudRate
                0x08010f44                serialRead
                0x08010f4a                serialRxBytesWaiting
                0x08010f50                serialWrite
                0x08010f56                serialWriteBufShim
                0x08010f92                writeMotors
                0x08011038                stopMotors
                0x08011080                mixerResetDisarmedMotors
                0x080110b8                loadCustomServoMixer
                0x08011108                determineServoMiddleOrForwardFromChannel
                0x0801113c                imuComputeRotationMatrix.lto_priv.380
                0x08011270                pidSetController
 .text          0x08011294      0x988 /tmp/cc8DLllS.ltrans17.ltrans.o
                0x08011358                wrap_18000.lto_priv.379
                0x0801137c                GPS_set_next_wp
                0x08011408                gpsUsePIDs
                0x080114a8                GPS_reset_home_position
                0x080114fc                calculate_Gtune
                0x080116b8                flashfsAdvanceTailInBuffer.lto_priv.518
                0x080116e8                flashfsGetDirtyDataBuffers.lto_priv.516
                0x08011720                flashfsGetOffset
                0x08011740                flashfsWriteBuffers.lto_priv.517
                0x08011894                flashfsFlushSync
                0x080118cc                flashfsFlushAsync
                0x08011910                flashfsTransmitBufferUsed.lto_priv.378
                0x08011930                flashfsEraseCompletely
                0x08011980                TIM4_IRQHandler
                0x08011990                TIM3_IRQHandler
                0x080119a0                TIM2_IRQHandler
                0x080119ac                TIM1_UP_IRQHandler
                0x080119bc                TIM1_CC_IRQHandler
                0x080119cc                configTimeBase
                0x08011a74                timerConfigure
                0x08011ac8                lookupTimerIndex.lto_priv.244
                0x08011b04                timerChConfigCallbacks
                0x08011bbc                USART3_IRQHandler
                0x08011bc8                USART2_IRQHandler
                0x08011bd4                USART1_IRQHandler
                0x08011be0                DMA1_Channel4_IRQHandler
 .text          0x08011c1c      0x980 /tmp/cc8DLllS.ltrans18.ltrans.o
                0x08011c44                spektrumInit.constprop.42
                0x08011cbc                initI2cDevice.constprop.26
                0x08011d24                findNextSharedSerialPort.constprop.18
                0x08011d88                setAdjustment.constprop.16
                0x08011e14                headSerialError.constprop.10
                0x08011e1c                GPIO_Init
                0x08011eb8                EXTI_Init.part.0.lto_priv.493
                0x08011f18                EXTI_GetITStatus
                0x08011f34                TIM_ICInit
                0x0801215c                FLASH_WaitForLastOperation
                0x0801217e                RCC_GetClocksFreq
                0x08012210                DMA_StructInit
                0x0801222a                DMA_Init
                0x08012266                DMA_DeInit
                0x08012358                SystemInit
                0x080123a4                alignSensors
                0x0801251c                calculateBatteryCapacityRemainingPercentage
                0x08012564                updateBatteryVoltage.lto_priv.312
 .text          0x0801259c      0xa08 /tmp/cc8DLllS.ltrans19.ltrans.o
                0x0801259c                taskUpdateDisplay
                0x080125b4                taskUpdateBaro
                0x080126b0                taskCalculateAltitude
                0x08012b64                taskUpdateSonar
                0x08012ba8                taskUpdateCompass
                0x08012cfc                taskProcessGPS
 .text          0x08012fa4      0x974 /tmp/cc8DLllS.ltrans20.ltrans.o
                0x08012ff0                drawHorizonalPercentageBar
                0x08013042                updateDisplay
                0x08013778                applyDirectionalModeColor
                0x08013858                reevalulateLedConfig
 .text          0x08013918      0xa68 /tmp/cc8DLllS.ltrans21.ltrans.o
                0x08013918                _doTask.lto_priv.395
                0x080139d0                activateControlRateConfig
                0x08013a18                isEEPROMContentValid.lto_priv.497
                0x08013a5c                resetConf.lto_priv.212
                0x08013f10                _checkLoopTime.lto_priv.396
                0x08013fa4                _processingTask.lto_priv.397
                0x08014054                _setParam.lto_priv.401
                0x08014154                _checkParam.lto_priv.399
                0x080141a8                pifTaskManager_Add
                0x08014268                _resetTable.lto_priv.400
                0x08014294                pifRingBuffer_PutString
 .text          0x08014380      0x754 /tmp/cc8DLllS.ltrans22.ltrans.o
                0x080143f8                hmc5883lDetect
                0x0801468c                m25p16_isReady
                0x080146d4                m25p16_waitForReady
                0x080146f4                m25p16_readBytes
                0x08014740                i2c_OLED_send_byte.lto_priv.540
                0x0801474a                i2c_OLED_send_char
                0x08014780                i2c_OLED_send_string
                0x08014792                i2c_OLED_send_cmd.lto_priv.495
                0x0801479c                ug2864hsweg01InitI2C.part.0.lto_priv.494
                0x0801487a                i2c_OLED_set_line
                0x08014892                i2c_OLED_set_xy
                0x080148bc                i2cInit
 .text          0x08014ad4      0xa78 /tmp/cc8DLllS.ltrans23.ltrans.o
                0x08014ad4                pidMultiWiiRewrite.lto_priv.227
                0x08014da8                pidMultiWii23.lto_priv.229
                0x0801512c                pidLuxFloat.lto_priv.228
 .text          0x0801554c      0x6b8 /tmp/cc8DLllS.ltrans24.ltrans.o
                0x0801554c                NVIC_Init.part.0.constprop.184
                0x08015588                spiTransfer.constprop.174
                0x080155c8                spiTransferByte.constprop.173
                0x080155e8                bmp085InitXCLRGpio.constprop.154
                0x08015620                GPS_coord_to_degrees.constprop.126
                0x080156e0                grab_fields.constprop.125
                0x08015724                drawRxChannel.constprop.121
                0x08015770                blackboxWriteSigned16VBArray.constprop.94
                0x08015790                blackboxWriteSignedVBArray.constprop.93
                0x080157aa                mspAllocateSerialPorts.constprop.91
                0x08015824                pifLog_Printf.constprop.82
                0x08015b18                pifTask_GetDeltaTime.constprop.79
                0x08015b48                resetSerialConfig.constprop.70
                0x08015ba4                parseRcChannels.constprop.60
                0x08015be0                itoa.constprop.55
 .text          0x08015c04      0x670 /tmp/cc8DLllS.ltrans25.ltrans.o
                0x08015c0a                _printLog.lto_priv.185
                0x08015d58                pifFixList_Init.part.1.lto_priv.190
                0x08015db4                pifFixList_Remove
                0x08015de4                pif_HexToString
                0x08015e4c                pif_DecToString
                0x08015ede                pif_BinToString
                0x08015f2c                blackboxDeviceReserveBufferSpace
                0x08015f8c                isBlackboxDeviceFull
                0x08015fb8                blackboxDeviceFlushForce
                0x08015fdc                blackboxWriteTag2_3S32
                0x080160fc                blackboxWriteUnsignedVB
                0x0801611c                blackboxWriteSignedVB
                0x08016124                blackboxPrint
                0x08016200                blackboxPrintfHeaderLine
                0x08016250                blackboxPrintf
 .text          0x08016274      0x41c /tmp/cc8DLllS.ltrans26.ltrans.o
                0x08016294                i2c_ev_handler.lto_priv.574
                0x080164e4                i2c_er_handler.lto_priv.575
                0x0801657c                i2cRead
                0x080165fc                i2cWriteBuffer
                0x0801667c                i2cWrite
 .text          0x08016690      0x53c /tmp/cc8DLllS.ltrans27.ltrans.o
                0x08016784                sonarRead
                0x0801680c                ltm_finalise.lto_priv.259
                0x08016824                ltm_serialise_8.lto_priv.260
                0x08016848                ltm_serialise_32.lto_priv.261
                0x0801686a                ltm_serialise_16.lto_priv.263
                0x0801687c                ltm_initialise_packet.lto_priv.262
                0x080168b0                smartPortSendPackage.lto_priv.258
                0x08016918                workAroundForHottTelemetryOnUsart.isra.0.lto_priv.257
                0x08016944                flushHottRxBuffer.lto_priv.256
                0x08016960                serialize16.lto_priv.253
                0x08016974                sendTelemetryTail.lto_priv.252
                0x08016984                sendDataHead.lto_priv.254
                0x080169a4                sendLatLong.lto_priv.255
                0x08016a1c                telemetryCheckState
 .text          0x08016bcc      0x338 /tmp/cc8DLllS.ltrans28.ltrans.o
                0x08016bcc                taskUpdateBattery
                0x08016dd4                taskUpdateBeeper
 .text          0x08016f04      0x208 /tmp/cc8DLllS.ltrans29.ltrans.o
                0x08016f04                taskUpdateAccelerometer
 *fill*         0x0801710c        0x4 
 .text          0x08017110      0x178 /tmp/cc8DLllS.ltrans30.ltrans.o
                0x08017110                filterIsSetCheck
                0x08017150                scaleItermToRcInput
                0x08017230                pidResetErrorAngle
                0x0801724c                failsafeActivate.lto_priv.306
 .text          0x08017288      0x370 /usr/lib/gcc/arm-none-eabi/4.9.3/armv7-m/libgcc.a(_arm_addsubdf3.o)
                0x08017288                __aeabi_drsub
                0x08017290                __aeabi_dsub
                0x08017290                __subdf3
                0x08017294                __adddf3
                0x08017294                __aeabi_dadd
                0x0801750c                __aeabi_ui2d
                0x0801750c                __floatunsidf
                0x0801752c                __floatsidf
                0x0801752c                __aeabi_i2d
                0x08017550                __extendsfdf2
                0x08017550                __aeabi_f2d
                0x0801758c                __aeabi_ul2d
                0x0801758c                __floatundidf
                0x0801759c                __floatdidf
                0x0801759c                __aeabi_l2d
 .text          0x080175f8      0x424 /usr/lib/gcc/arm-none-eabi/4.9.3/armv7-m/libgcc.a(_arm_muldivdf3.o)
                0x080175f8                __aeabi_dmul
                0x080175f8                __muldf3
                0x0801784c                __aeabi_ddiv
                0x0801784c                __divdf3
 .text          0x08017a1c      0x110 /usr/lib/gcc/arm-none-eabi/4.9.3/armv7-m/libgcc.a(_arm_cmpdf2.o)
                0x08017a1c                __gtdf2
                0x08017a1c                __gedf2
                0x08017a24                __ltdf2
                0x08017a24                __ledf2
                0x08017a2c                __cmpdf2
                0x08017a2c                __eqdf2
                0x08017a2c                __nedf2
                0x08017aa8                __aeabi_cdrcmple
                0x08017ab8                __aeabi_cdcmple
                0x08017ab8                __aeabi_cdcmpeq
                0x08017ac8                __aeabi_dcmpeq
                0x08017adc                __aeabi_dcmplt
                0x08017af0                __aeabi_dcmple
                0x08017b04                __aeabi_dcmpge
                0x08017b18                __aeabi_dcmpgt
 .text          0x08017b2c       0x40 /usr/lib/gcc/arm-none-eabi/4.9.3/armv7-m/libgcc.a(_arm_fixunsdfsi.o)
                0x08017b2c                __fixunsdfsi
                0x08017b2c                __aeabi_d2uiz
 .text          0x08017b6c       0xa0 /usr/lib/gcc/arm-none-eabi/4.9.3/armv7-m/libgcc.a(_arm_truncdfsf2.o)
                0x08017b6c                __aeabi_d2f
                0x08017b6c                __truncdfsf2
 .text          0x08017c0c      0x21c /usr/lib/gcc/arm-none-eabi/4.9.3/armv7-m/libgcc.a(_arm_addsubsf3.o)
                0x08017c0c                __aeabi_frsub
                0x08017c14                __subsf3
                0x08017c14                __aeabi_fsub
                0x08017c18                __aeabi_fadd
                0x08017c18                __addsf3
                0x08017d78                __aeabi_ui2f
                0x08017d78                __floatunsisf
                0x08017d80                __aeabi_i2f
                0x08017d80                __floatsisf
                0x08017d9c                __floatundisf
                0x08017d9c                __aeabi_ul2f
                0x08017dac                __floatdisf
                0x08017dac                __aeabi_l2f
 .text          0x08017e28      0x2a0 /usr/lib/gcc/arm-none-eabi/4.9.3/armv7-m/libgcc.a(_arm_muldivsf3.o)
                0x08017e28                __mulsf3
                0x08017e28                __aeabi_fmul
                0x08017f90                __divsf3
                0x08017f90                __aeabi_fdiv
 .text          0x080180c8       0xec /usr/lib/gcc/arm-none-eabi/4.9.3/armv7-m/libgcc.a(_arm_cmpsf2.o)
                0x080180c8                __gtsf2
                0x080180c8                __gesf2
                0x080180d0                __lesf2
                0x080180d0                __ltsf2
                0x080180d8                __nesf2
                0x080180d8                __eqsf2
                0x080180d8                __cmpsf2
                0x08018138                __aeabi_cfrcmple
                0x08018140                __aeabi_cfcmple
                0x08018140                __aeabi_cfcmpeq
                0x08018150                __aeabi_fcmpeq
                0x08018164                __aeabi_fcmplt
                0x08018178                __aeabi_fcmple
                0x0801818c                __aeabi_fcmpge
                0x080181a0                __aeabi_fcmpgt
 .text          0x080181b4       0x4c /usr/lib/gcc/arm-none-eabi/4.9.3/armv7-m/libgcc.a(_arm_fixsfsi.o)
                0x080181b4                __fixsfsi
                0x080181b4                __aeabi_f2iz
 .text          0x08018200       0x40 /usr/lib/gcc/arm-none-eabi/4.9.3/armv7-m/libgcc.a(_arm_fixunssfsi.o)
                0x08018200                __aeabi_f2uiz
                0x08018200                __fixunssfsi
 .text          0x08018240       0x38 /usr/lib/gcc/arm-none-eabi/4.9.3/armv7-m/libgcc.a(_aeabi_ldivmod.o)
                0x08018240                __aeabi_ldivmod
 .text          0x08018278       0x60 /usr/lib/gcc/arm-none-eabi/4.9.3/armv7-m/libgcc.a(bpabi.o)
                0x08018278                __gnu_ldivmod_helper
                0x080182a8                __gnu_uldivmod_helper
 .text          0x080182d8        0x4 /usr/lib/gcc/arm-none-eabi/4.9.3/armv7-m/libgcc.a(_dvmd_tls.o)
                0x080182d8                __aeabi_ldiv0
                0x080182d8                __aeabi_idiv0
 .text          0x080182dc      0x2ac /usr/lib/gcc/arm-none-eabi/4.9.3/armv7-m/libgcc.a(_divdi3.o)
                0x080182dc                __divdi3
 .text          0x08018588      0x270 /usr/lib/gcc/arm-none-eabi/4.9.3/armv7-m/libgcc.a(_udivdi3.o)
                0x08018588                __udivdi3
 *(.text*)
 .text.Reset_Handler
                0x080187f8       0x9c obj/main/NAZE/startup_stm32f10x_md_gcc.o
                0x080187f8                Reset_Handler
 .text.Default_Handler
                0x08018894        0x2 obj/main/NAZE/startup_stm32f10x_md_gcc.o
                0x08018894                EXTI2_IRQHandler
                0x08018894                DebugMon_Handler
                0x08018894                PVD_IRQHandler
                0x08018894                PendSV_Handler
                0x08018894                NMI_Handler
                0x08018894                EXTI3_IRQHandler
                0x08018894                UsageFault_Handler
                0x08018894                ADC1_2_IRQHandler
                0x08018894                SPI1_IRQHandler
                0x08018894                TAMPER_IRQHandler
                0x08018894                RTC_IRQHandler
                0x08018894                CAN1_RX1_IRQHandler
                0x08018894                RCC_IRQHandler
                0x08018894                TIM1_TRG_COM_IRQHandler
                0x08018894                DMA1_Channel1_IRQHandler
                0x08018894                Default_Handler
                0x08018894                SPI2_IRQHandler
                0x08018894                MemManage_Handler
                0x08018894                SVC_Handler
                0x08018894                DMA1_Channel5_IRQHandler
                0x08018894                EXTI4_IRQHandler
                0x08018894                USB_LP_CAN1_RX0_IRQHandler
                0x08018894                USB_HP_CAN1_TX_IRQHandler
                0x08018894                WWDG_IRQHandler
                0x08018894                TIM1_BRK_IRQHandler
                0x08018894                RTCAlarm_IRQHandler
                0x08018894                CAN1_SCE_IRQHandler
                0x08018894                FLASH_IRQHandler
                0x08018894                BusFault_Handler
                0x08018894                USBWakeUp_IRQHandler
 *fill*         0x08018896        0x2 
 .text.startup  0x08018898      0x370 /tmp/cc8DLllS.ltrans12.ltrans.o
                0x08018898                main
 .text.atoi     0x08018c08        0x8 /usr/lib/gcc/arm-none-eabi/4.9.3/../../../arm-none-eabi/lib/armv7-m/libc_nano.a(lib_a-atoi.o)
                0x08018c08                atoi
 .text.strtok   0x08018c10       0x64 /usr/lib/gcc/arm-none-eabi/4.9.3/../../../arm-none-eabi/lib/armv7-m/libc_nano.a(lib_a-strtok.o)
                0x08018c10                strtok
 .text.__strtok_r
                0x08018c74       0x56 /usr/lib/gcc/arm-none-eabi/4.9.3/../../../arm-none-eabi/lib/armv7-m/libc_nano.a(lib_a-strtok_r.o)
                0x08018c74                __strtok_r
 .text.strtok_r
                0x08018cca        0x6 /usr/lib/gcc/arm-none-eabi/4.9.3/../../../arm-none-eabi/lib/armv7-m/libc_nano.a(lib_a-strtok_r.o)
                0x08018cca                strtok_r
 .text._strtol_r
                0x08018cd0      0x10c /usr/lib/gcc/arm-none-eabi/4.9.3/../../../arm-none-eabi/lib/armv7-m/libc_nano.a(lib_a-strtol.o)
                0x08018cd0                _strtol_r
 .text.strtol   0x08018ddc       0x1c /usr/lib/gcc/arm-none-eabi/4.9.3/../../../arm-none-eabi/lib/armv7-m/libc_nano.a(lib_a-strtol.o)
                0x08018ddc                strtol
 .text.malloc   0x08018df8       0x10 /usr/lib/gcc/arm-none-eabi/4.9.3/../../../arm-none-eabi/lib/armv7-m/libc_nano.a(lib_a-malloc.o)
                0x08018df8                malloc
 .text.free     0x08018e08       0x10 /usr/lib/gcc/arm-none-eabi/4.9.3/../../../arm-none-eabi/lib/armv7-m/libc_nano.a(lib_a-malloc.o)
                0x08018e08                free
 .text._free_r  0x08018e18       0x88 /usr/lib/gcc/arm-none-eabi/4.9.3/../../../arm-none-eabi/lib/armv7-m/libc_nano.a(lib_a-nano-freer.o)
                0x08018e18                _free_r
 .text._malloc_r
                0x08018ea0       0xac /usr/lib/gcc/arm-none-eabi/4.9.3/../../../arm-none-eabi/lib/armv7-m/libc_nano.a(lib_a-nano-mallocr.o)
                0x08018ea0                _malloc_r
 .text._sbrk_r  0x08018f4c       0x20 /usr/lib/gcc/arm-none-eabi/4.9.3/../../../arm-none-eabi/lib/armv7-m/libc_nano.a(lib_a-sbrkr.o)
                0x08018f4c                _sbrk_r
 .text._sbrk    0x08018f6c       0x1c /usr/lib/gcc/arm-none-eabi/4.9.3/../../../arm-none-eabi/lib/armv7-m/libnosys.a(sbrk.o)
                0x08018f6c                _sbrk
 .text.lrintf   0x08018f88       0x78 /usr/lib/gcc/arm-none-eabi/4.9.3/../../../arm-none-eabi/lib/armv7-m/libm.a(lib_a-sf_lrint.o)
                0x08018f88                lrintf
 .text.powf     0x08019000      0x314 /usr/lib/gcc/arm-none-eabi/4.9.3/../../../arm-none-eabi/lib/armv7-m/libm.a(lib_a-wf_pow.o)
                0x08019000                powf
 .text.sqrtf    0x08019314       0x9c /usr/lib/gcc/arm-none-eabi/4.9.3/../../../arm-none-eabi/lib/armv7-m/libm.a(lib_a-wf_sqrt.o)
                0x08019314                sqrtf
 .text.__ieee754_powf
                0x080193b0      0x6ec /usr/lib/gcc/arm-none-eabi/4.9.3/../../../arm-none-eabi/lib/armv7-m/libm.a(lib_a-ef_pow.o)
                0x080193b0                __ieee754_powf
 .text.__ieee754_sqrtf
                0x08019a9c       0xa8 /usr/lib/gcc/arm-none-eabi/4.9.3/../../../arm-none-eabi/lib/armv7-m/libm.a(lib_a-ef_sqrt.o)
                0x08019a9c                __ieee754_sqrtf
 .text.matherr  0x08019b44        0x4 /usr/lib/gcc/arm-none-eabi/4.9.3/../../../arm-none-eabi/lib/armv7-m/libm.a(lib_a-s_matherr.o)
                0x08019b44                matherr
 .text.rint     0x08019b48      0x11c /usr/lib/gcc/arm-none-eabi/4.9.3/../../../arm-none-eabi/lib/armv7-m/libm.a(lib_a-s_rint.o)
                0x08019b48                rint
 .text.fabsf    0x08019c64        0x8 /usr/lib/gcc/arm-none-eabi/4.9.3/../../../arm-none-eabi/lib/armv7-m/libm.a(lib_a-sf_fabs.o)
                0x08019c64                fabsf
 .text.finitef  0x08019c6c       0x10 /usr/lib/gcc/arm-none-eabi/4.9.3/../../../arm-none-eabi/lib/armv7-m/libm.a(lib_a-sf_finite.o)
                0x08019c6c                finitef
 .text.__fpclassifyf
                0x08019c7c       0x34 /usr/lib/gcc/arm-none-eabi/4.9.3/../../../arm-none-eabi/lib/armv7-m/libm.a(lib_a-sf_fpclassify.o)
                0x08019c7c                __fpclassifyf
 .text.nanf     0x08019cb0        0x8 /usr/lib/gcc/arm-none-eabi/4.9.3/../../../arm-none-eabi/lib/armv7-m/libm.a(lib_a-sf_nan.o)
                0x08019cb0                nanf
 .text.scalbnf  0x08019cb8       0xb0 /usr/lib/gcc/arm-none-eabi/4.9.3/../../../arm-none-eabi/lib/armv7-m/libm.a(lib_a-sf_scalbn.o)
                0x08019cb8                scalbnf
 .text.copysignf
                0x08019d68        0xc /usr/lib/gcc/arm-none-eabi/4.9.3/../../../arm-none-eabi/lib/armv7-m/libm.a(lib_a-sf_copysign.o)
                0x08019d68                copysignf
 .text.calloc   0x08019d74       0x14 /usr/lib/gcc/arm-none-eabi/4.9.3/../../../arm-none-eabi/lib/armv7-m/libc_nano.a(lib_a-calloc.o)
                0x08019d74                calloc
 .text.__errno  0x08019d88        0xc /usr/lib/gcc/arm-none-eabi/4.9.3/../../../arm-none-eabi/lib/armv7-m/libc_nano.a(lib_a-errno.o)
                0x08019d88                __errno
 .text.memcmp   0x08019d94       0x20 /usr/lib/gcc/arm-none-eabi/4.9.3/../../../arm-none-eabi/lib/armv7-m/libc_nano.a(lib_a-memcmp.o)
                0x08019d94                memcmp
 .text.memcpy   0x08019db4       0x16 /usr/lib/gcc/arm-none-eabi/4.9.3/../../../arm-none-eabi/lib/armv7-m/libc_nano.a(lib_a-memcpy.o)
                0x08019db4                memcpy
 .text.memset   0x08019dca       0x10 /usr/lib/gcc/arm-none-eabi/4.9.3/../../../arm-none-eabi/lib/armv7-m/libc_nano.a(lib_a-memset.o)
                0x08019dca                memset
 .text._calloc_r
                0x08019dda       0x1c /usr/lib/gcc/arm-none-eabi/4.9.3/../../../arm-none-eabi/lib/armv7-m/libc_nano.a(lib_a-nano-callocr.o)
                0x08019dda                _calloc_r
 *fill*         0x08019df6        0x2 
 .text.strcasecmp
                0x08019df8       0x3c /usr/lib/gcc/arm-none-eabi/4.9.3/../../../arm-none-eabi/lib/armv7-m/libc_nano.a(lib_a-strcasecmp.o)
                0x08019df8                strcasecmp
 .text.strcat   0x08019e34       0x1e /usr/lib/gcc/arm-none-eabi/4.9.3/../../../arm-none-eabi/lib/armv7-m/libc_nano.a(lib_a-strcat.o)
                0x08019e34                strcat
 .text.strchr   0x08019e52       0x1c /usr/lib/gcc/arm-none-eabi/4.9.3/../../../arm-none-eabi/lib/armv7-m/libc_nano.a(lib_a-strchr.o)
                0x08019e52                strchr
 .text.strcpy   0x08019e6e       0x10 /usr/lib/gcc/arm-none-eabi/4.9.3/../../../arm-none-eabi/lib/armv7-m/libc_nano.a(lib_a-strcpy.o)
                0x08019e6e                strcpy
 .text.strlen   0x08019e7e       0x10 /usr/lib/gcc/arm-none-eabi/4.9.3/../../../arm-none-eabi/lib/armv7-m/libc_nano.a(lib_a-strlen.o)
                0x08019e7e                strlen
 *fill*         0x08019e8e        0x2 
 .text.strncasecmp
                0x08019e90       0x44 /usr/lib/gcc/arm-none-eabi/4.9.3/../../../arm-none-eabi/lib/armv7-m/libc_nano.a(lib_a-strncasecmp.o)
                0x08019e90                strncasecmp
 .text.strncpy  0x08019ed4       0x24 /usr/lib/gcc/arm-none-eabi/4.9.3/../../../arm-none-eabi/lib/armv7-m/libc_nano.a(lib_a-strncpy.o)
                0x08019ed4                strncpy
 .text.strstr   0x08019ef8       0x30 /usr/lib/gcc/arm-none-eabi/4.9.3/../../../arm-none-eabi/lib/armv7-m/libc_nano.a(lib_a-strstr.o)
                0x08019ef8                strstr
 *(.rodata)
 .rodata        0x08019f28      0x1f0 /tmp/cc8DLllS.ltrans0.ltrans.o
                0x0801a0a0                hsv_white
 .rodata        0x0801a118      0x2b4 /tmp/cc8DLllS.ltrans1.ltrans.o
 .rodata        0x0801a3cc      0x18c /tmp/cc8DLllS.ltrans2.ltrans.o
 .rodata        0x0801a558        0x8 /tmp/cc8DLllS.ltrans5.ltrans.o
 .rodata        0x0801a560       0x28 /tmp/cc8DLllS.ltrans7.ltrans.o
 .rodata        0x0801a588       0x38 /tmp/cc8DLllS.ltrans8.ltrans.o
                0x0801a588                hsv_green
                0x0801a58c                hsv_red
                0x0801a590                hsv_yellow
                0x0801a594                hsv_blue
                0x0801a5bc                hsv_orange
 .rodata        0x0801a5c0      0xf44 /tmp/cc8DLllS.ltrans9.ltrans.o
                0x0801a658                valueTable
                0x0801b4f8                shortGitRevision
                0x0801b4fc                buildTime
                0x0801b500                buildDate
 .rodata        0x0801b504      0x4f0 /tmp/cc8DLllS.ltrans10.ltrans.o
                0x0801b534                mixerAtail4.lto_priv.485
                0x0801b574                mixerDualcopter.lto_priv.484
                0x0801b594                mixerHex6H.lto_priv.483
                0x0801b5f4                mixerVtail4.lto_priv.482
                0x0801b634                mixerOctoFlatX.lto_priv.481
                0x0801b6b4                mixerOctoFlatP.lto_priv.480
                0x0801b734                mixerOctoX8.lto_priv.479
                0x0801b7b4                mixerHex6X.lto_priv.478
                0x0801b814                mixerY4.lto_priv.477
                0x0801b854                mixerSingleProp.lto_priv.476
                0x0801b864                mixerHex6P.lto_priv.475
                0x0801b8c4                mixerY6.lto_priv.474
                0x0801b924                mixerBicopter.lto_priv.473
                0x0801b944                mixerQuadX.lto_priv.472
                0x0801b984                mixerQuadP.lto_priv.471
                0x0801b9c4                mixerTricopter.lto_priv.470
 .rodata        0x0801b9f4       0x18 /tmp/cc8DLllS.ltrans11.ltrans.o
 .rodata        0x0801ba0c      0x54c /tmp/cc8DLllS.ltrans14.ltrans.o
                0x0801ba0c                cmdTable
                0x0801bbec                beeperTable.lto_priv.224
                0x0801bcac                mixerNames.lto_priv.219
                0x0801bd70                servoMixers
                0x0801be40                servoMixerSingle.lto_priv.492
                0x0801be78                servoMixerDual.lto_priv.491
                0x0801be86                servoMixerAirplane.lto_priv.490
                0x0801bea9                servoMixerFlyingWing.lto_priv.489
                0x0801becc                servoMixerGimbal.lto_priv.488
                0x0801beda                servoMixerBI.lto_priv.487
                0x0801bef6                servoMixerTri.lto_priv.486
                0x0801befd                beep_armedBeep.lto_priv.243
                0x0801bf02                beep_disarmRepeatBeep.lto_priv.242
                0x0801bf06                beep_readyBeep.lto_priv.241
                0x0801bf15                beep_2longerBeeps.lto_priv.240
                0x0801bf1a                beep_2shortBeeps.lto_priv.239
                0x0801bf1f                beep_shortBeep.lto_priv.238
                0x0801bf22                beep_lowBatteryBeep.lto_priv.237
                0x0801bf25                beep_critBatteryBeep.lto_priv.236
                0x0801bf28                beep_armedGpsFix.lto_priv.235
                0x0801bf31                beep_armingBeep.lto_priv.234
                0x0801bf36                beep_disarmBeep.lto_priv.233
                0x0801bf3b                beep_txLostBeep.lto_priv.232
                0x0801bf3e                beep_sos.lto_priv.231
                0x0801bf51                beep_gyroCalibrated.lto_priv.230
 .rodata        0x0801bf58       0x28 /tmp/cc8DLllS.ltrans15.ltrans.o
 .rodata        0x0801bf80        0xc /tmp/cc8DLllS.ltrans16.ltrans.o
 .rodata        0x0801bf8c       0x14 /tmp/cc8DLllS.ltrans18.ltrans.o
 .rodata        0x0801bfa0      0x144 /tmp/cc8DLllS.ltrans19.ltrans.o
                0x0801bfa0                gpsInitData.lto_priv.423
 .rodata        0x0801c0e4       0x22 /tmp/cc8DLllS.ltrans20.ltrans.o
 *fill*         0x0801c106        0x2 
 .rodata        0x0801c108       0xc4 /tmp/cc8DLllS.ltrans21.ltrans.o
 .rodata        0x0801c1cc      0x2fc /tmp/cc8DLllS.ltrans22.ltrans.o
 .rodata        0x0801c4c8       0x34 /tmp/cc8DLllS.ltrans24.ltrans.o
                0x0801c4c8                baudRates
                0x0801c4e8                bmp085Config.lto_priv.571
 *(.rodata*)
 .rodata.gyro_detect
                0x0801c4fc       0x50 /tmp/cc8DLllS.ltrans0.ltrans.o
 .rodata.timerHardware
                0x0801c54c       0xe0 /tmp/cc8DLllS.ltrans0.ltrans.o
                0x0801c54c                timerHardware
 .rodata.str1.1
                0x0801c62c      0x20d /tmp/cc8DLllS.ltrans1.ltrans.o
                                0x21f (size before relaxing)
 .rodata.str1.1
                0x0801c839      0x154 /tmp/cc8DLllS.ltrans2.ltrans.o
                                0x16d (size before relaxing)
 .rodata.str1.1
                0x0801c98d       0x44 /tmp/cc8DLllS.ltrans4.ltrans.o
 *fill*         0x0801c9d1        0x1 
 .rodata.frSkyDataIdTable
                0x0801c9d2       0x20 /tmp/cc8DLllS.ltrans5.ltrans.o
 .rodata.str1.1
                0x0801c9f2       0x27 /tmp/cc8DLllS.ltrans6.ltrans.o
 *fill*         0x0801ca19        0x1 
 .rodata.hsv_black
                0x0801ca1a        0x4 /tmp/cc8DLllS.ltrans8.ltrans.o
                0x0801ca1a                hsv_black
 .rodata.str1.1
                0x0801ca1e      0xd55 /tmp/cc8DLllS.ltrans9.ltrans.o
                                0xdbf (size before relaxing)
 *fill*         0x0801d773        0x1 
 .rodata.mixers
                0x0801d774       0xd0 /tmp/cc8DLllS.ltrans10.ltrans.o
                0x0801d774                mixers
 .rodata.str1.1
                0x0801d844      0x14b /tmp/cc8DLllS.ltrans10.ltrans.o
                                0x168 (size before relaxing)
 .rodata.str1.1
                0x0801d98f       0x3e /tmp/cc8DLllS.ltrans11.ltrans.o
                                 0x41 (size before relaxing)
 .rodata.str1.1
                0x0801d9cd      0x917 /tmp/cc8DLllS.ltrans14.ltrans.o
                                0x9eb (size before relaxing)
 .rodata.str1.1
                0x0801e2e4       0xfb /tmp/cc8DLllS.ltrans19.ltrans.o
                                 0xfc (size before relaxing)
 .rodata.cyclePageIds
                0x0801e3df        0x5 /tmp/cc8DLllS.ltrans20.ltrans.o
 .rodata.str1.1
                0x0801e3e4      0x12f /tmp/cc8DLllS.ltrans20.ltrans.o
                                0x159 (size before relaxing)
 .rodata.str1.1
                0x0801e513       0x28 /tmp/cc8DLllS.ltrans21.ltrans.o
 .rodata.str1.1
                0x0801e53b        0x8 /tmp/cc8DLllS.ltrans22.ltrans.o
 .rodata.serialPortIdentifiers
                0x0801e543        0x5 /tmp/cc8DLllS.ltrans24.ltrans.o
                0x0801e543                serialPortIdentifiers
 .rodata.rcChannelLetters
                0x0801e548       0x15 /tmp/cc8DLllS.ltrans24.ltrans.o
                0x0801e548                rcChannelLetters
 .rodata.str1.1
                0x0801e55d       0x22 /tmp/cc8DLllS.ltrans25.ltrans.o
 .rodata._ctype_
                0x0801e57f      0x101 /usr/lib/gcc/arm-none-eabi/4.9.3/../../../arm-none-eabi/lib/armv7-m/libc_nano.a(lib_a-ctype_.o)
                0x0801e57f                _ctype_
 .rodata.str1.1
                0x0801e680        0x0 /usr/lib/gcc/arm-none-eabi/4.9.3/../../../arm-none-eabi/lib/armv7-m/libc_nano.a(lib_a-impure.o)
                                  0x2 (size before relaxing)
 .rodata.TWO23  0x0801e680        0x8 /usr/lib/gcc/arm-none-eabi/4.9.3/../../../arm-none-eabi/lib/armv7-m/libm.a(lib_a-sf_lrint.o)
 .rodata.str1.4
                0x0801e688        0x5 /usr/lib/gcc/arm-none-eabi/4.9.3/../../../arm-none-eabi/lib/armv7-m/libm.a(lib_a-wf_pow.o)
                                  0x8 (size before relaxing)
 *fill*         0x0801e68d        0x3 
 .rodata.str1.4
                0x0801e690        0x6 /usr/lib/gcc/arm-none-eabi/4.9.3/../../../arm-none-eabi/lib/armv7-m/libm.a(lib_a-wf_sqrt.o)
                                  0x8 (size before relaxing)
 *fill*         0x0801e696        0x2 
 .rodata.dp_h   0x0801e698        0x8 /usr/lib/gcc/arm-none-eabi/4.9.3/../../../arm-none-eabi/lib/armv7-m/libm.a(lib_a-ef_pow.o)
 .rodata.dp_l   0x0801e6a0        0x8 /usr/lib/gcc/arm-none-eabi/4.9.3/../../../arm-none-eabi/lib/armv7-m/libm.a(lib_a-ef_pow.o)
 .rodata.bp     0x0801e6a8        0x8 /usr/lib/gcc/arm-none-eabi/4.9.3/../../../arm-none-eabi/lib/armv7-m/libm.a(lib_a-ef_pow.o)
 .rodata.str1.4
                0x0801e6b0        0x8 /usr/lib/gcc/arm-none-eabi/4.9.3/../../../arm-none-eabi/lib/armv7-m/libm.a(lib_a-ef_pow.o)
                                  0x4 (size before relaxing)
 .rodata.TWO52  0x0801e6b0       0x10 /usr/lib/gcc/arm-none-eabi/4.9.3/../../../arm-none-eabi/lib/armv7-m/libm.a(lib_a-s_rint.o)
 *(.glue_7)
 .glue_7        0x0801e6c0        0x0 linker stubs
 *(.glue_7t)
 .glue_7t       0x0801e6c0        0x0 linker stubs
 *(.eh_frame)
 *(.init)
 *(.fini)
                0x0801e6c0                . = ALIGN (0x4)
                0x0801e6c0                _etext = .

.vfp11_veneer   0x0801e6c0        0x0
 .vfp11_veneer  0x0801e6c0        0x0 linker stubs

.v4_bx          0x0801e6c0        0x0
 .v4_bx         0x0801e6c0        0x0 linker stubs

.iplt           0x0801e6c0        0x0
 .iplt          0x0801e6c0        0x0 obj/main/NAZE/startup_stm32f10x_md_gcc.o

.ARM.extab
 *(.ARM.extab* .gnu.linkonce.armextab.*)

.ARM            0x0801e6c0        0x8
                0x0801e6c0                __exidx_start = .
 *(.ARM.exidx*)
 .ARM.exidx     0x0801e6c0        0x8 /usr/lib/gcc/arm-none-eabi/4.9.3/armv7-m/libgcc.a(_divdi3.o)
 .ARM.exidx     0x0801e6c8        0x0 /usr/lib/gcc/arm-none-eabi/4.9.3/armv7-m/libgcc.a(_udivdi3.o)
                                  0x8 (size before relaxing)
                0x0801e6c8                __exidx_end = .

.rel.dyn        0x0801e6c8        0x0
 .rel.iplt      0x0801e6c8        0x0 obj/main/NAZE/startup_stm32f10x_md_gcc.o

.preinit_array  0x0801e6c8        0x0
                [!provide]                PROVIDE (__preinit_array_start, .)
 *(.preinit_array*)
                [!provide]                PROVIDE (__preinit_array_end, .)

.init_array     0x0801e6c8        0x0
                [!provide]                PROVIDE (__init_array_start, .)
 *(SORT(.init_array.*))
 *(.init_array*)
                [!provide]                PROVIDE (__init_array_end, .)

.fini_array     0x0801e6c8        0x0
                [!provide]                PROVIDE (__fini_array_start, .)
 *(.fini_array*)
 *(SORT(.fini_array.*))
                [!provide]                PROVIDE (__fini_array_end, .)
                0x0801e6c8                _sidata = .

.data           0x20000000      0x1ec load address 0x0801e6c8
                0x20000000                . = ALIGN (0x4)
                0x20000000                _sdata = .
 *(.data)
 .data          0x20000000        0x3 /tmp/cc8DLllS.ltrans3.ltrans.o
                0x20000002                isUsingSticksToArm.lto_priv.318
 .data          0x20000003        0x1 /tmp/cc8DLllS.ltrans4.ltrans.o
 .data          0x20000004        0x1 /tmp/cc8DLllS.ltrans5.ltrans.o
 *fill*         0x20000005        0x3 
 .data          0x20000008        0x4 /tmp/cc8DLllS.ltrans6.ltrans.o
 .data          0x2000000c        0x3 /tmp/cc8DLllS.ltrans8.ltrans.o
 *fill*         0x2000000f        0x1 
 .data          0x20000010        0x4 /tmp/cc8DLllS.ltrans13.ltrans.o
                0x20000010                GPS_scaleLonDown.lto_priv.550
 .data          0x20000014       0x14 /tmp/cc8DLllS.ltrans14.ltrans.o
                0x20000018                geometry.lto_priv.323
 .data          0x20000028        0x4 /tmp/cc8DLllS.ltrans16.ltrans.o
                0x20000028                q0.lto_priv.371
 .data          0x2000002c        0xd /tmp/cc8DLllS.ltrans18.ltrans.o
                0x2000002c                rcReadRawFunc.lto_priv.282
                0x20000030                pif_id
                0x20000034                hse_value
                0x20000038                standardBoardAlignment.lto_priv.452
 *fill*         0x20000039        0x3 
 .data          0x2000003c        0xc /tmp/cc8DLllS.ltrans22.ltrans.o
 .data          0x20000048        0x1 /tmp/cc8DLllS.ltrans24.ltrans.o
 *fill*         0x20000049        0x3 
 .data          0x2000004c        0x4 /tmp/cc8DLllS.ltrans27.ltrans.o
                0x2000004c                measurement.lto_priv.566
 .data          0x20000050        0xc /tmp/cc8DLllS.ltrans30.ltrans.o
 *(.data*)
 .data.bmp280_name
                0x2000005c        0x4 /tmp/cc8DLllS.ltrans4.ltrans.o
 .data.mpu3050_name
                0x20000060        0x4 /tmp/cc8DLllS.ltrans4.ltrans.o
 .data.ms5611_name
                0x20000064        0x4 /tmp/cc8DLllS.ltrans4.ltrans.o
 .data.bma280_name
                0x20000068        0x4 /tmp/cc8DLllS.ltrans4.ltrans.o
 .data.mpu6500_name
                0x2000006c        0x4 /tmp/cc8DLllS.ltrans4.ltrans.o
 .data.mma845x_name
                0x20000070        0x4 /tmp/cc8DLllS.ltrans4.ltrans.o
 .data.mpu6050_name
                0x20000074        0x4 /tmp/cc8DLllS.ltrans4.ltrans.o
 .data.adxl345_name
                0x20000078        0x4 /tmp/cc8DLllS.ltrans4.ltrans.o
 .data.mpu6500_spi_name
                0x2000007c        0x4 /tmp/cc8DLllS.ltrans4.ltrans.o
 .data.GPS_hdop
                0x20000080        0x2 /tmp/cc8DLllS.ltrans5.ltrans.o
                0x20000080                GPS_hdop
 .data.batteryCellCount
                0x20000082        0x1 /tmp/cc8DLllS.ltrans9.ltrans.o
                0x20000082                batteryCellCount
 *fill*         0x20000083        0x1 
 .data.SystemCoreClock
                0x20000084        0x4 /tmp/cc8DLllS.ltrans9.ltrans.o
                0x20000084                SystemCoreClock
 .data.cfTasks  0x20000088       0xf0 /tmp/cc8DLllS.ltrans9.ltrans.o
                0x20000088                cfTasks
 .data.pid_controller
                0x20000178        0x4 /tmp/cc8DLllS.ltrans16.ltrans.o
                0x20000178                pid_controller
 .data.hmc5883_name
                0x2000017c        0x4 /tmp/cc8DLllS.ltrans22.ltrans.o
 .data.__ctype_ptr__
                0x20000180        0x4 /usr/lib/gcc/arm-none-eabi/4.9.3/../../../arm-none-eabi/lib/armv7-m/libc_nano.a(lib_a-ctype_.o)
                0x20000180                __ctype_ptr__
 .data.impure_data
                0x20000184       0x60 /usr/lib/gcc/arm-none-eabi/4.9.3/../../../arm-none-eabi/lib/armv7-m/libc_nano.a(lib_a-impure.o)
 .data._impure_ptr
                0x200001e4        0x4 /usr/lib/gcc/arm-none-eabi/4.9.3/../../../arm-none-eabi/lib/armv7-m/libc_nano.a(lib_a-impure.o)
                0x200001e4                _impure_ptr
 .data.__fdlib_version
                0x200001e8        0x1 /usr/lib/gcc/arm-none-eabi/4.9.3/../../../arm-none-eabi/lib/armv7-m/libm.a(lib_a-s_lib_ver.o)
                0x200001e8                __fdlib_version
                0x200001ec                . = ALIGN (0x4)
 *fill*         0x200001e9        0x3 
                0x200001ec                _edata = .

.igot.plt       0x200001ec        0x0 load address 0x0801e8b4
 .igot.plt      0x200001ec        0x0 obj/main/NAZE/startup_stm32f10x_md_gcc.o
                0x200001ec                . = ALIGN (0x4)

.bss            0x200001f0     0x3554 load address 0x0801e8b4
                0x200001f0                _sbss = .
                0x200001f0                __bss_start__ = _sbss
 *(.bss)
 .bss           0x200001f0      0x518 /tmp/cc8DLllS.ltrans0.ltrans.o
                0x200001f8                i2cOverClock.lto_priv.568
                0x2000021c                inputFilteringMode.lto_priv.563
                0x20000220                ppmDev
                0x2000034c                servos.lto_priv.565
                0x2000036d                displayPresent.lto_priv.539
                0x20000374                mpuDetectionResult
                0x20000378                mpuConfiguration
                0x20000384                mpuIntExtiConfig.lto_priv.573
                0x20000388                mpuDividerDrops.lto_priv.572
                0x20000394                gpsPacketLog
                0x200003ac                p_task_altitude.lto_priv.567
                0x200003b4                ledStripDMABuffer
                0x200006e0                telemetryConfig.lto_priv.408
                0x200006e4                portConfig.lto_priv.411
                0x200006e8                frskyPortSharing.lto_priv.537
                0x200006e9                hottPortSharing.lto_priv.535
                0x200006ec                telemetryConfig.lto_priv.409
                0x200006f0                portConfig.lto_priv.413
                0x200006f4                smartPortPortSharing.lto_priv.532
                0x200006fc                portConfig.lto_priv.414
                0x20000700                ltmPortSharing.lto_priv.530
                0x20000701                couldBeBusy.lto_priv.557
                0x20000704                tailAddress.lto_priv.515
 .bss           0x20000708      0x3af /tmp/cc8DLllS.ltrans1.ltrans.o
                0x20000720                gyroLpfCutFreq.lto_priv.507
                0x20000794                gyroConfig.lto_priv.506
                0x200007f0                imuRuntimeConfig.lto_priv.445
                0x20000818                gyroScale.lto_priv.446
                0x20000828                smallAngleCosZ
                0x20000834                fc_acc
                0x20000838                accDeadband.lto_priv.502
                0x2000083c                lookupYawRC
                0x20000850                rxRefreshRate.lto_priv.425
                0x20000868                rcControlsConfig.lto_priv.501
                0x20000870                escAndServoConfig.lto_priv.359
                0x20000874                throttleAngleScale
                0x20000878                mixerConfig.lto_priv.448
                0x2000087c                currentMixer.lto_priv.455
                0x20000940                rxConfig.lto_priv.504
                0x20000944                currentMixerMode.lto_priv.454
                0x20000968                gimbalConfig.lto_priv.503
                0x2000096c                servoFilterState.lto_priv.449
                0x20000a8c                motorControlEnable
                0x20000a90                blackboxPort.lto_priv.393
                0x20000a94                blackboxHeaderBudget
                0x20000a98                blackboxMaxHeaderBytesPerIteration.lto_priv.391
                0x20000a9c                xmitState.lto_priv.389
                0x20000aa4                blackboxConditionCache.lto_priv.386
                0x20000aa8                vbatReference.lto_priv.382
                0x20000aaa                blackboxSlowFrameIterationTimer.lto_priv.390
                0x20000aac                blackboxPFrameIndex.lto_priv.385
                0x20000ab0                blackboxIteration.lto_priv.384
                0x20000ab4                blackboxModeActivationConditionPresent.lto_priv.383
                0x20000ab5                blackboxPortSharing.lto_priv.392
                0x20000ab6                blackboxLoggedAnyFrames.lto_priv.388
 *fill*         0x20000ab7        0x1 
 .bss           0x20000ab8      0x164 /tmp/cc8DLllS.ltrans2.ltrans.o
                0x20000ab8                printfSerialPort.lto_priv.498
                0x20000ad8                servo
                0x20000ae8                GPS_ground_course
                0x20000aea                GPS_update
                0x20000aeb                GPS_numCh
                0x20000aec                GPS_svinfo_chn
                0x20000afc                GPS_svinfo_svid
                0x20000b0c                GPS_svinfo_quality
                0x20000b1c                GPS_svinfo_cno
                0x20000b2c                debug
                0x20000b34                blackboxState.lto_priv.357
                0x20000b98                pwmIOConfiguration.lto_priv.456
 .bss           0x20000c1c      0x1c8 /tmp/cc8DLllS.ltrans3.ltrans.o
                0x20000c1c                rxMspFrameDone.lto_priv.320
                0x20000c1d                ppmFrameCount.lto_priv.564
                0x20000c45                rcSampleIndex.lto_priv.424
                0x20000c90                rcInvalidPulsPeriod
                0x20000cd9                rxFlightChannelsValid.lto_priv.526
                0x20000cf4                rxConfig.lto_priv.277
                0x20000cf8                deadband3dThrottle.lto_priv.444
                0x20000cfc                disarmAt.lto_priv.381
                0x20000d04                calibratingG.lto_priv.369
                0x20000d06                AccInflightCalibrationMeasurementDone
                0x20000d07                AccInflightCalibrationSavetoEEProm
                0x20000d0a                calibratingA.lto_priv.316
                0x20000d0c                InflightcalibratingA
                0x20000d0e                AccInflightCalibrationActive
                0x20000d10                adjustmentStates
                0x20000d44                escAndServoConfig.lto_priv.317
                0x20000d48                magHold
                0x20000d4a                headFreeModeHold
                0x20000d4c                nav_mode
                0x20000d50                gpsProfile.lto_priv.363
                0x20000d54                GPS_hold
                0x20000d5e                nav_rated.lto_priv.365
                0x20000d62                nav.lto_priv.364
                0x20000d90                poshold_ratePID.lto_priv.541
                0x20000db8                navPID.lto_priv.542
                0x20000de0                isRXDataNew.lto_priv.367
                0x20000de1                haveProcessedAnnexCodeOnce.lto_priv.356
                0x20000de2                initialThrottleHold.lto_priv.366
 .bss           0x20000de4       0x76 /tmp/cc8DLllS.ltrans4.ltrans.o
 *fill*         0x20000e5a        0x2 
 .bss           0x20000e5c       0xe8 /tmp/cc8DLllS.ltrans5.ltrans.o
                0x20000e5c                frskyTelemetryEnabled.lto_priv.538
                0x20000e66                accSmooth
                0x20000e6c                vario
                0x20000e74                telemetryConfig.lto_priv.249
                0x20000e78                amperage
                0x20000e7c                GPS_speed
                0x20000e7e                GPS_altitude
                0x20000e80                GPS_numSat
                0x20000e84                GPS_coord
                0x20000e8c                hottTelemetryEnabled.lto_priv.536
                0x20000e94                hottEAMMessage.lto_priv.415
                0x20000ec4                telemetryConfig.lto_priv.250
                0x20000ec8                hottGPSMessage.lto_priv.416
                0x20000ef4                GPS_distanceToHome
                0x20000ef6                GPS_directionToHome
                0x20000f00                hottPort.lto_priv.529
                0x20000f10                portConfig.lto_priv.412
                0x20000f16                smartPortTelemetryEnabled.lto_priv.533
                0x20000f18                smartPortSerialPort.lto_priv.528
                0x20000f1c                smartPortState
                0x20000f20                smartPortLastRequestTime.lto_priv.534
                0x20000f26                ltmEnabled.lto_priv.531
                0x20000f28                ltmPort.lto_priv.527
                0x20000f34                EstAlt.lto_priv.266
                0x20000f38                rssi
                0x20000f3c                GPS_home
 .bss           0x20000f44       0x18 /tmp/cc8DLllS.ltrans6.ltrans.o
 .bss           0x20000f5c      0x6c4 /tmp/cc8DLllS.ltrans7.ltrans.o
 .bss           0x20001620       0xa0 /tmp/cc8DLllS.ltrans8.ltrans.o
                0x20001620                ledStripInitialised.lto_priv.417
                0x20001622                ledColorBuffer.lto_priv.418
                0x200016b0                ledCount
                0x200016b4                rxSignalReceived.lto_priv.271
                0x200016bc                highestYValueForNorth
                0x200016bd                lowestXValueForEast
                0x200016be                lowestYValueForSouth
                0x200016bf                highestXValueForWest
 .bss           0x200016c0      0x348 /tmp/cc8DLllS.ltrans9.ltrans.o
                0x200016c0                ibusChannelData.lto_priv.286
                0x20001721                xBusChannelCount.lto_priv.435
                0x20001722                xBusFrameReceived.lto_priv.287
                0x20001724                spekChannelData.lto_priv.304
                0x20001754                sumhChannels.lto_priv.290
                0x20001774                sumdChannels.lto_priv.295
                0x20001794                sbusChannelData.lto_priv.298
                0x200017dc                mspFrame.lto_priv.319
                0x20001800                captures.lto_priv.283
                0x2000181d                ibus.lto_priv.285
                0x2000183d                ibusFrameDone.lto_priv.284
                0x20001848                xBusFramePosition.lto_priv.433
                0x20001849                xBusDataIncoming.lto_priv.432
                0x2000184a                xBusFrameLength.lto_priv.434
                0x2000184b                xBusProvider.lto_priv.436
                0x20001851                spekFrame.lto_priv.300
                0x20001861                rcFrameComplete.lto_priv.299
                0x2000186d                sumhFrame.lto_priv.289
                0x20001882                sumhFrameDone.lto_priv.288
                0x20001889                sumdFrameDone.lto_priv.291
                0x2000188a                crc.lto_priv.292
                0x2000188c                sumdChannelCount.lto_priv.293
                0x2000188d                sumd.lto_priv.294
                0x200018b9                sbusFrame.lto_priv.297
                0x200018d2                sbusFrameDone.lto_priv.296
                0x200018d4                rxConfig.lto_priv.278
                0x200018d8                suspendRxSignalUntil.lto_priv.281
                0x200018dc                skipRxSamples.lto_priv.280
                0x200018e0                sysTickUptime.lto_priv.225
                0x200018e4                failsafeState.lto_priv.247
                0x20001908                warningLedState.lto_priv.223
                0x2000190c                warningLedTimer.lto_priv.368
                0x20001910                flightModeFlags
                0x20001914                rcModeActivationMask
                0x20001918                activeBoxIdCount.lto_priv.321
                0x20001919                activeBoxIds.lto_priv.322
                0x20001938                currentPort.lto_priv.313
                0x2000193c                writer.lto_priv.314
                0x20001940                mspSerialPort.lto_priv.315
                0x20001944                cliWriter.lto_priv.195
                0x20001948                currentControlRateProfileIndex.lto_priv.196
                0x2000194c                pif_performance
                0x20001954                batteryState.lto_priv.248
                0x20001958                enabledSensors.lto_priv.251
                0x2000195c                sensor_link
                0x200019c8                i2cErrorCount.lto_priv.326
                0x200019cc                s_tasks.lto_priv.394
                0x200019e4                g_timer_1ms
 .bss           0x20001a08        0x9 /tmp/cc8DLllS.ltrans10.ltrans.o
                0x20001a08                colors
                0x20001a0c                ledConfigs
                0x20001a10                serialPortCount.lto_priv.324
 .bss           0x20001a11        0x7 /tmp/cc8DLllS.ltrans11.ltrans.o
 .bss           0x20001a18      0x230 /tmp/cc8DLllS.ltrans12.ltrans.o
                0x20001a18                gpsHistory.lto_priv.521
                0x20001a2c                blackboxHistory.lto_priv.523
                0x20001a38                blackboxHistoryRing.lto_priv.524
                0x20001bac                blackboxIFrameIndex.lto_priv.522
                0x20001bb0                blackboxLastArmingBeep.lto_priv.525
                0x20001bb4                systemState.lto_priv.402
                0x20001bb8                s_it_current.lto_priv.508
                0x20001bbc                s_table_number.lto_priv.511
                0x20001bc0                s_table.lto_priv.512
                0x20001c40                s_loop_count.lto_priv.510
                0x20001c44                s_pass_count.lto_priv.509
 .bss           0x20001c48      0x242 /tmp/cc8DLllS.ltrans13.ltrans.o
                0x20001e2c                GPS_WP.lto_priv.544
                0x20001e34                wp_distance.lto_priv.545
                0x20001e38                target_bearing.lto_priv.546
                0x20001e3c                error.lto_priv.551
                0x20001e44                posholdPID_PARAM.lto_priv.552
                0x20001e54                poshold_ratePID_PARAM.lto_priv.553
                0x20001e68                waypoint_speed_gov.lto_priv.549
                0x20001e6c                original_target_bearing.lto_priv.548
                0x20001e74                nav_bearing.lto_priv.547
                0x20001e78                navPID_PARAM.lto_priv.554
                0x20001e88                nav_takeoff_bearing.lto_priv.555
 *fill*         0x20001e8a        0x2 
 .bss           0x20001e8c       0x8a /tmp/cc8DLllS.ltrans14.ltrans.o
                0x20001e8c                cliPort.lto_priv.327
                0x20001e90                currentControlRateProfile
                0x20001e94                motor_disarmed
                0x20001eac                gpsPort.lto_priv.268
                0x20001eb0                pageState.lto_priv.274
                0x20001ec4                cliBuffer.lto_priv.329
                0x20001ef4                bufferIndex.lto_priv.328
                0x20001ef8                servoConf.lto_priv.226
                0x20001efc                currentProfile
                0x20001f00                beep_multiBeeps.lto_priv.222
 .bss           0x20001f16      0x600 /tmp/cc8DLllS.ltrans15.ltrans.o
 *fill*         0x20002516        0x2 
 .bss           0x20002518      0x204 /tmp/cc8DLllS.ltrans16.ltrans.o
                0x20002518                usTicks.lto_priv.468
                0x2000251e                lookupThrottleRC
                0x20002536                lookupPitchRollRC
                0x20002544                dmaHandlers.lto_priv.419
                0x20002558                extiHandlerConfigs.lto_priv.467
                0x20002570                beeperIsOn.lto_priv.310
                0x20002574                beeperNextToggleTime.lto_priv.309
                0x20002578                beeperPos.lto_priv.311
                0x2000257c                currentBeeperEntry.lto_priv.308
                0x20002580                motor
                0x20002598                motors.lto_priv.457
                0x200025c8                motorCount
                0x200025cc                timerConfig
                0x2000266c                flight3DConfig.lto_priv.358
                0x20002670                escAndServoConfig.lto_priv.360
                0x20002674                servoRuleCount.lto_priv.362
                0x20002675                currentServoMixer.lto_priv.361
                0x200026e8                customServoMixers.lto_priv.464
                0x200026ec                q1.lto_priv.372
                0x200026f0                q2.lto_priv.373
                0x200026f4                q3.lto_priv.374
                0x200026f8                rMat.lto_priv.267
 .bss           0x2000271c      0x120 /tmp/cc8DLllS.ltrans17.ltrans.o
                0x20002740                uartPort3.lto_priv.559
                0x20002794                uartPort2.lto_priv.560
                0x200027e8                uartPort1.lto_priv.561
 .bss           0x2000283c       0xfe /tmp/cc8DLllS.ltrans18.ltrans.o
                0x2000283c                rxRuntimeConfigPtr.lto_priv.302
                0x20002840                rxRuntimeConfig
                0x20002841                spek_chan_shift.lto_priv.301
                0x20002842                spek_chan_mask.lto_priv.303
                0x20002843                spekHiRes.lto_priv.192
                0x20002874                serialConfig.lto_priv.221
                0x20002878                findSharedSerialPortState.lto_priv.270
                0x2000287c                serialPortUsageList.lto_priv.220
                0x200028b8                pidProfile.lto_priv.272
                0x200028bc                activeFeaturesLatch.lto_priv.193
                0x200028cc                boardRotation.lto_priv.453
                0x200028f0                batteryConfig
                0x200028f4                mAhDrawn
                0x200028f8                adcConfig
                0x20002908                adcValues
                0x20002910                vbatLatestADC
                0x20002914                vbatFilterState.lto_priv.407
                0x20002938                vbat
 *fill*         0x2000293a        0x2 
 .bss           0x2000293c      0x1a8 /tmp/cc8DLllS.ltrans19.ltrans.o
                0x2000294c                barometerConfig.lto_priv.264
                0x20002a28                pif_timer1us
                0x20002a30                calibratingB.lto_priv.273
                0x20002a44                sonarMaxTiltCos
                0x20002a48                calculatedAltitude.lto_priv.325
                0x20002a4c                sonarCfAltCm
                0x20002a54                sonarMaxAltWithTiltCm
                0x20002a58                accSumCount
                0x20002a5c                accSum
                0x20002a68                accVelScale
                0x20002a6c                barometerConfig.lto_priv.265
                0x20002a78                AltHold
                0x20002a7c                pidProfile.lto_priv.499
                0x20002a80                errorVelocityI
                0x20002a84                altHoldThrottleAdjustment
                0x20002a88                velocityControl
                0x20002a8c                lastMeasurementAt.lto_priv.421
                0x20002a90                sonarHardware.lto_priv.420
                0x20002a9c                magADC
                0x20002ab8                magInit.lto_priv.447
                0x20002abc                gpsData
                0x20002adc                gpsConfig.lto_priv.422
 .bss           0x20002ae4       0x40 /tmp/cc8DLllS.ltrans20.ltrans.o
                0x20002b08                GPS_packetCount
                0x20002b10                GPS_svInfoReceivedCount
                0x20002b1c                GPS_garbageByteCount
 .bss           0x20002b24       0x20 /tmp/cc8DLllS.ltrans21.ltrans.o
                0x20002b28                s_task_stack_ptr.lto_priv.513
                0x20002b2c                s_task_stack.lto_priv.514
 .bss           0x20002b44        0x9 /tmp/cc8DLllS.ltrans22.ltrans.o
                0x20002b48                I2Cx.lto_priv.569
                0x20002b4c                I2Cx_index.lto_priv.570
 *fill*         0x20002b4d        0x3 
 .bss           0x20002b50      0x160 /tmp/cc8DLllS.ltrans23.ltrans.o
                0x20002b50                rcCommand
                0x20002b58                attitude
                0x20002b60                gyroADC
                0x20002b6c                PIDweight
                0x20002b70                errorGyroI.lto_priv.275
                0x20002b7c                targetLooptime
                0x20002b80                stateFlags
                0x20002b81                motorLimitReached
                0x20002bb4                axisPID
                0x20002bbc                axisPID_P
                0x20002bc8                axisPID_I
                0x20002bd4                axisPID_D
                0x20002be0                deltaFilterState.lto_priv.245
                0x20002c4c                errorAngleI.lto_priv.246
                0x20002c54                dynP8
                0x20002c6c                dynD8
                0x20002c70                errorGyroIf.lto_priv.276
                0x20002c7c                dT
 .bss           0x20002cb0      0x90c /tmp/cc8DLllS.ltrans24.ltrans.o
                0x20002cb0                string.9150.lto_priv.543
                0x20002cc0                rcData
                0x20002ce4                mspPorts.lto_priv.194
                0x20002d7c                pif_datetime
                0x20002d98                pif_timer1ms
                0x20002d9c                pif_act_timer1us
                0x20002da0                pif_cumulative_timer1ms
                0x20002da4                masterConfig
 .bss           0x200035bc       0xaa /tmp/cc8DLllS.ltrans25.ltrans.o
                0x200035e4                bufferHead.lto_priv.519
                0x200035e5                bufferTail.lto_priv.556
                0x200035e6                flashWriteBuffer.lto_priv.520
 *fill*         0x20003666        0x2 
 .bss           0x20003668       0x16 /tmp/cc8DLllS.ltrans26.ltrans.o
 *fill*         0x2000367e        0x2 
 .bss           0x20003680       0x21 /tmp/cc8DLllS.ltrans27.ltrans.o
 *fill*         0x200036a1        0x7 
 .bss           0x200036a8       0x24 /tmp/cc8DLllS.ltrans28.ltrans.o
                0x200036ac                batteryWarningVoltage
                0x200036ae                batteryCriticalVoltage
                0x200036b8                amperageLatestADC
                0x200036c8                armingBeepTimeMicros.lto_priv.387
 .bss           0x200036cc       0x35 /tmp/cc8DLllS.ltrans29.ltrans.o
                0x200036cc                accADC
                0x200036d8                accelerationTrims.lto_priv.505
                0x20003700                isAccelUpdatedAtLeastOnce.lto_priv.370
 *fill*         0x20003701        0x3 
 .bss           0x20003704       0x14 /tmp/cc8DLllS.ltrans30.ltrans.o
                0x20003714                failsafeConfig.lto_priv.279
 *(SORT(.bss*))
 .bss.systemBeepPtr
                0x20003718        0x4 /tmp/cc8DLllS.ltrans16.ltrans.o
                0x20003718                systemBeepPtr
 .bss.accTimeSum
                0x2000371c        0x4 /tmp/cc8DLllS.ltrans19.ltrans.o
                0x2000371c                accTimeSum
 .bss.setVelocity
                0x20003720        0x4 /tmp/cc8DLllS.ltrans19.ltrans.o
                0x20003720                setVelocity
 .bss.pif_log_flag
                0x20003724        0x4 /tmp/cc8DLllS.ltrans21.ltrans.o
 .bss.__malloc_sbrk_start
                0x20003728        0x4 /usr/lib/gcc/arm-none-eabi/4.9.3/../../../arm-none-eabi/lib/armv7-m/libc_nano.a(lib_a-nano-mallocr.o)
                0x20003728                __malloc_sbrk_start
 .bss.__malloc_free_list
                0x2000372c        0x4 /usr/lib/gcc/arm-none-eabi/4.9.3/../../../arm-none-eabi/lib/armv7-m/libc_nano.a(lib_a-nano-mallocr.o)
                0x2000372c                __malloc_free_list
 .bss.heap_end.4079
                0x20003730        0x4 /usr/lib/gcc/arm-none-eabi/4.9.3/../../../arm-none-eabi/lib/armv7-m/libnosys.a(sbrk.o)
 .bss.cycleTime
                0x20003734        0x2 /tmp/cc8DLllS.ltrans9.ltrans.o
                0x20003734                cycleTime
 .bss.GPS_angle
                0x20003736        0x4 /tmp/cc8DLllS.ltrans23.ltrans.o
                0x20003736                GPS_angle
 .bss.hardwareRevision
                0x2000373a        0x1 /tmp/cc8DLllS.ltrans2.ltrans.o
                0x2000373a                hardwareRevision
 .bss.ws2811LedDataTransferInProgress
                0x2000373b        0x1 /tmp/cc8DLllS.ltrans8.ltrans.o
                0x2000373b                ws2811LedDataTransferInProgress
 .bss.armingFlags
                0x2000373c        0x1 /tmp/cc8DLllS.ltrans9.ltrans.o
                0x2000373c                armingFlags
 .bss.cliMode   0x2000373d        0x1 /tmp/cc8DLllS.ltrans14.ltrans.o
                0x2000373d                cliMode
 .bss.pif_error
                0x2000373e        0x1 /tmp/cc8DLllS.ltrans18.ltrans.o
                0x2000373e                pif_error
 .bss.CHAR_FORMAT
                0x2000373f        0x1 /tmp/cc8DLllS.ltrans22.ltrans.o
 *(COMMON)
 COMMON         0x20003740        0x4 /usr/lib/gcc/arm-none-eabi/4.9.3/../../../arm-none-eabi/lib/armv7-m/libc_nano.a(lib_a-reent.o)
                0x20003740                errno
                0x20003744                . = ALIGN (0x4)
                0x20003744                _ebss = .
                0x20003744                __bss_end__ = _ebss

._user_heap_stack
                0x20003744      0x400 load address 0x0801e8b4
                0x20003744                . = ALIGN (0x4)
                0x20003744                PROVIDE (end, .)
                [!provide]                PROVIDE (_end, .)
                0x20003744                . = (. + _Min_Heap_Size)
                0x20003b44                . = (. + _Min_Stack_Size)
 *fill*         0x20003744      0x400 
                0x20003b44                . = ALIGN (0x4)

.memory_b1_text
 *(.mb1text)
 *(.mb1text*)
 *(.mb1rodata)
 *(.mb1rodata*)

/DISCARD/
 libc.a(*)
 libm.a(*)
 libgcc.a(*)

.ARM.attributes
                0x00000000       0x2f
 *(.ARM.attributes)
 .ARM.attributes
                0x00000000       0x21 obj/main/NAZE/startup_stm32f10x_md_gcc.o
 .ARM.attributes
                0x00000021       0x31 /tmp/cc8DLllS.ltrans0.ltrans.o
 .ARM.attributes
                0x00000052       0x31 /tmp/cc8DLllS.ltrans1.ltrans.o
 .ARM.attributes
                0x00000083       0x31 /tmp/cc8DLllS.ltrans2.ltrans.o
 .ARM.attributes
                0x000000b4       0x31 /tmp/cc8DLllS.ltrans3.ltrans.o
 .ARM.attributes
                0x000000e5       0x31 /tmp/cc8DLllS.ltrans4.ltrans.o
 .ARM.attributes
                0x00000116       0x31 /tmp/cc8DLllS.ltrans5.ltrans.o
 .ARM.attributes
                0x00000147       0x31 /tmp/cc8DLllS.ltrans6.ltrans.o
 .ARM.attributes
                0x00000178       0x31 /tmp/cc8DLllS.ltrans7.ltrans.o
 .ARM.attributes
                0x000001a9       0x31 /tmp/cc8DLllS.ltrans8.ltrans.o
 .ARM.attributes
                0x000001da       0x31 /tmp/cc8DLllS.ltrans9.ltrans.o
 .ARM.attributes
                0x0000020b       0x31 /tmp/cc8DLllS.ltrans10.ltrans.o
 .ARM.attributes
                0x0000023c       0x31 /tmp/cc8DLllS.ltrans11.ltrans.o
 .ARM.attributes
                0x0000026d       0x31 /tmp/cc8DLllS.ltrans12.ltrans.o
 .ARM.attributes
                0x0000029e       0x31 /tmp/cc8DLllS.ltrans13.ltrans.o
 .ARM.attributes
                0x000002cf       0x31 /tmp/cc8DLllS.ltrans14.ltrans.o
 .ARM.attributes
                0x00000300       0x31 /tmp/cc8DLllS.ltrans15.ltrans.o
 .ARM.attributes
                0x00000331       0x31 /tmp/cc8DLllS.ltrans16.ltrans.o
 .ARM.attributes
                0x00000362       0x31 /tmp/cc8DLllS.ltrans17.ltrans.o
 .ARM.attributes
                0x00000393       0x31 /tmp/cc8DLllS.ltrans18.ltrans.o
 .ARM.attributes
                0x000003c4       0x31 /tmp/cc8DLllS.ltrans19.ltrans.o
 .ARM.attributes
                0x000003f5       0x31 /tmp/cc8DLllS.ltrans20.ltrans.o
 .ARM.attributes
                0x00000426       0x31 /tmp/cc8DLllS.ltrans21.ltrans.o
 .ARM.attributes
                0x00000457       0x31 /tmp/cc8DLllS.ltrans22.ltrans.o
 .ARM.attributes
                0x00000488       0x31 /tmp/cc8DLllS.ltrans23.ltrans.o
 .ARM.attributes
                0x000004b9       0x31 /tmp/cc8DLllS.ltrans24.ltrans.o
 .ARM.attributes
                0x000004ea       0x31 /tmp/cc8DLllS.ltrans25.ltrans.o
 .ARM.attributes
                0x0000051b       0x31 /tmp/cc8DLllS.ltrans26.ltrans.o
 .ARM.attributes
                0x0000054c       0x31 /tmp/cc8DLllS.ltrans27.ltrans.o
 .ARM.attributes
                0x0000057d       0x31 /tmp/cc8DLllS.ltrans28.ltrans.o
 .ARM.attributes
                0x000005ae       0x31 /tmp/cc8DLllS.ltrans29.ltrans.o
 .ARM.attributes
                0x000005df       0x31 /tmp/cc8DLllS.ltrans30.ltrans.o
 .ARM.attributes
                0x00000610       0x2d /usr/lib/gcc/arm-none-eabi/4.9.3/../../../arm-none-eabi/lib/armv7-m/libc_nano.a(lib_a-atoi.o)
 .ARM.attributes
                0x0000063d       0x2d /usr/lib/gcc/arm-none-eabi/4.9.3/../../../arm-none-eabi/lib/armv7-m/libc_nano.a(lib_a-ctype_.o)
 .ARM.attributes
                0x0000066a       0x2d /usr/lib/gcc/arm-none-eabi/4.9.3/../../../arm-none-eabi/lib/armv7-m/libc_nano.a(lib_a-strtok.o)
 .ARM.attributes
                0x00000697       0x2d /usr/lib/gcc/arm-none-eabi/4.9.3/../../../arm-none-eabi/lib/armv7-m/libc_nano.a(lib_a-strtok_r.o)
 .ARM.attributes
                0x000006c4       0x2d /usr/lib/gcc/arm-none-eabi/4.9.3/../../../arm-none-eabi/lib/armv7-m/libc_nano.a(lib_a-strtol.o)
 .ARM.attributes
                0x000006f1       0x2d /usr/lib/gcc/arm-none-eabi/4.9.3/../../../arm-none-eabi/lib/armv7-m/libc_nano.a(lib_a-impure.o)
 .ARM.attributes
                0x0000071e       0x2d /usr/lib/gcc/arm-none-eabi/4.9.3/../../../arm-none-eabi/lib/armv7-m/libc_nano.a(lib_a-malloc.o)
 .ARM.attributes
                0x0000074b       0x2d /usr/lib/gcc/arm-none-eabi/4.9.3/../../../arm-none-eabi/lib/armv7-m/libc_nano.a(lib_a-nano-freer.o)
 .ARM.attributes
                0x00000778       0x2d /usr/lib/gcc/arm-none-eabi/4.9.3/../../../arm-none-eabi/lib/armv7-m/libc_nano.a(lib_a-nano-mallocr.o)
 .ARM.attributes
                0x000007a5       0x2d /usr/lib/gcc/arm-none-eabi/4.9.3/../../../arm-none-eabi/lib/armv7-m/libc_nano.a(lib_a-sbrkr.o)
 .ARM.attributes
                0x000007d2       0x2d /usr/lib/gcc/arm-none-eabi/4.9.3/../../../arm-none-eabi/lib/armv7-m/libc_nano.a(lib_a-reent.o)
 .ARM.attributes
                0x000007ff       0x2d /usr/lib/gcc/arm-none-eabi/4.9.3/../../../arm-none-eabi/lib/armv7-m/libnosys.a(sbrk.o)
 .ARM.attributes
                0x0000082c       0x2d /usr/lib/gcc/arm-none-eabi/4.9.3/../../../arm-none-eabi/lib/armv7-m/libm.a(lib_a-sf_lrint.o)
 .ARM.attributes
                0x00000859       0x2d /usr/lib/gcc/arm-none-eabi/4.9.3/../../../arm-none-eabi/lib/armv7-m/libm.a(lib_a-wf_pow.o)
 .ARM.attributes
                0x00000886       0x2d /usr/lib/gcc/arm-none-eabi/4.9.3/../../../arm-none-eabi/lib/armv7-m/libm.a(lib_a-wf_sqrt.o)
 .ARM.attributes
                0x000008b3       0x2d /usr/lib/gcc/arm-none-eabi/4.9.3/../../../arm-none-eabi/lib/armv7-m/libm.a(lib_a-ef_pow.o)
 .ARM.attributes
                0x000008e0       0x2d /usr/lib/gcc/arm-none-eabi/4.9.3/../../../arm-none-eabi/lib/armv7-m/libm.a(lib_a-ef_sqrt.o)
 .ARM.attributes
                0x0000090d       0x2d /usr/lib/gcc/arm-none-eabi/4.9.3/../../../arm-none-eabi/lib/armv7-m/libm.a(lib_a-s_lib_ver.o)
 .ARM.attributes
                0x0000093a       0x2d /usr/lib/gcc/arm-none-eabi/4.9.3/../../../arm-none-eabi/lib/armv7-m/libm.a(lib_a-s_matherr.o)
 .ARM.attributes
                0x00000967       0x2d /usr/lib/gcc/arm-none-eabi/4.9.3/../../../arm-none-eabi/lib/armv7-m/libm.a(lib_a-s_rint.o)
 .ARM.attributes
                0x00000994       0x2d /usr/lib/gcc/arm-none-eabi/4.9.3/../../../arm-none-eabi/lib/armv7-m/libm.a(lib_a-sf_fabs.o)
 .ARM.attributes
                0x000009c1       0x2d /usr/lib/gcc/arm-none-eabi/4.9.3/../../../arm-none-eabi/lib/armv7-m/libm.a(lib_a-sf_finite.o)
 .ARM.attributes
                0x000009ee       0x2d /usr/lib/gcc/arm-none-eabi/4.9.3/../../../arm-none-eabi/lib/armv7-m/libm.a(lib_a-sf_fpclassify.o)
 .ARM.attributes
                0x00000a1b       0x2d /usr/lib/gcc/arm-none-eabi/4.9.3/../../../arm-none-eabi/lib/armv7-m/libm.a(lib_a-sf_nan.o)
 .ARM.attributes
                0x00000a48       0x2d /usr/lib/gcc/arm-none-eabi/4.9.3/../../../arm-none-eabi/lib/armv7-m/libm.a(lib_a-sf_scalbn.o)
 .ARM.attributes
                0x00000a75       0x2d /usr/lib/gcc/arm-none-eabi/4.9.3/../../../arm-none-eabi/lib/armv7-m/libm.a(lib_a-sf_copysign.o)
 .ARM.attributes
                0x00000aa2       0x2d /usr/lib/gcc/arm-none-eabi/4.9.3/../../../arm-none-eabi/lib/armv7-m/libc_nano.a(lib_a-calloc.o)
 .ARM.attributes
                0x00000acf       0x2d /usr/lib/gcc/arm-none-eabi/4.9.3/../../../arm-none-eabi/lib/armv7-m/libc_nano.a(lib_a-errno.o)
 .ARM.attributes
                0x00000afc       0x2d /usr/lib/gcc/arm-none-eabi/4.9.3/../../../arm-none-eabi/lib/armv7-m/libc_nano.a(lib_a-memcmp.o)
 .ARM.attributes
                0x00000b29       0x2d /usr/lib/gcc/arm-none-eabi/4.9.3/../../../arm-none-eabi/lib/armv7-m/libc_nano.a(lib_a-memcpy.o)
 .ARM.attributes
                0x00000b56       0x2d /usr/lib/gcc/arm-none-eabi/4.9.3/../../../arm-none-eabi/lib/armv7-m/libc_nano.a(lib_a-memset.o)
 .ARM.attributes
                0x00000b83       0x2d /usr/lib/gcc/arm-none-eabi/4.9.3/../../../arm-none-eabi/lib/armv7-m/libc_nano.a(lib_a-nano-callocr.o)
 .ARM.attributes
                0x00000bb0       0x2d /usr/lib/gcc/arm-none-eabi/4.9.3/../../../arm-none-eabi/lib/armv7-m/libc_nano.a(lib_a-strcasecmp.o)
 .ARM.attributes
                0x00000bdd       0x2d /usr/lib/gcc/arm-none-eabi/4.9.3/../../../arm-none-eabi/lib/armv7-m/libc_nano.a(lib_a-strcat.o)
 .ARM.attributes
                0x00000c0a       0x2d /usr/lib/gcc/arm-none-eabi/4.9.3/../../../arm-none-eabi/lib/armv7-m/libc_nano.a(lib_a-strchr.o)
 .ARM.attributes
                0x00000c37       0x2d /usr/lib/gcc/arm-none-eabi/4.9.3/../../../arm-none-eabi/lib/armv7-m/libc_nano.a(lib_a-strcpy.o)
 .ARM.attributes
                0x00000c64       0x2d /usr/lib/gcc/arm-none-eabi/4.9.3/../../../arm-none-eabi/lib/armv7-m/libc_nano.a(lib_a-strlen.o)
 .ARM.attributes
                0x00000c91       0x2d /usr/lib/gcc/arm-none-eabi/4.9.3/../../../arm-none-eabi/lib/armv7-m/libc_nano.a(lib_a-strncasecmp.o)
 .ARM.attributes
                0x00000cbe       0x2d /usr/lib/gcc/arm-none-eabi/4.9.3/../../../arm-none-eabi/lib/armv7-m/libc_nano.a(lib_a-strncpy.o)
 .ARM.attributes
                0x00000ceb       0x2d /usr/lib/gcc/arm-none-eabi/4.9.3/../../../arm-none-eabi/lib/armv7-m/libc_nano.a(lib_a-strstr.o)
 .ARM.attributes
                0x00000d18       0x1d /usr/lib/gcc/arm-none-eabi/4.9.3/armv7-m/libgcc.a(_arm_addsubdf3.o)
 .ARM.attributes
                0x00000d35       0x1d /usr/lib/gcc/arm-none-eabi/4.9.3/armv7-m/libgcc.a(_arm_muldivdf3.o)
 .ARM.attributes
                0x00000d52       0x1d /usr/lib/gcc/arm-none-eabi/4.9.3/armv7-m/libgcc.a(_arm_cmpdf2.o)
 .ARM.attributes
                0x00000d6f       0x1d /usr/lib/gcc/arm-none-eabi/4.9.3/armv7-m/libgcc.a(_arm_fixunsdfsi.o)
 .ARM.attributes
                0x00000d8c       0x1d /usr/lib/gcc/arm-none-eabi/4.9.3/armv7-m/libgcc.a(_arm_truncdfsf2.o)
 .ARM.attributes
                0x00000da9       0x1d /usr/lib/gcc/arm-none-eabi/4.9.3/armv7-m/libgcc.a(_arm_addsubsf3.o)
 .ARM.attributes
                0x00000dc6       0x1d /usr/lib/gcc/arm-none-eabi/4.9.3/armv7-m/libgcc.a(_arm_muldivsf3.o)
 .ARM.attributes
                0x00000de3       0x1d /usr/lib/gcc/arm-none-eabi/4.9.3/armv7-m/libgcc.a(_arm_cmpsf2.o)
 .ARM.attributes
                0x00000e00       0x1d /usr/lib/gcc/arm-none-eabi/4.9.3/armv7-m/libgcc.a(_arm_fixsfsi.o)
 .ARM.attributes
                0x00000e1d       0x1d /usr/lib/gcc/arm-none-eabi/4.9.3/armv7-m/libgcc.a(_arm_fixunssfsi.o)
 .ARM.attributes
                0x00000e3a       0x1d /usr/lib/gcc/arm-none-eabi/4.9.3/armv7-m/libgcc.a(_aeabi_ldivmod.o)
 .ARM.attributes
                0x00000e57       0x2d /usr/lib/gcc/arm-none-eabi/4.9.3/armv7-m/libgcc.a(bpabi.o)
 .ARM.attributes
                0x00000e84       0x1d /usr/lib/gcc/arm-none-eabi/4.9.3/armv7-m/libgcc.a(_dvmd_tls.o)
 .ARM.attributes
                0x00000ea1       0x2d /usr/lib/gcc/arm-none-eabi/4.9.3/armv7-m/libgcc.a(_divdi3.o)
 .ARM.attributes
                0x00000ece       0x2d /usr/lib/gcc/arm-none-eabi/4.9.3/armv7-m/libgcc.a(_udivdi3.o)
OUTPUT(obj/main/cleanflight_NAZE.elf elf32-littlearm)

.debug_info     0x00000000    0x522fd
 .debug_info    0x00000000     0x8423 /tmp/cc8DLllS.ltrans0.ltrans.o
 .debug_info    0x00008423     0x38f2 /tmp/cc8DLllS.ltrans1.ltrans.o
 .debug_info    0x0000bd15     0x428d /tmp/cc8DLllS.ltrans2.ltrans.o
 .debug_info    0x0000ffa2     0x3279 /tmp/cc8DLllS.ltrans3.ltrans.o
 .debug_info    0x0001321b     0x360d /tmp/cc8DLllS.ltrans4.ltrans.o
 .debug_info    0x00016828     0x27e5 /tmp/cc8DLllS.ltrans5.ltrans.o
 .debug_info    0x0001900d     0x2c6d /tmp/cc8DLllS.ltrans6.ltrans.o
 .debug_info    0x0001bc7a     0x25b4 /tmp/cc8DLllS.ltrans7.ltrans.o
 .debug_info    0x0001e22e     0x10f1 /tmp/cc8DLllS.ltrans8.ltrans.o
 .debug_info    0x0001f31f     0x3601 /tmp/cc8DLllS.ltrans9.ltrans.o
 .debug_info    0x00022920     0x283b /tmp/cc8DLllS.ltrans10.ltrans.o
 .debug_info    0x0002515b     0x19fa /tmp/cc8DLllS.ltrans11.ltrans.o
 .debug_info    0x00026b55     0x22a1 /tmp/cc8DLllS.ltrans12.ltrans.o
 .debug_info    0x00028df6     0x14b7 /tmp/cc8DLllS.ltrans13.ltrans.o
 .debug_info    0x0002a2ad     0x30e3 /tmp/cc8DLllS.ltrans14.ltrans.o
 .debug_info    0x0002d390     0x22d1 /tmp/cc8DLllS.ltrans15.ltrans.o
 .debug_info    0x0002f661     0x35a7 /tmp/cc8DLllS.ltrans16.ltrans.o
 .debug_info    0x00032c08     0x22b7 /tmp/cc8DLllS.ltrans17.ltrans.o
 .debug_info    0x00034ebf     0x2993 /tmp/cc8DLllS.ltrans18.ltrans.o
 .debug_info    0x00037852     0x1f0b /tmp/cc8DLllS.ltrans19.ltrans.o
 .debug_info    0x0003975d     0x183f /tmp/cc8DLllS.ltrans20.ltrans.o
 .debug_info    0x0003af9c     0x2aef /tmp/cc8DLllS.ltrans21.ltrans.o
 .debug_info    0x0003da8b     0x21a8 /tmp/cc8DLllS.ltrans22.ltrans.o
 .debug_info    0x0003fc33     0x104f /tmp/cc8DLllS.ltrans23.ltrans.o
 .debug_info    0x00040c82     0x2ef3 /tmp/cc8DLllS.ltrans24.ltrans.o
 .debug_info    0x00043b75     0x18fa /tmp/cc8DLllS.ltrans25.ltrans.o
 .debug_info    0x0004546f      0x9b6 /tmp/cc8DLllS.ltrans26.ltrans.o
 .debug_info    0x00045e25     0x1126 /tmp/cc8DLllS.ltrans27.ltrans.o
 .debug_info    0x00046f4b      0xa5c /tmp/cc8DLllS.ltrans28.ltrans.o
 .debug_info    0x000479a7      0x7d8 /tmp/cc8DLllS.ltrans29.ltrans.o
 .debug_info    0x0004817f      0x530 /tmp/cc8DLllS.ltrans30.ltrans.o
 .debug_info    0x000486af      0x7ed /usr/lib/gcc/arm-none-eabi/4.9.3/../../../arm-none-eabi/lib/armv7-m/libc_nano.a(lib_a-atoi.o)
 .debug_info    0x00048e9c       0x6f /usr/lib/gcc/arm-none-eabi/4.9.3/../../../arm-none-eabi/lib/armv7-m/libc_nano.a(lib_a-ctype_.o)
 .debug_info    0x00048f0b      0x816 /usr/lib/gcc/arm-none-eabi/4.9.3/../../../arm-none-eabi/lib/armv7-m/libc_nano.a(lib_a-strtok.o)
 .debug_info    0x00049721      0x184 /usr/lib/gcc/arm-none-eabi/4.9.3/../../../arm-none-eabi/lib/armv7-m/libc_nano.a(lib_a-strtok_r.o)
 .debug_info    0x000498a5      0x853 /usr/lib/gcc/arm-none-eabi/4.9.3/../../../arm-none-eabi/lib/armv7-m/libc_nano.a(lib_a-strtol.o)
 .debug_info    0x0004a0f8      0x7d3 /usr/lib/gcc/arm-none-eabi/4.9.3/../../../arm-none-eabi/lib/armv7-m/libc_nano.a(lib_a-impure.o)
 .debug_info    0x0004a8cb      0x7c1 /usr/lib/gcc/arm-none-eabi/4.9.3/../../../arm-none-eabi/lib/armv7-m/libc_nano.a(lib_a-malloc.o)
 .debug_info    0x0004b08c      0x81a /usr/lib/gcc/arm-none-eabi/4.9.3/../../../arm-none-eabi/lib/armv7-m/libc_nano.a(lib_a-nano-freer.o)
 .debug_info    0x0004b8a6      0x8fb /usr/lib/gcc/arm-none-eabi/4.9.3/../../../arm-none-eabi/lib/armv7-m/libc_nano.a(lib_a-nano-mallocr.o)
 .debug_info    0x0004c1a1      0x7a0 /usr/lib/gcc/arm-none-eabi/4.9.3/../../../arm-none-eabi/lib/armv7-m/libc_nano.a(lib_a-sbrkr.o)
 .debug_info    0x0004c941      0x8fb /usr/lib/gcc/arm-none-eabi/4.9.3/../../../arm-none-eabi/lib/armv7-m/libc_nano.a(lib_a-reent.o)
 .debug_info    0x0004d23c       0x99 /usr/lib/gcc/arm-none-eabi/4.9.3/../../../arm-none-eabi/lib/armv7-m/libnosys.a(sbrk.o)
 .debug_info    0x0004d2d5      0x14a /usr/lib/gcc/arm-none-eabi/4.9.3/../../../arm-none-eabi/lib/armv7-m/libm.a(lib_a-sf_lrint.o)
 .debug_info    0x0004d41f      0x342 /usr/lib/gcc/arm-none-eabi/4.9.3/../../../arm-none-eabi/lib/armv7-m/libm.a(lib_a-wf_pow.o)
 .debug_info    0x0004d761      0x20d /usr/lib/gcc/arm-none-eabi/4.9.3/../../../arm-none-eabi/lib/armv7-m/libm.a(lib_a-wf_sqrt.o)
 .debug_info    0x0004d96e      0x6dc /usr/lib/gcc/arm-none-eabi/4.9.3/../../../arm-none-eabi/lib/armv7-m/libm.a(lib_a-ef_pow.o)
 .debug_info    0x0004e04a      0x1cc /usr/lib/gcc/arm-none-eabi/4.9.3/../../../arm-none-eabi/lib/armv7-m/libm.a(lib_a-ef_sqrt.o)
 .debug_info    0x0004e216       0xbe /usr/lib/gcc/arm-none-eabi/4.9.3/../../../arm-none-eabi/lib/armv7-m/libm.a(lib_a-s_lib_ver.o)
 .debug_info    0x0004e2d4      0x129 /usr/lib/gcc/arm-none-eabi/4.9.3/../../../arm-none-eabi/lib/armv7-m/libm.a(lib_a-s_matherr.o)
 .debug_info    0x0004e3fd      0x20a /usr/lib/gcc/arm-none-eabi/4.9.3/../../../arm-none-eabi/lib/armv7-m/libm.a(lib_a-s_rint.o)
 .debug_info    0x0004e607       0xcc /usr/lib/gcc/arm-none-eabi/4.9.3/../../../arm-none-eabi/lib/armv7-m/libm.a(lib_a-sf_fabs.o)
 .debug_info    0x0004e6d3       0xcc /usr/lib/gcc/arm-none-eabi/4.9.3/../../../arm-none-eabi/lib/armv7-m/libm.a(lib_a-sf_finite.o)
 .debug_info    0x0004e79f       0xca /usr/lib/gcc/arm-none-eabi/4.9.3/../../../arm-none-eabi/lib/armv7-m/libm.a(lib_a-sf_fpclassify.o)
 .debug_info    0x0004e869       0xce /usr/lib/gcc/arm-none-eabi/4.9.3/../../../arm-none-eabi/lib/armv7-m/libm.a(lib_a-sf_nan.o)
 .debug_info    0x0004e937      0x21c /usr/lib/gcc/arm-none-eabi/4.9.3/../../../arm-none-eabi/lib/armv7-m/libm.a(lib_a-sf_scalbn.o)
 .debug_info    0x0004eb53      0x12e /usr/lib/gcc/arm-none-eabi/4.9.3/../../../arm-none-eabi/lib/armv7-m/libm.a(lib_a-sf_copysign.o)
 .debug_info    0x0004ec81      0x78e /usr/lib/gcc/arm-none-eabi/4.9.3/../../../arm-none-eabi/lib/armv7-m/libc_nano.a(lib_a-calloc.o)
 .debug_info    0x0004f40f      0x735 /usr/lib/gcc/arm-none-eabi/4.9.3/../../../arm-none-eabi/lib/armv7-m/libc_nano.a(lib_a-errno.o)
 .debug_info    0x0004fb44       0xef /usr/lib/gcc/arm-none-eabi/4.9.3/../../../arm-none-eabi/lib/armv7-m/libc_nano.a(lib_a-memcmp.o)
 .debug_info    0x0004fc33      0x104 /usr/lib/gcc/arm-none-eabi/4.9.3/../../../arm-none-eabi/lib/armv7-m/libc_nano.a(lib_a-memcpy.o)
 .debug_info    0x0004fd37       0xd3 /usr/lib/gcc/arm-none-eabi/4.9.3/../../../arm-none-eabi/lib/armv7-m/libc_nano.a(lib_a-memset.o)
 .debug_info    0x0004fe0a      0x7e8 /usr/lib/gcc/arm-none-eabi/4.9.3/../../../arm-none-eabi/lib/armv7-m/libc_nano.a(lib_a-nano-callocr.o)
 .debug_info    0x000505f2      0x14f /usr/lib/gcc/arm-none-eabi/4.9.3/../../../arm-none-eabi/lib/armv7-m/libc_nano.a(lib_a-strcasecmp.o)
 .debug_info    0x00050741       0xc8 /usr/lib/gcc/arm-none-eabi/4.9.3/../../../arm-none-eabi/lib/armv7-m/libc_nano.a(lib_a-strcat.o)
 .debug_info    0x00050809       0xe3 /usr/lib/gcc/arm-none-eabi/4.9.3/../../../arm-none-eabi/lib/armv7-m/libc_nano.a(lib_a-strchr.o)
 .debug_info    0x000508ec       0xbd /usr/lib/gcc/arm-none-eabi/4.9.3/../../../arm-none-eabi/lib/armv7-m/libc_nano.a(lib_a-strcpy.o)
 .debug_info    0x000509a9       0xcd /usr/lib/gcc/arm-none-eabi/4.9.3/../../../arm-none-eabi/lib/armv7-m/libc_nano.a(lib_a-strlen.o)
 .debug_info    0x00050a76      0x169 /usr/lib/gcc/arm-none-eabi/4.9.3/../../../arm-none-eabi/lib/armv7-m/libc_nano.a(lib_a-strncasecmp.o)
 .debug_info    0x00050bdf       0xf5 /usr/lib/gcc/arm-none-eabi/4.9.3/../../../arm-none-eabi/lib/armv7-m/libc_nano.a(lib_a-strncpy.o)
 .debug_info    0x00050cd4       0xdb /usr/lib/gcc/arm-none-eabi/4.9.3/../../../arm-none-eabi/lib/armv7-m/libc_nano.a(lib_a-strstr.o)
 .debug_info    0x00050daf       0xba /usr/lib/gcc/arm-none-eabi/4.9.3/armv7-m/libgcc.a(_arm_addsubdf3.o)
 .debug_info    0x00050e69       0xba /usr/lib/gcc/arm-none-eabi/4.9.3/armv7-m/libgcc.a(_arm_muldivdf3.o)
 .debug_info    0x00050f23       0xba /usr/lib/gcc/arm-none-eabi/4.9.3/armv7-m/libgcc.a(_arm_cmpdf2.o)
 .debug_info    0x00050fdd       0xba /usr/lib/gcc/arm-none-eabi/4.9.3/armv7-m/libgcc.a(_arm_fixunsdfsi.o)
 .debug_info    0x00051097       0xba /usr/lib/gcc/arm-none-eabi/4.9.3/armv7-m/libgcc.a(_arm_truncdfsf2.o)
 .debug_info    0x00051151       0xba /usr/lib/gcc/arm-none-eabi/4.9.3/armv7-m/libgcc.a(_arm_addsubsf3.o)
 .debug_info    0x0005120b       0xba /usr/lib/gcc/arm-none-eabi/4.9.3/armv7-m/libgcc.a(_arm_muldivsf3.o)
 .debug_info    0x000512c5       0xba /usr/lib/gcc/arm-none-eabi/4.9.3/armv7-m/libgcc.a(_arm_cmpsf2.o)
 .debug_info    0x0005137f       0xba /usr/lib/gcc/arm-none-eabi/4.9.3/armv7-m/libgcc.a(_arm_fixsfsi.o)
 .debug_info    0x00051439       0xba /usr/lib/gcc/arm-none-eabi/4.9.3/armv7-m/libgcc.a(_arm_fixunssfsi.o)
 .debug_info    0x000514f3       0xb5 /usr/lib/gcc/arm-none-eabi/4.9.3/armv7-m/libgcc.a(_aeabi_ldivmod.o)
 .debug_info    0x000515a8      0x164 /usr/lib/gcc/arm-none-eabi/4.9.3/armv7-m/libgcc.a(bpabi.o)
 .debug_info    0x0005170c       0xb9 /usr/lib/gcc/arm-none-eabi/4.9.3/armv7-m/libgcc.a(_dvmd_tls.o)
 .debug_info    0x000517c5      0x5bc /usr/lib/gcc/arm-none-eabi/4.9.3/armv7-m/libgcc.a(_divdi3.o)
 .debug_info    0x00051d81      0x57c /usr/lib/gcc/arm-none-eabi/4.9.3/armv7-m/libgcc.a(_udivdi3.o)

.debug_abbrev   0x00000000     0xc83c
 .debug_abbrev  0x00000000      0x6b4 /tmp/cc8DLllS.ltrans0.ltrans.o
 .debug_abbrev  0x000006b4      0x5a8 /tmp/cc8DLllS.ltrans1.ltrans.o
 .debug_abbrev  0x00000c5c      0x5bb /tmp/cc8DLllS.ltrans2.ltrans.o
 .debug_abbrev  0x00001217      0x566 /tmp/cc8DLllS.ltrans3.ltrans.o
 .debug_abbrev  0x0000177d      0x5ef /tmp/cc8DLllS.ltrans4.ltrans.o
 .debug_abbrev  0x00001d6c      0x47e /tmp/cc8DLllS.ltrans5.ltrans.o
 .debug_abbrev  0x000021ea      0x6b2 /tmp/cc8DLllS.ltrans6.ltrans.o
 .debug_abbrev  0x0000289c      0x588 /tmp/cc8DLllS.ltrans7.ltrans.o
 .debug_abbrev  0x00002e24      0x36c /tmp/cc8DLllS.ltrans8.ltrans.o
 .debug_abbrev  0x00003190      0x78e /tmp/cc8DLllS.ltrans9.ltrans.o
 .debug_abbrev  0x0000391e      0x44b /tmp/cc8DLllS.ltrans10.ltrans.o
 .debug_abbrev  0x00003d69      0x502 /tmp/cc8DLllS.ltrans11.ltrans.o
 .debug_abbrev  0x0000426b      0x55d /tmp/cc8DLllS.ltrans12.ltrans.o
 .debug_abbrev  0x000047c8      0x462 /tmp/cc8DLllS.ltrans13.ltrans.o
 .debug_abbrev  0x00004c2a      0x585 /tmp/cc8DLllS.ltrans14.ltrans.o
 .debug_abbrev  0x000051af      0x551 /tmp/cc8DLllS.ltrans15.ltrans.o
 .debug_abbrev  0x00005700      0x6b9 /tmp/cc8DLllS.ltrans16.ltrans.o
 .debug_abbrev  0x00005db9      0x6fd /tmp/cc8DLllS.ltrans17.ltrans.o
 .debug_abbrev  0x000064b6      0x606 /tmp/cc8DLllS.ltrans18.ltrans.o
 .debug_abbrev  0x00006abc      0x51b /tmp/cc8DLllS.ltrans19.ltrans.o
 .debug_abbrev  0x00006fd7      0x47c /tmp/cc8DLllS.ltrans20.ltrans.o
 .debug_abbrev  0x00007453      0x611 /tmp/cc8DLllS.ltrans21.ltrans.o
 .debug_abbrev  0x00007a64      0x57f /tmp/cc8DLllS.ltrans22.ltrans.o
 .debug_abbrev  0x00007fe3      0x2dc /tmp/cc8DLllS.ltrans23.ltrans.o
 .debug_abbrev  0x000082bf      0x467 /tmp/cc8DLllS.ltrans24.ltrans.o
 .debug_abbrev  0x00008726      0x641 /tmp/cc8DLllS.ltrans25.ltrans.o
 .debug_abbrev  0x00008d67      0x21b /tmp/cc8DLllS.ltrans26.ltrans.o
 .debug_abbrev  0x00008f82      0x464 /tmp/cc8DLllS.ltrans27.ltrans.o
 .debug_abbrev  0x000093e6      0x397 /tmp/cc8DLllS.ltrans28.ltrans.o
 .debug_abbrev  0x0000977d      0x301 /tmp/cc8DLllS.ltrans29.ltrans.o
 .debug_abbrev  0x00009a7e      0x23d /tmp/cc8DLllS.ltrans30.ltrans.o
 .debug_abbrev  0x00009cbb      0x176 /usr/lib/gcc/arm-none-eabi/4.9.3/../../../arm-none-eabi/lib/armv7-m/libc_nano.a(lib_a-atoi.o)
 .debug_abbrev  0x00009e31       0x4e /usr/lib/gcc/arm-none-eabi/4.9.3/../../../arm-none-eabi/lib/armv7-m/libc_nano.a(lib_a-ctype_.o)
 .debug_abbrev  0x00009e7f      0x1e1 /usr/lib/gcc/arm-none-eabi/4.9.3/../../../arm-none-eabi/lib/armv7-m/libc_nano.a(lib_a-strtok.o)
 .debug_abbrev  0x0000a060       0xed /usr/lib/gcc/arm-none-eabi/4.9.3/../../../arm-none-eabi/lib/armv7-m/libc_nano.a(lib_a-strtok_r.o)
 .debug_abbrev  0x0000a14d      0x1ac /usr/lib/gcc/arm-none-eabi/4.9.3/../../../arm-none-eabi/lib/armv7-m/libc_nano.a(lib_a-strtol.o)
 .debug_abbrev  0x0000a2f9      0x136 /usr/lib/gcc/arm-none-eabi/4.9.3/../../../arm-none-eabi/lib/armv7-m/libc_nano.a(lib_a-impure.o)
 .debug_abbrev  0x0000a42f      0x19f /usr/lib/gcc/arm-none-eabi/4.9.3/../../../arm-none-eabi/lib/armv7-m/libc_nano.a(lib_a-malloc.o)
 .debug_abbrev  0x0000a5ce      0x1b6 /usr/lib/gcc/arm-none-eabi/4.9.3/../../../arm-none-eabi/lib/armv7-m/libc_nano.a(lib_a-nano-freer.o)
 .debug_abbrev  0x0000a784      0x250 /usr/lib/gcc/arm-none-eabi/4.9.3/../../../arm-none-eabi/lib/armv7-m/libc_nano.a(lib_a-nano-mallocr.o)
 .debug_abbrev  0x0000a9d4      0x1a2 /usr/lib/gcc/arm-none-eabi/4.9.3/../../../arm-none-eabi/lib/armv7-m/libc_nano.a(lib_a-sbrkr.o)
 .debug_abbrev  0x0000ab76      0x1f2 /usr/lib/gcc/arm-none-eabi/4.9.3/../../../arm-none-eabi/lib/armv7-m/libc_nano.a(lib_a-reent.o)
 .debug_abbrev  0x0000ad68       0x83 /usr/lib/gcc/arm-none-eabi/4.9.3/../../../arm-none-eabi/lib/armv7-m/libnosys.a(sbrk.o)
 .debug_abbrev  0x0000adeb       0xbe /usr/lib/gcc/arm-none-eabi/4.9.3/../../../arm-none-eabi/lib/armv7-m/libm.a(lib_a-sf_lrint.o)
 .debug_abbrev  0x0000aea9      0x14d /usr/lib/gcc/arm-none-eabi/4.9.3/../../../arm-none-eabi/lib/armv7-m/libm.a(lib_a-wf_pow.o)
 .debug_abbrev  0x0000aff6      0x13a /usr/lib/gcc/arm-none-eabi/4.9.3/../../../arm-none-eabi/lib/armv7-m/libm.a(lib_a-wf_sqrt.o)
 .debug_abbrev  0x0000b130      0x1cd /usr/lib/gcc/arm-none-eabi/4.9.3/../../../arm-none-eabi/lib/armv7-m/libm.a(lib_a-ef_pow.o)
 .debug_abbrev  0x0000b2fd       0xe0 /usr/lib/gcc/arm-none-eabi/4.9.3/../../../arm-none-eabi/lib/armv7-m/libm.a(lib_a-ef_sqrt.o)
 .debug_abbrev  0x0000b3dd       0x4f /usr/lib/gcc/arm-none-eabi/4.9.3/../../../arm-none-eabi/lib/armv7-m/libm.a(lib_a-s_lib_ver.o)
 .debug_abbrev  0x0000b42c       0x9a /usr/lib/gcc/arm-none-eabi/4.9.3/../../../arm-none-eabi/lib/armv7-m/libm.a(lib_a-s_matherr.o)
 .debug_abbrev  0x0000b4c6      0x12b /usr/lib/gcc/arm-none-eabi/4.9.3/../../../arm-none-eabi/lib/armv7-m/libm.a(lib_a-s_rint.o)
 .debug_abbrev  0x0000b5f1       0x6f /usr/lib/gcc/arm-none-eabi/4.9.3/../../../arm-none-eabi/lib/armv7-m/libm.a(lib_a-sf_fabs.o)
 .debug_abbrev  0x0000b660       0x6f /usr/lib/gcc/arm-none-eabi/4.9.3/../../../arm-none-eabi/lib/armv7-m/libm.a(lib_a-sf_finite.o)
 .debug_abbrev  0x0000b6cf       0x6f /usr/lib/gcc/arm-none-eabi/4.9.3/../../../arm-none-eabi/lib/armv7-m/libm.a(lib_a-sf_fpclassify.o)
 .debug_abbrev  0x0000b73e       0x72 /usr/lib/gcc/arm-none-eabi/4.9.3/../../../arm-none-eabi/lib/armv7-m/libm.a(lib_a-sf_nan.o)
 .debug_abbrev  0x0000b7b0       0xed /usr/lib/gcc/arm-none-eabi/4.9.3/../../../arm-none-eabi/lib/armv7-m/libm.a(lib_a-sf_scalbn.o)
 .debug_abbrev  0x0000b89d       0xae /usr/lib/gcc/arm-none-eabi/4.9.3/../../../arm-none-eabi/lib/armv7-m/libm.a(lib_a-sf_copysign.o)
 .debug_abbrev  0x0000b94b      0x181 /usr/lib/gcc/arm-none-eabi/4.9.3/../../../arm-none-eabi/lib/armv7-m/libc_nano.a(lib_a-calloc.o)
 .debug_abbrev  0x0000bacc      0x134 /usr/lib/gcc/arm-none-eabi/4.9.3/../../../arm-none-eabi/lib/armv7-m/libc_nano.a(lib_a-errno.o)
 .debug_abbrev  0x0000bc00       0x8e /usr/lib/gcc/arm-none-eabi/4.9.3/../../../arm-none-eabi/lib/armv7-m/libc_nano.a(lib_a-memcmp.o)
 .debug_abbrev  0x0000bc8e       0xa4 /usr/lib/gcc/arm-none-eabi/4.9.3/../../../arm-none-eabi/lib/armv7-m/libc_nano.a(lib_a-memcpy.o)
 .debug_abbrev  0x0000bd32       0x8e /usr/lib/gcc/arm-none-eabi/4.9.3/../../../arm-none-eabi/lib/armv7-m/libc_nano.a(lib_a-memset.o)
 .debug_abbrev  0x0000bdc0      0x19e /usr/lib/gcc/arm-none-eabi/4.9.3/../../../arm-none-eabi/lib/armv7-m/libc_nano.a(lib_a-nano-callocr.o)
 .debug_abbrev  0x0000bf5e       0xb3 /usr/lib/gcc/arm-none-eabi/4.9.3/../../../arm-none-eabi/lib/armv7-m/libc_nano.a(lib_a-strcasecmp.o)
 .debug_abbrev  0x0000c011       0x72 /usr/lib/gcc/arm-none-eabi/4.9.3/../../../arm-none-eabi/lib/armv7-m/libc_nano.a(lib_a-strcat.o)
 .debug_abbrev  0x0000c083       0x83 /usr/lib/gcc/arm-none-eabi/4.9.3/../../../arm-none-eabi/lib/armv7-m/libc_nano.a(lib_a-strchr.o)
 .debug_abbrev  0x0000c106       0x72 /usr/lib/gcc/arm-none-eabi/4.9.3/../../../arm-none-eabi/lib/armv7-m/libc_nano.a(lib_a-strcpy.o)
 .debug_abbrev  0x0000c178       0x8c /usr/lib/gcc/arm-none-eabi/4.9.3/../../../arm-none-eabi/lib/armv7-m/libc_nano.a(lib_a-strlen.o)
 .debug_abbrev  0x0000c204       0xb1 /usr/lib/gcc/arm-none-eabi/4.9.3/../../../arm-none-eabi/lib/armv7-m/libc_nano.a(lib_a-strncasecmp.o)
 .debug_abbrev  0x0000c2b5       0x8e /usr/lib/gcc/arm-none-eabi/4.9.3/../../../arm-none-eabi/lib/armv7-m/libc_nano.a(lib_a-strncpy.o)
 .debug_abbrev  0x0000c343       0x95 /usr/lib/gcc/arm-none-eabi/4.9.3/../../../arm-none-eabi/lib/armv7-m/libc_nano.a(lib_a-strstr.o)
 .debug_abbrev  0x0000c3d8       0x14 /usr/lib/gcc/arm-none-eabi/4.9.3/armv7-m/libgcc.a(_arm_addsubdf3.o)
 .debug_abbrev  0x0000c3ec       0x14 /usr/lib/gcc/arm-none-eabi/4.9.3/armv7-m/libgcc.a(_arm_muldivdf3.o)
 .debug_abbrev  0x0000c400       0x14 /usr/lib/gcc/arm-none-eabi/4.9.3/armv7-m/libgcc.a(_arm_cmpdf2.o)
 .debug_abbrev  0x0000c414       0x14 /usr/lib/gcc/arm-none-eabi/4.9.3/armv7-m/libgcc.a(_arm_fixunsdfsi.o)
 .debug_abbrev  0x0000c428       0x14 /usr/lib/gcc/arm-none-eabi/4.9.3/armv7-m/libgcc.a(_arm_truncdfsf2.o)
 .debug_abbrev  0x0000c43c       0x14 /usr/lib/gcc/arm-none-eabi/4.9.3/armv7-m/libgcc.a(_arm_addsubsf3.o)
 .debug_abbrev  0x0000c450       0x14 /usr/lib/gcc/arm-none-eabi/4.9.3/armv7-m/libgcc.a(_arm_muldivsf3.o)
 .debug_abbrev  0x0000c464       0x14 /usr/lib/gcc/arm-none-eabi/4.9.3/armv7-m/libgcc.a(_arm_cmpsf2.o)
 .debug_abbrev  0x0000c478       0x14 /usr/lib/gcc/arm-none-eabi/4.9.3/armv7-m/libgcc.a(_arm_fixsfsi.o)
 .debug_abbrev  0x0000c48c       0x14 /usr/lib/gcc/arm-none-eabi/4.9.3/armv7-m/libgcc.a(_arm_fixunssfsi.o)
 .debug_abbrev  0x0000c4a0       0x14 /usr/lib/gcc/arm-none-eabi/4.9.3/armv7-m/libgcc.a(_aeabi_ldivmod.o)
 .debug_abbrev  0x0000c4b4       0xb7 /usr/lib/gcc/arm-none-eabi/4.9.3/armv7-m/libgcc.a(bpabi.o)
 .debug_abbrev  0x0000c56b       0x14 /usr/lib/gcc/arm-none-eabi/4.9.3/armv7-m/libgcc.a(_dvmd_tls.o)
 .debug_abbrev  0x0000c57f      0x169 /usr/lib/gcc/arm-none-eabi/4.9.3/armv7-m/libgcc.a(_divdi3.o)
 .debug_abbrev  0x0000c6e8      0x154 /usr/lib/gcc/arm-none-eabi/4.9.3/armv7-m/libgcc.a(_udivdi3.o)

.debug_loc      0x00000000    0x21114
 .debug_loc     0x00000000     0x2d42 /tmp/cc8DLllS.ltrans0.ltrans.o
 .debug_loc     0x00002d42     0x1d87 /tmp/cc8DLllS.ltrans1.ltrans.o
 .debug_loc     0x00004ac9     0x1bad /tmp/cc8DLllS.ltrans2.ltrans.o
 .debug_loc     0x00006676     0x1162 /tmp/cc8DLllS.ltrans3.ltrans.o
 .debug_loc     0x000077d8     0x1cd2 /tmp/cc8DLllS.ltrans4.ltrans.o
 .debug_loc     0x000094aa      0x8eb /tmp/cc8DLllS.ltrans5.ltrans.o
 .debug_loc     0x00009d95     0x1658 /tmp/cc8DLllS.ltrans6.ltrans.o
 .debug_loc     0x0000b3ed     0x13a7 /tmp/cc8DLllS.ltrans7.ltrans.o
 .debug_loc     0x0000c794      0xb4a /tmp/cc8DLllS.ltrans8.ltrans.o
 .debug_loc     0x0000d2de     0x12d4 /tmp/cc8DLllS.ltrans9.ltrans.o
 .debug_loc     0x0000e5b2     0x1701 /tmp/cc8DLllS.ltrans10.ltrans.o
 .debug_loc     0x0000fcb3      0xcf4 /tmp/cc8DLllS.ltrans11.ltrans.o
 .debug_loc     0x000109a7      0x83b /tmp/cc8DLllS.ltrans12.ltrans.o
 .debug_loc     0x000111e2      0x722 /tmp/cc8DLllS.ltrans13.ltrans.o
 .debug_loc     0x00011904      0xbd2 /tmp/cc8DLllS.ltrans14.ltrans.o
 .debug_loc     0x000124d6      0xfb5 /tmp/cc8DLllS.ltrans15.ltrans.o
 .debug_loc     0x0001348b     0x11be /tmp/cc8DLllS.ltrans16.ltrans.o
 .debug_loc     0x00014649      0xa99 /tmp/cc8DLllS.ltrans17.ltrans.o
 .debug_loc     0x000150e2      0xef9 /tmp/cc8DLllS.ltrans18.ltrans.o
 .debug_loc     0x00015fdb      0x77a /tmp/cc8DLllS.ltrans19.ltrans.o
 .debug_loc     0x00016755      0x7cf /tmp/cc8DLllS.ltrans20.ltrans.o
 .debug_loc     0x00016f24      0xb21 /tmp/cc8DLllS.ltrans21.ltrans.o
 .debug_loc     0x00017a45      0xae6 /tmp/cc8DLllS.ltrans22.ltrans.o
 .debug_loc     0x0001852b      0xd5a /tmp/cc8DLllS.ltrans23.ltrans.o
 .debug_loc     0x00019285      0xd39 /tmp/cc8DLllS.ltrans24.ltrans.o
 .debug_loc     0x00019fbe      0xd75 /tmp/cc8DLllS.ltrans25.ltrans.o
 .debug_loc     0x0001ad33      0x7eb /tmp/cc8DLllS.ltrans26.ltrans.o
 .debug_loc     0x0001b51e      0x6c0 /tmp/cc8DLllS.ltrans27.ltrans.o
 .debug_loc     0x0001bbde      0x214 /tmp/cc8DLllS.ltrans28.ltrans.o
 .debug_loc     0x0001bdf2      0x15f /tmp/cc8DLllS.ltrans29.ltrans.o
 .debug_loc     0x0001bf51       0xcf /tmp/cc8DLllS.ltrans30.ltrans.o
 .debug_loc     0x0001c020       0x63 /usr/lib/gcc/arm-none-eabi/4.9.3/../../../arm-none-eabi/lib/armv7-m/libc_nano.a(lib_a-atoi.o)
 .debug_loc     0x0001c083       0x94 /usr/lib/gcc/arm-none-eabi/4.9.3/../../../arm-none-eabi/lib/armv7-m/libc_nano.a(lib_a-strtok.o)
 .debug_loc     0x0001c117      0x1a3 /usr/lib/gcc/arm-none-eabi/4.9.3/../../../arm-none-eabi/lib/armv7-m/libc_nano.a(lib_a-strtok_r.o)
 .debug_loc     0x0001c2ba      0x354 /usr/lib/gcc/arm-none-eabi/4.9.3/../../../arm-none-eabi/lib/armv7-m/libc_nano.a(lib_a-strtol.o)
 .debug_loc     0x0001c60e       0x58 /usr/lib/gcc/arm-none-eabi/4.9.3/../../../arm-none-eabi/lib/armv7-m/libc_nano.a(lib_a-malloc.o)
 .debug_loc     0x0001c666      0x172 /usr/lib/gcc/arm-none-eabi/4.9.3/../../../arm-none-eabi/lib/armv7-m/libc_nano.a(lib_a-nano-freer.o)
 .debug_loc     0x0001c7d8      0x304 /usr/lib/gcc/arm-none-eabi/4.9.3/../../../arm-none-eabi/lib/armv7-m/libc_nano.a(lib_a-nano-mallocr.o)
 .debug_loc     0x0001cadc       0x4d /usr/lib/gcc/arm-none-eabi/4.9.3/../../../arm-none-eabi/lib/armv7-m/libc_nano.a(lib_a-sbrkr.o)
 .debug_loc     0x0001cb29       0xfa /usr/lib/gcc/arm-none-eabi/4.9.3/../../../arm-none-eabi/lib/armv7-m/libc_nano.a(lib_a-reent.o)
 .debug_loc     0x0001cc23       0x21 /usr/lib/gcc/arm-none-eabi/4.9.3/../../../arm-none-eabi/lib/armv7-m/libnosys.a(sbrk.o)
 .debug_loc     0x0001cc44      0x15e /usr/lib/gcc/arm-none-eabi/4.9.3/../../../arm-none-eabi/lib/armv7-m/libm.a(lib_a-sf_lrint.o)
 .debug_loc     0x0001cda2      0x221 /usr/lib/gcc/arm-none-eabi/4.9.3/../../../arm-none-eabi/lib/armv7-m/libm.a(lib_a-wf_pow.o)
 .debug_loc     0x0001cfc3       0x3c /usr/lib/gcc/arm-none-eabi/4.9.3/../../../arm-none-eabi/lib/armv7-m/libm.a(lib_a-wf_sqrt.o)
 .debug_loc     0x0001cfff     0x1356 /usr/lib/gcc/arm-none-eabi/4.9.3/../../../arm-none-eabi/lib/armv7-m/libm.a(lib_a-ef_pow.o)
 .debug_loc     0x0001e355      0x2c6 /usr/lib/gcc/arm-none-eabi/4.9.3/../../../arm-none-eabi/lib/armv7-m/libm.a(lib_a-ef_sqrt.o)
 .debug_loc     0x0001e61b       0x21 /usr/lib/gcc/arm-none-eabi/4.9.3/../../../arm-none-eabi/lib/armv7-m/libm.a(lib_a-s_matherr.o)
 .debug_loc     0x0001e63c      0x2bd /usr/lib/gcc/arm-none-eabi/4.9.3/../../../arm-none-eabi/lib/armv7-m/libm.a(lib_a-s_rint.o)
 .debug_loc     0x0001e8f9       0x3b /usr/lib/gcc/arm-none-eabi/4.9.3/../../../arm-none-eabi/lib/armv7-m/libm.a(lib_a-sf_fabs.o)
 .debug_loc     0x0001e934       0x56 /usr/lib/gcc/arm-none-eabi/4.9.3/../../../arm-none-eabi/lib/armv7-m/libm.a(lib_a-sf_finite.o)
 .debug_loc     0x0001e98a       0x36 /usr/lib/gcc/arm-none-eabi/4.9.3/../../../arm-none-eabi/lib/armv7-m/libm.a(lib_a-sf_fpclassify.o)
 .debug_loc     0x0001e9c0       0x21 /usr/lib/gcc/arm-none-eabi/4.9.3/../../../arm-none-eabi/lib/armv7-m/libm.a(lib_a-sf_nan.o)
 .debug_loc     0x0001e9e1      0x367 /usr/lib/gcc/arm-none-eabi/4.9.3/../../../arm-none-eabi/lib/armv7-m/libm.a(lib_a-sf_scalbn.o)
 .debug_loc     0x0001ed48       0xa0 /usr/lib/gcc/arm-none-eabi/4.9.3/../../../arm-none-eabi/lib/armv7-m/libm.a(lib_a-sf_copysign.o)
 .debug_loc     0x0001ede8       0x58 /usr/lib/gcc/arm-none-eabi/4.9.3/../../../arm-none-eabi/lib/armv7-m/libc_nano.a(lib_a-calloc.o)
 .debug_loc     0x0001ee40       0xe1 /usr/lib/gcc/arm-none-eabi/4.9.3/../../../arm-none-eabi/lib/armv7-m/libc_nano.a(lib_a-memcmp.o)
 .debug_loc     0x0001ef21       0x87 /usr/lib/gcc/arm-none-eabi/4.9.3/../../../arm-none-eabi/lib/armv7-m/libc_nano.a(lib_a-memcpy.o)
 .debug_loc     0x0001efa8       0x49 /usr/lib/gcc/arm-none-eabi/4.9.3/../../../arm-none-eabi/lib/armv7-m/libc_nano.a(lib_a-memset.o)
 .debug_loc     0x0001eff1       0x81 /usr/lib/gcc/arm-none-eabi/4.9.3/../../../arm-none-eabi/lib/armv7-m/libc_nano.a(lib_a-nano-callocr.o)
 .debug_loc     0x0001f072      0x137 /usr/lib/gcc/arm-none-eabi/4.9.3/../../../arm-none-eabi/lib/armv7-m/libc_nano.a(lib_a-strcasecmp.o)
 .debug_loc     0x0001f1a9       0x54 /usr/lib/gcc/arm-none-eabi/4.9.3/../../../arm-none-eabi/lib/armv7-m/libc_nano.a(lib_a-strcat.o)
 .debug_loc     0x0001f1fd       0x6b /usr/lib/gcc/arm-none-eabi/4.9.3/../../../arm-none-eabi/lib/armv7-m/libc_nano.a(lib_a-strchr.o)
 .debug_loc     0x0001f268       0x21 /usr/lib/gcc/arm-none-eabi/4.9.3/../../../arm-none-eabi/lib/armv7-m/libc_nano.a(lib_a-strcpy.o)
 .debug_loc     0x0001f289       0x21 /usr/lib/gcc/arm-none-eabi/4.9.3/../../../arm-none-eabi/lib/armv7-m/libc_nano.a(lib_a-strlen.o)
 .debug_loc     0x0001f2aa      0x198 /usr/lib/gcc/arm-none-eabi/4.9.3/../../../arm-none-eabi/lib/armv7-m/libc_nano.a(lib_a-strncasecmp.o)
 .debug_loc     0x0001f442       0xc5 /usr/lib/gcc/arm-none-eabi/4.9.3/../../../arm-none-eabi/lib/armv7-m/libc_nano.a(lib_a-strncpy.o)
 .debug_loc     0x0001f507       0x55 /usr/lib/gcc/arm-none-eabi/4.9.3/../../../arm-none-eabi/lib/armv7-m/libc_nano.a(lib_a-strstr.o)
 .debug_loc     0x0001f55c       0xa0 /usr/lib/gcc/arm-none-eabi/4.9.3/armv7-m/libgcc.a(bpabi.o)
 .debug_loc     0x0001f5fc      0xdbd /usr/lib/gcc/arm-none-eabi/4.9.3/armv7-m/libgcc.a(_divdi3.o)
 .debug_loc     0x000203b9      0xd5b /usr/lib/gcc/arm-none-eabi/4.9.3/armv7-m/libgcc.a(_udivdi3.o)

.debug_aranges  0x00000000      0xad8
 .debug_aranges
                0x00000000       0x20 /tmp/cc8DLllS.ltrans0.ltrans.o
 .debug_aranges
                0x00000020       0x20 /tmp/cc8DLllS.ltrans1.ltrans.o
 .debug_aranges
                0x00000040       0x20 /tmp/cc8DLllS.ltrans2.ltrans.o
 .debug_aranges
                0x00000060       0x20 /tmp/cc8DLllS.ltrans3.ltrans.o
 .debug_aranges
                0x00000080       0x20 /tmp/cc8DLllS.ltrans4.ltrans.o
 .debug_aranges
                0x000000a0       0x20 /tmp/cc8DLllS.ltrans5.ltrans.o
 .debug_aranges
                0x000000c0       0x20 /tmp/cc8DLllS.ltrans6.ltrans.o
 .debug_aranges
                0x000000e0       0x20 /tmp/cc8DLllS.ltrans7.ltrans.o
 .debug_aranges
                0x00000100       0x20 /tmp/cc8DLllS.ltrans8.ltrans.o
 .debug_aranges
                0x00000120       0x20 /tmp/cc8DLllS.ltrans9.ltrans.o
 .debug_aranges
                0x00000140       0x20 /tmp/cc8DLllS.ltrans10.ltrans.o
 .debug_aranges
                0x00000160       0x20 /tmp/cc8DLllS.ltrans11.ltrans.o
 .debug_aranges
                0x00000180       0x28 /tmp/cc8DLllS.ltrans12.ltrans.o
 .debug_aranges
                0x000001a8       0x20 /tmp/cc8DLllS.ltrans13.ltrans.o
 .debug_aranges
                0x000001c8       0x20 /tmp/cc8DLllS.ltrans14.ltrans.o
 .debug_aranges
                0x000001e8       0x20 /tmp/cc8DLllS.ltrans15.ltrans.o
 .debug_aranges
                0x00000208       0x20 /tmp/cc8DLllS.ltrans16.ltrans.o
 .debug_aranges
                0x00000228       0x20 /tmp/cc8DLllS.ltrans17.ltrans.o
 .debug_aranges
                0x00000248       0x20 /tmp/cc8DLllS.ltrans18.ltrans.o
 .debug_aranges
                0x00000268       0x20 /tmp/cc8DLllS.ltrans19.ltrans.o
 .debug_aranges
                0x00000288       0x20 /tmp/cc8DLllS.ltrans20.ltrans.o
 .debug_aranges
                0x000002a8       0x20 /tmp/cc8DLllS.ltrans21.ltrans.o
 .debug_aranges
                0x000002c8       0x20 /tmp/cc8DLllS.ltrans22.ltrans.o
 .debug_aranges
                0x000002e8       0x20 /tmp/cc8DLllS.ltrans23.ltrans.o
 .debug_aranges
                0x00000308       0x20 /tmp/cc8DLllS.ltrans24.ltrans.o
 .debug_aranges
                0x00000328       0x20 /tmp/cc8DLllS.ltrans25.ltrans.o
 .debug_aranges
                0x00000348       0x20 /tmp/cc8DLllS.ltrans26.ltrans.o
 .debug_aranges
                0x00000368       0x20 /tmp/cc8DLllS.ltrans27.ltrans.o
 .debug_aranges
                0x00000388       0x20 /tmp/cc8DLllS.ltrans28.ltrans.o
 .debug_aranges
                0x000003a8       0x20 /tmp/cc8DLllS.ltrans29.ltrans.o
 .debug_aranges
                0x000003c8       0x20 /tmp/cc8DLllS.ltrans30.ltrans.o
 .debug_aranges
                0x000003e8       0x28 /usr/lib/gcc/arm-none-eabi/4.9.3/../../../arm-none-eabi/lib/armv7-m/libc_nano.a(lib_a-atoi.o)
 .debug_aranges
                0x00000410       0x18 /usr/lib/gcc/arm-none-eabi/4.9.3/../../../arm-none-eabi/lib/armv7-m/libc_nano.a(lib_a-ctype_.o)
 .debug_aranges
                0x00000428       0x20 /usr/lib/gcc/arm-none-eabi/4.9.3/../../../arm-none-eabi/lib/armv7-m/libc_nano.a(lib_a-strtok.o)
 .debug_aranges
                0x00000448       0x28 /usr/lib/gcc/arm-none-eabi/4.9.3/../../../arm-none-eabi/lib/armv7-m/libc_nano.a(lib_a-strtok_r.o)
 .debug_aranges
                0x00000470       0x28 /usr/lib/gcc/arm-none-eabi/4.9.3/../../../arm-none-eabi/lib/armv7-m/libc_nano.a(lib_a-strtol.o)
 .debug_aranges
                0x00000498       0x18 /usr/lib/gcc/arm-none-eabi/4.9.3/../../../arm-none-eabi/lib/armv7-m/libc_nano.a(lib_a-impure.o)
 .debug_aranges
                0x000004b0       0x28 /usr/lib/gcc/arm-none-eabi/4.9.3/../../../arm-none-eabi/lib/armv7-m/libc_nano.a(lib_a-malloc.o)
 .debug_aranges
                0x000004d8       0x20 /usr/lib/gcc/arm-none-eabi/4.9.3/../../../arm-none-eabi/lib/armv7-m/libc_nano.a(lib_a-nano-freer.o)
 .debug_aranges
                0x000004f8       0x20 /usr/lib/gcc/arm-none-eabi/4.9.3/../../../arm-none-eabi/lib/armv7-m/libc_nano.a(lib_a-nano-mallocr.o)
 .debug_aranges
                0x00000518       0x20 /usr/lib/gcc/arm-none-eabi/4.9.3/../../../arm-none-eabi/lib/armv7-m/libc_nano.a(lib_a-sbrkr.o)
 .debug_aranges
                0x00000538       0x28 /usr/lib/gcc/arm-none-eabi/4.9.3/../../../arm-none-eabi/lib/armv7-m/libc_nano.a(lib_a-reent.o)
 .debug_aranges
                0x00000560       0x20 /usr/lib/gcc/arm-none-eabi/4.9.3/../../../arm-none-eabi/lib/armv7-m/libnosys.a(sbrk.o)
 .debug_aranges
                0x00000580       0x20 /usr/lib/gcc/arm-none-eabi/4.9.3/../../../arm-none-eabi/lib/armv7-m/libm.a(lib_a-sf_lrint.o)
 .debug_aranges
                0x000005a0       0x20 /usr/lib/gcc/arm-none-eabi/4.9.3/../../../arm-none-eabi/lib/armv7-m/libm.a(lib_a-wf_pow.o)
 .debug_aranges
                0x000005c0       0x20 /usr/lib/gcc/arm-none-eabi/4.9.3/../../../arm-none-eabi/lib/armv7-m/libm.a(lib_a-wf_sqrt.o)
 .debug_aranges
                0x000005e0       0x20 /usr/lib/gcc/arm-none-eabi/4.9.3/../../../arm-none-eabi/lib/armv7-m/libm.a(lib_a-ef_pow.o)
 .debug_aranges
                0x00000600       0x20 /usr/lib/gcc/arm-none-eabi/4.9.3/../../../arm-none-eabi/lib/armv7-m/libm.a(lib_a-ef_sqrt.o)
 .debug_aranges
                0x00000620       0x18 /usr/lib/gcc/arm-none-eabi/4.9.3/../../../arm-none-eabi/lib/armv7-m/libm.a(lib_a-s_lib_ver.o)
 .debug_aranges
                0x00000638       0x20 /usr/lib/gcc/arm-none-eabi/4.9.3/../../../arm-none-eabi/lib/armv7-m/libm.a(lib_a-s_matherr.o)
 .debug_aranges
                0x00000658       0x20 /usr/lib/gcc/arm-none-eabi/4.9.3/../../../arm-none-eabi/lib/armv7-m/libm.a(lib_a-s_rint.o)
 .debug_aranges
                0x00000678       0x20 /usr/lib/gcc/arm-none-eabi/4.9.3/../../../arm-none-eabi/lib/armv7-m/libm.a(lib_a-sf_fabs.o)
 .debug_aranges
                0x00000698       0x20 /usr/lib/gcc/arm-none-eabi/4.9.3/../../../arm-none-eabi/lib/armv7-m/libm.a(lib_a-sf_finite.o)
 .debug_aranges
                0x000006b8       0x20 /usr/lib/gcc/arm-none-eabi/4.9.3/../../../arm-none-eabi/lib/armv7-m/libm.a(lib_a-sf_fpclassify.o)
 .debug_aranges
                0x000006d8       0x20 /usr/lib/gcc/arm-none-eabi/4.9.3/../../../arm-none-eabi/lib/armv7-m/libm.a(lib_a-sf_nan.o)
 .debug_aranges
                0x000006f8       0x20 /usr/lib/gcc/arm-none-eabi/4.9.3/../../../arm-none-eabi/lib/armv7-m/libm.a(lib_a-sf_scalbn.o)
 .debug_aranges
                0x00000718       0x20 /usr/lib/gcc/arm-none-eabi/4.9.3/../../../arm-none-eabi/lib/armv7-m/libm.a(lib_a-sf_copysign.o)
 .debug_aranges
                0x00000738       0x20 /usr/lib/gcc/arm-none-eabi/4.9.3/../../../arm-none-eabi/lib/armv7-m/libc_nano.a(lib_a-calloc.o)
 .debug_aranges
                0x00000758       0x20 /usr/lib/gcc/arm-none-eabi/4.9.3/../../../arm-none-eabi/lib/armv7-m/libc_nano.a(lib_a-errno.o)
 .debug_aranges
                0x00000778       0x20 /usr/lib/gcc/arm-none-eabi/4.9.3/../../../arm-none-eabi/lib/armv7-m/libc_nano.a(lib_a-memcmp.o)
 .debug_aranges
                0x00000798       0x20 /usr/lib/gcc/arm-none-eabi/4.9.3/../../../arm-none-eabi/lib/armv7-m/libc_nano.a(lib_a-memcpy.o)
 .debug_aranges
                0x000007b8       0x20 /usr/lib/gcc/arm-none-eabi/4.9.3/../../../arm-none-eabi/lib/armv7-m/libc_nano.a(lib_a-memset.o)
 .debug_aranges
                0x000007d8       0x20 /usr/lib/gcc/arm-none-eabi/4.9.3/../../../arm-none-eabi/lib/armv7-m/libc_nano.a(lib_a-nano-callocr.o)
 .debug_aranges
                0x000007f8       0x20 /usr/lib/gcc/arm-none-eabi/4.9.3/../../../arm-none-eabi/lib/armv7-m/libc_nano.a(lib_a-strcasecmp.o)
 .debug_aranges
                0x00000818       0x20 /usr/lib/gcc/arm-none-eabi/4.9.3/../../../arm-none-eabi/lib/armv7-m/libc_nano.a(lib_a-strcat.o)
 .debug_aranges
                0x00000838       0x20 /usr/lib/gcc/arm-none-eabi/4.9.3/../../../arm-none-eabi/lib/armv7-m/libc_nano.a(lib_a-strchr.o)
 .debug_aranges
                0x00000858       0x20 /usr/lib/gcc/arm-none-eabi/4.9.3/../../../arm-none-eabi/lib/armv7-m/libc_nano.a(lib_a-strcpy.o)
 .debug_aranges
                0x00000878       0x20 /usr/lib/gcc/arm-none-eabi/4.9.3/../../../arm-none-eabi/lib/armv7-m/libc_nano.a(lib_a-strlen.o)
 .debug_aranges
                0x00000898       0x20 /usr/lib/gcc/arm-none-eabi/4.9.3/../../../arm-none-eabi/lib/armv7-m/libc_nano.a(lib_a-strncasecmp.o)
 .debug_aranges
                0x000008b8       0x20 /usr/lib/gcc/arm-none-eabi/4.9.3/../../../arm-none-eabi/lib/armv7-m/libc_nano.a(lib_a-strncpy.o)
 .debug_aranges
                0x000008d8       0x20 /usr/lib/gcc/arm-none-eabi/4.9.3/../../../arm-none-eabi/lib/armv7-m/libc_nano.a(lib_a-strstr.o)
 .debug_aranges
                0x000008f8       0x20 /usr/lib/gcc/arm-none-eabi/4.9.3/armv7-m/libgcc.a(_arm_addsubdf3.o)
 .debug_aranges
                0x00000918       0x20 /usr/lib/gcc/arm-none-eabi/4.9.3/armv7-m/libgcc.a(_arm_muldivdf3.o)
 .debug_aranges
                0x00000938       0x20 /usr/lib/gcc/arm-none-eabi/4.9.3/armv7-m/libgcc.a(_arm_cmpdf2.o)
 .debug_aranges
                0x00000958       0x20 /usr/lib/gcc/arm-none-eabi/4.9.3/armv7-m/libgcc.a(_arm_fixunsdfsi.o)
 .debug_aranges
                0x00000978       0x20 /usr/lib/gcc/arm-none-eabi/4.9.3/armv7-m/libgcc.a(_arm_truncdfsf2.o)
 .debug_aranges
                0x00000998       0x20 /usr/lib/gcc/arm-none-eabi/4.9.3/armv7-m/libgcc.a(_arm_addsubsf3.o)
 .debug_aranges
                0x000009b8       0x20 /usr/lib/gcc/arm-none-eabi/4.9.3/armv7-m/libgcc.a(_arm_muldivsf3.o)
 .debug_aranges
                0x000009d8       0x20 /usr/lib/gcc/arm-none-eabi/4.9.3/armv7-m/libgcc.a(_arm_cmpsf2.o)
 .debug_aranges
                0x000009f8       0x20 /usr/lib/gcc/arm-none-eabi/4.9.3/armv7-m/libgcc.a(_arm_fixsfsi.o)
 .debug_aranges
                0x00000a18       0x20 /usr/lib/gcc/arm-none-eabi/4.9.3/armv7-m/libgcc.a(_arm_fixunssfsi.o)
 .debug_aranges
                0x00000a38       0x20 /usr/lib/gcc/arm-none-eabi/4.9.3/armv7-m/libgcc.a(_aeabi_ldivmod.o)
 .debug_aranges
                0x00000a58       0x20 /usr/lib/gcc/arm-none-eabi/4.9.3/armv7-m/libgcc.a(bpabi.o)
 .debug_aranges
                0x00000a78       0x20 /usr/lib/gcc/arm-none-eabi/4.9.3/armv7-m/libgcc.a(_dvmd_tls.o)
 .debug_aranges
                0x00000a98       0x20 /usr/lib/gcc/arm-none-eabi/4.9.3/armv7-m/libgcc.a(_divdi3.o)
 .debug_aranges
                0x00000ab8       0x20 /usr/lib/gcc/arm-none-eabi/4.9.3/armv7-m/libgcc.a(_udivdi3.o)

.debug_ranges   0x00000000     0x5e10
 .debug_ranges  0x00000000      0xfe0 /tmp/cc8DLllS.ltrans0.ltrans.o
 .debug_ranges  0x00000fe0      0x678 /tmp/cc8DLllS.ltrans1.ltrans.o
 .debug_ranges  0x00001658      0xad0 /tmp/cc8DLllS.ltrans2.ltrans.o
 .debug_ranges  0x00002128      0x738 /tmp/cc8DLllS.ltrans3.ltrans.o
 .debug_ranges  0x00002860      0x1f0 /tmp/cc8DLllS.ltrans4.ltrans.o
 .debug_ranges  0x00002a50      0x4a0 /tmp/cc8DLllS.ltrans5.ltrans.o
 .debug_ranges  0x00002ef0      0x318 /tmp/cc8DLllS.ltrans6.ltrans.o
 .debug_ranges  0x00003208      0x240 /tmp/cc8DLllS.ltrans7.ltrans.o
 .debug_ranges  0x00003448      0x300 /tmp/cc8DLllS.ltrans8.ltrans.o
 .debug_ranges  0x00003748      0x1a0 /tmp/cc8DLllS.ltrans9.ltrans.o
 .debug_ranges  0x000038e8      0x1e8 /tmp/cc8DLllS.ltrans10.ltrans.o
 .debug_ranges  0x00003ad0      0x208 /tmp/cc8DLllS.ltrans11.ltrans.o
 .debug_ranges  0x00003cd8      0x320 /tmp/cc8DLllS.ltrans12.ltrans.o
 .debug_ranges  0x00003ff8      0x218 /tmp/cc8DLllS.ltrans13.ltrans.o
 .debug_ranges  0x00004210      0x130 /tmp/cc8DLllS.ltrans14.ltrans.o
 .debug_ranges  0x00004340      0x190 /tmp/cc8DLllS.ltrans15.ltrans.o
 .debug_ranges  0x000044d0      0x178 /tmp/cc8DLllS.ltrans16.ltrans.o
 .debug_ranges  0x00004648      0x270 /tmp/cc8DLllS.ltrans17.ltrans.o
 .debug_ranges  0x000048b8      0x110 /tmp/cc8DLllS.ltrans18.ltrans.o
 .debug_ranges  0x000049c8      0x2e8 /tmp/cc8DLllS.ltrans19.ltrans.o
 .debug_ranges  0x00004cb0      0x230 /tmp/cc8DLllS.ltrans20.ltrans.o
 .debug_ranges  0x00004ee0      0x230 /tmp/cc8DLllS.ltrans21.ltrans.o
 .debug_ranges  0x00005110      0x278 /tmp/cc8DLllS.ltrans22.ltrans.o
 .debug_ranges  0x00005388       0xd0 /tmp/cc8DLllS.ltrans23.ltrans.o
 .debug_ranges  0x00005458       0xd0 /tmp/cc8DLllS.ltrans24.ltrans.o
 .debug_ranges  0x00005528       0xa8 /tmp/cc8DLllS.ltrans25.ltrans.o
 .debug_ranges  0x000055d0       0x48 /tmp/cc8DLllS.ltrans26.ltrans.o
 .debug_ranges  0x00005618       0xf0 /tmp/cc8DLllS.ltrans27.ltrans.o
 .debug_ranges  0x00005708       0xb8 /tmp/cc8DLllS.ltrans28.ltrans.o
 .debug_ranges  0x000057c0       0x28 /tmp/cc8DLllS.ltrans29.ltrans.o
 .debug_ranges  0x000057e8       0x30 /tmp/cc8DLllS.ltrans30.ltrans.o
 .debug_ranges  0x00005818       0x18 /usr/lib/gcc/arm-none-eabi/4.9.3/../../../arm-none-eabi/lib/armv7-m/libc_nano.a(lib_a-atoi.o)
 .debug_ranges  0x00005830       0x28 /usr/lib/gcc/arm-none-eabi/4.9.3/../../../arm-none-eabi/lib/armv7-m/libc_nano.a(lib_a-strtok.o)
 .debug_ranges  0x00005858       0x18 /usr/lib/gcc/arm-none-eabi/4.9.3/../../../arm-none-eabi/lib/armv7-m/libc_nano.a(lib_a-strtok_r.o)
 .debug_ranges  0x00005870       0x18 /usr/lib/gcc/arm-none-eabi/4.9.3/../../../arm-none-eabi/lib/armv7-m/libc_nano.a(lib_a-strtol.o)
 .debug_ranges  0x00005888       0x18 /usr/lib/gcc/arm-none-eabi/4.9.3/../../../arm-none-eabi/lib/armv7-m/libc_nano.a(lib_a-malloc.o)
 .debug_ranges  0x000058a0       0x28 /usr/lib/gcc/arm-none-eabi/4.9.3/../../../arm-none-eabi/lib/armv7-m/libc_nano.a(lib_a-nano-freer.o)
 .debug_ranges  0x000058c8       0x28 /usr/lib/gcc/arm-none-eabi/4.9.3/../../../arm-none-eabi/lib/armv7-m/libc_nano.a(lib_a-nano-mallocr.o)
 .debug_ranges  0x000058f0       0x10 /usr/lib/gcc/arm-none-eabi/4.9.3/../../../arm-none-eabi/lib/armv7-m/libc_nano.a(lib_a-sbrkr.o)
 .debug_ranges  0x00005900       0x18 /usr/lib/gcc/arm-none-eabi/4.9.3/../../../arm-none-eabi/lib/armv7-m/libc_nano.a(lib_a-reent.o)
 .debug_ranges  0x00005918       0x10 /usr/lib/gcc/arm-none-eabi/4.9.3/../../../arm-none-eabi/lib/armv7-m/libnosys.a(sbrk.o)
 .debug_ranges  0x00005928       0x10 /usr/lib/gcc/arm-none-eabi/4.9.3/../../../arm-none-eabi/lib/armv7-m/libm.a(lib_a-sf_lrint.o)
 .debug_ranges  0x00005938       0x10 /usr/lib/gcc/arm-none-eabi/4.9.3/../../../arm-none-eabi/lib/armv7-m/libm.a(lib_a-wf_pow.o)
 .debug_ranges  0x00005948       0x10 /usr/lib/gcc/arm-none-eabi/4.9.3/../../../arm-none-eabi/lib/armv7-m/libm.a(lib_a-wf_sqrt.o)
 .debug_ranges  0x00005958       0x70 /usr/lib/gcc/arm-none-eabi/4.9.3/../../../arm-none-eabi/lib/armv7-m/libm.a(lib_a-ef_pow.o)
 .debug_ranges  0x000059c8       0x10 /usr/lib/gcc/arm-none-eabi/4.9.3/../../../arm-none-eabi/lib/armv7-m/libm.a(lib_a-ef_sqrt.o)
 .debug_ranges  0x000059d8       0x10 /usr/lib/gcc/arm-none-eabi/4.9.3/../../../arm-none-eabi/lib/armv7-m/libm.a(lib_a-s_matherr.o)
 .debug_ranges  0x000059e8       0x40 /usr/lib/gcc/arm-none-eabi/4.9.3/../../../arm-none-eabi/lib/armv7-m/libm.a(lib_a-s_rint.o)
 .debug_ranges  0x00005a28       0x10 /usr/lib/gcc/arm-none-eabi/4.9.3/../../../arm-none-eabi/lib/armv7-m/libm.a(lib_a-sf_fabs.o)
 .debug_ranges  0x00005a38       0x10 /usr/lib/gcc/arm-none-eabi/4.9.3/../../../arm-none-eabi/lib/armv7-m/libm.a(lib_a-sf_finite.o)
 .debug_ranges  0x00005a48       0x10 /usr/lib/gcc/arm-none-eabi/4.9.3/../../../arm-none-eabi/lib/armv7-m/libm.a(lib_a-sf_fpclassify.o)
 .debug_ranges  0x00005a58       0x10 /usr/lib/gcc/arm-none-eabi/4.9.3/../../../arm-none-eabi/lib/armv7-m/libm.a(lib_a-sf_nan.o)
 .debug_ranges  0x00005a68       0x10 /usr/lib/gcc/arm-none-eabi/4.9.3/../../../arm-none-eabi/lib/armv7-m/libm.a(lib_a-sf_scalbn.o)
 .debug_ranges  0x00005a78       0x10 /usr/lib/gcc/arm-none-eabi/4.9.3/../../../arm-none-eabi/lib/armv7-m/libm.a(lib_a-sf_copysign.o)
 .debug_ranges  0x00005a88       0x10 /usr/lib/gcc/arm-none-eabi/4.9.3/../../../arm-none-eabi/lib/armv7-m/libc_nano.a(lib_a-calloc.o)
 .debug_ranges  0x00005a98       0x10 /usr/lib/gcc/arm-none-eabi/4.9.3/../../../arm-none-eabi/lib/armv7-m/libc_nano.a(lib_a-errno.o)
 .debug_ranges  0x00005aa8       0x10 /usr/lib/gcc/arm-none-eabi/4.9.3/../../../arm-none-eabi/lib/armv7-m/libc_nano.a(lib_a-memcmp.o)
 .debug_ranges  0x00005ab8       0x10 /usr/lib/gcc/arm-none-eabi/4.9.3/../../../arm-none-eabi/lib/armv7-m/libc_nano.a(lib_a-memcpy.o)
 .debug_ranges  0x00005ac8       0x10 /usr/lib/gcc/arm-none-eabi/4.9.3/../../../arm-none-eabi/lib/armv7-m/libc_nano.a(lib_a-memset.o)
 .debug_ranges  0x00005ad8       0x10 /usr/lib/gcc/arm-none-eabi/4.9.3/../../../arm-none-eabi/lib/armv7-m/libc_nano.a(lib_a-nano-callocr.o)
 .debug_ranges  0x00005ae8       0x60 /usr/lib/gcc/arm-none-eabi/4.9.3/../../../arm-none-eabi/lib/armv7-m/libc_nano.a(lib_a-strcasecmp.o)
 .debug_ranges  0x00005b48       0x10 /usr/lib/gcc/arm-none-eabi/4.9.3/../../../arm-none-eabi/lib/armv7-m/libc_nano.a(lib_a-strcat.o)
 .debug_ranges  0x00005b58       0x10 /usr/lib/gcc/arm-none-eabi/4.9.3/../../../arm-none-eabi/lib/armv7-m/libc_nano.a(lib_a-strchr.o)
 .debug_ranges  0x00005b68       0x10 /usr/lib/gcc/arm-none-eabi/4.9.3/../../../arm-none-eabi/lib/armv7-m/libc_nano.a(lib_a-strcpy.o)
 .debug_ranges  0x00005b78       0x10 /usr/lib/gcc/arm-none-eabi/4.9.3/../../../arm-none-eabi/lib/armv7-m/libc_nano.a(lib_a-strlen.o)
 .debug_ranges  0x00005b88       0x70 /usr/lib/gcc/arm-none-eabi/4.9.3/../../../arm-none-eabi/lib/armv7-m/libc_nano.a(lib_a-strncasecmp.o)
 .debug_ranges  0x00005bf8       0x10 /usr/lib/gcc/arm-none-eabi/4.9.3/../../../arm-none-eabi/lib/armv7-m/libc_nano.a(lib_a-strncpy.o)
 .debug_ranges  0x00005c08       0x28 /usr/lib/gcc/arm-none-eabi/4.9.3/../../../arm-none-eabi/lib/armv7-m/libc_nano.a(lib_a-strstr.o)
 .debug_ranges  0x00005c30       0xf0 /usr/lib/gcc/arm-none-eabi/4.9.3/armv7-m/libgcc.a(_divdi3.o)
 .debug_ranges  0x00005d20       0xf0 /usr/lib/gcc/arm-none-eabi/4.9.3/armv7-m/libgcc.a(_udivdi3.o)

.debug_line     0x00000000    0x11190
 .debug_line    0x00000000     0x19bb /tmp/cc8DLllS.ltrans0.ltrans.o
 .debug_line    0x000019bb      0xc38 /tmp/cc8DLllS.ltrans1.ltrans.o
 .debug_line    0x000025f3      0xdfd /tmp/cc8DLllS.ltrans2.ltrans.o
 .debug_line    0x000033f0      0xab5 /tmp/cc8DLllS.ltrans3.ltrans.o
 .debug_line    0x00003ea5      0x851 /tmp/cc8DLllS.ltrans4.ltrans.o
 .debug_line    0x000046f6      0x6a3 /tmp/cc8DLllS.ltrans5.ltrans.o
 .debug_line    0x00004d99      0x974 /tmp/cc8DLllS.ltrans6.ltrans.o
 .debug_line    0x0000570d      0x6ab /tmp/cc8DLllS.ltrans7.ltrans.o
 .debug_line    0x00005db8      0x406 /tmp/cc8DLllS.ltrans8.ltrans.o
 .debug_line    0x000061be      0x85d /tmp/cc8DLllS.ltrans9.ltrans.o
 .debug_line    0x00006a1b      0x582 /tmp/cc8DLllS.ltrans10.ltrans.o
 .debug_line    0x00006f9d      0x50d /tmp/cc8DLllS.ltrans11.ltrans.o
 .debug_line    0x000074aa      0x5eb /tmp/cc8DLllS.ltrans12.ltrans.o
 .debug_line    0x00007a95      0x473 /tmp/cc8DLllS.ltrans13.ltrans.o
 .debug_line    0x00007f08      0x64e /tmp/cc8DLllS.ltrans14.ltrans.o
 .debug_line    0x00008556      0x595 /tmp/cc8DLllS.ltrans15.ltrans.o
 .debug_line    0x00008aeb      0x7ff /tmp/cc8DLllS.ltrans16.ltrans.o
 .debug_line    0x000092ea      0x69d /tmp/cc8DLllS.ltrans17.ltrans.o
 .debug_line    0x00009987      0x730 /tmp/cc8DLllS.ltrans18.ltrans.o
 .debug_line    0x0000a0b7      0x61f /tmp/cc8DLllS.ltrans19.ltrans.o
 .debug_line    0x0000a6d6      0x543 /tmp/cc8DLllS.ltrans20.ltrans.o
 .debug_line    0x0000ac19      0x7be /tmp/cc8DLllS.ltrans21.ltrans.o
 .debug_line    0x0000b3d7      0x665 /tmp/cc8DLllS.ltrans22.ltrans.o
 .debug_line    0x0000ba3c      0x449 /tmp/cc8DLllS.ltrans23.ltrans.o
 .debug_line    0x0000be85      0x76a /tmp/cc8DLllS.ltrans24.ltrans.o
 .debug_line    0x0000c5ef      0x489 /tmp/cc8DLllS.ltrans25.ltrans.o
 .debug_line    0x0000ca78      0x328 /tmp/cc8DLllS.ltrans26.ltrans.o
 .debug_line    0x0000cda0      0x302 /tmp/cc8DLllS.ltrans27.ltrans.o
 .debug_line    0x0000d0a2      0x310 /tmp/cc8DLllS.ltrans28.ltrans.o
 .debug_line    0x0000d3b2      0x237 /tmp/cc8DLllS.ltrans29.ltrans.o
 .debug_line    0x0000d5e9      0x1a7 /tmp/cc8DLllS.ltrans30.ltrans.o
 .debug_line    0x0000d790      0x168 /usr/lib/gcc/arm-none-eabi/4.9.3/../../../arm-none-eabi/lib/armv7-m/libc_nano.a(lib_a-atoi.o)
 .debug_line    0x0000d8f8       0x72 /usr/lib/gcc/arm-none-eabi/4.9.3/../../../arm-none-eabi/lib/armv7-m/libc_nano.a(lib_a-ctype_.o)
 .debug_line    0x0000d96a      0x16a /usr/lib/gcc/arm-none-eabi/4.9.3/../../../arm-none-eabi/lib/armv7-m/libc_nano.a(lib_a-strtok.o)
 .debug_line    0x0000dad4       0xed /usr/lib/gcc/arm-none-eabi/4.9.3/../../../arm-none-eabi/lib/armv7-m/libc_nano.a(lib_a-strtok_r.o)
 .debug_line    0x0000dbc1      0x1de /usr/lib/gcc/arm-none-eabi/4.9.3/../../../arm-none-eabi/lib/armv7-m/libc_nano.a(lib_a-strtol.o)
 .debug_line    0x0000dd9f       0xf1 /usr/lib/gcc/arm-none-eabi/4.9.3/../../../arm-none-eabi/lib/armv7-m/libc_nano.a(lib_a-impure.o)
 .debug_line    0x0000de90      0x16e /usr/lib/gcc/arm-none-eabi/4.9.3/../../../arm-none-eabi/lib/armv7-m/libc_nano.a(lib_a-malloc.o)
 .debug_line    0x0000dffe      0x145 /usr/lib/gcc/arm-none-eabi/4.9.3/../../../arm-none-eabi/lib/armv7-m/libc_nano.a(lib_a-nano-freer.o)
 .debug_line    0x0000e143      0x199 /usr/lib/gcc/arm-none-eabi/4.9.3/../../../arm-none-eabi/lib/armv7-m/libc_nano.a(lib_a-nano-mallocr.o)
 .debug_line    0x0000e2dc      0x162 /usr/lib/gcc/arm-none-eabi/4.9.3/../../../arm-none-eabi/lib/armv7-m/libc_nano.a(lib_a-sbrkr.o)
 .debug_line    0x0000e43e      0x19e /usr/lib/gcc/arm-none-eabi/4.9.3/../../../arm-none-eabi/lib/armv7-m/libc_nano.a(lib_a-reent.o)
 .debug_line    0x0000e5dc       0x58 /usr/lib/gcc/arm-none-eabi/4.9.3/../../../arm-none-eabi/lib/armv7-m/libnosys.a(sbrk.o)
 .debug_line    0x0000e634      0x143 /usr/lib/gcc/arm-none-eabi/4.9.3/../../../arm-none-eabi/lib/armv7-m/libm.a(lib_a-sf_lrint.o)
 .debug_line    0x0000e777      0x22b /usr/lib/gcc/arm-none-eabi/4.9.3/../../../arm-none-eabi/lib/armv7-m/libm.a(lib_a-wf_pow.o)
 .debug_line    0x0000e9a2      0x16d /usr/lib/gcc/arm-none-eabi/4.9.3/../../../arm-none-eabi/lib/armv7-m/libm.a(lib_a-wf_sqrt.o)
 .debug_line    0x0000eb0f      0x2ba /usr/lib/gcc/arm-none-eabi/4.9.3/../../../arm-none-eabi/lib/armv7-m/libm.a(lib_a-ef_pow.o)
 .debug_line    0x0000edc9      0x145 /usr/lib/gcc/arm-none-eabi/4.9.3/../../../arm-none-eabi/lib/armv7-m/libm.a(lib_a-ef_sqrt.o)
 .debug_line    0x0000ef0e       0xa5 /usr/lib/gcc/arm-none-eabi/4.9.3/../../../arm-none-eabi/lib/armv7-m/libm.a(lib_a-s_lib_ver.o)
 .debug_line    0x0000efb3       0xb6 /usr/lib/gcc/arm-none-eabi/4.9.3/../../../arm-none-eabi/lib/armv7-m/libm.a(lib_a-s_matherr.o)
 .debug_line    0x0000f069      0x184 /usr/lib/gcc/arm-none-eabi/4.9.3/../../../arm-none-eabi/lib/armv7-m/libm.a(lib_a-s_rint.o)
 .debug_line    0x0000f1ed      0x118 /usr/lib/gcc/arm-none-eabi/4.9.3/../../../arm-none-eabi/lib/armv7-m/libm.a(lib_a-sf_fabs.o)
 .debug_line    0x0000f305      0x11c /usr/lib/gcc/arm-none-eabi/4.9.3/../../../arm-none-eabi/lib/armv7-m/libm.a(lib_a-sf_finite.o)
 .debug_line    0x0000f421      0x126 /usr/lib/gcc/arm-none-eabi/4.9.3/../../../arm-none-eabi/lib/armv7-m/libm.a(lib_a-sf_fpclassify.o)
 .debug_line    0x0000f547       0xb2 /usr/lib/gcc/arm-none-eabi/4.9.3/../../../arm-none-eabi/lib/armv7-m/libm.a(lib_a-sf_nan.o)
 .debug_line    0x0000f5f9      0x155 /usr/lib/gcc/arm-none-eabi/4.9.3/../../../arm-none-eabi/lib/armv7-m/libm.a(lib_a-sf_scalbn.o)
 .debug_line    0x0000f74e      0x12b /usr/lib/gcc/arm-none-eabi/4.9.3/../../../arm-none-eabi/lib/armv7-m/libm.a(lib_a-sf_copysign.o)
 .debug_line    0x0000f879      0x159 /usr/lib/gcc/arm-none-eabi/4.9.3/../../../arm-none-eabi/lib/armv7-m/libc_nano.a(lib_a-calloc.o)
 .debug_line    0x0000f9d2      0x10b /usr/lib/gcc/arm-none-eabi/4.9.3/../../../arm-none-eabi/lib/armv7-m/libc_nano.a(lib_a-errno.o)
 .debug_line    0x0000fadd       0xf0 /usr/lib/gcc/arm-none-eabi/4.9.3/../../../arm-none-eabi/lib/armv7-m/libc_nano.a(lib_a-memcmp.o)
 .debug_line    0x0000fbcd       0xed /usr/lib/gcc/arm-none-eabi/4.9.3/../../../arm-none-eabi/lib/armv7-m/libc_nano.a(lib_a-memcpy.o)
 .debug_line    0x0000fcba       0xee /usr/lib/gcc/arm-none-eabi/4.9.3/../../../arm-none-eabi/lib/armv7-m/libc_nano.a(lib_a-memset.o)
 .debug_line    0x0000fda8      0x168 /usr/lib/gcc/arm-none-eabi/4.9.3/../../../arm-none-eabi/lib/armv7-m/libc_nano.a(lib_a-nano-callocr.o)
 .debug_line    0x0000ff10       0xd4 /usr/lib/gcc/arm-none-eabi/4.9.3/../../../arm-none-eabi/lib/armv7-m/libc_nano.a(lib_a-strcasecmp.o)
 .debug_line    0x0000ffe4       0xbd /usr/lib/gcc/arm-none-eabi/4.9.3/../../../arm-none-eabi/lib/armv7-m/libc_nano.a(lib_a-strcat.o)
 .debug_line    0x000100a1       0xc0 /usr/lib/gcc/arm-none-eabi/4.9.3/../../../arm-none-eabi/lib/armv7-m/libc_nano.a(lib_a-strchr.o)
 .debug_line    0x00010161       0xbc /usr/lib/gcc/arm-none-eabi/4.9.3/../../../arm-none-eabi/lib/armv7-m/libc_nano.a(lib_a-strcpy.o)
 .debug_line    0x0001021d       0xf5 /usr/lib/gcc/arm-none-eabi/4.9.3/../../../arm-none-eabi/lib/armv7-m/libc_nano.a(lib_a-strlen.o)
 .debug_line    0x00010312      0x110 /usr/lib/gcc/arm-none-eabi/4.9.3/../../../arm-none-eabi/lib/armv7-m/libc_nano.a(lib_a-strncasecmp.o)
 .debug_line    0x00010422       0xf5 /usr/lib/gcc/arm-none-eabi/4.9.3/../../../arm-none-eabi/lib/armv7-m/libc_nano.a(lib_a-strncpy.o)
 .debug_line    0x00010517       0xf5 /usr/lib/gcc/arm-none-eabi/4.9.3/../../../arm-none-eabi/lib/armv7-m/libc_nano.a(lib_a-strstr.o)
 .debug_line    0x0001060c      0x176 /usr/lib/gcc/arm-none-eabi/4.9.3/armv7-m/libgcc.a(_arm_addsubdf3.o)
 .debug_line    0x00010782      0x19a /usr/lib/gcc/arm-none-eabi/4.9.3/armv7-m/libgcc.a(_arm_muldivdf3.o)
 .debug_line    0x0001091c       0xb7 /usr/lib/gcc/arm-none-eabi/4.9.3/armv7-m/libgcc.a(_arm_cmpdf2.o)
 .debug_line    0x000109d3       0x73 /usr/lib/gcc/arm-none-eabi/4.9.3/armv7-m/libgcc.a(_arm_fixunsdfsi.o)
 .debug_line    0x00010a46       0x8b /usr/lib/gcc/arm-none-eabi/4.9.3/armv7-m/libgcc.a(_arm_truncdfsf2.o)
 .debug_line    0x00010ad1      0x117 /usr/lib/gcc/arm-none-eabi/4.9.3/armv7-m/libgcc.a(_arm_addsubsf3.o)
 .debug_line    0x00010be8      0x13a /usr/lib/gcc/arm-none-eabi/4.9.3/armv7-m/libgcc.a(_arm_muldivsf3.o)
 .debug_line    0x00010d22       0xab /usr/lib/gcc/arm-none-eabi/4.9.3/armv7-m/libgcc.a(_arm_cmpsf2.o)
 .debug_line    0x00010dcd       0x77 /usr/lib/gcc/arm-none-eabi/4.9.3/armv7-m/libgcc.a(_arm_fixsfsi.o)
 .debug_line    0x00010e44       0x73 /usr/lib/gcc/arm-none-eabi/4.9.3/armv7-m/libgcc.a(_arm_fixunssfsi.o)
 .debug_line    0x00010eb7       0x63 /usr/lib/gcc/arm-none-eabi/4.9.3/armv7-m/libgcc.a(_aeabi_ldivmod.o)
 .debug_line    0x00010f1a       0x64 /usr/lib/gcc/arm-none-eabi/4.9.3/armv7-m/libgcc.a(bpabi.o)
 .debug_line    0x00010f7e       0x5e /usr/lib/gcc/arm-none-eabi/4.9.3/armv7-m/libgcc.a(_dvmd_tls.o)
 .debug_line    0x00010fdc       0xe1 /usr/lib/gcc/arm-none-eabi/4.9.3/armv7-m/libgcc.a(_divdi3.o)
 .debug_line    0x000110bd       0xd3 /usr/lib/gcc/arm-none-eabi/4.9.3/armv7-m/libgcc.a(_udivdi3.o)

.debug_str      0x00000000    0x14d8b
 .debug_str     0x00000000     0x4b1f /tmp/cc8DLllS.ltrans0.ltrans.o
                               0x4e16 (size before relaxing)
 .debug_str     0x00004b1f     0x1dc3 /tmp/cc8DLllS.ltrans1.ltrans.o
                               0x29a4 (size before relaxing)
 .debug_str     0x000068e2      0xba9 /tmp/cc8DLllS.ltrans2.ltrans.o
                               0x1cd8 (size before relaxing)
 .debug_str     0x0000748b     0x1602 /tmp/cc8DLllS.ltrans3.ltrans.o
                               0x2544 (size before relaxing)
 .debug_str     0x00008a8d      0xb06 /tmp/cc8DLllS.ltrans4.ltrans.o
                               0x18d7 (size before relaxing)
 .debug_str     0x00009593      0xc30 /tmp/cc8DLllS.ltrans5.ltrans.o
                               0x1a70 (size before relaxing)
 .debug_str     0x0000a1c3      0x9c4 /tmp/cc8DLllS.ltrans6.ltrans.o
                               0x1dbe (size before relaxing)
 .debug_str     0x0000ab87      0x847 /tmp/cc8DLllS.ltrans7.ltrans.o
                               0x129c (size before relaxing)
 .debug_str     0x0000b3ce      0x4c3 /tmp/cc8DLllS.ltrans8.ltrans.o
                                0x8f0 (size before relaxing)
 .debug_str     0x0000b891     0x1623 /tmp/cc8DLllS.ltrans9.ltrans.o
                               0x24ff (size before relaxing)
 .debug_str     0x0000ceb4      0x884 /tmp/cc8DLllS.ltrans10.ltrans.o
                               0x141f (size before relaxing)
 .debug_str     0x0000d738      0x626 /tmp/cc8DLllS.ltrans11.ltrans.o
                               0x1386 (size before relaxing)
 .debug_str     0x0000dd5e      0x5b5 /tmp/cc8DLllS.ltrans12.ltrans.o
                               0x1d9c (size before relaxing)
 .debug_str     0x0000e313      0x8a6 /tmp/cc8DLllS.ltrans13.ltrans.o
                                0xc58 (size before relaxing)
 .debug_str     0x0000ebb9      0xa56 /tmp/cc8DLllS.ltrans14.ltrans.o
                               0x1dcf (size before relaxing)
 .debug_str     0x0000f60f      0x4ce /tmp/cc8DLllS.ltrans15.ltrans.o
                                0xfff (size before relaxing)
 .debug_str     0x0000fadd      0x8bb /tmp/cc8DLllS.ltrans16.ltrans.o
                               0x2b82 (size before relaxing)
 .debug_str     0x00010398      0x470 /tmp/cc8DLllS.ltrans17.ltrans.o
                               0x150b (size before relaxing)
 .debug_str     0x00010808      0x7c1 /tmp/cc8DLllS.ltrans18.ltrans.o
                               0x220b (size before relaxing)
 .debug_str     0x00010fc9      0x845 /tmp/cc8DLllS.ltrans19.ltrans.o
                               0x1662 (size before relaxing)
 .debug_str     0x0001180e      0x458 /tmp/cc8DLllS.ltrans20.ltrans.o
                                0x9cd (size before relaxing)
 .debug_str     0x00011c66      0x64c /tmp/cc8DLllS.ltrans21.ltrans.o
                               0x22ab (size before relaxing)
 .debug_str     0x000122b2      0x30e /tmp/cc8DLllS.ltrans22.ltrans.o
                               0x127d (size before relaxing)
 .debug_str     0x000125c0      0x286 /tmp/cc8DLllS.ltrans23.ltrans.o
                                0x80b (size before relaxing)
 .debug_str     0x00012846      0x3a0 /tmp/cc8DLllS.ltrans24.ltrans.o
                               0x2618 (size before relaxing)
 .debug_str     0x00012be6      0x339 /tmp/cc8DLllS.ltrans25.ltrans.o
                                0xf13 (size before relaxing)
 .debug_str     0x00012f1f       0xce /tmp/cc8DLllS.ltrans26.ltrans.o
                                0x39f (size before relaxing)
 .debug_str     0x00012fed      0x2df /tmp/cc8DLllS.ltrans27.ltrans.o
                                0xbe0 (size before relaxing)
 .debug_str     0x000132cc      0x1d9 /tmp/cc8DLllS.ltrans28.ltrans.o
                                0x8d5 (size before relaxing)
 .debug_str     0x000134a5      0x172 /tmp/cc8DLllS.ltrans29.ltrans.o
                                0x72d (size before relaxing)
 .debug_str     0x00013617       0x85 /tmp/cc8DLllS.ltrans30.ltrans.o
                                0x488 (size before relaxing)
 .debug_str     0x0001369c      0x4a3 /usr/lib/gcc/arm-none-eabi/4.9.3/../../../arm-none-eabi/lib/armv7-m/libc_nano.a(lib_a-atoi.o)
                                0x52e (size before relaxing)
 .debug_str     0x00013b3f       0xac /usr/lib/gcc/arm-none-eabi/4.9.3/../../../arm-none-eabi/lib/armv7-m/libc_nano.a(lib_a-ctype_.o)
                                0x154 (size before relaxing)
 .debug_str     0x00013beb       0xb1 /usr/lib/gcc/arm-none-eabi/4.9.3/../../../arm-none-eabi/lib/armv7-m/libc_nano.a(lib_a-strtok.o)
                                0x543 (size before relaxing)
 .debug_str     0x00013c9c       0x54 /usr/lib/gcc/arm-none-eabi/4.9.3/../../../arm-none-eabi/lib/armv7-m/libc_nano.a(lib_a-strtok_r.o)
                                0x204 (size before relaxing)
 .debug_str     0x00013cf0       0x46 /usr/lib/gcc/arm-none-eabi/4.9.3/../../../arm-none-eabi/lib/armv7-m/libc_nano.a(lib_a-strtol.o)
                                0x561 (size before relaxing)
 .debug_str     0x00013d36       0xf4 /usr/lib/gcc/arm-none-eabi/4.9.3/../../../arm-none-eabi/lib/armv7-m/libc_nano.a(lib_a-impure.o)
                                0x57a (size before relaxing)
 .debug_str     0x00013e2a       0x4c /usr/lib/gcc/arm-none-eabi/4.9.3/../../../arm-none-eabi/lib/armv7-m/libc_nano.a(lib_a-malloc.o)
                                0x54f (size before relaxing)
 .debug_str     0x00013e76       0x90 /usr/lib/gcc/arm-none-eabi/4.9.3/../../../arm-none-eabi/lib/armv7-m/libc_nano.a(lib_a-nano-freer.o)
                                0x593 (size before relaxing)
 .debug_str     0x00013f06       0x50 /usr/lib/gcc/arm-none-eabi/4.9.3/../../../arm-none-eabi/lib/armv7-m/libc_nano.a(lib_a-nano-mallocr.o)
                                0x5c8 (size before relaxing)
 .debug_str     0x00013f56       0x37 /usr/lib/gcc/arm-none-eabi/4.9.3/../../../arm-none-eabi/lib/armv7-m/libc_nano.a(lib_a-sbrkr.o)
                                0x532 (size before relaxing)
 .debug_str     0x00013f8d       0x58 /usr/lib/gcc/arm-none-eabi/4.9.3/../../../arm-none-eabi/lib/armv7-m/libc_nano.a(lib_a-reent.o)
                                0x55a (size before relaxing)
 .debug_str     0x00013fe5      0x109 /usr/lib/gcc/arm-none-eabi/4.9.3/../../../arm-none-eabi/lib/armv7-m/libnosys.a(sbrk.o)
                                0x122 (size before relaxing)
 .debug_str     0x000140ee      0x12f /usr/lib/gcc/arm-none-eabi/4.9.3/../../../arm-none-eabi/lib/armv7-m/libm.a(lib_a-sf_lrint.o)
                                0x1f1 (size before relaxing)
 .debug_str     0x0001421d      0x13a /usr/lib/gcc/arm-none-eabi/4.9.3/../../../arm-none-eabi/lib/armv7-m/libm.a(lib_a-wf_pow.o)
                                0x281 (size before relaxing)
 .debug_str     0x00014357       0x3d /usr/lib/gcc/arm-none-eabi/4.9.3/../../../arm-none-eabi/lib/armv7-m/libm.a(lib_a-wf_sqrt.o)
                                0x277 (size before relaxing)
 .debug_str     0x00014394       0xb6 /usr/lib/gcc/arm-none-eabi/4.9.3/../../../arm-none-eabi/lib/armv7-m/libm.a(lib_a-ef_pow.o)
                                0x286 (size before relaxing)
 .debug_str     0x0001444a       0x2d /usr/lib/gcc/arm-none-eabi/4.9.3/../../../arm-none-eabi/lib/armv7-m/libm.a(lib_a-ef_sqrt.o)
                                0x218 (size before relaxing)
 .debug_str     0x00014477       0x31 /usr/lib/gcc/arm-none-eabi/4.9.3/../../../arm-none-eabi/lib/armv7-m/libm.a(lib_a-s_lib_ver.o)
                                0x224 (size before relaxing)
 .debug_str     0x000144a8       0x31 /usr/lib/gcc/arm-none-eabi/4.9.3/../../../arm-none-eabi/lib/armv7-m/libm.a(lib_a-s_matherr.o)
                                0x1f6 (size before relaxing)
 .debug_str     0x000144d9       0xd2 /usr/lib/gcc/arm-none-eabi/4.9.3/../../../arm-none-eabi/lib/armv7-m/libm.a(lib_a-s_rint.o)
                                0x225 (size before relaxing)
 .debug_str     0x000145ab       0x2d /usr/lib/gcc/arm-none-eabi/4.9.3/../../../arm-none-eabi/lib/armv7-m/libm.a(lib_a-sf_fabs.o)
                                0x1d4 (size before relaxing)
 .debug_str     0x000145d8       0x31 /usr/lib/gcc/arm-none-eabi/4.9.3/../../../arm-none-eabi/lib/armv7-m/libm.a(lib_a-sf_finite.o)
                                0x1db (size before relaxing)
 .debug_str     0x00014609       0x35 /usr/lib/gcc/arm-none-eabi/4.9.3/../../../arm-none-eabi/lib/armv7-m/libm.a(lib_a-sf_fpclassify.o)
                                0x1e6 (size before relaxing)
 .debug_str     0x0001463e       0x35 /usr/lib/gcc/arm-none-eabi/4.9.3/../../../arm-none-eabi/lib/armv7-m/libm.a(lib_a-sf_nan.o)
                                0x1d2 (size before relaxing)
 .debug_str     0x00014673       0x48 /usr/lib/gcc/arm-none-eabi/4.9.3/../../../arm-none-eabi/lib/armv7-m/libm.a(lib_a-sf_scalbn.o)
                                0x232 (size before relaxing)
 .debug_str     0x000146bb       0x33 /usr/lib/gcc/arm-none-eabi/4.9.3/../../../arm-none-eabi/lib/armv7-m/libm.a(lib_a-sf_copysign.o)
                                0x206 (size before relaxing)
 .debug_str     0x000146ee       0x38 /usr/lib/gcc/arm-none-eabi/4.9.3/../../../arm-none-eabi/lib/armv7-m/libc_nano.a(lib_a-calloc.o)
                                0x53b (size before relaxing)
 .debug_str     0x00014726       0x95 /usr/lib/gcc/arm-none-eabi/4.9.3/../../../arm-none-eabi/lib/armv7-m/libc_nano.a(lib_a-errno.o)
                                0x523 (size before relaxing)
 .debug_str     0x000147bb       0x2e /usr/lib/gcc/arm-none-eabi/4.9.3/../../../arm-none-eabi/lib/armv7-m/libc_nano.a(lib_a-memcmp.o)
                                0x1d2 (size before relaxing)
 .debug_str     0x000147e9       0x3d /usr/lib/gcc/arm-none-eabi/4.9.3/../../../arm-none-eabi/lib/armv7-m/libc_nano.a(lib_a-memcpy.o)
                                0x1e6 (size before relaxing)
 .debug_str     0x00014826       0x2e /usr/lib/gcc/arm-none-eabi/4.9.3/../../../arm-none-eabi/lib/armv7-m/libc_nano.a(lib_a-memset.o)
                                0x1d2 (size before relaxing)
 .debug_str     0x00014854        0x5 /usr/lib/gcc/arm-none-eabi/4.9.3/../../../arm-none-eabi/lib/armv7-m/libc_nano.a(lib_a-nano-callocr.o)
                                0x557 (size before relaxing)
 .debug_str     0x00014859       0x3c /usr/lib/gcc/arm-none-eabi/4.9.3/../../../arm-none-eabi/lib/armv7-m/libc_nano.a(lib_a-strcasecmp.o)
                                0x1eb (size before relaxing)
 .debug_str     0x00014895       0x2e /usr/lib/gcc/arm-none-eabi/4.9.3/../../../arm-none-eabi/lib/armv7-m/libc_nano.a(lib_a-strcat.o)
                                0x1cb (size before relaxing)
 .debug_str     0x000148c3       0x2e /usr/lib/gcc/arm-none-eabi/4.9.3/../../../arm-none-eabi/lib/armv7-m/libc_nano.a(lib_a-strchr.o)
                                0x1cb (size before relaxing)
 .debug_str     0x000148f1       0xa5 /usr/lib/gcc/arm-none-eabi/4.9.3/../../../arm-none-eabi/lib/armv7-m/libc_nano.a(lib_a-strcpy.o)
                                0x1d8 (size before relaxing)
 .debug_str     0x00014996       0x3e /usr/lib/gcc/arm-none-eabi/4.9.3/../../../arm-none-eabi/lib/armv7-m/libc_nano.a(lib_a-strlen.o)
                                0x1e7 (size before relaxing)
 .debug_str     0x000149d4       0x33 /usr/lib/gcc/arm-none-eabi/4.9.3/../../../arm-none-eabi/lib/armv7-m/libc_nano.a(lib_a-strncasecmp.o)
                                0x1f4 (size before relaxing)
 .debug_str     0x00014a07       0x3b /usr/lib/gcc/arm-none-eabi/4.9.3/../../../arm-none-eabi/lib/armv7-m/libc_nano.a(lib_a-strncpy.o)
                                0x1f0 (size before relaxing)
 .debug_str     0x00014a42       0x3f /usr/lib/gcc/arm-none-eabi/4.9.3/../../../arm-none-eabi/lib/armv7-m/libc_nano.a(lib_a-strstr.o)
                                0x1e3 (size before relaxing)
 .debug_str     0x00014a81      0x1a7 /usr/lib/gcc/arm-none-eabi/4.9.3/armv7-m/libgcc.a(bpabi.o)
                                0x1cc (size before relaxing)
 .debug_str     0x00014c28      0x163 /usr/lib/gcc/arm-none-eabi/4.9.3/armv7-m/libgcc.a(_divdi3.o)
                                0x27a (size before relaxing)
 .debug_str     0x00014d8b      0x27b /usr/lib/gcc/arm-none-eabi/4.9.3/armv7-m/libgcc.a(_udivdi3.o)

.comment        0x00000000       0x70
 .comment       0x00000000       0x38 /tmp/cc8DLllS.ltrans0.ltrans.o
                                 0x39 (size before relaxing)
 .comment       0x00000038       0x39 /tmp/cc8DLllS.ltrans1.ltrans.o
 .comment       0x00000038       0x39 /tmp/cc8DLllS.ltrans2.ltrans.o
 .comment       0x00000038       0x39 /tmp/cc8DLllS.ltrans3.ltrans.o
 .comment       0x00000038       0x39 /tmp/cc8DLllS.ltrans4.ltrans.o
 .comment       0x00000038       0x39 /tmp/cc8DLllS.ltrans5.ltrans.o
 .comment       0x00000038       0x39 /tmp/cc8DLllS.ltrans6.ltrans.o
 .comment       0x00000038       0x39 /tmp/cc8DLllS.ltrans7.ltrans.o
 .comment       0x00000038       0x39 /tmp/cc8DLllS.ltrans8.ltrans.o
 .comment       0x00000038       0x39 /tmp/cc8DLllS.ltrans9.ltrans.o
 .comment       0x00000038       0x39 /tmp/cc8DLllS.ltrans10.ltrans.o
 .comment       0x00000038       0x39 /tmp/cc8DLllS.ltrans11.ltrans.o
 .comment       0x00000038       0x39 /tmp/cc8DLllS.ltrans12.ltrans.o
 .comment       0x00000038       0x39 /tmp/cc8DLllS.ltrans13.ltrans.o
 .comment       0x00000038       0x39 /tmp/cc8DLllS.ltrans14.ltrans.o
 .comment       0x00000038       0x39 /tmp/cc8DLllS.ltrans15.ltrans.o
 .comment       0x00000038       0x39 /tmp/cc8DLllS.ltrans16.ltrans.o
 .comment       0x00000038       0x39 /tmp/cc8DLllS.ltrans17.ltrans.o
 .comment       0x00000038       0x39 /tmp/cc8DLllS.ltrans18.ltrans.o
 .comment       0x00000038       0x39 /tmp/cc8DLllS.ltrans19.ltrans.o
 .comment       0x00000038       0x39 /tmp/cc8DLllS.ltrans20.ltrans.o
 .comment       0x00000038       0x39 /tmp/cc8DLllS.ltrans21.ltrans.o
 .comment       0x00000038       0x39 /tmp/cc8DLllS.ltrans22.ltrans.o
 .comment       0x00000038       0x39 /tmp/cc8DLllS.ltrans23.ltrans.o
 .comment       0x00000038       0x39 /tmp/cc8DLllS.ltrans24.ltrans.o
 .comment       0x00000038       0x39 /tmp/cc8DLllS.ltrans25.ltrans.o
 .comment       0x00000038       0x39 /tmp/cc8DLllS.ltrans26.ltrans.o
 .comment       0x00000038       0x39 /tmp/cc8DLllS.ltrans27.ltrans.o
 .comment       0x00000038       0x39 /tmp/cc8DLllS.ltrans28.ltrans.o
 .comment       0x00000038       0x39 /tmp/cc8DLllS.ltrans29.ltrans.o
 .comment       0x00000038       0x39 /tmp/cc8DLllS.ltrans30.ltrans.o
 .comment       0x00000038       0x38 /usr/lib/gcc/arm-none-eabi/4.9.3/../../../arm-none-eabi/lib/armv7-m/libc_nano.a(lib_a-atoi.o)
                                 0x39 (size before relaxing)
 .comment       0x00000070       0x39 /usr/lib/gcc/arm-none-eabi/4.9.3/../../../arm-none-eabi/lib/armv7-m/libc_nano.a(lib_a-ctype_.o)
 .comment       0x00000070       0x39 /usr/lib/gcc/arm-none-eabi/4.9.3/../../../arm-none-eabi/lib/armv7-m/libc_nano.a(lib_a-strtok.o)
 .comment       0x00000070       0x39 /usr/lib/gcc/arm-none-eabi/4.9.3/../../../arm-none-eabi/lib/armv7-m/libc_nano.a(lib_a-strtok_r.o)
 .comment       0x00000070       0x39 /usr/lib/gcc/arm-none-eabi/4.9.3/../../../arm-none-eabi/lib/armv7-m/libc_nano.a(lib_a-strtol.o)
 .comment       0x00000070       0x39 /usr/lib/gcc/arm-none-eabi/4.9.3/../../../arm-none-eabi/lib/armv7-m/libc_nano.a(lib_a-impure.o)
 .comment       0x00000070       0x39 /usr/lib/gcc/arm-none-eabi/4.9.3/../../../arm-none-eabi/lib/armv7-m/libc_nano.a(lib_a-malloc.o)
 .comment       0x00000070       0x39 /usr/lib/gcc/arm-none-eabi/4.9.3/../../../arm-none-eabi/lib/armv7-m/libc_nano.a(lib_a-nano-freer.o)
 .comment       0x00000070       0x39 /usr/lib/gcc/arm-none-eabi/4.9.3/../../../arm-none-eabi/lib/armv7-m/libc_nano.a(lib_a-nano-mallocr.o)
 .comment       0x00000070       0x39 /usr/lib/gcc/arm-none-eabi/4.9.3/../../../arm-none-eabi/lib/armv7-m/libc_nano.a(lib_a-sbrkr.o)
 .comment       0x00000070       0x39 /usr/lib/gcc/arm-none-eabi/4.9.3/../../../arm-none-eabi/lib/armv7-m/libc_nano.a(lib_a-reent.o)
 .comment       0x00000070       0x39 /usr/lib/gcc/arm-none-eabi/4.9.3/../../../arm-none-eabi/lib/armv7-m/libnosys.a(sbrk.o)
 .comment       0x00000070       0x39 /usr/lib/gcc/arm-none-eabi/4.9.3/../../../arm-none-eabi/lib/armv7-m/libm.a(lib_a-sf_lrint.o)
 .comment       0x00000070       0x39 /usr/lib/gcc/arm-none-eabi/4.9.3/../../../arm-none-eabi/lib/armv7-m/libm.a(lib_a-wf_pow.o)
 .comment       0x00000070       0x39 /usr/lib/gcc/arm-none-eabi/4.9.3/../../../arm-none-eabi/lib/armv7-m/libm.a(lib_a-wf_sqrt.o)
 .comment       0x00000070       0x39 /usr/lib/gcc/arm-none-eabi/4.9.3/../../../arm-none-eabi/lib/armv7-m/libm.a(lib_a-ef_pow.o)
 .comment       0x00000070       0x39 /usr/lib/gcc/arm-none-eabi/4.9.3/../../../arm-none-eabi/lib/armv7-m/libm.a(lib_a-ef_sqrt.o)
 .comment       0x00000070       0x39 /usr/lib/gcc/arm-none-eabi/4.9.3/../../../arm-none-eabi/lib/armv7-m/libm.a(lib_a-s_lib_ver.o)
 .comment       0x00000070       0x39 /usr/lib/gcc/arm-none-eabi/4.9.3/../../../arm-none-eabi/lib/armv7-m/libm.a(lib_a-s_matherr.o)
 .comment       0x00000070       0x39 /usr/lib/gcc/arm-none-eabi/4.9.3/../../../arm-none-eabi/lib/armv7-m/libm.a(lib_a-s_rint.o)
 .comment       0x00000070       0x39 /usr/lib/gcc/arm-none-eabi/4.9.3/../../../arm-none-eabi/lib/armv7-m/libm.a(lib_a-sf_fabs.o)
 .comment       0x00000070       0x39 /usr/lib/gcc/arm-none-eabi/4.9.3/../../../arm-none-eabi/lib/armv7-m/libm.a(lib_a-sf_finite.o)
 .comment       0x00000070       0x39 /usr/lib/gcc/arm-none-eabi/4.9.3/../../../arm-none-eabi/lib/armv7-m/libm.a(lib_a-sf_fpclassify.o)
 .comment       0x00000070       0x39 /usr/lib/gcc/arm-none-eabi/4.9.3/../../../arm-none-eabi/lib/armv7-m/libm.a(lib_a-sf_nan.o)
 .comment       0x00000070       0x39 /usr/lib/gcc/arm-none-eabi/4.9.3/../../../arm-none-eabi/lib/armv7-m/libm.a(lib_a-sf_scalbn.o)
 .comment       0x00000070       0x39 /usr/lib/gcc/arm-none-eabi/4.9.3/../../../arm-none-eabi/lib/armv7-m/libm.a(lib_a-sf_copysign.o)
 .comment       0x00000070       0x39 /usr/lib/gcc/arm-none-eabi/4.9.3/../../../arm-none-eabi/lib/armv7-m/libc_nano.a(lib_a-calloc.o)
 .comment       0x00000070       0x39 /usr/lib/gcc/arm-none-eabi/4.9.3/../../../arm-none-eabi/lib/armv7-m/libc_nano.a(lib_a-errno.o)
 .comment       0x00000070       0x39 /usr/lib/gcc/arm-none-eabi/4.9.3/../../../arm-none-eabi/lib/armv7-m/libc_nano.a(lib_a-memcmp.o)
 .comment       0x00000070       0x39 /usr/lib/gcc/arm-none-eabi/4.9.3/../../../arm-none-eabi/lib/armv7-m/libc_nano.a(lib_a-memcpy.o)
 .comment       0x00000070       0x39 /usr/lib/gcc/arm-none-eabi/4.9.3/../../../arm-none-eabi/lib/armv7-m/libc_nano.a(lib_a-memset.o)
 .comment       0x00000070       0x39 /usr/lib/gcc/arm-none-eabi/4.9.3/../../../arm-none-eabi/lib/armv7-m/libc_nano.a(lib_a-nano-callocr.o)
 .comment       0x00000070       0x39 /usr/lib/gcc/arm-none-eabi/4.9.3/../../../arm-none-eabi/lib/armv7-m/libc_nano.a(lib_a-strcasecmp.o)
 .comment       0x00000070       0x39 /usr/lib/gcc/arm-none-eabi/4.9.3/../../../arm-none-eabi/lib/armv7-m/libc_nano.a(lib_a-strcat.o)
 .comment       0x00000070       0x39 /usr/lib/gcc/arm-none-eabi/4.9.3/../../../arm-none-eabi/lib/armv7-m/libc_nano.a(lib_a-strchr.o)
 .comment       0x00000070       0x39 /usr/lib/gcc/arm-none-eabi/4.9.3/../../../arm-none-eabi/lib/armv7-m/libc_nano.a(lib_a-strcpy.o)
 .comment       0x00000070       0x39 /usr/lib/gcc/arm-none-eabi/4.9.3/../../../arm-none-eabi/lib/armv7-m/libc_nano.a(lib_a-strlen.o)
 .comment       0x00000070       0x39 /usr/lib/gcc/arm-none-eabi/4.9.3/../../../arm-none-eabi/lib/armv7-m/libc_nano.a(lib_a-strncasecmp.o)
 .comment       0x00000070       0x39 /usr/lib/gcc/arm-none-eabi/4.9.3/../../../arm-none-eabi/lib/armv7-m/libc_nano.a(lib_a-strncpy.o)
 .comment       0x00000070       0x39 /usr/lib/gcc/arm-none-eabi/4.9.3/../../../arm-none-eabi/lib/armv7-m/libc_nano.a(lib_a-strstr.o)
 .comment       0x00000070       0x39 /usr/lib/gcc/arm-none-eabi/4.9.3/armv7-m/libgcc.a(bpabi.o)
 .comment       0x00000070       0x39 /usr/lib/gcc/arm-none-eabi/4.9.3/armv7-m/libgcc.a(_divdi3.o)
 .comment       0x00000070       0x39 /usr/lib/gcc/arm-none-eabi/4.9.3/armv7-m/libgcc.a(_udivdi3.o)

.debug_frame    0x00000000     0x37e0
 .debug_frame   0x00000000       0x44 /tmp/cc8DLllS.ltrans0.ltrans.o
 .debug_frame   0x00000044       0x40 /tmp/cc8DLllS.ltrans1.ltrans.o
 .debug_frame   0x00000084       0x40 /tmp/cc8DLllS.ltrans2.ltrans.o
 .debug_frame   0x000000c4       0x40 /tmp/cc8DLllS.ltrans3.ltrans.o
 .debug_frame   0x00000104      0x578 /tmp/cc8DLllS.ltrans4.ltrans.o
 .debug_frame   0x0000067c       0x3c /tmp/cc8DLllS.ltrans5.ltrans.o
 .debug_frame   0x000006b8      0x310 /tmp/cc8DLllS.ltrans6.ltrans.o
 .debug_frame   0x000009c8      0x240 /tmp/cc8DLllS.ltrans7.ltrans.o
 .debug_frame   0x00000c08       0x40 /tmp/cc8DLllS.ltrans8.ltrans.o
 .debug_frame   0x00000c48      0x49c /tmp/cc8DLllS.ltrans9.ltrans.o
 .debug_frame   0x000010e4      0x260 /tmp/cc8DLllS.ltrans10.ltrans.o
 .debug_frame   0x00001344      0x14c /tmp/cc8DLllS.ltrans11.ltrans.o
 .debug_frame   0x00001490       0xcc /tmp/cc8DLllS.ltrans12.ltrans.o
 .debug_frame   0x0000155c       0xa0 /tmp/cc8DLllS.ltrans13.ltrans.o
 .debug_frame   0x000015fc      0x2ac /tmp/cc8DLllS.ltrans14.ltrans.o
 .debug_frame   0x000018a8      0x1a4 /tmp/cc8DLllS.ltrans15.ltrans.o
 .debug_frame   0x00001a4c      0x478 /tmp/cc8DLllS.ltrans16.ltrans.o
 .debug_frame   0x00001ec4      0x2a8 /tmp/cc8DLllS.ltrans17.ltrans.o
 .debug_frame   0x0000216c      0x1e4 /tmp/cc8DLllS.ltrans18.ltrans.o
 .debug_frame   0x00002350       0xcc /tmp/cc8DLllS.ltrans19.ltrans.o
 .debug_frame   0x0000241c       0xc0 /tmp/cc8DLllS.ltrans20.ltrans.o
 .debug_frame   0x000024dc      0x194 /tmp/cc8DLllS.ltrans21.ltrans.o
 .debug_frame   0x00002670      0x1c0 /tmp/cc8DLllS.ltrans22.ltrans.o
 .debug_frame   0x00002830       0xa0 /tmp/cc8DLllS.ltrans23.ltrans.o
 .debug_frame   0x000028d0      0x1cc /tmp/cc8DLllS.ltrans24.ltrans.o
 .debug_frame   0x00002a9c      0x204 /tmp/cc8DLllS.ltrans25.ltrans.o
 .debug_frame   0x00002ca0       0xb8 /tmp/cc8DLllS.ltrans26.ltrans.o
 .debug_frame   0x00002d58      0x1f8 /tmp/cc8DLllS.ltrans27.ltrans.o
 .debug_frame   0x00002f50       0x50 /tmp/cc8DLllS.ltrans28.ltrans.o
 .debug_frame   0x00002fa0       0x38 /tmp/cc8DLllS.ltrans29.ltrans.o
 .debug_frame   0x00002fd8       0x74 /tmp/cc8DLllS.ltrans30.ltrans.o
 .debug_frame   0x0000304c       0x30 /usr/lib/gcc/arm-none-eabi/4.9.3/../../../arm-none-eabi/lib/armv7-m/libc_nano.a(lib_a-atoi.o)
 .debug_frame   0x0000307c       0x38 /usr/lib/gcc/arm-none-eabi/4.9.3/../../../arm-none-eabi/lib/armv7-m/libc_nano.a(lib_a-strtok.o)
 .debug_frame   0x000030b4       0x40 /usr/lib/gcc/arm-none-eabi/4.9.3/../../../arm-none-eabi/lib/armv7-m/libc_nano.a(lib_a-strtok_r.o)
 .debug_frame   0x000030f4       0x54 /usr/lib/gcc/arm-none-eabi/4.9.3/../../../arm-none-eabi/lib/armv7-m/libc_nano.a(lib_a-strtol.o)
 .debug_frame   0x00003148       0x30 /usr/lib/gcc/arm-none-eabi/4.9.3/../../../arm-none-eabi/lib/armv7-m/libc_nano.a(lib_a-malloc.o)
 .debug_frame   0x00003178       0x2c /usr/lib/gcc/arm-none-eabi/4.9.3/../../../arm-none-eabi/lib/armv7-m/libc_nano.a(lib_a-nano-freer.o)
 .debug_frame   0x000031a4       0x2c /usr/lib/gcc/arm-none-eabi/4.9.3/../../../arm-none-eabi/lib/armv7-m/libc_nano.a(lib_a-nano-mallocr.o)
 .debug_frame   0x000031d0       0x2c /usr/lib/gcc/arm-none-eabi/4.9.3/../../../arm-none-eabi/lib/armv7-m/libc_nano.a(lib_a-sbrkr.o)
 .debug_frame   0x000031fc       0x5c /usr/lib/gcc/arm-none-eabi/4.9.3/../../../arm-none-eabi/lib/armv7-m/libc_nano.a(lib_a-reent.o)
 .debug_frame   0x00003258       0x20 /usr/lib/gcc/arm-none-eabi/4.9.3/../../../arm-none-eabi/lib/armv7-m/libnosys.a(sbrk.o)
 .debug_frame   0x00003278       0x40 /usr/lib/gcc/arm-none-eabi/4.9.3/../../../arm-none-eabi/lib/armv7-m/libm.a(lib_a-sf_lrint.o)
 .debug_frame   0x000032b8       0x40 /usr/lib/gcc/arm-none-eabi/4.9.3/../../../arm-none-eabi/lib/armv7-m/libm.a(lib_a-wf_pow.o)
 .debug_frame   0x000032f8       0x3c /usr/lib/gcc/arm-none-eabi/4.9.3/../../../arm-none-eabi/lib/armv7-m/libm.a(lib_a-wf_sqrt.o)
 .debug_frame   0x00003334       0x64 /usr/lib/gcc/arm-none-eabi/4.9.3/../../../arm-none-eabi/lib/armv7-m/libm.a(lib_a-ef_pow.o)
 .debug_frame   0x00003398       0x2c /usr/lib/gcc/arm-none-eabi/4.9.3/../../../arm-none-eabi/lib/armv7-m/libm.a(lib_a-ef_sqrt.o)
 .debug_frame   0x000033c4       0x20 /usr/lib/gcc/arm-none-eabi/4.9.3/../../../arm-none-eabi/lib/armv7-m/libm.a(lib_a-s_matherr.o)
 .debug_frame   0x000033e4       0x3c /usr/lib/gcc/arm-none-eabi/4.9.3/../../../arm-none-eabi/lib/armv7-m/libm.a(lib_a-s_rint.o)
 .debug_frame   0x00003420       0x20 /usr/lib/gcc/arm-none-eabi/4.9.3/../../../arm-none-eabi/lib/armv7-m/libm.a(lib_a-sf_fabs.o)
 .debug_frame   0x00003440       0x20 /usr/lib/gcc/arm-none-eabi/4.9.3/../../../arm-none-eabi/lib/armv7-m/libm.a(lib_a-sf_finite.o)
 .debug_frame   0x00003460       0x20 /usr/lib/gcc/arm-none-eabi/4.9.3/../../../arm-none-eabi/lib/armv7-m/libm.a(lib_a-sf_fpclassify.o)
 .debug_frame   0x00003480       0x20 /usr/lib/gcc/arm-none-eabi/4.9.3/../../../arm-none-eabi/lib/armv7-m/libm.a(lib_a-sf_nan.o)
 .debug_frame   0x000034a0       0x2c /usr/lib/gcc/arm-none-eabi/4.9.3/../../../arm-none-eabi/lib/armv7-m/libm.a(lib_a-sf_scalbn.o)
 .debug_frame   0x000034cc       0x20 /usr/lib/gcc/arm-none-eabi/4.9.3/../../../arm-none-eabi/lib/armv7-m/libm.a(lib_a-sf_copysign.o)
 .debug_frame   0x000034ec       0x20 /usr/lib/gcc/arm-none-eabi/4.9.3/../../../arm-none-eabi/lib/armv7-m/libc_nano.a(lib_a-calloc.o)
 .debug_frame   0x0000350c       0x20 /usr/lib/gcc/arm-none-eabi/4.9.3/../../../arm-none-eabi/lib/armv7-m/libc_nano.a(lib_a-errno.o)
 .debug_frame   0x0000352c       0x28 /usr/lib/gcc/arm-none-eabi/4.9.3/../../../arm-none-eabi/lib/armv7-m/libc_nano.a(lib_a-memcmp.o)
 .debug_frame   0x00003554       0x28 /usr/lib/gcc/arm-none-eabi/4.9.3/../../../arm-none-eabi/lib/armv7-m/libc_nano.a(lib_a-memcpy.o)
 .debug_frame   0x0000357c       0x20 /usr/lib/gcc/arm-none-eabi/4.9.3/../../../arm-none-eabi/lib/armv7-m/libc_nano.a(lib_a-memset.o)
 .debug_frame   0x0000359c       0x2c /usr/lib/gcc/arm-none-eabi/4.9.3/../../../arm-none-eabi/lib/armv7-m/libc_nano.a(lib_a-nano-callocr.o)
 .debug_frame   0x000035c8       0x2c /usr/lib/gcc/arm-none-eabi/4.9.3/../../../arm-none-eabi/lib/armv7-m/libc_nano.a(lib_a-strcasecmp.o)
 .debug_frame   0x000035f4       0x28 /usr/lib/gcc/arm-none-eabi/4.9.3/../../../arm-none-eabi/lib/armv7-m/libc_nano.a(lib_a-strcat.o)
 .debug_frame   0x0000361c       0x20 /usr/lib/gcc/arm-none-eabi/4.9.3/../../../arm-none-eabi/lib/armv7-m/libc_nano.a(lib_a-strchr.o)
 .debug_frame   0x0000363c       0x20 /usr/lib/gcc/arm-none-eabi/4.9.3/../../../arm-none-eabi/lib/armv7-m/libc_nano.a(lib_a-strcpy.o)
 .debug_frame   0x0000365c       0x20 /usr/lib/gcc/arm-none-eabi/4.9.3/../../../arm-none-eabi/lib/armv7-m/libc_nano.a(lib_a-strlen.o)
 .debug_frame   0x0000367c       0x2c /usr/lib/gcc/arm-none-eabi/4.9.3/../../../arm-none-eabi/lib/armv7-m/libc_nano.a(lib_a-strncasecmp.o)
 .debug_frame   0x000036a8       0x28 /usr/lib/gcc/arm-none-eabi/4.9.3/../../../arm-none-eabi/lib/armv7-m/libc_nano.a(lib_a-strncpy.o)
 .debug_frame   0x000036d0       0x2c /usr/lib/gcc/arm-none-eabi/4.9.3/../../../arm-none-eabi/lib/armv7-m/libc_nano.a(lib_a-strstr.o)
 .debug_frame   0x000036fc       0x28 /usr/lib/gcc/arm-none-eabi/4.9.3/armv7-m/libgcc.a(_aeabi_ldivmod.o)
 .debug_frame   0x00003724       0x54 /usr/lib/gcc/arm-none-eabi/4.9.3/armv7-m/libgcc.a(bpabi.o)
 .debug_frame   0x00003778       0x34 /usr/lib/gcc/arm-none-eabi/4.9.3/armv7-m/libgcc.a(_divdi3.o)
 .debug_frame   0x000037ac       0x34 /usr/lib/gcc/arm-none-eabi/4.9.3/armv7-m/libgcc.a(_udivdi3.o)

Cross Reference Table

Symbol                                            File
ADC1_2_IRQHandler                                 obj/main/NAZE/startup_stm32f10x_md_gcc.o
ADC_AnalogWatchdogCmd                             obj/main/NAZE/stm32f10x_adc.o (symbol from plugin)
ADC_AnalogWatchdogSingleChannelConfig             obj/main/NAZE/stm32f10x_adc.o (symbol from plugin)
ADC_AnalogWatchdogThresholdsConfig                obj/main/NAZE/stm32f10x_adc.o (symbol from plugin)
ADC_AutoInjectedConvCmd                           obj/main/NAZE/stm32f10x_adc.o (symbol from plugin)
ADC_ClearFlag                                     obj/main/NAZE/stm32f10x_adc.o (symbol from plugin)
ADC_ClearITPendingBit                             obj/main/NAZE/stm32f10x_adc.o (symbol from plugin)
ADC_Cmd                                           obj/main/NAZE/stm32f10x_adc.o (symbol from plugin)
                                                  obj/main/NAZE/drivers/adc_stm32f10x.o (symbol from plugin)
ADC_DMACmd                                        obj/main/NAZE/stm32f10x_adc.o (symbol from plugin)
                                                  obj/main/NAZE/drivers/adc_stm32f10x.o (symbol from plugin)
ADC_DeInit                                        obj/main/NAZE/stm32f10x_adc.o (symbol from plugin)
ADC_DiscModeChannelCountConfig                    obj/main/NAZE/stm32f10x_adc.o (symbol from plugin)
ADC_DiscModeCmd                                   obj/main/NAZE/stm32f10x_adc.o (symbol from plugin)
ADC_ExternalTrigConvCmd                           obj/main/NAZE/stm32f10x_adc.o (symbol from plugin)
ADC_ExternalTrigInjectedConvCmd                   obj/main/NAZE/stm32f10x_adc.o (symbol from plugin)
ADC_ExternalTrigInjectedConvConfig                obj/main/NAZE/stm32f10x_adc.o (symbol from plugin)
ADC_GetCalibrationStatus                          obj/main/NAZE/stm32f10x_adc.o (symbol from plugin)
                                                  obj/main/NAZE/drivers/adc_stm32f10x.o (symbol from plugin)
ADC_GetConversionValue                            obj/main/NAZE/stm32f10x_adc.o (symbol from plugin)
ADC_GetDualModeConversionValue                    obj/main/NAZE/stm32f10x_adc.o (symbol from plugin)
ADC_GetFlagStatus                                 obj/main/NAZE/stm32f10x_adc.o (symbol from plugin)
ADC_GetITStatus                                   obj/main/NAZE/stm32f10x_adc.o (symbol from plugin)
ADC_GetInjectedConversionValue                    obj/main/NAZE/stm32f10x_adc.o (symbol from plugin)
ADC_GetResetCalibrationStatus                     obj/main/NAZE/stm32f10x_adc.o (symbol from plugin)
                                                  obj/main/NAZE/drivers/adc_stm32f10x.o (symbol from plugin)
ADC_GetSoftwareStartConvStatus                    obj/main/NAZE/stm32f10x_adc.o (symbol from plugin)
ADC_GetSoftwareStartInjectedConvCmdStatus         obj/main/NAZE/stm32f10x_adc.o (symbol from plugin)
ADC_ITConfig                                      obj/main/NAZE/stm32f10x_adc.o (symbol from plugin)
ADC_Init                                          obj/main/NAZE/stm32f10x_adc.o (symbol from plugin)
                                                  obj/main/NAZE/drivers/adc_stm32f10x.o (symbol from plugin)
ADC_InjectedChannelConfig                         obj/main/NAZE/stm32f10x_adc.o (symbol from plugin)
ADC_InjectedDiscModeCmd                           obj/main/NAZE/stm32f10x_adc.o (symbol from plugin)
ADC_InjectedSequencerLengthConfig                 obj/main/NAZE/stm32f10x_adc.o (symbol from plugin)
ADC_RegularChannelConfig                          obj/main/NAZE/stm32f10x_adc.o (symbol from plugin)
                                                  obj/main/NAZE/drivers/adc_stm32f10x.o (symbol from plugin)
ADC_ResetCalibration                              obj/main/NAZE/stm32f10x_adc.o (symbol from plugin)
                                                  obj/main/NAZE/drivers/adc_stm32f10x.o (symbol from plugin)
ADC_SetInjectedOffset                             obj/main/NAZE/stm32f10x_adc.o (symbol from plugin)
ADC_SoftwareStartConvCmd                          obj/main/NAZE/stm32f10x_adc.o (symbol from plugin)
                                                  obj/main/NAZE/drivers/adc_stm32f10x.o (symbol from plugin)
ADC_SoftwareStartInjectedConvCmd                  obj/main/NAZE/stm32f10x_adc.o (symbol from plugin)
ADC_StartCalibration                              obj/main/NAZE/stm32f10x_adc.o (symbol from plugin)
                                                  obj/main/NAZE/drivers/adc_stm32f10x.o (symbol from plugin)
ADC_StructInit                                    obj/main/NAZE/stm32f10x_adc.o (symbol from plugin)
                                                  obj/main/NAZE/drivers/adc_stm32f10x.o (symbol from plugin)
ADC_TempSensorVrefintCmd                          obj/main/NAZE/stm32f10x_adc.o (symbol from plugin)
AccInflightCalibrationActive                      /tmp/cc8DLllS.ltrans3.ltrans.o
                                                  obj/main/NAZE/mw.o (symbol from plugin)
                                                  /tmp/cc8DLllS.ltrans29.ltrans.o
                                                  obj/main/NAZE/sensors/acceleration.o (symbol from plugin)
AccInflightCalibrationArmed                       obj/main/NAZE/mw.o (symbol from plugin)
AccInflightCalibrationMeasurementDone             /tmp/cc8DLllS.ltrans3.ltrans.o
                                                  obj/main/NAZE/mw.o (symbol from plugin)
                                                  /tmp/cc8DLllS.ltrans29.ltrans.o
                                                  obj/main/NAZE/sensors/acceleration.o (symbol from plugin)
AccInflightCalibrationSavetoEEProm                /tmp/cc8DLllS.ltrans3.ltrans.o
                                                  obj/main/NAZE/mw.o (symbol from plugin)
                                                  /tmp/cc8DLllS.ltrans29.ltrans.o
                                                  obj/main/NAZE/sensors/acceleration.o (symbol from plugin)
AltHold                                           /tmp/cc8DLllS.ltrans19.ltrans.o
                                                  obj/main/NAZE/flight/altitudehold.o (symbol from plugin)
                                                  /tmp/cc8DLllS.ltrans3.ltrans.o
                                                  /tmp/cc8DLllS.ltrans2.ltrans.o
                                                  /tmp/cc8DLllS.ltrans1.ltrans.o
                                                  obj/main/NAZE/io/serial_msp.o (symbol from plugin)
BKP_ClearFlag                                     obj/main/NAZE/stm32f10x_bkp.o (symbol from plugin)
BKP_ClearITPendingBit                             obj/main/NAZE/stm32f10x_bkp.o (symbol from plugin)
BKP_DeInit                                        obj/main/NAZE/stm32f10x_bkp.o (symbol from plugin)
BKP_GetFlagStatus                                 obj/main/NAZE/stm32f10x_bkp.o (symbol from plugin)
BKP_GetITStatus                                   obj/main/NAZE/stm32f10x_bkp.o (symbol from plugin)
BKP_ITConfig                                      obj/main/NAZE/stm32f10x_bkp.o (symbol from plugin)
BKP_RTCOutputConfig                               obj/main/NAZE/stm32f10x_bkp.o (symbol from plugin)
BKP_ReadBackupRegister                            obj/main/NAZE/stm32f10x_bkp.o (symbol from plugin)
BKP_SetRTCCalibrationValue                        obj/main/NAZE/stm32f10x_bkp.o (symbol from plugin)
BKP_TamperPinCmd                                  obj/main/NAZE/stm32f10x_bkp.o (symbol from plugin)
BKP_TamperPinLevelConfig                          obj/main/NAZE/stm32f10x_bkp.o (symbol from plugin)
BKP_WriteBackupRegister                           obj/main/NAZE/stm32f10x_bkp.o (symbol from plugin)
BMP085_EOC_EXTI_Handler                           obj/main/NAZE/drivers/barometer_bmp085.o (symbol from plugin)
BiQuadNewLpf                                      /tmp/cc8DLllS.ltrans6.ltrans.o
                                                  obj/main/NAZE/common/filter.o (symbol from plugin)
                                                  /tmp/cc8DLllS.ltrans30.ltrans.o
                                                  /tmp/cc8DLllS.ltrans1.ltrans.o
                                                  /tmp/cc8DLllS.ltrans0.ltrans.o
                                                  obj/main/NAZE/sensors/gyro.o (symbol from plugin)
                                                  obj/main/NAZE/sensors/battery.o (symbol from plugin)
                                                  obj/main/NAZE/flight/mixer.o (symbol from plugin)
                                                  obj/main/NAZE/flight/pid.o (symbol from plugin)
BusFault_Handler                                  obj/main/NAZE/startup_stm32f10x_md_gcc.o
CAN1_RX1_IRQHandler                               obj/main/NAZE/startup_stm32f10x_md_gcc.o
CAN1_SCE_IRQHandler                               obj/main/NAZE/startup_stm32f10x_md_gcc.o
CHAR_FORMAT                                       obj/main/NAZE/drivers/display_ug2864hsweg01.o (symbol from plugin)
DAC_Cmd                                           obj/main/NAZE/stm32f10x_dac.o (symbol from plugin)
DAC_DMACmd                                        obj/main/NAZE/stm32f10x_dac.o (symbol from plugin)
DAC_DeInit                                        obj/main/NAZE/stm32f10x_dac.o (symbol from plugin)
DAC_DualSoftwareTriggerCmd                        obj/main/NAZE/stm32f10x_dac.o (symbol from plugin)
DAC_GetDataOutputValue                            obj/main/NAZE/stm32f10x_dac.o (symbol from plugin)
DAC_Init                                          obj/main/NAZE/stm32f10x_dac.o (symbol from plugin)
DAC_SetChannel1Data                               obj/main/NAZE/stm32f10x_dac.o (symbol from plugin)
DAC_SetChannel2Data                               obj/main/NAZE/stm32f10x_dac.o (symbol from plugin)
DAC_SetDualChannelData                            obj/main/NAZE/stm32f10x_dac.o (symbol from plugin)
DAC_SoftwareTriggerCmd                            obj/main/NAZE/stm32f10x_dac.o (symbol from plugin)
DAC_StructInit                                    obj/main/NAZE/stm32f10x_dac.o (symbol from plugin)
DAC_WaveGenerationCmd                             obj/main/NAZE/stm32f10x_dac.o (symbol from plugin)
DBGMCU_Config                                     obj/main/NAZE/stm32f10x_dbgmcu.o (symbol from plugin)
DBGMCU_GetDEVID                                   obj/main/NAZE/stm32f10x_dbgmcu.o (symbol from plugin)
DBGMCU_GetREVID                                   obj/main/NAZE/stm32f10x_dbgmcu.o (symbol from plugin)
DMA1_Channel1_IRQHandler                          obj/main/NAZE/startup_stm32f10x_md_gcc.o
DMA1_Channel2_IRQHandler                          /tmp/cc8DLllS.ltrans16.ltrans.o
                                                  obj/main/NAZE/drivers/dma.o (symbol from plugin)
                                                  obj/main/NAZE/startup_stm32f10x_md_gcc.o
DMA1_Channel3_IRQHandler                          /tmp/cc8DLllS.ltrans16.ltrans.o
                                                  obj/main/NAZE/drivers/dma.o (symbol from plugin)
                                                  obj/main/NAZE/startup_stm32f10x_md_gcc.o
DMA1_Channel4_IRQHandler                          /tmp/cc8DLllS.ltrans17.ltrans.o
                                                  obj/main/NAZE/drivers/serial_uart_stm32f10x.o (symbol from plugin)
                                                  obj/main/NAZE/startup_stm32f10x_md_gcc.o
DMA1_Channel5_IRQHandler                          obj/main/NAZE/startup_stm32f10x_md_gcc.o
DMA1_Channel6_IRQHandler                          /tmp/cc8DLllS.ltrans16.ltrans.o
                                                  obj/main/NAZE/drivers/dma.o (symbol from plugin)
                                                  obj/main/NAZE/startup_stm32f10x_md_gcc.o
DMA1_Channel7_IRQHandler                          /tmp/cc8DLllS.ltrans16.ltrans.o
                                                  obj/main/NAZE/drivers/dma.o (symbol from plugin)
                                                  obj/main/NAZE/startup_stm32f10x_md_gcc.o
DMA_ClearFlag                                     obj/main/NAZE/stm32f10x_dma.o (symbol from plugin)
                                                  obj/main/NAZE/drivers/light_ws2811strip.o (symbol from plugin)
DMA_ClearITPendingBit                             obj/main/NAZE/stm32f10x_dma.o (symbol from plugin)
                                                  obj/main/NAZE/drivers/serial_uart_stm32f10x.o (symbol from plugin)
DMA_Cmd                                           obj/main/NAZE/stm32f10x_dma.o (symbol from plugin)
                                                  obj/main/NAZE/drivers/serial_uart_stm32f10x.o (symbol from plugin)
                                                  obj/main/NAZE/drivers/serial_uart.o (symbol from plugin)
                                                  obj/main/NAZE/drivers/light_ws2811strip_stm32f10x.o (symbol from plugin)
                                                  obj/main/NAZE/drivers/light_ws2811strip.o (symbol from plugin)
                                                  obj/main/NAZE/drivers/adc_stm32f10x.o (symbol from plugin)
DMA_DeInit                                        /tmp/cc8DLllS.ltrans18.ltrans.o
                                                  obj/main/NAZE/stm32f10x_dma.o (symbol from plugin)
                                                  /tmp/cc8DLllS.ltrans15.ltrans.o
                                                  /tmp/cc8DLllS.ltrans0.ltrans.o
                                                  obj/main/NAZE/drivers/serial_uart.o (symbol from plugin)
                                                  obj/main/NAZE/drivers/light_ws2811strip_stm32f10x.o (symbol from plugin)
                                                  obj/main/NAZE/drivers/adc_stm32f10x.o (symbol from plugin)
DMA_GetCurrDataCounter                            obj/main/NAZE/stm32f10x_dma.o (symbol from plugin)
                                                  obj/main/NAZE/drivers/serial_uart.o (symbol from plugin)
DMA_GetFlagStatus                                 obj/main/NAZE/stm32f10x_dma.o (symbol from plugin)
                                                  obj/main/NAZE/drivers/light_ws2811strip.o (symbol from plugin)
DMA_GetITStatus                                   obj/main/NAZE/stm32f10x_dma.o (symbol from plugin)
DMA_ITConfig                                      obj/main/NAZE/stm32f10x_dma.o (symbol from plugin)
                                                  obj/main/NAZE/drivers/serial_uart.o (symbol from plugin)
                                                  obj/main/NAZE/drivers/light_ws2811strip_stm32f10x.o (symbol from plugin)
DMA_Init                                          /tmp/cc8DLllS.ltrans18.ltrans.o
                                                  obj/main/NAZE/stm32f10x_dma.o (symbol from plugin)
                                                  /tmp/cc8DLllS.ltrans15.ltrans.o
                                                  /tmp/cc8DLllS.ltrans0.ltrans.o
                                                  obj/main/NAZE/drivers/serial_uart.o (symbol from plugin)
                                                  obj/main/NAZE/drivers/light_ws2811strip_stm32f10x.o (symbol from plugin)
                                                  obj/main/NAZE/drivers/adc_stm32f10x.o (symbol from plugin)
DMA_SetCurrDataCounter                            obj/main/NAZE/stm32f10x_dma.o (symbol from plugin)
                                                  obj/main/NAZE/drivers/serial_uart.o (symbol from plugin)
                                                  obj/main/NAZE/drivers/light_ws2811strip_stm32f10x.o (symbol from plugin)
DMA_StructInit                                    /tmp/cc8DLllS.ltrans18.ltrans.o
                                                  obj/main/NAZE/stm32f10x_dma.o (symbol from plugin)
                                                  /tmp/cc8DLllS.ltrans15.ltrans.o
                                                  /tmp/cc8DLllS.ltrans0.ltrans.o
                                                  obj/main/NAZE/drivers/serial_uart.o (symbol from plugin)
                                                  obj/main/NAZE/drivers/light_ws2811strip_stm32f10x.o (symbol from plugin)
                                                  obj/main/NAZE/drivers/adc_stm32f10x.o (symbol from plugin)
DebugMon_Handler                                  obj/main/NAZE/startup_stm32f10x_md_gcc.o
Default_Handler                                   obj/main/NAZE/startup_stm32f10x_md_gcc.o
EXTI0_IRQHandler                                  /tmp/cc8DLllS.ltrans7.ltrans.o
                                                  obj/main/NAZE/drivers/sonar_hcsr04.o (symbol from plugin)
                                                  obj/main/NAZE/startup_stm32f10x_md_gcc.o
EXTI15_10_IRQHandler                              /tmp/cc8DLllS.ltrans16.ltrans.o
                                                  obj/main/NAZE/drivers/system.o (symbol from plugin)
                                                  obj/main/NAZE/startup_stm32f10x_md_gcc.o
EXTI1_IRQHandler                                  /tmp/cc8DLllS.ltrans7.ltrans.o
                                                  obj/main/NAZE/drivers/sonar_hcsr04.o (symbol from plugin)
                                                  obj/main/NAZE/startup_stm32f10x_md_gcc.o
EXTI2_IRQHandler                                  obj/main/NAZE/startup_stm32f10x_md_gcc.o
EXTI3_IRQHandler                                  obj/main/NAZE/startup_stm32f10x_md_gcc.o
EXTI4_IRQHandler                                  obj/main/NAZE/startup_stm32f10x_md_gcc.o
EXTI9_5_IRQHandler                                /tmp/cc8DLllS.ltrans7.ltrans.o
                                                  obj/main/NAZE/drivers/sonar_hcsr04.o (symbol from plugin)
                                                  obj/main/NAZE/startup_stm32f10x_md_gcc.o
EXTI_ClearFlag                                    obj/main/NAZE/stm32f10x_exti.o (symbol from plugin)
EXTI_ClearITPendingBit                            obj/main/NAZE/stm32f10x_exti.o (symbol from plugin)
                                                  obj/main/NAZE/drivers/sonar_hcsr04.o (symbol from plugin)
                                                  obj/main/NAZE/drivers/compass_hmc5883l.o (symbol from plugin)
                                                  obj/main/NAZE/drivers/barometer_bmp085.o (symbol from plugin)
                                                  obj/main/NAZE/drivers/accgyro_mpu.o (symbol from plugin)
EXTI_DeInit                                       obj/main/NAZE/stm32f10x_exti.o (symbol from plugin)
EXTI_GenerateSWInterrupt                          obj/main/NAZE/stm32f10x_exti.o (symbol from plugin)
EXTI_GetFlagStatus                                obj/main/NAZE/stm32f10x_exti.o (symbol from plugin)
EXTI_GetITStatus                                  /tmp/cc8DLllS.ltrans18.ltrans.o
                                                  obj/main/NAZE/stm32f10x_exti.o (symbol from plugin)
                                                  /tmp/cc8DLllS.ltrans22.ltrans.o
                                                  /tmp/cc8DLllS.ltrans4.ltrans.o
                                                  obj/main/NAZE/drivers/compass_hmc5883l.o (symbol from plugin)
                                                  obj/main/NAZE/drivers/barometer_bmp085.o (symbol from plugin)
                                                  obj/main/NAZE/drivers/accgyro_mpu.o (symbol from plugin)
EXTI_Init                                         obj/main/NAZE/stm32f10x_exti.o (symbol from plugin)
                                                  obj/main/NAZE/drivers/sonar_hcsr04.o (symbol from plugin)
                                                  obj/main/NAZE/drivers/compass_hmc5883l.o (symbol from plugin)
                                                  obj/main/NAZE/drivers/barometer_bmp085.o (symbol from plugin)
                                                  obj/main/NAZE/drivers/accgyro_mpu.o (symbol from plugin)
EXTI_Init.part.0.lto_priv.493                     /tmp/cc8DLllS.ltrans18.ltrans.o
                                                  /tmp/cc8DLllS.ltrans22.ltrans.o
                                                  /tmp/cc8DLllS.ltrans4.ltrans.o
                                                  /tmp/cc8DLllS.ltrans0.ltrans.o
EXTI_StructInit                                   obj/main/NAZE/stm32f10x_exti.o (symbol from plugin)
                                                  obj/main/NAZE/drivers/barometer_bmp085.o (symbol from plugin)
EstAlt.lto_priv.266                               /tmp/cc8DLllS.ltrans5.ltrans.o
                                                  /tmp/cc8DLllS.ltrans19.ltrans.o
                                                  /tmp/cc8DLllS.ltrans3.ltrans.o
                                                  /tmp/cc8DLllS.ltrans2.ltrans.o
                                                  /tmp/cc8DLllS.ltrans1.ltrans.o
FLASH_ClearFlag                                   obj/main/NAZE/stm32f10x_flash.o (symbol from plugin)
                                                  obj/main/NAZE/config/config.o (symbol from plugin)
FLASH_EnableWriteProtection                       obj/main/NAZE/stm32f10x_flash.o (symbol from plugin)
FLASH_EraseAllBank1Pages                          obj/main/NAZE/stm32f10x_flash.o (symbol from plugin)
FLASH_EraseAllPages                               obj/main/NAZE/stm32f10x_flash.o (symbol from plugin)
FLASH_EraseOptionBytes                            obj/main/NAZE/stm32f10x_flash.o (symbol from plugin)
FLASH_ErasePage                                   obj/main/NAZE/stm32f10x_flash.o (symbol from plugin)
                                                  obj/main/NAZE/config/config.o (symbol from plugin)
FLASH_GetBank1Status                              obj/main/NAZE/stm32f10x_flash.o (symbol from plugin)
FLASH_GetFlagStatus                               obj/main/NAZE/stm32f10x_flash.o (symbol from plugin)
FLASH_GetPrefetchBufferStatus                     obj/main/NAZE/stm32f10x_flash.o (symbol from plugin)
FLASH_GetReadOutProtectionStatus                  obj/main/NAZE/stm32f10x_flash.o (symbol from plugin)
FLASH_GetStatus                                   obj/main/NAZE/stm32f10x_flash.o (symbol from plugin)
FLASH_GetUserOptionByte                           obj/main/NAZE/stm32f10x_flash.o (symbol from plugin)
FLASH_GetWriteProtectionOptionByte                obj/main/NAZE/stm32f10x_flash.o (symbol from plugin)
FLASH_HalfCycleAccessCmd                          obj/main/NAZE/stm32f10x_flash.o (symbol from plugin)
FLASH_IRQHandler                                  obj/main/NAZE/startup_stm32f10x_md_gcc.o
FLASH_ITConfig                                    obj/main/NAZE/stm32f10x_flash.o (symbol from plugin)
FLASH_Lock                                        obj/main/NAZE/stm32f10x_flash.o (symbol from plugin)
                                                  obj/main/NAZE/config/config.o (symbol from plugin)
FLASH_LockBank1                                   obj/main/NAZE/stm32f10x_flash.o (symbol from plugin)
FLASH_PrefetchBufferCmd                           obj/main/NAZE/stm32f10x_flash.o (symbol from plugin)
FLASH_ProgramHalfWord                             obj/main/NAZE/stm32f10x_flash.o (symbol from plugin)
FLASH_ProgramOptionByteData                       obj/main/NAZE/stm32f10x_flash.o (symbol from plugin)
FLASH_ProgramWord                                 obj/main/NAZE/stm32f10x_flash.o (symbol from plugin)
                                                  obj/main/NAZE/config/config.o (symbol from plugin)
FLASH_ReadOutProtection                           obj/main/NAZE/stm32f10x_flash.o (symbol from plugin)
FLASH_SetLatency                                  obj/main/NAZE/stm32f10x_flash.o (symbol from plugin)
FLASH_Unlock                                      obj/main/NAZE/stm32f10x_flash.o (symbol from plugin)
                                                  obj/main/NAZE/config/config.o (symbol from plugin)
FLASH_UnlockBank1                                 obj/main/NAZE/stm32f10x_flash.o (symbol from plugin)
FLASH_UserOptionByteConfig                        obj/main/NAZE/stm32f10x_flash.o (symbol from plugin)
FLASH_WaitForLastBank1Operation                   obj/main/NAZE/stm32f10x_flash.o (symbol from plugin)
FLASH_WaitForLastOperation                        /tmp/cc8DLllS.ltrans18.ltrans.o
                                                  obj/main/NAZE/stm32f10x_flash.o (symbol from plugin)
                                                  /tmp/cc8DLllS.ltrans6.ltrans.o
FSMC_ClearFlag                                    obj/main/NAZE/stm32f10x_fsmc.o (symbol from plugin)
FSMC_ClearITPendingBit                            obj/main/NAZE/stm32f10x_fsmc.o (symbol from plugin)
FSMC_GetECC                                       obj/main/NAZE/stm32f10x_fsmc.o (symbol from plugin)
FSMC_GetFlagStatus                                obj/main/NAZE/stm32f10x_fsmc.o (symbol from plugin)
FSMC_GetITStatus                                  obj/main/NAZE/stm32f10x_fsmc.o (symbol from plugin)
FSMC_ITConfig                                     obj/main/NAZE/stm32f10x_fsmc.o (symbol from plugin)
FSMC_NANDCmd                                      obj/main/NAZE/stm32f10x_fsmc.o (symbol from plugin)
FSMC_NANDDeInit                                   obj/main/NAZE/stm32f10x_fsmc.o (symbol from plugin)
FSMC_NANDECCCmd                                   obj/main/NAZE/stm32f10x_fsmc.o (symbol from plugin)
FSMC_NANDInit                                     obj/main/NAZE/stm32f10x_fsmc.o (symbol from plugin)
FSMC_NANDStructInit                               obj/main/NAZE/stm32f10x_fsmc.o (symbol from plugin)
FSMC_NORSRAMCmd                                   obj/main/NAZE/stm32f10x_fsmc.o (symbol from plugin)
FSMC_NORSRAMDeInit                                obj/main/NAZE/stm32f10x_fsmc.o (symbol from plugin)
FSMC_NORSRAMInit                                  obj/main/NAZE/stm32f10x_fsmc.o (symbol from plugin)
FSMC_NORSRAMStructInit                            obj/main/NAZE/stm32f10x_fsmc.o (symbol from plugin)
FSMC_PCCARDCmd                                    obj/main/NAZE/stm32f10x_fsmc.o (symbol from plugin)
FSMC_PCCARDDeInit                                 obj/main/NAZE/stm32f10x_fsmc.o (symbol from plugin)
FSMC_PCCARDInit                                   obj/main/NAZE/stm32f10x_fsmc.o (symbol from plugin)
FSMC_PCCARDStructInit                             obj/main/NAZE/stm32f10x_fsmc.o (symbol from plugin)
GPIO_AFIODeInit                                   obj/main/NAZE/stm32f10x_gpio.o (symbol from plugin)
GPIO_DeInit                                       obj/main/NAZE/stm32f10x_gpio.o (symbol from plugin)
GPIO_ETH_MediaInterfaceConfig                     obj/main/NAZE/stm32f10x_gpio.o (symbol from plugin)
GPIO_EXTILineConfig                               obj/main/NAZE/stm32f10x_gpio.o (symbol from plugin)
GPIO_EventOutputCmd                               obj/main/NAZE/stm32f10x_gpio.o (symbol from plugin)
GPIO_EventOutputConfig                            obj/main/NAZE/stm32f10x_gpio.o (symbol from plugin)
GPIO_Init                                         /tmp/cc8DLllS.ltrans18.ltrans.o
                                                  obj/main/NAZE/stm32f10x_gpio.o (symbol from plugin)
                                                  /tmp/cc8DLllS.ltrans0.ltrans.o
                                                  obj/main/NAZE/drivers/light_ws2811strip_stm32f10x.o (symbol from plugin)
                                                  obj/main/NAZE/drivers/adc_stm32f10x.o (symbol from plugin)
GPIO_PinLockConfig                                obj/main/NAZE/stm32f10x_gpio.o (symbol from plugin)
GPIO_PinRemapConfig                               obj/main/NAZE/stm32f10x_gpio.o (symbol from plugin)
GPIO_ReadInputData                                obj/main/NAZE/stm32f10x_gpio.o (symbol from plugin)
GPIO_ReadInputDataBit                             obj/main/NAZE/stm32f10x_gpio.o (symbol from plugin)
                                                  obj/main/NAZE/drivers/barometer_bmp085.o (symbol from plugin)
GPIO_ReadOutputData                               obj/main/NAZE/stm32f10x_gpio.o (symbol from plugin)
GPIO_ReadOutputDataBit                            obj/main/NAZE/stm32f10x_gpio.o (symbol from plugin)
GPIO_ResetBits                                    obj/main/NAZE/stm32f10x_gpio.o (symbol from plugin)
                                                  obj/main/NAZE/io/serial_1wire.o (symbol from plugin)
                                                  obj/main/NAZE/hardware_revision.o (symbol from plugin)
                                                  obj/main/NAZE/drivers/flash_m25p16.o (symbol from plugin)
                                                  obj/main/NAZE/drivers/accgyro_spi_mpu6500.o (symbol from plugin)
GPIO_SetBits                                      obj/main/NAZE/stm32f10x_gpio.o (symbol from plugin)
                                                  obj/main/NAZE/hardware_revision.o (symbol from plugin)
                                                  obj/main/NAZE/drivers/flash_m25p16.o (symbol from plugin)
                                                  obj/main/NAZE/drivers/bus_spi.o (symbol from plugin)
                                                  obj/main/NAZE/drivers/accgyro_spi_mpu6500.o (symbol from plugin)
GPIO_StructInit                                   obj/main/NAZE/stm32f10x_gpio.o (symbol from plugin)
                                                  obj/main/NAZE/drivers/light_ws2811strip_stm32f10x.o (symbol from plugin)
                                                  obj/main/NAZE/drivers/adc_stm32f10x.o (symbol from plugin)
GPIO_Write                                        obj/main/NAZE/stm32f10x_gpio.o (symbol from plugin)
GPIO_WriteBit                                     obj/main/NAZE/stm32f10x_gpio.o (symbol from plugin)
GPS_WP.lto_priv.544                               /tmp/cc8DLllS.ltrans13.ltrans.o
                                                  /tmp/cc8DLllS.ltrans17.ltrans.o
GPS_altitude                                      /tmp/cc8DLllS.ltrans5.ltrans.o
                                                  obj/main/NAZE/io/gps.o (symbol from plugin)
                                                  /tmp/cc8DLllS.ltrans13.ltrans.o
                                                  /tmp/cc8DLllS.ltrans11.ltrans.o
                                                  /tmp/cc8DLllS.ltrans2.ltrans.o
                                                  obj/main/NAZE/io/serial_msp.o (symbol from plugin)
                                                  obj/main/NAZE/blackbox/blackbox.o (symbol from plugin)
                                                  obj/main/NAZE/telemetry/ltm.o (symbol from plugin)
                                                  obj/main/NAZE/telemetry/smartport.o (symbol from plugin)
                                                  obj/main/NAZE/telemetry/hott.o (symbol from plugin)
                                                  obj/main/NAZE/telemetry/frsky.o (symbol from plugin)
GPS_angle                                         /tmp/cc8DLllS.ltrans23.ltrans.o
                                                  obj/main/NAZE/flight/navigation.o (symbol from plugin)
                                                  /tmp/cc8DLllS.ltrans3.ltrans.o
                                                  /tmp/cc8DLllS.ltrans1.ltrans.o
                                                  obj/main/NAZE/flight/pid.o (symbol from plugin)
GPS_calculateDistanceAndDirectionToHome           obj/main/NAZE/flight/navigation.o (symbol from plugin)
GPS_coord                                         /tmp/cc8DLllS.ltrans5.ltrans.o
                                                  obj/main/NAZE/io/gps.o (symbol from plugin)
                                                  /tmp/cc8DLllS.ltrans20.ltrans.o
                                                  /tmp/cc8DLllS.ltrans17.ltrans.o
                                                  /tmp/cc8DLllS.ltrans13.ltrans.o
                                                  /tmp/cc8DLllS.ltrans11.ltrans.o
                                                  /tmp/cc8DLllS.ltrans3.ltrans.o
                                                  /tmp/cc8DLllS.ltrans2.ltrans.o
                                                  obj/main/NAZE/io/serial_msp.o (symbol from plugin)
                                                  obj/main/NAZE/blackbox/blackbox.o (symbol from plugin)
                                                  obj/main/NAZE/telemetry/ltm.o (symbol from plugin)
                                                  obj/main/NAZE/telemetry/smartport.o (symbol from plugin)
                                                  obj/main/NAZE/telemetry/hott.o (symbol from plugin)
                                                  obj/main/NAZE/telemetry/frsky.o (symbol from plugin)
                                                  obj/main/NAZE/io/display.o (symbol from plugin)
                                                  obj/main/NAZE/flight/navigation.o (symbol from plugin)
GPS_coord_to_degrees                              obj/main/NAZE/flight/gps_conversion.o (symbol from plugin)
                                                  obj/main/NAZE/io/gps.o (symbol from plugin)
GPS_coord_to_degrees.constprop.126                /tmp/cc8DLllS.ltrans24.ltrans.o
                                                  /tmp/cc8DLllS.ltrans13.ltrans.o
GPS_directionToHome                               /tmp/cc8DLllS.ltrans5.ltrans.o
                                                  obj/main/NAZE/flight/navigation.o (symbol from plugin)
                                                  /tmp/cc8DLllS.ltrans13.ltrans.o
                                                  /tmp/cc8DLllS.ltrans2.ltrans.o
                                                  obj/main/NAZE/io/serial_msp.o (symbol from plugin)
                                                  obj/main/NAZE/telemetry/hott.o (symbol from plugin)
GPS_distanceToHome                                /tmp/cc8DLllS.ltrans5.ltrans.o
                                                  obj/main/NAZE/flight/navigation.o (symbol from plugin)
                                                  /tmp/cc8DLllS.ltrans13.ltrans.o
                                                  /tmp/cc8DLllS.ltrans2.ltrans.o
                                                  obj/main/NAZE/io/serial_msp.o (symbol from plugin)
                                                  obj/main/NAZE/telemetry/hott.o (symbol from plugin)
GPS_distance_cm_bearing.isra.3.lto_priv.558       /tmp/cc8DLllS.ltrans13.ltrans.o
                                                  /tmp/cc8DLllS.ltrans17.ltrans.o
GPS_garbageByteCount                              /tmp/cc8DLllS.ltrans20.ltrans.o
                                                  obj/main/NAZE/io/gps.o (symbol from plugin)
                                                  /tmp/cc8DLllS.ltrans13.ltrans.o
                                                  obj/main/NAZE/io/display.o (symbol from plugin)
GPS_ground_course                                 /tmp/cc8DLllS.ltrans2.ltrans.o
                                                  obj/main/NAZE/io/gps.o (symbol from plugin)
                                                  /tmp/cc8DLllS.ltrans20.ltrans.o
                                                  /tmp/cc8DLllS.ltrans13.ltrans.o
                                                  /tmp/cc8DLllS.ltrans11.ltrans.o
                                                  /tmp/cc8DLllS.ltrans1.ltrans.o
                                                  obj/main/NAZE/io/serial_msp.o (symbol from plugin)
                                                  obj/main/NAZE/flight/imu.o (symbol from plugin)
                                                  obj/main/NAZE/blackbox/blackbox.o (symbol from plugin)
                                                  obj/main/NAZE/io/display.o (symbol from plugin)
GPS_hdop                                          /tmp/cc8DLllS.ltrans5.ltrans.o
                                                  obj/main/NAZE/io/gps.o (symbol from plugin)
                                                  /tmp/cc8DLllS.ltrans13.ltrans.o
                                                  obj/main/NAZE/telemetry/frsky.o (symbol from plugin)
GPS_hold                                          /tmp/cc8DLllS.ltrans3.ltrans.o
                                                  obj/main/NAZE/flight/navigation.o (symbol from plugin)
                                                  /tmp/cc8DLllS.ltrans2.ltrans.o
                                                  obj/main/NAZE/io/serial_msp.o (symbol from plugin)
GPS_home                                          /tmp/cc8DLllS.ltrans5.ltrans.o
                                                  obj/main/NAZE/flight/navigation.o (symbol from plugin)
                                                  /tmp/cc8DLllS.ltrans17.ltrans.o
                                                  /tmp/cc8DLllS.ltrans13.ltrans.o
                                                  /tmp/cc8DLllS.ltrans11.ltrans.o
                                                  /tmp/cc8DLllS.ltrans3.ltrans.o
                                                  /tmp/cc8DLllS.ltrans2.ltrans.o
                                                  obj/main/NAZE/io/serial_msp.o (symbol from plugin)
                                                  obj/main/NAZE/blackbox/blackbox.o (symbol from plugin)
                                                  obj/main/NAZE/telemetry/ltm.o (symbol from plugin)
GPS_numCh                                         /tmp/cc8DLllS.ltrans2.ltrans.o
                                                  obj/main/NAZE/io/gps.o (symbol from plugin)
                                                  /tmp/cc8DLllS.ltrans13.ltrans.o
                                                  obj/main/NAZE/io/serial_msp.o (symbol from plugin)
GPS_numSat                                        /tmp/cc8DLllS.ltrans5.ltrans.o
                                                  obj/main/NAZE/io/gps.o (symbol from plugin)
                                                  /tmp/cc8DLllS.ltrans28.ltrans.o
                                                  /tmp/cc8DLllS.ltrans20.ltrans.o
                                                  /tmp/cc8DLllS.ltrans19.ltrans.o
                                                  /tmp/cc8DLllS.ltrans17.ltrans.o
                                                  /tmp/cc8DLllS.ltrans13.ltrans.o
                                                  /tmp/cc8DLllS.ltrans12.ltrans.o
                                                  /tmp/cc8DLllS.ltrans11.ltrans.o
                                                  /tmp/cc8DLllS.ltrans3.ltrans.o
                                                  /tmp/cc8DLllS.ltrans2.ltrans.o
                                                  /tmp/cc8DLllS.ltrans1.ltrans.o
                                                  obj/main/NAZE/io/serial_msp.o (symbol from plugin)
                                                  obj/main/NAZE/io/beeper.o (symbol from plugin)
                                                  obj/main/NAZE/flight/imu.o (symbol from plugin)
                                                  obj/main/NAZE/mw.o (symbol from plugin)
                                                  obj/main/NAZE/blackbox/blackbox.o (symbol from plugin)
                                                  obj/main/NAZE/telemetry/ltm.o (symbol from plugin)
                                                  obj/main/NAZE/telemetry/smartport.o (symbol from plugin)
                                                  obj/main/NAZE/telemetry/hott.o (symbol from plugin)
                                                  obj/main/NAZE/telemetry/frsky.o (symbol from plugin)
                                                  obj/main/NAZE/io/display.o (symbol from plugin)
                                                  obj/main/NAZE/flight/navigation.o (symbol from plugin)
GPS_packetCount                                   /tmp/cc8DLllS.ltrans20.ltrans.o
                                                  obj/main/NAZE/io/gps.o (symbol from plugin)
                                                  /tmp/cc8DLllS.ltrans13.ltrans.o
                                                  obj/main/NAZE/io/display.o (symbol from plugin)
GPS_reset_home_position                           /tmp/cc8DLllS.ltrans17.ltrans.o
                                                  obj/main/NAZE/flight/navigation.o (symbol from plugin)
                                                  /tmp/cc8DLllS.ltrans13.ltrans.o
                                                  /tmp/cc8DLllS.ltrans3.ltrans.o
                                                  obj/main/NAZE/io/rc_controls.o (symbol from plugin)
GPS_reset_nav                                     obj/main/NAZE/flight/navigation.o (symbol from plugin)
GPS_scaleLonDown.lto_priv.550                     /tmp/cc8DLllS.ltrans13.ltrans.o
                                                  /tmp/cc8DLllS.ltrans17.ltrans.o
GPS_set_next_wp                                   /tmp/cc8DLllS.ltrans17.ltrans.o
                                                  obj/main/NAZE/flight/navigation.o (symbol from plugin)
                                                  /tmp/cc8DLllS.ltrans3.ltrans.o
                                                  /tmp/cc8DLllS.ltrans2.ltrans.o
                                                  obj/main/NAZE/io/serial_msp.o (symbol from plugin)
GPS_speed                                         /tmp/cc8DLllS.ltrans5.ltrans.o
                                                  obj/main/NAZE/io/gps.o (symbol from plugin)
                                                  /tmp/cc8DLllS.ltrans20.ltrans.o
                                                  /tmp/cc8DLllS.ltrans13.ltrans.o
                                                  /tmp/cc8DLllS.ltrans11.ltrans.o
                                                  /tmp/cc8DLllS.ltrans2.ltrans.o
                                                  /tmp/cc8DLllS.ltrans1.ltrans.o
                                                  obj/main/NAZE/io/serial_msp.o (symbol from plugin)
                                                  obj/main/NAZE/flight/imu.o (symbol from plugin)
                                                  obj/main/NAZE/blackbox/blackbox.o (symbol from plugin)
                                                  obj/main/NAZE/telemetry/ltm.o (symbol from plugin)
                                                  obj/main/NAZE/telemetry/smartport.o (symbol from plugin)
                                                  obj/main/NAZE/telemetry/hott.o (symbol from plugin)
                                                  obj/main/NAZE/telemetry/frsky.o (symbol from plugin)
                                                  obj/main/NAZE/io/display.o (symbol from plugin)
GPS_svInfoReceivedCount                           /tmp/cc8DLllS.ltrans20.ltrans.o
                                                  obj/main/NAZE/io/gps.o (symbol from plugin)
                                                  /tmp/cc8DLllS.ltrans13.ltrans.o
                                                  obj/main/NAZE/io/display.o (symbol from plugin)
GPS_svinfo_chn                                    /tmp/cc8DLllS.ltrans2.ltrans.o
                                                  obj/main/NAZE/io/gps.o (symbol from plugin)
                                                  /tmp/cc8DLllS.ltrans13.ltrans.o
                                                  obj/main/NAZE/io/serial_msp.o (symbol from plugin)
GPS_svinfo_cno                                    /tmp/cc8DLllS.ltrans2.ltrans.o
                                                  obj/main/NAZE/io/gps.o (symbol from plugin)
                                                  /tmp/cc8DLllS.ltrans20.ltrans.o
                                                  /tmp/cc8DLllS.ltrans13.ltrans.o
                                                  obj/main/NAZE/io/serial_msp.o (symbol from plugin)
                                                  obj/main/NAZE/io/display.o (symbol from plugin)
GPS_svinfo_quality                                /tmp/cc8DLllS.ltrans2.ltrans.o
                                                  obj/main/NAZE/io/gps.o (symbol from plugin)
                                                  /tmp/cc8DLllS.ltrans13.ltrans.o
                                                  obj/main/NAZE/io/serial_msp.o (symbol from plugin)
GPS_svinfo_svid                                   /tmp/cc8DLllS.ltrans2.ltrans.o
                                                  obj/main/NAZE/io/gps.o (symbol from plugin)
                                                  /tmp/cc8DLllS.ltrans13.ltrans.o
                                                  obj/main/NAZE/io/serial_msp.o (symbol from plugin)
GPS_update                                        /tmp/cc8DLllS.ltrans2.ltrans.o
                                                  obj/main/NAZE/io/gps.o (symbol from plugin)
                                                  /tmp/cc8DLllS.ltrans13.ltrans.o
                                                  obj/main/NAZE/io/serial_msp.o (symbol from plugin)
HardFault_Handler                                 /tmp/cc8DLllS.ltrans12.ltrans.o
                                                  obj/main/NAZE/main.o (symbol from plugin)
                                                  obj/main/NAZE/startup_stm32f10x_md_gcc.o
I2C1_ER_IRQHandler                                /tmp/cc8DLllS.ltrans4.ltrans.o
                                                  obj/main/NAZE/drivers/bus_i2c_stm32f10x.o (symbol from plugin)
                                                  obj/main/NAZE/startup_stm32f10x_md_gcc.o
I2C1_EV_IRQHandler                                /tmp/cc8DLllS.ltrans4.ltrans.o
                                                  obj/main/NAZE/drivers/bus_i2c_stm32f10x.o (symbol from plugin)
                                                  obj/main/NAZE/startup_stm32f10x_md_gcc.o
I2C2_ER_IRQHandler                                /tmp/cc8DLllS.ltrans4.ltrans.o
                                                  obj/main/NAZE/drivers/bus_i2c_stm32f10x.o (symbol from plugin)
                                                  obj/main/NAZE/startup_stm32f10x_md_gcc.o
I2C2_EV_IRQHandler                                /tmp/cc8DLllS.ltrans4.ltrans.o
                                                  obj/main/NAZE/drivers/bus_i2c_stm32f10x.o (symbol from plugin)
                                                  obj/main/NAZE/startup_stm32f10x_md_gcc.o
I2C_ARPCmd                                        obj/main/NAZE/stm32f10x_i2c.o (symbol from plugin)
I2C_AcknowledgeConfig                             obj/main/NAZE/stm32f10x_i2c.o (symbol from plugin)
                                                  obj/main/NAZE/drivers/bus_i2c_stm32f10x.o (symbol from plugin)
I2C_CalculatePEC                                  obj/main/NAZE/stm32f10x_i2c.o (symbol from plugin)
I2C_CheckEvent                                    obj/main/NAZE/stm32f10x_i2c.o (symbol from plugin)
I2C_ClearFlag                                     obj/main/NAZE/stm32f10x_i2c.o (symbol from plugin)
I2C_ClearITPendingBit                             obj/main/NAZE/stm32f10x_i2c.o (symbol from plugin)
I2C_Cmd                                           obj/main/NAZE/stm32f10x_i2c.o (symbol from plugin)
                                                  obj/main/NAZE/drivers/bus_i2c_stm32f10x.o (symbol from plugin)
I2C_DMACmd                                        obj/main/NAZE/stm32f10x_i2c.o (symbol from plugin)
I2C_DMALastTransferCmd                            obj/main/NAZE/stm32f10x_i2c.o (symbol from plugin)
I2C_DeInit                                        obj/main/NAZE/stm32f10x_i2c.o (symbol from plugin)
                                                  obj/main/NAZE/drivers/bus_i2c_stm32f10x.o (symbol from plugin)
I2C_DualAddressCmd                                obj/main/NAZE/stm32f10x_i2c.o (symbol from plugin)
I2C_FastModeDutyCycleConfig                       obj/main/NAZE/stm32f10x_i2c.o (symbol from plugin)
I2C_GeneralCallCmd                                obj/main/NAZE/stm32f10x_i2c.o (symbol from plugin)
I2C_GenerateSTART                                 obj/main/NAZE/stm32f10x_i2c.o (symbol from plugin)
                                                  obj/main/NAZE/drivers/bus_i2c_stm32f10x.o (symbol from plugin)
I2C_GenerateSTOP                                  obj/main/NAZE/stm32f10x_i2c.o (symbol from plugin)
                                                  obj/main/NAZE/drivers/bus_i2c_stm32f10x.o (symbol from plugin)
I2C_GetFlagStatus                                 obj/main/NAZE/stm32f10x_i2c.o (symbol from plugin)
I2C_GetITStatus                                   obj/main/NAZE/stm32f10x_i2c.o (symbol from plugin)
I2C_GetLastEvent                                  obj/main/NAZE/stm32f10x_i2c.o (symbol from plugin)
I2C_GetPEC                                        obj/main/NAZE/stm32f10x_i2c.o (symbol from plugin)
I2C_ITConfig                                      obj/main/NAZE/stm32f10x_i2c.o (symbol from plugin)
                                                  obj/main/NAZE/drivers/bus_i2c_stm32f10x.o (symbol from plugin)
I2C_Init                                          obj/main/NAZE/stm32f10x_i2c.o (symbol from plugin)
                                                  obj/main/NAZE/drivers/bus_i2c_stm32f10x.o (symbol from plugin)
I2C_NACKPositionConfig                            obj/main/NAZE/stm32f10x_i2c.o (symbol from plugin)
I2C_OwnAddress2Config                             obj/main/NAZE/stm32f10x_i2c.o (symbol from plugin)
I2C_PECPositionConfig                             obj/main/NAZE/stm32f10x_i2c.o (symbol from plugin)
I2C_ReadRegister                                  obj/main/NAZE/stm32f10x_i2c.o (symbol from plugin)
I2C_ReceiveData                                   obj/main/NAZE/stm32f10x_i2c.o (symbol from plugin)
I2C_SMBusAlertConfig                              obj/main/NAZE/stm32f10x_i2c.o (symbol from plugin)
I2C_Send7bitAddress                               obj/main/NAZE/stm32f10x_i2c.o (symbol from plugin)
                                                  obj/main/NAZE/drivers/bus_i2c_stm32f10x.o (symbol from plugin)
I2C_SendData                                      obj/main/NAZE/stm32f10x_i2c.o (symbol from plugin)
I2C_SoftwareResetCmd                              obj/main/NAZE/stm32f10x_i2c.o (symbol from plugin)
I2C_StretchClockCmd                               obj/main/NAZE/stm32f10x_i2c.o (symbol from plugin)
I2C_StructInit                                    obj/main/NAZE/stm32f10x_i2c.o (symbol from plugin)
                                                  obj/main/NAZE/drivers/bus_i2c_stm32f10x.o (symbol from plugin)
I2C_TransmitPEC                                   obj/main/NAZE/stm32f10x_i2c.o (symbol from plugin)
I2Cx.lto_priv.569                                 /tmp/cc8DLllS.ltrans22.ltrans.o
                                                  /tmp/cc8DLllS.ltrans26.ltrans.o
I2Cx_index.lto_priv.570                           /tmp/cc8DLllS.ltrans22.ltrans.o
                                                  /tmp/cc8DLllS.ltrans26.ltrans.o
I2S_Cmd                                           obj/main/NAZE/stm32f10x_spi.o (symbol from plugin)
I2S_Init                                          obj/main/NAZE/stm32f10x_spi.o (symbol from plugin)
I2S_StructInit                                    obj/main/NAZE/stm32f10x_spi.o (symbol from plugin)
IWDG_Enable                                       obj/main/NAZE/stm32f10x_iwdg.o (symbol from plugin)
IWDG_GetFlagStatus                                obj/main/NAZE/stm32f10x_iwdg.o (symbol from plugin)
IWDG_ReloadCounter                                obj/main/NAZE/stm32f10x_iwdg.o (symbol from plugin)
IWDG_SetPrescaler                                 obj/main/NAZE/stm32f10x_iwdg.o (symbol from plugin)
IWDG_SetReload                                    obj/main/NAZE/stm32f10x_iwdg.o (symbol from plugin)
IWDG_WriteAccessCmd                               obj/main/NAZE/stm32f10x_iwdg.o (symbol from plugin)
InflightcalibratingA                              /tmp/cc8DLllS.ltrans3.ltrans.o
                                                  obj/main/NAZE/mw.o (symbol from plugin)
                                                  /tmp/cc8DLllS.ltrans29.ltrans.o
                                                  obj/main/NAZE/sensors/acceleration.o (symbol from plugin)
LCDprint                                          obj/main/NAZE/io/display.o (symbol from plugin)
MAG_DATA_READY_EXTI_Handler                       obj/main/NAZE/drivers/compass_hmc5883l.o (symbol from plugin)
MPU_DATA_READY_EXTI_Handler                       obj/main/NAZE/drivers/accgyro_mpu.o (symbol from plugin)
MemManage_Handler                                 obj/main/NAZE/startup_stm32f10x_md_gcc.o
NMI_Handler                                       obj/main/NAZE/startup_stm32f10x_md_gcc.o
NVIC_Init                                         obj/main/NAZE/misc.o (symbol from plugin)
                                                  obj/main/NAZE/drivers/timer.o (symbol from plugin)
                                                  obj/main/NAZE/drivers/serial_uart_stm32f10x.o (symbol from plugin)
                                                  obj/main/NAZE/drivers/sonar_hcsr04.o (symbol from plugin)
                                                  obj/main/NAZE/drivers/light_ws2811strip_stm32f10x.o (symbol from plugin)
                                                  obj/main/NAZE/drivers/compass_hmc5883l.o (symbol from plugin)
                                                  obj/main/NAZE/drivers/bus_i2c_stm32f10x.o (symbol from plugin)
                                                  obj/main/NAZE/drivers/barometer_bmp085.o (symbol from plugin)
                                                  obj/main/NAZE/drivers/accgyro_mpu.o (symbol from plugin)
NVIC_Init.part.0.constprop.184                    /tmp/cc8DLllS.ltrans24.ltrans.o
                                                  /tmp/cc8DLllS.ltrans22.ltrans.o
                                                  /tmp/cc8DLllS.ltrans17.ltrans.o
                                                  /tmp/cc8DLllS.ltrans15.ltrans.o
                                                  /tmp/cc8DLllS.ltrans4.ltrans.o
                                                  /tmp/cc8DLllS.ltrans0.ltrans.o
NVIC_PriorityGroupConfig                          obj/main/NAZE/misc.o (symbol from plugin)
                                                  obj/main/NAZE/drivers/system.o (symbol from plugin)
NVIC_SetVectorTable                               obj/main/NAZE/misc.o (symbol from plugin)
NVIC_SystemLPConfig                               obj/main/NAZE/misc.o (symbol from plugin)
PIDweight                                         /tmp/cc8DLllS.ltrans23.ltrans.o
                                                  obj/main/NAZE/flight/pid.o (symbol from plugin)
                                                  /tmp/cc8DLllS.ltrans1.ltrans.o
                                                  obj/main/NAZE/mw.o (symbol from plugin)
PVD_IRQHandler                                    obj/main/NAZE/startup_stm32f10x_md_gcc.o
PWR_BackupAccessCmd                               obj/main/NAZE/stm32f10x_pwr.o (symbol from plugin)
PWR_ClearFlag                                     obj/main/NAZE/stm32f10x_pwr.o (symbol from plugin)
PWR_DeInit                                        obj/main/NAZE/stm32f10x_pwr.o (symbol from plugin)
PWR_EnterSTANDBYMode                              obj/main/NAZE/stm32f10x_pwr.o (symbol from plugin)
PWR_EnterSTOPMode                                 obj/main/NAZE/stm32f10x_pwr.o (symbol from plugin)
PWR_GetFlagStatus                                 obj/main/NAZE/stm32f10x_pwr.o (symbol from plugin)
PWR_PVDCmd                                        obj/main/NAZE/stm32f10x_pwr.o (symbol from plugin)
PWR_PVDLevelConfig                                obj/main/NAZE/stm32f10x_pwr.o (symbol from plugin)
PWR_WakeUpPinCmd                                  obj/main/NAZE/stm32f10x_pwr.o (symbol from plugin)
PendSV_Handler                                    obj/main/NAZE/startup_stm32f10x_md_gcc.o
RCC_ADCCLKConfig                                  obj/main/NAZE/stm32f10x_rcc.o (symbol from plugin)
                                                  obj/main/NAZE/drivers/adc_stm32f10x.o (symbol from plugin)
RCC_AHBPeriphClockCmd                             obj/main/NAZE/stm32f10x_rcc.o (symbol from plugin)
                                                  obj/main/NAZE/drivers/serial_uart_stm32f10x.o (symbol from plugin)
                                                  obj/main/NAZE/drivers/light_ws2811strip_stm32f10x.o (symbol from plugin)
                                                  obj/main/NAZE/drivers/adc_stm32f10x.o (symbol from plugin)
RCC_APB1PeriphClockCmd                            obj/main/NAZE/stm32f10x_rcc.o (symbol from plugin)
                                                  obj/main/NAZE/drivers/timer.o (symbol from plugin)
                                                  obj/main/NAZE/drivers/serial_uart_stm32f10x.o (symbol from plugin)
                                                  obj/main/NAZE/drivers/light_ws2811strip_stm32f10x.o (symbol from plugin)
                                                  obj/main/NAZE/drivers/bus_i2c_stm32f10x.o (symbol from plugin)
                                                  obj/main/NAZE/drivers/bus_spi.o (symbol from plugin)
RCC_APB1PeriphResetCmd                            obj/main/NAZE/stm32f10x_rcc.o (symbol from plugin)
                                                  obj/main/NAZE/stm32f10x_spi.o (symbol from plugin)
                                                  obj/main/NAZE/stm32f10x_wwdg.o (symbol from plugin)
                                                  obj/main/NAZE/stm32f10x_tim.o (symbol from plugin)
                                                  obj/main/NAZE/stm32f10x_usart.o (symbol from plugin)
                                                  obj/main/NAZE/stm32f10x_i2c.o (symbol from plugin)
                                                  obj/main/NAZE/stm32f10x_pwr.o (symbol from plugin)
                                                  obj/main/NAZE/stm32f10x_dac.o (symbol from plugin)
                                                  obj/main/NAZE/drivers/bus_spi.o (symbol from plugin)
RCC_APB2PeriphClockCmd                            obj/main/NAZE/stm32f10x_rcc.o (symbol from plugin)
                                                  obj/main/NAZE/drivers/system.o (symbol from plugin)
                                                  obj/main/NAZE/drivers/timer.o (symbol from plugin)
                                                  obj/main/NAZE/drivers/system_stm32f10x.o (symbol from plugin)
                                                  obj/main/NAZE/drivers/sound_beeper_stm32f10x.o (symbol from plugin)
                                                  obj/main/NAZE/drivers/serial_uart_stm32f10x.o (symbol from plugin)
                                                  obj/main/NAZE/drivers/sonar_hcsr04.o (symbol from plugin)
                                                  obj/main/NAZE/drivers/light_ws2811strip_stm32f10x.o (symbol from plugin)
                                                  obj/main/NAZE/drivers/light_led_stm32f10x.o (symbol from plugin)
                                                  obj/main/NAZE/drivers/inverter.o (symbol from plugin)
                                                  obj/main/NAZE/drivers/compass_hmc5883l.o (symbol from plugin)
                                                  obj/main/NAZE/drivers/barometer_bmp085.o (symbol from plugin)
                                                  obj/main/NAZE/drivers/adc_stm32f10x.o (symbol from plugin)
                                                  obj/main/NAZE/drivers/accgyro_spi_mpu6500.o (symbol from plugin)
                                                  obj/main/NAZE/drivers/accgyro_mpu.o (symbol from plugin)
                                                  obj/main/NAZE/drivers/accgyro_mma845x.o (symbol from plugin)
RCC_APB2PeriphResetCmd                            obj/main/NAZE/stm32f10x_rcc.o (symbol from plugin)
                                                  obj/main/NAZE/stm32f10x_gpio.o (symbol from plugin)
                                                  obj/main/NAZE/stm32f10x_spi.o (symbol from plugin)
                                                  obj/main/NAZE/stm32f10x_adc.o (symbol from plugin)
                                                  obj/main/NAZE/stm32f10x_tim.o (symbol from plugin)
                                                  obj/main/NAZE/stm32f10x_usart.o (symbol from plugin)
RCC_AdjustHSICalibrationValue                     obj/main/NAZE/stm32f10x_rcc.o (symbol from plugin)
RCC_BackupResetCmd                                obj/main/NAZE/stm32f10x_rcc.o (symbol from plugin)
                                                  obj/main/NAZE/stm32f10x_bkp.o (symbol from plugin)
RCC_ClearFlag                                     obj/main/NAZE/stm32f10x_rcc.o (symbol from plugin)
                                                  obj/main/NAZE/drivers/system.o (symbol from plugin)
RCC_ClearITPendingBit                             obj/main/NAZE/stm32f10x_rcc.o (symbol from plugin)
RCC_ClockSecuritySystemCmd                        obj/main/NAZE/stm32f10x_rcc.o (symbol from plugin)
RCC_DeInit                                        obj/main/NAZE/stm32f10x_rcc.o (symbol from plugin)
RCC_GetClocksFreq                                 /tmp/cc8DLllS.ltrans18.ltrans.o
                                                  obj/main/NAZE/stm32f10x_rcc.o (symbol from plugin)
                                                  /tmp/cc8DLllS.ltrans22.ltrans.o
                                                  /tmp/cc8DLllS.ltrans15.ltrans.o
                                                  /tmp/cc8DLllS.ltrans0.ltrans.o
                                                  obj/main/NAZE/stm32f10x_spi.o (symbol from plugin)
                                                  obj/main/NAZE/stm32f10x_usart.o (symbol from plugin)
                                                  obj/main/NAZE/stm32f10x_i2c.o (symbol from plugin)
                                                  obj/main/NAZE/drivers/system.o (symbol from plugin)
RCC_GetFlagStatus                                 obj/main/NAZE/stm32f10x_rcc.o (symbol from plugin)
RCC_GetITStatus                                   obj/main/NAZE/stm32f10x_rcc.o (symbol from plugin)
RCC_GetSYSCLKSource                               obj/main/NAZE/stm32f10x_rcc.o (symbol from plugin)
RCC_HCLKConfig                                    obj/main/NAZE/stm32f10x_rcc.o (symbol from plugin)
RCC_HSEConfig                                     obj/main/NAZE/stm32f10x_rcc.o (symbol from plugin)
RCC_HSICmd                                        obj/main/NAZE/stm32f10x_rcc.o (symbol from plugin)
RCC_IRQHandler                                    obj/main/NAZE/startup_stm32f10x_md_gcc.o
RCC_ITConfig                                      obj/main/NAZE/stm32f10x_rcc.o (symbol from plugin)
RCC_LSEConfig                                     obj/main/NAZE/stm32f10x_rcc.o (symbol from plugin)
RCC_LSICmd                                        obj/main/NAZE/stm32f10x_rcc.o (symbol from plugin)
RCC_MCOConfig                                     obj/main/NAZE/stm32f10x_rcc.o (symbol from plugin)
RCC_PCLK1Config                                   obj/main/NAZE/stm32f10x_rcc.o (symbol from plugin)
RCC_PCLK2Config                                   obj/main/NAZE/stm32f10x_rcc.o (symbol from plugin)
RCC_PLLCmd                                        obj/main/NAZE/stm32f10x_rcc.o (symbol from plugin)
RCC_PLLConfig                                     obj/main/NAZE/stm32f10x_rcc.o (symbol from plugin)
RCC_RTCCLKCmd                                     obj/main/NAZE/stm32f10x_rcc.o (symbol from plugin)
RCC_RTCCLKConfig                                  obj/main/NAZE/stm32f10x_rcc.o (symbol from plugin)
RCC_SYSCLKConfig                                  obj/main/NAZE/stm32f10x_rcc.o (symbol from plugin)
RCC_USBCLKConfig                                  obj/main/NAZE/stm32f10x_rcc.o (symbol from plugin)
RCC_WaitForHSEStartUp                             obj/main/NAZE/stm32f10x_rcc.o (symbol from plugin)
RTCAlarm_IRQHandler                               obj/main/NAZE/startup_stm32f10x_md_gcc.o
RTC_ClearFlag                                     obj/main/NAZE/stm32f10x_rtc.o (symbol from plugin)
RTC_ClearITPendingBit                             obj/main/NAZE/stm32f10x_rtc.o (symbol from plugin)
RTC_EnterConfigMode                               obj/main/NAZE/stm32f10x_rtc.o (symbol from plugin)
RTC_ExitConfigMode                                obj/main/NAZE/stm32f10x_rtc.o (symbol from plugin)
RTC_GetCounter                                    obj/main/NAZE/stm32f10x_rtc.o (symbol from plugin)
RTC_GetDivider                                    obj/main/NAZE/stm32f10x_rtc.o (symbol from plugin)
RTC_GetFlagStatus                                 obj/main/NAZE/stm32f10x_rtc.o (symbol from plugin)
RTC_GetITStatus                                   obj/main/NAZE/stm32f10x_rtc.o (symbol from plugin)
RTC_IRQHandler                                    obj/main/NAZE/startup_stm32f10x_md_gcc.o
RTC_ITConfig                                      obj/main/NAZE/stm32f10x_rtc.o (symbol from plugin)
RTC_SetAlarm                                      obj/main/NAZE/stm32f10x_rtc.o (symbol from plugin)
RTC_SetCounter                                    obj/main/NAZE/stm32f10x_rtc.o (symbol from plugin)
RTC_SetPrescaler                                  obj/main/NAZE/stm32f10x_rtc.o (symbol from plugin)
RTC_WaitForLastTask                               obj/main/NAZE/stm32f10x_rtc.o (symbol from plugin)
RTC_WaitForSynchro                                obj/main/NAZE/stm32f10x_rtc.o (symbol from plugin)
Reset_Handler                                     obj/main/NAZE/startup_stm32f10x_md_gcc.o
SDIO_CEATAITCmd                                   obj/main/NAZE/stm32f10x_sdio.o (symbol from plugin)
SDIO_ClearFlag                                    obj/main/NAZE/stm32f10x_sdio.o (symbol from plugin)
SDIO_ClearITPendingBit                            obj/main/NAZE/stm32f10x_sdio.o (symbol from plugin)
SDIO_ClockCmd                                     obj/main/NAZE/stm32f10x_sdio.o (symbol from plugin)
SDIO_CmdStructInit                                obj/main/NAZE/stm32f10x_sdio.o (symbol from plugin)
SDIO_CommandCompletionCmd                         obj/main/NAZE/stm32f10x_sdio.o (symbol from plugin)
SDIO_DMACmd                                       obj/main/NAZE/stm32f10x_sdio.o (symbol from plugin)
SDIO_DataConfig                                   obj/main/NAZE/stm32f10x_sdio.o (symbol from plugin)
SDIO_DataStructInit                               obj/main/NAZE/stm32f10x_sdio.o (symbol from plugin)
SDIO_DeInit                                       obj/main/NAZE/stm32f10x_sdio.o (symbol from plugin)
SDIO_GetCommandResponse                           obj/main/NAZE/stm32f10x_sdio.o (symbol from plugin)
SDIO_GetDataCounter                               obj/main/NAZE/stm32f10x_sdio.o (symbol from plugin)
SDIO_GetFIFOCount                                 obj/main/NAZE/stm32f10x_sdio.o (symbol from plugin)
SDIO_GetFlagStatus                                obj/main/NAZE/stm32f10x_sdio.o (symbol from plugin)
SDIO_GetITStatus                                  obj/main/NAZE/stm32f10x_sdio.o (symbol from plugin)
SDIO_GetPowerState                                obj/main/NAZE/stm32f10x_sdio.o (symbol from plugin)
SDIO_GetResponse                                  obj/main/NAZE/stm32f10x_sdio.o (symbol from plugin)
SDIO_ITConfig                                     obj/main/NAZE/stm32f10x_sdio.o (symbol from plugin)
SDIO_Init                                         obj/main/NAZE/stm32f10x_sdio.o (symbol from plugin)
SDIO_ReadData                                     obj/main/NAZE/stm32f10x_sdio.o (symbol from plugin)
SDIO_SendCEATACmd                                 obj/main/NAZE/stm32f10x_sdio.o (symbol from plugin)
SDIO_SendCommand                                  obj/main/NAZE/stm32f10x_sdio.o (symbol from plugin)
SDIO_SendSDIOSuspendCmd                           obj/main/NAZE/stm32f10x_sdio.o (symbol from plugin)
SDIO_SetPowerState                                obj/main/NAZE/stm32f10x_sdio.o (symbol from plugin)
SDIO_SetSDIOOperation                             obj/main/NAZE/stm32f10x_sdio.o (symbol from plugin)
SDIO_SetSDIOReadWaitMode                          obj/main/NAZE/stm32f10x_sdio.o (symbol from plugin)
SDIO_StartSDIOReadWait                            obj/main/NAZE/stm32f10x_sdio.o (symbol from plugin)
SDIO_StopSDIOReadWait                             obj/main/NAZE/stm32f10x_sdio.o (symbol from plugin)
SDIO_StructInit                                   obj/main/NAZE/stm32f10x_sdio.o (symbol from plugin)
SDIO_WriteData                                    obj/main/NAZE/stm32f10x_sdio.o (symbol from plugin)
SPI1_IRQHandler                                   obj/main/NAZE/startup_stm32f10x_md_gcc.o
SPI2_IRQHandler                                   obj/main/NAZE/startup_stm32f10x_md_gcc.o
SPI_BiDirectionalLineConfig                       obj/main/NAZE/stm32f10x_spi.o (symbol from plugin)
SPI_CalculateCRC                                  obj/main/NAZE/stm32f10x_spi.o (symbol from plugin)
SPI_Cmd                                           obj/main/NAZE/stm32f10x_spi.o (symbol from plugin)
                                                  obj/main/NAZE/drivers/bus_spi.o (symbol from plugin)
SPI_DataSizeConfig                                obj/main/NAZE/stm32f10x_spi.o (symbol from plugin)
SPI_GetCRC                                        obj/main/NAZE/stm32f10x_spi.o (symbol from plugin)
SPI_GetCRCPolynomial                              obj/main/NAZE/stm32f10x_spi.o (symbol from plugin)
SPI_I2S_ClearFlag                                 obj/main/NAZE/stm32f10x_spi.o (symbol from plugin)
SPI_I2S_ClearITPendingBit                         obj/main/NAZE/stm32f10x_spi.o (symbol from plugin)
SPI_I2S_DMACmd                                    obj/main/NAZE/stm32f10x_spi.o (symbol from plugin)
SPI_I2S_DeInit                                    obj/main/NAZE/stm32f10x_spi.o (symbol from plugin)
                                                  obj/main/NAZE/drivers/bus_spi.o (symbol from plugin)
SPI_I2S_GetFlagStatus                             obj/main/NAZE/stm32f10x_spi.o (symbol from plugin)
                                                  obj/main/NAZE/drivers/bus_spi.o (symbol from plugin)
SPI_I2S_GetITStatus                               obj/main/NAZE/stm32f10x_spi.o (symbol from plugin)
SPI_I2S_ITConfig                                  obj/main/NAZE/stm32f10x_spi.o (symbol from plugin)
SPI_I2S_ReceiveData                               obj/main/NAZE/stm32f10x_spi.o (symbol from plugin)
                                                  obj/main/NAZE/drivers/bus_spi.o (symbol from plugin)
SPI_I2S_SendData                                  obj/main/NAZE/stm32f10x_spi.o (symbol from plugin)
                                                  obj/main/NAZE/drivers/bus_spi.o (symbol from plugin)
SPI_Init                                          obj/main/NAZE/stm32f10x_spi.o (symbol from plugin)
                                                  obj/main/NAZE/drivers/bus_spi.o (symbol from plugin)
SPI_NSSInternalSoftwareConfig                     obj/main/NAZE/stm32f10x_spi.o (symbol from plugin)
SPI_SSOutputCmd                                   obj/main/NAZE/stm32f10x_spi.o (symbol from plugin)
SPI_StructInit                                    obj/main/NAZE/stm32f10x_spi.o (symbol from plugin)
SPI_TransmitCRC                                   obj/main/NAZE/stm32f10x_spi.o (symbol from plugin)
SVC_Handler                                       obj/main/NAZE/startup_stm32f10x_md_gcc.o
SetSysClock                                       obj/main/NAZE/system_stm32f10x.o (symbol from plugin)
                                                  obj/main/NAZE/main.o (symbol from plugin)
StopPwmAllMotors                                  obj/main/NAZE/flight/mixer.o (symbol from plugin)
                                                  obj/main/NAZE/config/config.o (symbol from plugin)
SysTick_CLKSourceConfig                           obj/main/NAZE/misc.o (symbol from plugin)
SysTick_Handler                                   /tmp/cc8DLllS.ltrans16.ltrans.o
                                                  obj/main/NAZE/drivers/system.o (symbol from plugin)
                                                  obj/main/NAZE/startup_stm32f10x_md_gcc.o
SystemCoreClock                                   /tmp/cc8DLllS.ltrans9.ltrans.o
                                                  obj/main/NAZE/system_stm32f10x.o (symbol from plugin)
                                                  /tmp/cc8DLllS.ltrans17.ltrans.o
                                                  /tmp/cc8DLllS.ltrans7.ltrans.o
                                                  /tmp/cc8DLllS.ltrans0.ltrans.o
                                                  obj/main/NAZE/io/serial_cli.o (symbol from plugin)
                                                  obj/main/NAZE/drivers/system.o (symbol from plugin)
                                                  obj/main/NAZE/drivers/timer.o (symbol from plugin)
                                                  obj/main/NAZE/drivers/serial_softserial.o (symbol from plugin)
                                                  obj/main/NAZE/drivers/light_ws2811strip_stm32f10x.o (symbol from plugin)
SystemCoreClockUpdate                             obj/main/NAZE/system_stm32f10x.o (symbol from plugin)
SystemInit                                        /tmp/cc8DLllS.ltrans18.ltrans.o
                                                  obj/main/NAZE/system_stm32f10x.o (symbol from plugin)
                                                  obj/main/NAZE/startup_stm32f10x_md_gcc.o
TAMPER_IRQHandler                                 obj/main/NAZE/startup_stm32f10x_md_gcc.o
TIM1_BRK_IRQHandler                               obj/main/NAZE/startup_stm32f10x_md_gcc.o
TIM1_CC_IRQHandler                                /tmp/cc8DLllS.ltrans17.ltrans.o
                                                  obj/main/NAZE/drivers/timer.o (symbol from plugin)
                                                  obj/main/NAZE/startup_stm32f10x_md_gcc.o
TIM1_TRG_COM_IRQHandler                           obj/main/NAZE/startup_stm32f10x_md_gcc.o
TIM1_UP_IRQHandler                                /tmp/cc8DLllS.ltrans17.ltrans.o
                                                  obj/main/NAZE/drivers/timer.o (symbol from plugin)
                                                  obj/main/NAZE/startup_stm32f10x_md_gcc.o
TIM2_IRQHandler                                   /tmp/cc8DLllS.ltrans17.ltrans.o
                                                  obj/main/NAZE/drivers/timer.o (symbol from plugin)
                                                  obj/main/NAZE/startup_stm32f10x_md_gcc.o
TIM3_IRQHandler                                   /tmp/cc8DLllS.ltrans17.ltrans.o
                                                  obj/main/NAZE/drivers/timer.o (symbol from plugin)
                                                  obj/main/NAZE/startup_stm32f10x_md_gcc.o
TIM4_IRQHandler                                   /tmp/cc8DLllS.ltrans17.ltrans.o
                                                  obj/main/NAZE/drivers/timer.o (symbol from plugin)
                                                  obj/main/NAZE/startup_stm32f10x_md_gcc.o
TIM_ARRPreloadConfig                              obj/main/NAZE/stm32f10x_tim.o (symbol from plugin)
TIM_BDTRConfig                                    obj/main/NAZE/stm32f10x_tim.o (symbol from plugin)
TIM_BDTRStructInit                                obj/main/NAZE/stm32f10x_tim.o (symbol from plugin)
TIM_CCPreloadControl                              obj/main/NAZE/stm32f10x_tim.o (symbol from plugin)
TIM_CCxCmd                                        obj/main/NAZE/stm32f10x_tim.o (symbol from plugin)
TIM_CCxNCmd                                       obj/main/NAZE/stm32f10x_tim.o (symbol from plugin)
TIM_ClearFlag                                     obj/main/NAZE/stm32f10x_tim.o (symbol from plugin)
                                                  obj/main/NAZE/drivers/timer.o (symbol from plugin)
TIM_ClearITPendingBit                             obj/main/NAZE/stm32f10x_tim.o (symbol from plugin)
TIM_ClearOC1Ref                                   obj/main/NAZE/stm32f10x_tim.o (symbol from plugin)
TIM_ClearOC2Ref                                   obj/main/NAZE/stm32f10x_tim.o (symbol from plugin)
TIM_ClearOC3Ref                                   obj/main/NAZE/stm32f10x_tim.o (symbol from plugin)
TIM_ClearOC4Ref                                   obj/main/NAZE/stm32f10x_tim.o (symbol from plugin)
TIM_Cmd                                           obj/main/NAZE/stm32f10x_tim.o (symbol from plugin)
                                                  obj/main/NAZE/drivers/timer.o (symbol from plugin)
                                                  obj/main/NAZE/drivers/pwm_output.o (symbol from plugin)
                                                  obj/main/NAZE/drivers/light_ws2811strip_stm32f10x.o (symbol from plugin)
TIM_CounterModeConfig                             obj/main/NAZE/stm32f10x_tim.o (symbol from plugin)
TIM_CtrlPWMOutputs                                obj/main/NAZE/stm32f10x_tim.o (symbol from plugin)
                                                  obj/main/NAZE/drivers/pwm_output.o (symbol from plugin)
                                                  obj/main/NAZE/drivers/light_ws2811strip_stm32f10x.o (symbol from plugin)
TIM_DMACmd                                        obj/main/NAZE/stm32f10x_tim.o (symbol from plugin)
                                                  obj/main/NAZE/drivers/light_ws2811strip_stm32f10x.o (symbol from plugin)
TIM_DMAConfig                                     obj/main/NAZE/stm32f10x_tim.o (symbol from plugin)
TIM_DeInit                                        obj/main/NAZE/stm32f10x_tim.o (symbol from plugin)
TIM_ETRClockMode1Config                           obj/main/NAZE/stm32f10x_tim.o (symbol from plugin)
TIM_ETRClockMode2Config                           obj/main/NAZE/stm32f10x_tim.o (symbol from plugin)
TIM_ETRConfig                                     obj/main/NAZE/stm32f10x_tim.o (symbol from plugin)
TIM_EncoderInterfaceConfig                        obj/main/NAZE/stm32f10x_tim.o (symbol from plugin)
TIM_ForcedOC1Config                               obj/main/NAZE/stm32f10x_tim.o (symbol from plugin)
TIM_ForcedOC2Config                               obj/main/NAZE/stm32f10x_tim.o (symbol from plugin)
TIM_ForcedOC3Config                               obj/main/NAZE/stm32f10x_tim.o (symbol from plugin)
TIM_ForcedOC4Config                               obj/main/NAZE/stm32f10x_tim.o (symbol from plugin)
TIM_GenerateEvent                                 obj/main/NAZE/stm32f10x_tim.o (symbol from plugin)
TIM_GetCapture1                                   obj/main/NAZE/stm32f10x_tim.o (symbol from plugin)
TIM_GetCapture2                                   obj/main/NAZE/stm32f10x_tim.o (symbol from plugin)
TIM_GetCapture3                                   obj/main/NAZE/stm32f10x_tim.o (symbol from plugin)
TIM_GetCapture4                                   obj/main/NAZE/stm32f10x_tim.o (symbol from plugin)
TIM_GetCounter                                    obj/main/NAZE/stm32f10x_tim.o (symbol from plugin)
TIM_GetFlagStatus                                 obj/main/NAZE/stm32f10x_tim.o (symbol from plugin)
TIM_GetITStatus                                   obj/main/NAZE/stm32f10x_tim.o (symbol from plugin)
TIM_GetPrescaler                                  obj/main/NAZE/stm32f10x_tim.o (symbol from plugin)
TIM_ICInit                                        /tmp/cc8DLllS.ltrans18.ltrans.o
                                                  obj/main/NAZE/stm32f10x_tim.o (symbol from plugin)
                                                  /tmp/cc8DLllS.ltrans7.ltrans.o
                                                  obj/main/NAZE/drivers/timer.o (symbol from plugin)
                                                  obj/main/NAZE/drivers/serial_softserial.o (symbol from plugin)
                                                  obj/main/NAZE/drivers/pwm_rx.o (symbol from plugin)
TIM_ICStructInit                                  obj/main/NAZE/stm32f10x_tim.o (symbol from plugin)
                                                  obj/main/NAZE/drivers/timer.o (symbol from plugin)
                                                  obj/main/NAZE/drivers/serial_softserial.o (symbol from plugin)
                                                  obj/main/NAZE/drivers/pwm_rx.o (symbol from plugin)
TIM_ITConfig                                      obj/main/NAZE/stm32f10x_tim.o (symbol from plugin)
                                                  obj/main/NAZE/drivers/timer.o (symbol from plugin)
TIM_ITRxExternalClockConfig                       obj/main/NAZE/stm32f10x_tim.o (symbol from plugin)
TIM_InternalClockConfig                           obj/main/NAZE/stm32f10x_tim.o (symbol from plugin)
TIM_OC1FastConfig                                 obj/main/NAZE/stm32f10x_tim.o (symbol from plugin)
TIM_OC1Init                                       obj/main/NAZE/stm32f10x_tim.o (symbol from plugin)
                                                  obj/main/NAZE/drivers/timer.o (symbol from plugin)
                                                  obj/main/NAZE/drivers/pwm_output.o (symbol from plugin)
                                                  obj/main/NAZE/drivers/light_ws2811strip_stm32f10x.o (symbol from plugin)
TIM_OC1NPolarityConfig                            obj/main/NAZE/stm32f10x_tim.o (symbol from plugin)
TIM_OC1PolarityConfig                             obj/main/NAZE/stm32f10x_tim.o (symbol from plugin)
TIM_OC1PreloadConfig                              obj/main/NAZE/stm32f10x_tim.o (symbol from plugin)
                                                  obj/main/NAZE/drivers/timer.o (symbol from plugin)
                                                  obj/main/NAZE/drivers/pwm_output.o (symbol from plugin)
                                                  obj/main/NAZE/drivers/light_ws2811strip_stm32f10x.o (symbol from plugin)
TIM_OC2FastConfig                                 obj/main/NAZE/stm32f10x_tim.o (symbol from plugin)
TIM_OC2Init                                       obj/main/NAZE/stm32f10x_tim.o (symbol from plugin)
                                                  obj/main/NAZE/drivers/timer.o (symbol from plugin)
                                                  obj/main/NAZE/drivers/pwm_output.o (symbol from plugin)
TIM_OC2NPolarityConfig                            obj/main/NAZE/stm32f10x_tim.o (symbol from plugin)
TIM_OC2PolarityConfig                             obj/main/NAZE/stm32f10x_tim.o (symbol from plugin)
TIM_OC2PreloadConfig                              obj/main/NAZE/stm32f10x_tim.o (symbol from plugin)
                                                  obj/main/NAZE/drivers/timer.o (symbol from plugin)
                                                  obj/main/NAZE/drivers/pwm_output.o (symbol from plugin)
TIM_OC3FastConfig                                 obj/main/NAZE/stm32f10x_tim.o (symbol from plugin)
TIM_OC3Init                                       obj/main/NAZE/stm32f10x_tim.o (symbol from plugin)
                                                  obj/main/NAZE/drivers/timer.o (symbol from plugin)
                                                  obj/main/NAZE/drivers/pwm_output.o (symbol from plugin)
TIM_OC3NPolarityConfig                            obj/main/NAZE/stm32f10x_tim.o (symbol from plugin)
TIM_OC3PolarityConfig                             obj/main/NAZE/stm32f10x_tim.o (symbol from plugin)
TIM_OC3PreloadConfig                              obj/main/NAZE/stm32f10x_tim.o (symbol from plugin)
                                                  obj/main/NAZE/drivers/timer.o (symbol from plugin)
                                                  obj/main/NAZE/drivers/pwm_output.o (symbol from plugin)
TIM_OC4FastConfig                                 obj/main/NAZE/stm32f10x_tim.o (symbol from plugin)
TIM_OC4Init                                       obj/main/NAZE/stm32f10x_tim.o (symbol from plugin)
                                                  obj/main/NAZE/drivers/timer.o (symbol from plugin)
                                                  obj/main/NAZE/drivers/pwm_output.o (symbol from plugin)
TIM_OC4PolarityConfig                             obj/main/NAZE/stm32f10x_tim.o (symbol from plugin)
TIM_OC4PreloadConfig                              obj/main/NAZE/stm32f10x_tim.o (symbol from plugin)
                                                  obj/main/NAZE/drivers/timer.o (symbol from plugin)
                                                  obj/main/NAZE/drivers/pwm_output.o (symbol from plugin)
TIM_OCStructInit                                  obj/main/NAZE/stm32f10x_tim.o (symbol from plugin)
                                                  obj/main/NAZE/drivers/timer.o (symbol from plugin)
                                                  obj/main/NAZE/drivers/pwm_output.o (symbol from plugin)
                                                  obj/main/NAZE/drivers/light_ws2811strip_stm32f10x.o (symbol from plugin)
TIM_PWMIConfig                                    obj/main/NAZE/stm32f10x_tim.o (symbol from plugin)
TIM_PrescalerConfig                               obj/main/NAZE/stm32f10x_tim.o (symbol from plugin)
TIM_SelectCCDMA                                   obj/main/NAZE/stm32f10x_tim.o (symbol from plugin)
TIM_SelectCOM                                     obj/main/NAZE/stm32f10x_tim.o (symbol from plugin)
TIM_SelectHallSensor                              obj/main/NAZE/stm32f10x_tim.o (symbol from plugin)
TIM_SelectInputTrigger                            obj/main/NAZE/stm32f10x_tim.o (symbol from plugin)
TIM_SelectMasterSlaveMode                         obj/main/NAZE/stm32f10x_tim.o (symbol from plugin)
TIM_SelectOCxM                                    obj/main/NAZE/stm32f10x_tim.o (symbol from plugin)
TIM_SelectOCxM_NoDisable                          obj/main/NAZE/drivers/timer_stm32f10x.o (symbol from plugin)
TIM_SelectOnePulseMode                            obj/main/NAZE/stm32f10x_tim.o (symbol from plugin)
TIM_SelectOutputTrigger                           obj/main/NAZE/stm32f10x_tim.o (symbol from plugin)
TIM_SelectSlaveMode                               obj/main/NAZE/stm32f10x_tim.o (symbol from plugin)
TIM_SetAutoreload                                 obj/main/NAZE/stm32f10x_tim.o (symbol from plugin)
TIM_SetClockDivision                              obj/main/NAZE/stm32f10x_tim.o (symbol from plugin)
TIM_SetCompare1                                   obj/main/NAZE/stm32f10x_tim.o (symbol from plugin)
TIM_SetCompare2                                   obj/main/NAZE/stm32f10x_tim.o (symbol from plugin)
TIM_SetCompare3                                   obj/main/NAZE/stm32f10x_tim.o (symbol from plugin)
TIM_SetCompare4                                   obj/main/NAZE/stm32f10x_tim.o (symbol from plugin)
TIM_SetCounter                                    obj/main/NAZE/stm32f10x_tim.o (symbol from plugin)
                                                  obj/main/NAZE/drivers/serial_softserial.o (symbol from plugin)
                                                  obj/main/NAZE/drivers/light_ws2811strip_stm32f10x.o (symbol from plugin)
TIM_SetIC1Prescaler                               obj/main/NAZE/stm32f10x_tim.o (symbol from plugin)
TIM_SetIC2Prescaler                               obj/main/NAZE/stm32f10x_tim.o (symbol from plugin)
TIM_SetIC3Prescaler                               obj/main/NAZE/stm32f10x_tim.o (symbol from plugin)
TIM_SetIC4Prescaler                               obj/main/NAZE/stm32f10x_tim.o (symbol from plugin)
TIM_TIxExternalClockConfig                        obj/main/NAZE/stm32f10x_tim.o (symbol from plugin)
TIM_TimeBaseInit                                  obj/main/NAZE/stm32f10x_tim.o (symbol from plugin)
                                                  obj/main/NAZE/drivers/timer.o (symbol from plugin)
                                                  obj/main/NAZE/drivers/light_ws2811strip_stm32f10x.o (symbol from plugin)
TIM_TimeBaseStructInit                            obj/main/NAZE/stm32f10x_tim.o (symbol from plugin)
                                                  obj/main/NAZE/drivers/timer.o (symbol from plugin)
                                                  obj/main/NAZE/drivers/light_ws2811strip_stm32f10x.o (symbol from plugin)
TIM_UpdateDisableConfig                           obj/main/NAZE/stm32f10x_tim.o (symbol from plugin)
TIM_UpdateRequestConfig                           obj/main/NAZE/stm32f10x_tim.o (symbol from plugin)
USART1_IRQHandler                                 /tmp/cc8DLllS.ltrans17.ltrans.o
                                                  obj/main/NAZE/drivers/serial_uart_stm32f10x.o (symbol from plugin)
                                                  obj/main/NAZE/startup_stm32f10x_md_gcc.o
USART2_IRQHandler                                 /tmp/cc8DLllS.ltrans17.ltrans.o
                                                  obj/main/NAZE/drivers/serial_uart_stm32f10x.o (symbol from plugin)
                                                  obj/main/NAZE/startup_stm32f10x_md_gcc.o
USART3_IRQHandler                                 /tmp/cc8DLllS.ltrans17.ltrans.o
                                                  obj/main/NAZE/drivers/serial_uart_stm32f10x.o (symbol from plugin)
                                                  obj/main/NAZE/startup_stm32f10x_md_gcc.o
USART_ClearFlag                                   obj/main/NAZE/stm32f10x_usart.o (symbol from plugin)
USART_ClearITPendingBit                           obj/main/NAZE/stm32f10x_usart.o (symbol from plugin)
                                                  obj/main/NAZE/drivers/serial_uart.o (symbol from plugin)
USART_ClockInit                                   obj/main/NAZE/stm32f10x_usart.o (symbol from plugin)
USART_ClockStructInit                             obj/main/NAZE/stm32f10x_usart.o (symbol from plugin)
USART_Cmd                                         obj/main/NAZE/stm32f10x_usart.o (symbol from plugin)
                                                  obj/main/NAZE/drivers/serial_uart.o (symbol from plugin)
USART_DMACmd                                      obj/main/NAZE/stm32f10x_usart.o (symbol from plugin)
                                                  obj/main/NAZE/drivers/serial_uart.o (symbol from plugin)
USART_DeInit                                      obj/main/NAZE/stm32f10x_usart.o (symbol from plugin)
USART_GetFlagStatus                               obj/main/NAZE/stm32f10x_usart.o (symbol from plugin)
USART_GetITStatus                                 obj/main/NAZE/stm32f10x_usart.o (symbol from plugin)
USART_HalfDuplexCmd                               obj/main/NAZE/stm32f10x_usart.o (symbol from plugin)
                                                  obj/main/NAZE/drivers/serial_uart.o (symbol from plugin)
USART_ITConfig                                    obj/main/NAZE/stm32f10x_usart.o (symbol from plugin)
                                                  obj/main/NAZE/drivers/serial_uart_stm32f10x.o (symbol from plugin)
                                                  obj/main/NAZE/drivers/serial_uart.o (symbol from plugin)
USART_Init                                        obj/main/NAZE/stm32f10x_usart.o (symbol from plugin)
                                                  obj/main/NAZE/drivers/serial_uart.o (symbol from plugin)
USART_IrDACmd                                     obj/main/NAZE/stm32f10x_usart.o (symbol from plugin)
USART_IrDAConfig                                  obj/main/NAZE/stm32f10x_usart.o (symbol from plugin)
USART_LINBreakDetectLengthConfig                  obj/main/NAZE/stm32f10x_usart.o (symbol from plugin)
USART_LINCmd                                      obj/main/NAZE/stm32f10x_usart.o (symbol from plugin)
USART_OneBitMethodCmd                             obj/main/NAZE/stm32f10x_usart.o (symbol from plugin)
USART_OverSampling8Cmd                            obj/main/NAZE/stm32f10x_usart.o (symbol from plugin)
USART_ReceiveData                                 obj/main/NAZE/stm32f10x_usart.o (symbol from plugin)
USART_ReceiverWakeUpCmd                           obj/main/NAZE/stm32f10x_usart.o (symbol from plugin)
USART_SendBreak                                   obj/main/NAZE/stm32f10x_usart.o (symbol from plugin)
USART_SendData                                    obj/main/NAZE/stm32f10x_usart.o (symbol from plugin)
USART_SetAddress                                  obj/main/NAZE/stm32f10x_usart.o (symbol from plugin)
USART_SetGuardTime                                obj/main/NAZE/stm32f10x_usart.o (symbol from plugin)
USART_SetPrescaler                                obj/main/NAZE/stm32f10x_usart.o (symbol from plugin)
USART_SmartCardCmd                                obj/main/NAZE/stm32f10x_usart.o (symbol from plugin)
USART_SmartCardNACKCmd                            obj/main/NAZE/stm32f10x_usart.o (symbol from plugin)
USART_StructInit                                  obj/main/NAZE/stm32f10x_usart.o (symbol from plugin)
USART_WakeUpConfig                                obj/main/NAZE/stm32f10x_usart.o (symbol from plugin)
USBWakeUp_IRQHandler                              obj/main/NAZE/startup_stm32f10x_md_gcc.o
USB_HP_CAN1_TX_IRQHandler                         obj/main/NAZE/startup_stm32f10x_md_gcc.o
USB_LP_CAN1_RX0_IRQHandler                        obj/main/NAZE/startup_stm32f10x_md_gcc.o
UsageFault_Handler                                obj/main/NAZE/startup_stm32f10x_md_gcc.o
WWDG_ClearFlag                                    obj/main/NAZE/stm32f10x_wwdg.o (symbol from plugin)
WWDG_DeInit                                       obj/main/NAZE/stm32f10x_wwdg.o (symbol from plugin)
WWDG_Enable                                       obj/main/NAZE/stm32f10x_wwdg.o (symbol from plugin)
WWDG_EnableIT                                     obj/main/NAZE/stm32f10x_wwdg.o (symbol from plugin)
WWDG_GetFlagStatus                                obj/main/NAZE/stm32f10x_wwdg.o (symbol from plugin)
WWDG_IRQHandler                                   obj/main/NAZE/startup_stm32f10x_md_gcc.o
WWDG_SetCounter                                   obj/main/NAZE/stm32f10x_wwdg.o (symbol from plugin)
WWDG_SetPrescaler                                 obj/main/NAZE/stm32f10x_wwdg.o (symbol from plugin)
WWDG_SetWindowValue                               obj/main/NAZE/stm32f10x_wwdg.o (symbol from plugin)
__LDREXB                                          obj/main/NAZE/core_cm3.o (symbol from plugin)
__LDREXH                                          obj/main/NAZE/core_cm3.o (symbol from plugin)
__LDREXW                                          obj/main/NAZE/core_cm3.o (symbol from plugin)
__RBIT                                            obj/main/NAZE/core_cm3.o (symbol from plugin)
__REV                                             obj/main/NAZE/core_cm3.o (symbol from plugin)
__REV16                                           obj/main/NAZE/core_cm3.o (symbol from plugin)
__REVSH                                           obj/main/NAZE/core_cm3.o (symbol from plugin)
__STREXB                                          obj/main/NAZE/core_cm3.o (symbol from plugin)
__STREXH                                          obj/main/NAZE/core_cm3.o (symbol from plugin)
__STREXW                                          obj/main/NAZE/core_cm3.o (symbol from plugin)
__adddf3                                          /usr/lib/gcc/arm-none-eabi/4.9.3/armv7-m/libgcc.a(_arm_addsubdf3.o)
__addsf3                                          /usr/lib/gcc/arm-none-eabi/4.9.3/armv7-m/libgcc.a(_arm_addsubsf3.o)
__aeabi_cdcmpeq                                   /usr/lib/gcc/arm-none-eabi/4.9.3/armv7-m/libgcc.a(_arm_cmpdf2.o)
__aeabi_cdcmple                                   /usr/lib/gcc/arm-none-eabi/4.9.3/armv7-m/libgcc.a(_arm_cmpdf2.o)
__aeabi_cdrcmple                                  /usr/lib/gcc/arm-none-eabi/4.9.3/armv7-m/libgcc.a(_arm_cmpdf2.o)
__aeabi_cfcmpeq                                   /usr/lib/gcc/arm-none-eabi/4.9.3/armv7-m/libgcc.a(_arm_cmpsf2.o)
__aeabi_cfcmple                                   /usr/lib/gcc/arm-none-eabi/4.9.3/armv7-m/libgcc.a(_arm_cmpsf2.o)
__aeabi_cfrcmple                                  /usr/lib/gcc/arm-none-eabi/4.9.3/armv7-m/libgcc.a(_arm_cmpsf2.o)
__aeabi_d2f                                       /usr/lib/gcc/arm-none-eabi/4.9.3/armv7-m/libgcc.a(_arm_truncdfsf2.o)
                                                  /usr/lib/gcc/arm-none-eabi/4.9.3/../../../arm-none-eabi/lib/armv7-m/libm.a(lib_a-wf_sqrt.o)
                                                  /usr/lib/gcc/arm-none-eabi/4.9.3/../../../arm-none-eabi/lib/armv7-m/libm.a(lib_a-wf_pow.o)
                                                  /tmp/cc8DLllS.ltrans30.ltrans.o
__aeabi_d2uiz                                     /usr/lib/gcc/arm-none-eabi/4.9.3/armv7-m/libgcc.a(_arm_fixunsdfsi.o)
                                                  /tmp/cc8DLllS.ltrans24.ltrans.o
__aeabi_dadd                                      /usr/lib/gcc/arm-none-eabi/4.9.3/armv7-m/libgcc.a(_arm_addsubdf3.o)
                                                  /usr/lib/gcc/arm-none-eabi/4.9.3/../../../arm-none-eabi/lib/armv7-m/libm.a(lib_a-s_rint.o)
__aeabi_dcmpeq                                    /usr/lib/gcc/arm-none-eabi/4.9.3/armv7-m/libgcc.a(_arm_cmpdf2.o)
                                                  /usr/lib/gcc/arm-none-eabi/4.9.3/../../../arm-none-eabi/lib/armv7-m/libm.a(lib_a-wf_pow.o)
__aeabi_dcmpge                                    /usr/lib/gcc/arm-none-eabi/4.9.3/armv7-m/libgcc.a(_arm_cmpdf2.o)
__aeabi_dcmpgt                                    /usr/lib/gcc/arm-none-eabi/4.9.3/armv7-m/libgcc.a(_arm_cmpdf2.o)
__aeabi_dcmple                                    /usr/lib/gcc/arm-none-eabi/4.9.3/armv7-m/libgcc.a(_arm_cmpdf2.o)
__aeabi_dcmplt                                    /usr/lib/gcc/arm-none-eabi/4.9.3/armv7-m/libgcc.a(_arm_cmpdf2.o)
                                                  /tmp/cc8DLllS.ltrans24.ltrans.o
__aeabi_ddiv                                      /usr/lib/gcc/arm-none-eabi/4.9.3/armv7-m/libgcc.a(_arm_muldivdf3.o)
                                                  /usr/lib/gcc/arm-none-eabi/4.9.3/../../../arm-none-eabi/lib/armv7-m/libm.a(lib_a-wf_sqrt.o)
                                                  /usr/lib/gcc/arm-none-eabi/4.9.3/../../../arm-none-eabi/lib/armv7-m/libm.a(lib_a-wf_pow.o)
__aeabi_dmul                                      /usr/lib/gcc/arm-none-eabi/4.9.3/armv7-m/libgcc.a(_arm_muldivdf3.o)
                                                  /tmp/cc8DLllS.ltrans30.ltrans.o
                                                  /tmp/cc8DLllS.ltrans24.ltrans.o
__aeabi_drsub                                     /usr/lib/gcc/arm-none-eabi/4.9.3/armv7-m/libgcc.a(_arm_addsubdf3.o)
__aeabi_dsub                                      /usr/lib/gcc/arm-none-eabi/4.9.3/armv7-m/libgcc.a(_arm_addsubdf3.o)
                                                  /usr/lib/gcc/arm-none-eabi/4.9.3/../../../arm-none-eabi/lib/armv7-m/libm.a(lib_a-s_rint.o)
                                                  /tmp/cc8DLllS.ltrans24.ltrans.o
__aeabi_f2d                                       /usr/lib/gcc/arm-none-eabi/4.9.3/armv7-m/libgcc.a(_arm_addsubdf3.o)
                                                  /usr/lib/gcc/arm-none-eabi/4.9.3/../../../arm-none-eabi/lib/armv7-m/libm.a(lib_a-wf_sqrt.o)
                                                  /usr/lib/gcc/arm-none-eabi/4.9.3/../../../arm-none-eabi/lib/armv7-m/libm.a(lib_a-wf_pow.o)
__aeabi_f2iz                                      /usr/lib/gcc/arm-none-eabi/4.9.3/armv7-m/libgcc.a(_arm_fixsfsi.o)
                                                  /usr/lib/gcc/arm-none-eabi/4.9.3/../../../arm-none-eabi/lib/armv7-m/libm.a(lib_a-sf_lrint.o)
                                                  /tmp/cc8DLllS.ltrans23.ltrans.o
                                                  /tmp/cc8DLllS.ltrans22.ltrans.o
                                                  /tmp/cc8DLllS.ltrans19.ltrans.o
                                                  /tmp/cc8DLllS.ltrans18.ltrans.o
                                                  /tmp/cc8DLllS.ltrans17.ltrans.o
                                                  /tmp/cc8DLllS.ltrans13.ltrans.o
                                                  /tmp/cc8DLllS.ltrans6.ltrans.o
                                                  /tmp/cc8DLllS.ltrans5.ltrans.o
                                                  /tmp/cc8DLllS.ltrans1.ltrans.o
__aeabi_f2uiz                                     /usr/lib/gcc/arm-none-eabi/4.9.3/armv7-m/libgcc.a(_arm_fixunssfsi.o)
                                                  /tmp/cc8DLllS.ltrans18.ltrans.o
                                                  /tmp/cc8DLllS.ltrans13.ltrans.o
                                                  /tmp/cc8DLllS.ltrans9.ltrans.o
                                                  /tmp/cc8DLllS.ltrans3.ltrans.o
                                                  /tmp/cc8DLllS.ltrans1.ltrans.o
__aeabi_fadd                                      /usr/lib/gcc/arm-none-eabi/4.9.3/armv7-m/libgcc.a(_arm_addsubsf3.o)
                                                  /usr/lib/gcc/arm-none-eabi/4.9.3/../../../arm-none-eabi/lib/armv7-m/libm.a(lib_a-sf_scalbn.o)
                                                  /usr/lib/gcc/arm-none-eabi/4.9.3/../../../arm-none-eabi/lib/armv7-m/libm.a(lib_a-ef_sqrt.o)
                                                  /usr/lib/gcc/arm-none-eabi/4.9.3/../../../arm-none-eabi/lib/armv7-m/libm.a(lib_a-ef_pow.o)
                                                  /usr/lib/gcc/arm-none-eabi/4.9.3/../../../arm-none-eabi/lib/armv7-m/libm.a(lib_a-sf_lrint.o)
                                                  /tmp/cc8DLllS.ltrans30.ltrans.o
                                                  /tmp/cc8DLllS.ltrans23.ltrans.o
                                                  /tmp/cc8DLllS.ltrans19.ltrans.o
                                                  /tmp/cc8DLllS.ltrans18.ltrans.o
                                                  /tmp/cc8DLllS.ltrans16.ltrans.o
                                                  /tmp/cc8DLllS.ltrans13.ltrans.o
                                                  /tmp/cc8DLllS.ltrans9.ltrans.o
                                                  /tmp/cc8DLllS.ltrans6.ltrans.o
                                                  /tmp/cc8DLllS.ltrans5.ltrans.o
                                                  /tmp/cc8DLllS.ltrans1.ltrans.o
                                                  /tmp/cc8DLllS.ltrans0.ltrans.o
__aeabi_fcmpeq                                    /usr/lib/gcc/arm-none-eabi/4.9.3/armv7-m/libgcc.a(_arm_cmpsf2.o)
                                                  /usr/lib/gcc/arm-none-eabi/4.9.3/../../../arm-none-eabi/lib/armv7-m/libm.a(lib_a-wf_pow.o)
                                                  /tmp/cc8DLllS.ltrans30.ltrans.o
                                                  /tmp/cc8DLllS.ltrans23.ltrans.o
                                                  /tmp/cc8DLllS.ltrans14.ltrans.o
                                                  /tmp/cc8DLllS.ltrans12.ltrans.o
                                                  /tmp/cc8DLllS.ltrans10.ltrans.o
                                                  /tmp/cc8DLllS.ltrans6.ltrans.o
                                                  /tmp/cc8DLllS.ltrans1.ltrans.o
                                                  /tmp/cc8DLllS.ltrans0.ltrans.o
__aeabi_fcmpge                                    /usr/lib/gcc/arm-none-eabi/4.9.3/armv7-m/libgcc.a(_arm_cmpsf2.o)
                                                  /tmp/cc8DLllS.ltrans9.ltrans.o
__aeabi_fcmpgt                                    /usr/lib/gcc/arm-none-eabi/4.9.3/armv7-m/libgcc.a(_arm_cmpsf2.o)
                                                  /usr/lib/gcc/arm-none-eabi/4.9.3/../../../arm-none-eabi/lib/armv7-m/libm.a(lib_a-ef_pow.o)
                                                  /tmp/cc8DLllS.ltrans30.ltrans.o
                                                  /tmp/cc8DLllS.ltrans23.ltrans.o
                                                  /tmp/cc8DLllS.ltrans18.ltrans.o
                                                  /tmp/cc8DLllS.ltrans17.ltrans.o
                                                  /tmp/cc8DLllS.ltrans6.ltrans.o
                                                  /tmp/cc8DLllS.ltrans1.ltrans.o
__aeabi_fcmple                                    /usr/lib/gcc/arm-none-eabi/4.9.3/armv7-m/libgcc.a(_arm_cmpsf2.o)
                                                  /usr/lib/gcc/arm-none-eabi/4.9.3/../../../arm-none-eabi/lib/armv7-m/libm.a(lib_a-ef_pow.o)
                                                  /tmp/cc8DLllS.ltrans19.ltrans.o
                                                  /tmp/cc8DLllS.ltrans9.ltrans.o
                                                  /tmp/cc8DLllS.ltrans1.ltrans.o
__aeabi_fcmplt                                    /usr/lib/gcc/arm-none-eabi/4.9.3/armv7-m/libgcc.a(_arm_cmpsf2.o)
                                                  /usr/lib/gcc/arm-none-eabi/4.9.3/../../../arm-none-eabi/lib/armv7-m/libm.a(lib_a-wf_sqrt.o)
                                                  /usr/lib/gcc/arm-none-eabi/4.9.3/../../../arm-none-eabi/lib/armv7-m/libm.a(lib_a-wf_pow.o)
                                                  /tmp/cc8DLllS.ltrans30.ltrans.o
                                                  /tmp/cc8DLllS.ltrans23.ltrans.o
                                                  /tmp/cc8DLllS.ltrans18.ltrans.o
                                                  /tmp/cc8DLllS.ltrans14.ltrans.o
                                                  /tmp/cc8DLllS.ltrans13.ltrans.o
                                                  /tmp/cc8DLllS.ltrans6.ltrans.o
                                                  /tmp/cc8DLllS.ltrans5.ltrans.o
                                                  /tmp/cc8DLllS.ltrans1.ltrans.o
__aeabi_fdiv                                      /usr/lib/gcc/arm-none-eabi/4.9.3/armv7-m/libgcc.a(_arm_muldivsf3.o)
                                                  /usr/lib/gcc/arm-none-eabi/4.9.3/../../../arm-none-eabi/lib/armv7-m/libm.a(lib_a-ef_sqrt.o)
                                                  /usr/lib/gcc/arm-none-eabi/4.9.3/../../../arm-none-eabi/lib/armv7-m/libm.a(lib_a-ef_pow.o)
                                                  /tmp/cc8DLllS.ltrans30.ltrans.o
                                                  /tmp/cc8DLllS.ltrans23.ltrans.o
                                                  /tmp/cc8DLllS.ltrans22.ltrans.o
                                                  /tmp/cc8DLllS.ltrans19.ltrans.o
                                                  /tmp/cc8DLllS.ltrans18.ltrans.o
                                                  /tmp/cc8DLllS.ltrans17.ltrans.o
                                                  /tmp/cc8DLllS.ltrans13.ltrans.o
                                                  /tmp/cc8DLllS.ltrans6.ltrans.o
                                                  /tmp/cc8DLllS.ltrans5.ltrans.o
                                                  /tmp/cc8DLllS.ltrans3.ltrans.o
                                                  /tmp/cc8DLllS.ltrans2.ltrans.o
                                                  /tmp/cc8DLllS.ltrans1.ltrans.o
                                                  /tmp/cc8DLllS.ltrans0.ltrans.o
__aeabi_fmul                                      /usr/lib/gcc/arm-none-eabi/4.9.3/armv7-m/libgcc.a(_arm_muldivsf3.o)
                                                  /usr/lib/gcc/arm-none-eabi/4.9.3/../../../arm-none-eabi/lib/armv7-m/libm.a(lib_a-sf_scalbn.o)
                                                  /usr/lib/gcc/arm-none-eabi/4.9.3/../../../arm-none-eabi/lib/armv7-m/libm.a(lib_a-ef_sqrt.o)
                                                  /usr/lib/gcc/arm-none-eabi/4.9.3/../../../arm-none-eabi/lib/armv7-m/libm.a(lib_a-ef_pow.o)
                                                  /usr/lib/gcc/arm-none-eabi/4.9.3/../../../arm-none-eabi/lib/armv7-m/libm.a(lib_a-wf_pow.o)
                                                  /tmp/cc8DLllS.ltrans23.ltrans.o
                                                  /tmp/cc8DLllS.ltrans22.ltrans.o
                                                  /tmp/cc8DLllS.ltrans19.ltrans.o
                                                  /tmp/cc8DLllS.ltrans18.ltrans.o
                                                  /tmp/cc8DLllS.ltrans17.ltrans.o
                                                  /tmp/cc8DLllS.ltrans16.ltrans.o
                                                  /tmp/cc8DLllS.ltrans13.ltrans.o
                                                  /tmp/cc8DLllS.ltrans9.ltrans.o
                                                  /tmp/cc8DLllS.ltrans6.ltrans.o
                                                  /tmp/cc8DLllS.ltrans5.ltrans.o
                                                  /tmp/cc8DLllS.ltrans3.ltrans.o
                                                  /tmp/cc8DLllS.ltrans2.ltrans.o
                                                  /tmp/cc8DLllS.ltrans1.ltrans.o
                                                  /tmp/cc8DLllS.ltrans0.ltrans.o
__aeabi_frsub                                     /usr/lib/gcc/arm-none-eabi/4.9.3/armv7-m/libgcc.a(_arm_addsubsf3.o)
__aeabi_fsub                                      /usr/lib/gcc/arm-none-eabi/4.9.3/armv7-m/libgcc.a(_arm_addsubsf3.o)
                                                  /usr/lib/gcc/arm-none-eabi/4.9.3/../../../arm-none-eabi/lib/armv7-m/libm.a(lib_a-ef_sqrt.o)
                                                  /usr/lib/gcc/arm-none-eabi/4.9.3/../../../arm-none-eabi/lib/armv7-m/libm.a(lib_a-ef_pow.o)
                                                  /usr/lib/gcc/arm-none-eabi/4.9.3/../../../arm-none-eabi/lib/armv7-m/libm.a(lib_a-sf_lrint.o)
                                                  /tmp/cc8DLllS.ltrans23.ltrans.o
                                                  /tmp/cc8DLllS.ltrans19.ltrans.o
                                                  /tmp/cc8DLllS.ltrans16.ltrans.o
                                                  /tmp/cc8DLllS.ltrans13.ltrans.o
                                                  /tmp/cc8DLllS.ltrans6.ltrans.o
                                                  /tmp/cc8DLllS.ltrans3.ltrans.o
                                                  /tmp/cc8DLllS.ltrans1.ltrans.o
                                                  /tmp/cc8DLllS.ltrans0.ltrans.o
__aeabi_i2d                                       /usr/lib/gcc/arm-none-eabi/4.9.3/armv7-m/libgcc.a(_arm_addsubdf3.o)
__aeabi_i2f                                       /usr/lib/gcc/arm-none-eabi/4.9.3/armv7-m/libgcc.a(_arm_addsubsf3.o)
                                                  /usr/lib/gcc/arm-none-eabi/4.9.3/../../../arm-none-eabi/lib/armv7-m/libm.a(lib_a-ef_pow.o)
                                                  /tmp/cc8DLllS.ltrans30.ltrans.o
                                                  /tmp/cc8DLllS.ltrans23.ltrans.o
                                                  /tmp/cc8DLllS.ltrans22.ltrans.o
                                                  /tmp/cc8DLllS.ltrans19.ltrans.o
                                                  /tmp/cc8DLllS.ltrans18.ltrans.o
                                                  /tmp/cc8DLllS.ltrans17.ltrans.o
                                                  /tmp/cc8DLllS.ltrans13.ltrans.o
                                                  /tmp/cc8DLllS.ltrans9.ltrans.o
                                                  /tmp/cc8DLllS.ltrans6.ltrans.o
                                                  /tmp/cc8DLllS.ltrans5.ltrans.o
                                                  /tmp/cc8DLllS.ltrans3.ltrans.o
                                                  /tmp/cc8DLllS.ltrans1.ltrans.o
                                                  /tmp/cc8DLllS.ltrans0.ltrans.o
__aeabi_idiv0                                     /usr/lib/gcc/arm-none-eabi/4.9.3/armv7-m/libgcc.a(_dvmd_tls.o)
__aeabi_l2d                                       /usr/lib/gcc/arm-none-eabi/4.9.3/armv7-m/libgcc.a(_arm_addsubdf3.o)
__aeabi_l2f                                       /usr/lib/gcc/arm-none-eabi/4.9.3/armv7-m/libgcc.a(_arm_addsubsf3.o)
__aeabi_ldiv0                                     /usr/lib/gcc/arm-none-eabi/4.9.3/armv7-m/libgcc.a(_dvmd_tls.o)
                                                  /usr/lib/gcc/arm-none-eabi/4.9.3/armv7-m/libgcc.a(_aeabi_ldivmod.o)
__aeabi_ldivmod                                   /usr/lib/gcc/arm-none-eabi/4.9.3/armv7-m/libgcc.a(_aeabi_ldivmod.o)
                                                  /tmp/cc8DLllS.ltrans28.ltrans.o
                                                  /tmp/cc8DLllS.ltrans4.ltrans.o
__aeabi_ui2d                                      /usr/lib/gcc/arm-none-eabi/4.9.3/armv7-m/libgcc.a(_arm_addsubdf3.o)
                                                  /tmp/cc8DLllS.ltrans30.ltrans.o
                                                  /tmp/cc8DLllS.ltrans24.ltrans.o
__aeabi_ui2f                                      /usr/lib/gcc/arm-none-eabi/4.9.3/armv7-m/libgcc.a(_arm_addsubsf3.o)
                                                  /tmp/cc8DLllS.ltrans19.ltrans.o
                                                  /tmp/cc8DLllS.ltrans18.ltrans.o
                                                  /tmp/cc8DLllS.ltrans17.ltrans.o
                                                  /tmp/cc8DLllS.ltrans13.ltrans.o
                                                  /tmp/cc8DLllS.ltrans9.ltrans.o
                                                  /tmp/cc8DLllS.ltrans6.ltrans.o
                                                  /tmp/cc8DLllS.ltrans3.ltrans.o
                                                  /tmp/cc8DLllS.ltrans2.ltrans.o
                                                  /tmp/cc8DLllS.ltrans1.ltrans.o
__aeabi_ul2d                                      /usr/lib/gcc/arm-none-eabi/4.9.3/armv7-m/libgcc.a(_arm_addsubdf3.o)
__aeabi_ul2f                                      /usr/lib/gcc/arm-none-eabi/4.9.3/armv7-m/libgcc.a(_arm_addsubsf3.o)
__cmpdf2                                          /usr/lib/gcc/arm-none-eabi/4.9.3/armv7-m/libgcc.a(_arm_cmpdf2.o)
__cmpsf2                                          /usr/lib/gcc/arm-none-eabi/4.9.3/armv7-m/libgcc.a(_arm_cmpsf2.o)
__ctype_ptr__                                     /usr/lib/gcc/arm-none-eabi/4.9.3/../../../arm-none-eabi/lib/armv7-m/libc_nano.a(lib_a-ctype_.o)
                                                  /usr/lib/gcc/arm-none-eabi/4.9.3/../../../arm-none-eabi/lib/armv7-m/libc_nano.a(lib_a-strncasecmp.o)
                                                  /usr/lib/gcc/arm-none-eabi/4.9.3/../../../arm-none-eabi/lib/armv7-m/libc_nano.a(lib_a-strcasecmp.o)
                                                  /tmp/cc8DLllS.ltrans24.ltrans.o
                                                  /tmp/cc8DLllS.ltrans14.ltrans.o
                                                  /tmp/cc8DLllS.ltrans2.ltrans.o
                                                  /usr/lib/gcc/arm-none-eabi/4.9.3/../../../arm-none-eabi/lib/armv7-m/libc_nano.a(lib_a-strtol.o)
                                                  obj/main/NAZE/io/serial_cli.o (symbol from plugin)
                                                  obj/main/NAZE/flight/gps_conversion.o (symbol from plugin)
__divdf3                                          /usr/lib/gcc/arm-none-eabi/4.9.3/armv7-m/libgcc.a(_arm_muldivdf3.o)
__divdi3                                          /usr/lib/gcc/arm-none-eabi/4.9.3/armv7-m/libgcc.a(_divdi3.o)
                                                  /usr/lib/gcc/arm-none-eabi/4.9.3/armv7-m/libgcc.a(bpabi.o)
__divsf3                                          /usr/lib/gcc/arm-none-eabi/4.9.3/armv7-m/libgcc.a(_arm_muldivsf3.o)
__eqdf2                                           /usr/lib/gcc/arm-none-eabi/4.9.3/armv7-m/libgcc.a(_arm_cmpdf2.o)
__eqsf2                                           /usr/lib/gcc/arm-none-eabi/4.9.3/armv7-m/libgcc.a(_arm_cmpsf2.o)
__errno                                           /usr/lib/gcc/arm-none-eabi/4.9.3/../../../arm-none-eabi/lib/armv7-m/libc_nano.a(lib_a-errno.o)
                                                  /usr/lib/gcc/arm-none-eabi/4.9.3/../../../arm-none-eabi/lib/armv7-m/libm.a(lib_a-wf_sqrt.o)
                                                  /usr/lib/gcc/arm-none-eabi/4.9.3/../../../arm-none-eabi/lib/armv7-m/libm.a(lib_a-wf_pow.o)
__extendsfdf2                                     /usr/lib/gcc/arm-none-eabi/4.9.3/armv7-m/libgcc.a(_arm_addsubdf3.o)
__fdlib_version                                   /usr/lib/gcc/arm-none-eabi/4.9.3/../../../arm-none-eabi/lib/armv7-m/libm.a(lib_a-s_lib_ver.o)
                                                  /usr/lib/gcc/arm-none-eabi/4.9.3/../../../arm-none-eabi/lib/armv7-m/libm.a(lib_a-wf_sqrt.o)
                                                  /usr/lib/gcc/arm-none-eabi/4.9.3/../../../arm-none-eabi/lib/armv7-m/libm.a(lib_a-wf_pow.o)
__fixsfsi                                         /usr/lib/gcc/arm-none-eabi/4.9.3/armv7-m/libgcc.a(_arm_fixsfsi.o)
__fixunsdfsi                                      /usr/lib/gcc/arm-none-eabi/4.9.3/armv7-m/libgcc.a(_arm_fixunsdfsi.o)
__fixunssfsi                                      /usr/lib/gcc/arm-none-eabi/4.9.3/armv7-m/libgcc.a(_arm_fixunssfsi.o)
__floatdidf                                       /usr/lib/gcc/arm-none-eabi/4.9.3/armv7-m/libgcc.a(_arm_addsubdf3.o)
__floatdisf                                       /usr/lib/gcc/arm-none-eabi/4.9.3/armv7-m/libgcc.a(_arm_addsubsf3.o)
__floatsidf                                       /usr/lib/gcc/arm-none-eabi/4.9.3/armv7-m/libgcc.a(_arm_addsubdf3.o)
__floatsisf                                       /usr/lib/gcc/arm-none-eabi/4.9.3/armv7-m/libgcc.a(_arm_addsubsf3.o)
__floatundidf                                     /usr/lib/gcc/arm-none-eabi/4.9.3/armv7-m/libgcc.a(_arm_addsubdf3.o)
__floatundisf                                     /usr/lib/gcc/arm-none-eabi/4.9.3/armv7-m/libgcc.a(_arm_addsubsf3.o)
__floatunsidf                                     /usr/lib/gcc/arm-none-eabi/4.9.3/armv7-m/libgcc.a(_arm_addsubdf3.o)
__floatunsisf                                     /usr/lib/gcc/arm-none-eabi/4.9.3/armv7-m/libgcc.a(_arm_addsubsf3.o)
__fpclassifyf                                     /usr/lib/gcc/arm-none-eabi/4.9.3/../../../arm-none-eabi/lib/armv7-m/libm.a(lib_a-sf_fpclassify.o)
                                                  /usr/lib/gcc/arm-none-eabi/4.9.3/../../../arm-none-eabi/lib/armv7-m/libm.a(lib_a-wf_sqrt.o)
                                                  /usr/lib/gcc/arm-none-eabi/4.9.3/../../../arm-none-eabi/lib/armv7-m/libm.a(lib_a-wf_pow.o)
__gedf2                                           /usr/lib/gcc/arm-none-eabi/4.9.3/armv7-m/libgcc.a(_arm_cmpdf2.o)
__gesf2                                           /usr/lib/gcc/arm-none-eabi/4.9.3/armv7-m/libgcc.a(_arm_cmpsf2.o)
__get_BASEPRI                                     obj/main/NAZE/core_cm3.o (symbol from plugin)
                                                  obj/main/NAZE/drivers/timer.o (symbol from plugin)
__get_CONTROL                                     obj/main/NAZE/core_cm3.o (symbol from plugin)
__get_FAULTMASK                                   obj/main/NAZE/core_cm3.o (symbol from plugin)
__get_MSP                                         obj/main/NAZE/core_cm3.o (symbol from plugin)
__get_PRIMASK                                     obj/main/NAZE/core_cm3.o (symbol from plugin)
__get_PSP                                         obj/main/NAZE/core_cm3.o (symbol from plugin)
__gnu_ldivmod_helper                              /usr/lib/gcc/arm-none-eabi/4.9.3/armv7-m/libgcc.a(bpabi.o)
                                                  /usr/lib/gcc/arm-none-eabi/4.9.3/armv7-m/libgcc.a(_aeabi_ldivmod.o)
__gnu_uldivmod_helper                             /usr/lib/gcc/arm-none-eabi/4.9.3/armv7-m/libgcc.a(bpabi.o)
__gtdf2                                           /usr/lib/gcc/arm-none-eabi/4.9.3/armv7-m/libgcc.a(_arm_cmpdf2.o)
__gtsf2                                           /usr/lib/gcc/arm-none-eabi/4.9.3/armv7-m/libgcc.a(_arm_cmpsf2.o)
__ieee754_powf                                    /usr/lib/gcc/arm-none-eabi/4.9.3/../../../arm-none-eabi/lib/armv7-m/libm.a(lib_a-ef_pow.o)
                                                  /usr/lib/gcc/arm-none-eabi/4.9.3/../../../arm-none-eabi/lib/armv7-m/libm.a(lib_a-wf_pow.o)
__ieee754_sqrtf                                   /usr/lib/gcc/arm-none-eabi/4.9.3/../../../arm-none-eabi/lib/armv7-m/libm.a(lib_a-ef_sqrt.o)
                                                  /usr/lib/gcc/arm-none-eabi/4.9.3/../../../arm-none-eabi/lib/armv7-m/libm.a(lib_a-ef_pow.o)
                                                  /usr/lib/gcc/arm-none-eabi/4.9.3/../../../arm-none-eabi/lib/armv7-m/libm.a(lib_a-wf_sqrt.o)
__ledf2                                           /usr/lib/gcc/arm-none-eabi/4.9.3/armv7-m/libgcc.a(_arm_cmpdf2.o)
__lesf2                                           /usr/lib/gcc/arm-none-eabi/4.9.3/armv7-m/libgcc.a(_arm_cmpsf2.o)
__ltdf2                                           /usr/lib/gcc/arm-none-eabi/4.9.3/armv7-m/libgcc.a(_arm_cmpdf2.o)
__ltsf2                                           /usr/lib/gcc/arm-none-eabi/4.9.3/armv7-m/libgcc.a(_arm_cmpsf2.o)
__malloc_free_list                                /usr/lib/gcc/arm-none-eabi/4.9.3/../../../arm-none-eabi/lib/armv7-m/libc_nano.a(lib_a-nano-mallocr.o)
                                                  /usr/lib/gcc/arm-none-eabi/4.9.3/../../../arm-none-eabi/lib/armv7-m/libc_nano.a(lib_a-nano-freer.o)
__malloc_sbrk_start                               /usr/lib/gcc/arm-none-eabi/4.9.3/../../../arm-none-eabi/lib/armv7-m/libc_nano.a(lib_a-nano-mallocr.o)
__muldf3                                          /usr/lib/gcc/arm-none-eabi/4.9.3/armv7-m/libgcc.a(_arm_muldivdf3.o)
__mulsf3                                          /usr/lib/gcc/arm-none-eabi/4.9.3/armv7-m/libgcc.a(_arm_muldivsf3.o)
__nedf2                                           /usr/lib/gcc/arm-none-eabi/4.9.3/armv7-m/libgcc.a(_arm_cmpdf2.o)
__nesf2                                           /usr/lib/gcc/arm-none-eabi/4.9.3/armv7-m/libgcc.a(_arm_cmpsf2.o)
__set_BASEPRI                                     obj/main/NAZE/core_cm3.o (symbol from plugin)
                                                  obj/main/NAZE/drivers/timer.o (symbol from plugin)
__set_CONTROL                                     obj/main/NAZE/core_cm3.o (symbol from plugin)
__set_FAULTMASK                                   obj/main/NAZE/core_cm3.o (symbol from plugin)
__set_MSP                                         obj/main/NAZE/core_cm3.o (symbol from plugin)
__set_PRIMASK                                     obj/main/NAZE/core_cm3.o (symbol from plugin)
__set_PSP                                         obj/main/NAZE/core_cm3.o (symbol from plugin)
__sf_fake_stderr                                  /usr/lib/gcc/arm-none-eabi/4.9.3/../../../arm-none-eabi/lib/armv7-m/libc_nano.a(lib_a-impure.o)
__sf_fake_stdin                                   /usr/lib/gcc/arm-none-eabi/4.9.3/../../../arm-none-eabi/lib/armv7-m/libc_nano.a(lib_a-impure.o)
__sf_fake_stdout                                  /usr/lib/gcc/arm-none-eabi/4.9.3/../../../arm-none-eabi/lib/armv7-m/libc_nano.a(lib_a-impure.o)
__strtok_r                                        /usr/lib/gcc/arm-none-eabi/4.9.3/../../../arm-none-eabi/lib/armv7-m/libc_nano.a(lib_a-strtok_r.o)
                                                  /usr/lib/gcc/arm-none-eabi/4.9.3/../../../arm-none-eabi/lib/armv7-m/libc_nano.a(lib_a-strtok.o)
__subdf3                                          /usr/lib/gcc/arm-none-eabi/4.9.3/armv7-m/libgcc.a(_arm_addsubdf3.o)
__subsf3                                          /usr/lib/gcc/arm-none-eabi/4.9.3/armv7-m/libgcc.a(_arm_addsubsf3.o)
__truncdfsf2                                      /usr/lib/gcc/arm-none-eabi/4.9.3/armv7-m/libgcc.a(_arm_truncdfsf2.o)
__udivdi3                                         /usr/lib/gcc/arm-none-eabi/4.9.3/armv7-m/libgcc.a(_udivdi3.o)
                                                  /usr/lib/gcc/arm-none-eabi/4.9.3/armv7-m/libgcc.a(bpabi.o)
_atoi_r                                           /usr/lib/gcc/arm-none-eabi/4.9.3/../../../arm-none-eabi/lib/armv7-m/libc_nano.a(lib_a-atoi.o)
_calloc_r                                         /usr/lib/gcc/arm-none-eabi/4.9.3/../../../arm-none-eabi/lib/armv7-m/libc_nano.a(lib_a-nano-callocr.o)
                                                  /usr/lib/gcc/arm-none-eabi/4.9.3/../../../arm-none-eabi/lib/armv7-m/libc_nano.a(lib_a-calloc.o)
_checkLoopTime.lto_priv.396                       /tmp/cc8DLllS.ltrans21.ltrans.o
                                                  /tmp/cc8DLllS.ltrans25.ltrans.o
                                                  /tmp/cc8DLllS.ltrans12.ltrans.o
_checkParam.lto_priv.399                          /tmp/cc8DLllS.ltrans21.ltrans.o
                                                  /tmp/cc8DLllS.ltrans12.ltrans.o
_ctype_                                           /usr/lib/gcc/arm-none-eabi/4.9.3/../../../arm-none-eabi/lib/armv7-m/libc_nano.a(lib_a-ctype_.o)
_doTask.lto_priv.395                              /tmp/cc8DLllS.ltrans21.ltrans.o
                                                  /tmp/cc8DLllS.ltrans12.ltrans.o
_ebss                                             obj/main/NAZE/startup_stm32f10x_md_gcc.o
_edata                                            obj/main/NAZE/startup_stm32f10x_md_gcc.o
_estack                                           obj/main/NAZE/startup_stm32f10x_md_gcc.o
_free_r                                           /usr/lib/gcc/arm-none-eabi/4.9.3/../../../arm-none-eabi/lib/armv7-m/libc_nano.a(lib_a-nano-freer.o)
                                                  /usr/lib/gcc/arm-none-eabi/4.9.3/../../../arm-none-eabi/lib/armv7-m/libc_nano.a(lib_a-reent.o)
                                                  /usr/lib/gcc/arm-none-eabi/4.9.3/../../../arm-none-eabi/lib/armv7-m/libc_nano.a(lib_a-malloc.o)
_global_impure_ptr                                /usr/lib/gcc/arm-none-eabi/4.9.3/../../../arm-none-eabi/lib/armv7-m/libc_nano.a(lib_a-impure.o)
_i2a.lto_priv.186                                 /tmp/cc8DLllS.ltrans6.ltrans.o
                                                  /tmp/cc8DLllS.ltrans24.ltrans.o
_impure_ptr                                       /usr/lib/gcc/arm-none-eabi/4.9.3/../../../arm-none-eabi/lib/armv7-m/libc_nano.a(lib_a-impure.o)
                                                  /usr/lib/gcc/arm-none-eabi/4.9.3/../../../arm-none-eabi/lib/armv7-m/libc_nano.a(lib_a-errno.o)
                                                  /usr/lib/gcc/arm-none-eabi/4.9.3/../../../arm-none-eabi/lib/armv7-m/libc_nano.a(lib_a-calloc.o)
                                                  /usr/lib/gcc/arm-none-eabi/4.9.3/../../../arm-none-eabi/lib/armv7-m/libc_nano.a(lib_a-reent.o)
                                                  /usr/lib/gcc/arm-none-eabi/4.9.3/../../../arm-none-eabi/lib/armv7-m/libc_nano.a(lib_a-malloc.o)
                                                  /usr/lib/gcc/arm-none-eabi/4.9.3/../../../arm-none-eabi/lib/armv7-m/libc_nano.a(lib_a-strtol.o)
                                                  /usr/lib/gcc/arm-none-eabi/4.9.3/../../../arm-none-eabi/lib/armv7-m/libc_nano.a(lib_a-strtok.o)
_malloc_r                                         /usr/lib/gcc/arm-none-eabi/4.9.3/../../../arm-none-eabi/lib/armv7-m/libc_nano.a(lib_a-nano-mallocr.o)
                                                  /usr/lib/gcc/arm-none-eabi/4.9.3/../../../arm-none-eabi/lib/armv7-m/libc_nano.a(lib_a-nano-callocr.o)
                                                  /usr/lib/gcc/arm-none-eabi/4.9.3/../../../arm-none-eabi/lib/armv7-m/libc_nano.a(lib_a-malloc.o)
_printLog.lto_priv.185                            /tmp/cc8DLllS.ltrans25.ltrans.o
                                                  /tmp/cc8DLllS.ltrans24.ltrans.o
_processingTask.lto_priv.397                      /tmp/cc8DLllS.ltrans21.ltrans.o
                                                  /tmp/cc8DLllS.ltrans25.ltrans.o
                                                  /tmp/cc8DLllS.ltrans12.ltrans.o
_putc.lto_priv.469                                /tmp/cc8DLllS.ltrans6.ltrans.o
                                                  /tmp/cc8DLllS.ltrans0.ltrans.o
_reclaim_reent                                    /usr/lib/gcc/arm-none-eabi/4.9.3/../../../arm-none-eabi/lib/armv7-m/libc_nano.a(lib_a-reent.o)
_resetTable.lto_priv.400                          /tmp/cc8DLllS.ltrans21.ltrans.o
                                                  /tmp/cc8DLllS.ltrans12.ltrans.o
_sbrk                                             /usr/lib/gcc/arm-none-eabi/4.9.3/../../../arm-none-eabi/lib/armv7-m/libnosys.a(sbrk.o)
                                                  /usr/lib/gcc/arm-none-eabi/4.9.3/../../../arm-none-eabi/lib/armv7-m/libc_nano.a(lib_a-sbrkr.o)
_sbrk_r                                           /usr/lib/gcc/arm-none-eabi/4.9.3/../../../arm-none-eabi/lib/armv7-m/libc_nano.a(lib_a-sbrkr.o)
                                                  /usr/lib/gcc/arm-none-eabi/4.9.3/../../../arm-none-eabi/lib/armv7-m/libc_nano.a(lib_a-nano-mallocr.o)
_sbss                                             obj/main/NAZE/startup_stm32f10x_md_gcc.o
_sdata                                            obj/main/NAZE/startup_stm32f10x_md_gcc.o
_setParam.lto_priv.401                            /tmp/cc8DLllS.ltrans21.ltrans.o
                                                  /tmp/cc8DLllS.ltrans12.ltrans.o
_sidata                                           obj/main/NAZE/startup_stm32f10x_md_gcc.o
_strtol_r                                         /usr/lib/gcc/arm-none-eabi/4.9.3/../../../arm-none-eabi/lib/armv7-m/libc_nano.a(lib_a-strtol.o)
                                                  /usr/lib/gcc/arm-none-eabi/4.9.3/../../../arm-none-eabi/lib/armv7-m/libc_nano.a(lib_a-atoi.o)
_update_checksum                                  obj/main/NAZE/io/gps.o (symbol from plugin)
a2d                                               obj/main/NAZE/common/typeconversion.o (symbol from plugin)
a2i                                               obj/main/NAZE/common/typeconversion.o (symbol from plugin)
                                                  obj/main/NAZE/common/printf.o (symbol from plugin)
accADC                                            /tmp/cc8DLllS.ltrans29.ltrans.o
                                                  obj/main/NAZE/sensors/acceleration.o (symbol from plugin)
                                                  /tmp/cc8DLllS.ltrans1.ltrans.o
                                                  obj/main/NAZE/flight/imu.o (symbol from plugin)
accDeadband.lto_priv.502                          /tmp/cc8DLllS.ltrans1.ltrans.o
                                                  /tmp/cc8DLllS.ltrans6.ltrans.o
accSetCalibrationCycles                           obj/main/NAZE/sensors/acceleration.o (symbol from plugin)
                                                  obj/main/NAZE/io/serial_msp.o (symbol from plugin)
                                                  obj/main/NAZE/io/rc_controls.o (symbol from plugin)
                                                  obj/main/NAZE/main.o (symbol from plugin)
accSmooth                                         /tmp/cc8DLllS.ltrans5.ltrans.o
                                                  obj/main/NAZE/flight/imu.o (symbol from plugin)
                                                  /tmp/cc8DLllS.ltrans20.ltrans.o
                                                  /tmp/cc8DLllS.ltrans11.ltrans.o
                                                  /tmp/cc8DLllS.ltrans2.ltrans.o
                                                  /tmp/cc8DLllS.ltrans1.ltrans.o
                                                  obj/main/NAZE/io/serial_msp.o (symbol from plugin)
                                                  obj/main/NAZE/blackbox/blackbox.o (symbol from plugin)
                                                  obj/main/NAZE/telemetry/smartport.o (symbol from plugin)
                                                  obj/main/NAZE/telemetry/frsky.o (symbol from plugin)
                                                  obj/main/NAZE/io/display.o (symbol from plugin)
accSum                                            /tmp/cc8DLllS.ltrans19.ltrans.o
                                                  obj/main/NAZE/flight/imu.o (symbol from plugin)
                                                  /tmp/cc8DLllS.ltrans1.ltrans.o
                                                  obj/main/NAZE/flight/altitudehold.o (symbol from plugin)
accSumCount                                       /tmp/cc8DLllS.ltrans19.ltrans.o
                                                  obj/main/NAZE/flight/imu.o (symbol from plugin)
                                                  /tmp/cc8DLllS.ltrans1.ltrans.o
                                                  obj/main/NAZE/flight/altitudehold.o (symbol from plugin)
accTimeSum                                        /tmp/cc8DLllS.ltrans19.ltrans.o
                                                  obj/main/NAZE/flight/imu.o (symbol from plugin)
                                                  /tmp/cc8DLllS.ltrans1.ltrans.o
                                                  obj/main/NAZE/flight/altitudehold.o (symbol from plugin)
accVelScale                                       /tmp/cc8DLllS.ltrans19.ltrans.o
                                                  obj/main/NAZE/flight/imu.o (symbol from plugin)
                                                  /tmp/cc8DLllS.ltrans0.ltrans.o
                                                  obj/main/NAZE/flight/altitudehold.o (symbol from plugin)
acc_detect                                        obj/main/NAZE/drivers/sensor.o (symbol from plugin)
                                                  obj/main/NAZE/sensors/initialisation.o (symbol from plugin)
acc_samples                                       obj/main/NAZE/drivers/accgyro_adxl345.o (symbol from plugin)
accelerationTrims.lto_priv.505                    /tmp/cc8DLllS.ltrans29.ltrans.o
                                                  /tmp/cc8DLllS.ltrans6.ltrans.o
acosf                                             /tmp/cc8DLllS.ltrans6.ltrans.o
                                                  /tmp/cc8DLllS.ltrans1.ltrans.o
actI2cRead                                        /tmp/cc8DLllS.ltrans16.ltrans.o
                                                  obj/main/NAZE/drivers/bus_i2c.o (symbol from plugin)
                                                  /tmp/cc8DLllS.ltrans18.ltrans.o
                                                  obj/main/NAZE/drivers/accgyro_mpu.o (symbol from plugin)
actI2cWrite                                       /tmp/cc8DLllS.ltrans16.ltrans.o
                                                  obj/main/NAZE/drivers/bus_i2c.o (symbol from plugin)
                                                  /tmp/cc8DLllS.ltrans18.ltrans.o
activateConfig                                    obj/main/NAZE/config/config.o (symbol from plugin)
activateControlRateConfig                         /tmp/cc8DLllS.ltrans21.ltrans.o
                                                  obj/main/NAZE/config/config.o (symbol from plugin)
                                                  /tmp/cc8DLllS.ltrans14.ltrans.o
                                                  /tmp/cc8DLllS.ltrans6.ltrans.o
                                                  /tmp/cc8DLllS.ltrans3.ltrans.o
activeBoxIdCount.lto_priv.321                     /tmp/cc8DLllS.ltrans9.ltrans.o
                                                  /tmp/cc8DLllS.ltrans2.ltrans.o
                                                  /tmp/cc8DLllS.ltrans0.ltrans.o
activeBoxIds.lto_priv.322                         /tmp/cc8DLllS.ltrans9.ltrans.o
                                                  /tmp/cc8DLllS.ltrans2.ltrans.o
                                                  /tmp/cc8DLllS.ltrans0.ltrans.o
activeFeaturesLatch.lto_priv.193                  /tmp/cc8DLllS.ltrans18.ltrans.o
                                                  /tmp/cc8DLllS.ltrans29.ltrans.o
                                                  /tmp/cc8DLllS.ltrans28.ltrans.o
                                                  /tmp/cc8DLllS.ltrans20.ltrans.o
                                                  /tmp/cc8DLllS.ltrans19.ltrans.o
                                                  /tmp/cc8DLllS.ltrans17.ltrans.o
                                                  /tmp/cc8DLllS.ltrans16.ltrans.o
                                                  /tmp/cc8DLllS.ltrans14.ltrans.o
                                                  /tmp/cc8DLllS.ltrans12.ltrans.o
                                                  /tmp/cc8DLllS.ltrans11.ltrans.o
                                                  /tmp/cc8DLllS.ltrans9.ltrans.o
                                                  /tmp/cc8DLllS.ltrans8.ltrans.o
                                                  /tmp/cc8DLllS.ltrans6.ltrans.o
                                                  /tmp/cc8DLllS.ltrans5.ltrans.o
                                                  /tmp/cc8DLllS.ltrans3.ltrans.o
                                                  /tmp/cc8DLllS.ltrans1.ltrans.o
                                                  /tmp/cc8DLllS.ltrans0.ltrans.o
adcConfig                                         /tmp/cc8DLllS.ltrans18.ltrans.o
                                                  obj/main/NAZE/drivers/adc.o (symbol from plugin)
                                                  /tmp/cc8DLllS.ltrans28.ltrans.o
                                                  /tmp/cc8DLllS.ltrans3.ltrans.o
                                                  /tmp/cc8DLllS.ltrans0.ltrans.o
                                                  obj/main/NAZE/drivers/adc_stm32f10x.o (symbol from plugin)
adcGetChannel                                     obj/main/NAZE/drivers/adc.o (symbol from plugin)
                                                  obj/main/NAZE/sensors/battery.o (symbol from plugin)
                                                  obj/main/NAZE/rx/rx.o (symbol from plugin)
adcInit                                           obj/main/NAZE/drivers/adc_stm32f10x.o (symbol from plugin)
                                                  obj/main/NAZE/main.o (symbol from plugin)
adcValues                                         /tmp/cc8DLllS.ltrans18.ltrans.o
                                                  obj/main/NAZE/drivers/adc.o (symbol from plugin)
                                                  /tmp/cc8DLllS.ltrans28.ltrans.o
                                                  /tmp/cc8DLllS.ltrans3.ltrans.o
                                                  /tmp/cc8DLllS.ltrans0.ltrans.o
                                                  obj/main/NAZE/drivers/adc_stm32f10x.o (symbol from plugin)
addGPSCoordinates                                 obj/main/NAZE/telemetry/hott.o (symbol from plugin)
adjustmentStateMask                               obj/main/NAZE/io/rc_controls.o (symbol from plugin)
adjustmentStates                                  /tmp/cc8DLllS.ltrans3.ltrans.o
                                                  obj/main/NAZE/io/rc_controls.o (symbol from plugin)
                                                  /tmp/cc8DLllS.ltrans6.ltrans.o
adxl345Detect                                     /tmp/cc8DLllS.ltrans4.ltrans.o
                                                  obj/main/NAZE/drivers/accgyro_adxl345.o (symbol from plugin)
                                                  /tmp/cc8DLllS.ltrans0.ltrans.o
                                                  obj/main/NAZE/drivers/sensor.o (symbol from plugin)
adxl345_name                                      obj/main/NAZE/drivers/accgyro_adxl345.o (symbol from plugin)
alignSensors                                      /tmp/cc8DLllS.ltrans18.ltrans.o
                                                  obj/main/NAZE/sensors/boardalignment.o (symbol from plugin)
                                                  /tmp/cc8DLllS.ltrans29.ltrans.o
                                                  /tmp/cc8DLllS.ltrans19.ltrans.o
                                                  /tmp/cc8DLllS.ltrans1.ltrans.o
                                                  obj/main/NAZE/sensors/gyro.o (symbol from plugin)
                                                  obj/main/NAZE/sensors/compass.o (symbol from plugin)
                                                  obj/main/NAZE/sensors/acceleration.o (symbol from plugin)
altHoldThrottleAdjustment                         /tmp/cc8DLllS.ltrans19.ltrans.o
                                                  obj/main/NAZE/flight/altitudehold.o (symbol from plugin)
                                                  /tmp/cc8DLllS.ltrans3.ltrans.o
                                                  /tmp/cc8DLllS.ltrans1.ltrans.o
altitudeHoldGetEstimatedAltitude                  obj/main/NAZE/flight/altitudehold.o (symbol from plugin)
                                                  obj/main/NAZE/io/serial_msp.o (symbol from plugin)
                                                  obj/main/NAZE/telemetry/ltm.o (symbol from plugin)
amperage                                          /tmp/cc8DLllS.ltrans5.ltrans.o
                                                  obj/main/NAZE/sensors/battery.o (symbol from plugin)
                                                  /tmp/cc8DLllS.ltrans28.ltrans.o
                                                  /tmp/cc8DLllS.ltrans20.ltrans.o
                                                  /tmp/cc8DLllS.ltrans2.ltrans.o
                                                  obj/main/NAZE/io/serial_msp.o (symbol from plugin)
                                                  obj/main/NAZE/telemetry/smartport.o (symbol from plugin)
                                                  obj/main/NAZE/telemetry/hott.o (symbol from plugin)
                                                  obj/main/NAZE/telemetry/frsky.o (symbol from plugin)
                                                  obj/main/NAZE/io/display.o (symbol from plugin)
amperageLatestADC                                 /tmp/cc8DLllS.ltrans28.ltrans.o
                                                  obj/main/NAZE/sensors/battery.o (symbol from plugin)
                                                  /tmp/cc8DLllS.ltrans11.ltrans.o
                                                  obj/main/NAZE/blackbox/blackbox.o (symbol from plugin)
annexCode                                         obj/main/NAZE/mw.o (symbol from plugin)
applyAccelerationTrims                            obj/main/NAZE/sensors/acceleration.o (symbol from plugin)
applyAltHold                                      obj/main/NAZE/flight/altitudehold.o (symbol from plugin)
                                                  obj/main/NAZE/mw.o (symbol from plugin)
applyAndSaveAccelerometerTrimsDelta               obj/main/NAZE/mw.o (symbol from plugin)
                                                  obj/main/NAZE/io/rc_controls.o (symbol from plugin)
applyBiQuadFilter                                 /tmp/cc8DLllS.ltrans6.ltrans.o
                                                  obj/main/NAZE/common/filter.o (symbol from plugin)
                                                  /tmp/cc8DLllS.ltrans23.ltrans.o
                                                  /tmp/cc8DLllS.ltrans18.ltrans.o
                                                  /tmp/cc8DLllS.ltrans1.ltrans.o
                                                  obj/main/NAZE/sensors/gyro.o (symbol from plugin)
                                                  obj/main/NAZE/sensors/battery.o (symbol from plugin)
                                                  obj/main/NAZE/flight/mixer.o (symbol from plugin)
                                                  obj/main/NAZE/flight/pid.o (symbol from plugin)
applyChangedBits                                  /tmp/cc8DLllS.ltrans7.ltrans.o
                                                  obj/main/NAZE/drivers/serial_softserial.o (symbol from plugin)
                                                  /tmp/cc8DLllS.ltrans15.ltrans.o
applyDeadband                                     /tmp/cc8DLllS.ltrans6.ltrans.o
                                                  obj/main/NAZE/common/maths.o (symbol from plugin)
                                                  /tmp/cc8DLllS.ltrans19.ltrans.o
                                                  /tmp/cc8DLllS.ltrans1.ltrans.o
                                                  obj/main/NAZE/flight/imu.o (symbol from plugin)
                                                  obj/main/NAZE/flight/altitudehold.o (symbol from plugin)
applyDefaultColors                                obj/main/NAZE/io/ledstrip.o (symbol from plugin)
                                                  obj/main/NAZE/config/config.o (symbol from plugin)
applyDefaultLedStripConfig                        obj/main/NAZE/io/ledstrip.o (symbol from plugin)
                                                  obj/main/NAZE/config/config.o (symbol from plugin)
applyDirectionalModeColor                         /tmp/cc8DLllS.ltrans20.ltrans.o
                                                  obj/main/NAZE/io/ledstrip.o (symbol from plugin)
                                                  /tmp/cc8DLllS.ltrans8.ltrans.o
applyLedIndicatorLayer                            obj/main/NAZE/io/ledstrip.o (symbol from plugin)
applyLedModeLayer                                 obj/main/NAZE/io/ledstrip.o (symbol from plugin)
applyLedThrottleLayer                             obj/main/NAZE/io/ledstrip.o (symbol from plugin)
applyLedThrustRingLayer                           obj/main/NAZE/io/ledstrip.o (symbol from plugin)
applyLedWarningLayer                              obj/main/NAZE/io/ledstrip.o (symbol from plugin)
applyQuadrantColor                                obj/main/NAZE/io/ledstrip.o (symbol from plugin)
applySelectAdjustment                             obj/main/NAZE/io/rc_controls.o (symbol from plugin)
applyStepAdjustment                               obj/main/NAZE/io/rc_controls.o (symbol from plugin)
areSticksInApModePosition                         obj/main/NAZE/io/rc_controls.o (symbol from plugin)
                                                  obj/main/NAZE/flight/navigation.o (symbol from plugin)
armingBeepTimeMicros.lto_priv.387                 /tmp/cc8DLllS.ltrans28.ltrans.o
                                                  /tmp/cc8DLllS.ltrans12.ltrans.o
                                                  /tmp/cc8DLllS.ltrans11.ltrans.o
armingFlags                                       /tmp/cc8DLllS.ltrans9.ltrans.o
                                                  obj/main/NAZE/config/runtime_config.o (symbol from plugin)
                                                  /tmp/cc8DLllS.ltrans28.ltrans.o
                                                  /tmp/cc8DLllS.ltrans27.ltrans.o
                                                  /tmp/cc8DLllS.ltrans23.ltrans.o
                                                  /tmp/cc8DLllS.ltrans20.ltrans.o
                                                  /tmp/cc8DLllS.ltrans13.ltrans.o
                                                  /tmp/cc8DLllS.ltrans12.ltrans.o
                                                  /tmp/cc8DLllS.ltrans8.ltrans.o
                                                  /tmp/cc8DLllS.ltrans5.ltrans.o
                                                  /tmp/cc8DLllS.ltrans3.ltrans.o
                                                  /tmp/cc8DLllS.ltrans2.ltrans.o
                                                  /tmp/cc8DLllS.ltrans1.ltrans.o
                                                  /tmp/cc8DLllS.ltrans0.ltrans.o
                                                  obj/main/NAZE/sensors/battery.o (symbol from plugin)
                                                  obj/main/NAZE/io/serial_msp.o (symbol from plugin)
                                                  obj/main/NAZE/io/serial_cli.o (symbol from plugin)
                                                  obj/main/NAZE/io/rc_controls.o (symbol from plugin)
                                                  obj/main/NAZE/flight/mixer.o (symbol from plugin)
                                                  obj/main/NAZE/flight/imu.o (symbol from plugin)
                                                  obj/main/NAZE/flight/pid.o (symbol from plugin)
                                                  obj/main/NAZE/flight/failsafe.o (symbol from plugin)
                                                  obj/main/NAZE/mw.o (symbol from plugin)
                                                  obj/main/NAZE/main.o (symbol from plugin)
                                                  obj/main/NAZE/telemetry/ltm.o (symbol from plugin)
                                                  obj/main/NAZE/telemetry/smartport.o (symbol from plugin)
                                                  obj/main/NAZE/telemetry/frsky.o (symbol from plugin)
                                                  obj/main/NAZE/telemetry/telemetry.o (symbol from plugin)
                                                  obj/main/NAZE/io/display.o (symbol from plugin)
                                                  obj/main/NAZE/io/ledstrip.o (symbol from plugin)
                                                  obj/main/NAZE/flight/navigation.o (symbol from plugin)
arraySubInt32                                     obj/main/NAZE/common/maths.o (symbol from plugin)
                                                  obj/main/NAZE/blackbox/blackbox.o (symbol from plugin)
atan2f                                            /tmp/cc8DLllS.ltrans6.ltrans.o
                                                  /tmp/cc8DLllS.ltrans13.ltrans.o
                                                  /tmp/cc8DLllS.ltrans1.ltrans.o
atoi                                              /usr/lib/gcc/arm-none-eabi/4.9.3/../../../arm-none-eabi/lib/armv7-m/libc_nano.a(lib_a-atoi.o)
                                                  /tmp/cc8DLllS.ltrans14.ltrans.o
                                                  /tmp/cc8DLllS.ltrans10.ltrans.o
                                                  /tmp/cc8DLllS.ltrans9.ltrans.o
                                                  obj/main/NAZE/io/serial_cli.o (symbol from plugin)
                                                  obj/main/NAZE/io/ledstrip.o (symbol from plugin)
attitude                                          /tmp/cc8DLllS.ltrans23.ltrans.o
                                                  obj/main/NAZE/flight/imu.o (symbol from plugin)
                                                  /tmp/cc8DLllS.ltrans20.ltrans.o
                                                  /tmp/cc8DLllS.ltrans19.ltrans.o
                                                  /tmp/cc8DLllS.ltrans17.ltrans.o
                                                  /tmp/cc8DLllS.ltrans12.ltrans.o
                                                  /tmp/cc8DLllS.ltrans5.ltrans.o
                                                  /tmp/cc8DLllS.ltrans3.ltrans.o
                                                  /tmp/cc8DLllS.ltrans2.ltrans.o
                                                  /tmp/cc8DLllS.ltrans1.ltrans.o
                                                  obj/main/NAZE/io/serial_msp.o (symbol from plugin)
                                                  obj/main/NAZE/flight/mixer.o (symbol from plugin)
                                                  obj/main/NAZE/flight/pid.o (symbol from plugin)
                                                  obj/main/NAZE/flight/altitudehold.o (symbol from plugin)
                                                  obj/main/NAZE/mw.o (symbol from plugin)
                                                  obj/main/NAZE/telemetry/ltm.o (symbol from plugin)
                                                  obj/main/NAZE/telemetry/smartport.o (symbol from plugin)
                                                  obj/main/NAZE/telemetry/frsky.o (symbol from plugin)
                                                  obj/main/NAZE/io/display.o (symbol from plugin)
                                                  obj/main/NAZE/flight/navigation.o (symbol from plugin)
axis                                              obj/main/NAZE/sensors/gyro.o (symbol from plugin)
axisPID                                           /tmp/cc8DLllS.ltrans23.ltrans.o
                                                  obj/main/NAZE/flight/pid.o (symbol from plugin)
                                                  /tmp/cc8DLllS.ltrans1.ltrans.o
                                                  obj/main/NAZE/flight/mixer.o (symbol from plugin)
axisPID_D                                         /tmp/cc8DLllS.ltrans23.ltrans.o
                                                  obj/main/NAZE/flight/pid.o (symbol from plugin)
                                                  /tmp/cc8DLllS.ltrans11.ltrans.o
                                                  obj/main/NAZE/blackbox/blackbox.o (symbol from plugin)
axisPID_I                                         /tmp/cc8DLllS.ltrans23.ltrans.o
                                                  obj/main/NAZE/flight/pid.o (symbol from plugin)
                                                  /tmp/cc8DLllS.ltrans11.ltrans.o
                                                  obj/main/NAZE/blackbox/blackbox.o (symbol from plugin)
axisPID_P                                         /tmp/cc8DLllS.ltrans23.ltrans.o
                                                  obj/main/NAZE/flight/pid.o (symbol from plugin)
                                                  /tmp/cc8DLllS.ltrans11.ltrans.o
                                                  obj/main/NAZE/blackbox/blackbox.o (symbol from plugin)
baroCalculateAltitude                             obj/main/NAZE/sensors/barometer.o (symbol from plugin)
                                                  obj/main/NAZE/flight/altitudehold.o (symbol from plugin)
baroSetCalibrationCycles                          obj/main/NAZE/sensors/barometer.o (symbol from plugin)
                                                  obj/main/NAZE/io/rc_controls.o (symbol from plugin)
                                                  obj/main/NAZE/main.o (symbol from plugin)
baroUpdate                                        obj/main/NAZE/sensors/barometer.o (symbol from plugin)
                                                  obj/main/NAZE/mw.o (symbol from plugin)
baro_cf_alt                                       obj/main/NAZE/sensors/sonar.o (symbol from plugin)
baro_cf_vel                                       obj/main/NAZE/sensors/sonar.o (symbol from plugin)
baro_detect                                       obj/main/NAZE/drivers/sensor.o (symbol from plugin)
                                                  obj/main/NAZE/sensors/initialisation.o (symbol from plugin)
baro_disable                                      obj/main/NAZE/drivers/sensor.o (symbol from plugin)
                                                  obj/main/NAZE/sensors/initialisation.o (symbol from plugin)
barometerConfig.lto_priv.264                      /tmp/cc8DLllS.ltrans19.ltrans.o
                                                  /tmp/cc8DLllS.ltrans6.ltrans.o
barometerConfig.lto_priv.265                      /tmp/cc8DLllS.ltrans19.ltrans.o
                                                  /tmp/cc8DLllS.ltrans6.ltrans.o
batteryAdcToVoltage                               /tmp/cc8DLllS.ltrans9.ltrans.o
                                                  obj/main/NAZE/sensors/battery.o (symbol from plugin)
                                                  /tmp/cc8DLllS.ltrans28.ltrans.o
                                                  /tmp/cc8DLllS.ltrans18.ltrans.o
batteryCellCount                                  /tmp/cc8DLllS.ltrans9.ltrans.o
                                                  obj/main/NAZE/sensors/battery.o (symbol from plugin)
                                                  /tmp/cc8DLllS.ltrans28.ltrans.o
                                                  /tmp/cc8DLllS.ltrans20.ltrans.o
                                                  /tmp/cc8DLllS.ltrans5.ltrans.o
                                                  /tmp/cc8DLllS.ltrans0.ltrans.o
                                                  obj/main/NAZE/io/serial_cli.o (symbol from plugin)
                                                  obj/main/NAZE/telemetry/frsky.o (symbol from plugin)
                                                  obj/main/NAZE/io/display.o (symbol from plugin)
batteryConfig                                     /tmp/cc8DLllS.ltrans18.ltrans.o
                                                  obj/main/NAZE/sensors/battery.o (symbol from plugin)
                                                  /tmp/cc8DLllS.ltrans28.ltrans.o
                                                  /tmp/cc8DLllS.ltrans20.ltrans.o
                                                  /tmp/cc8DLllS.ltrans9.ltrans.o
                                                  /tmp/cc8DLllS.ltrans5.ltrans.o
                                                  /tmp/cc8DLllS.ltrans0.ltrans.o
                                                  obj/main/NAZE/telemetry/frsky.o (symbol from plugin)
batteryCriticalVoltage                            /tmp/cc8DLllS.ltrans28.ltrans.o
                                                  obj/main/NAZE/sensors/battery.o (symbol from plugin)
                                                  /tmp/cc8DLllS.ltrans0.ltrans.o
batteryInit                                       obj/main/NAZE/sensors/battery.o (symbol from plugin)
                                                  obj/main/NAZE/main.o (symbol from plugin)
batteryState.lto_priv.248                         /tmp/cc8DLllS.ltrans9.ltrans.o
                                                  /tmp/cc8DLllS.ltrans28.ltrans.o
                                                  /tmp/cc8DLllS.ltrans8.ltrans.o
                                                  /tmp/cc8DLllS.ltrans5.ltrans.o
                                                  /tmp/cc8DLllS.ltrans0.ltrans.o
batteryStateStrings                               obj/main/NAZE/sensors/battery.o (symbol from plugin)
batteryWarningVoltage                             /tmp/cc8DLllS.ltrans28.ltrans.o
                                                  obj/main/NAZE/sensors/battery.o (symbol from plugin)
                                                  /tmp/cc8DLllS.ltrans0.ltrans.o
baudRates                                         /tmp/cc8DLllS.ltrans24.ltrans.o
                                                  obj/main/NAZE/io/serial.o (symbol from plugin)
                                                  /tmp/cc8DLllS.ltrans27.ltrans.o
                                                  /tmp/cc8DLllS.ltrans19.ltrans.o
                                                  /tmp/cc8DLllS.ltrans12.ltrans.o
                                                  /tmp/cc8DLllS.ltrans10.ltrans.o
                                                  obj/main/NAZE/io/serial_msp.o (symbol from plugin)
                                                  obj/main/NAZE/io/serial_cli.o (symbol from plugin)
                                                  obj/main/NAZE/blackbox/blackbox_io.o (symbol from plugin)
                                                  obj/main/NAZE/telemetry/ltm.o (symbol from plugin)
                                                  obj/main/NAZE/io/gps.o (symbol from plugin)
beepInverted.lto_priv.465                         /tmp/cc8DLllS.ltrans16.ltrans.o
                                                  /tmp/cc8DLllS.ltrans0.ltrans.o
beepNormal.lto_priv.466                           /tmp/cc8DLllS.ltrans16.ltrans.o
                                                  /tmp/cc8DLllS.ltrans0.ltrans.o
beep_2longerBeeps.lto_priv.240                    /tmp/cc8DLllS.ltrans14.ltrans.o
beep_2shortBeeps.lto_priv.239                     /tmp/cc8DLllS.ltrans14.ltrans.o
beep_armedBeep.lto_priv.243                       /tmp/cc8DLllS.ltrans14.ltrans.o
beep_armedGpsFix.lto_priv.235                     /tmp/cc8DLllS.ltrans14.ltrans.o
beep_armingBeep.lto_priv.234                      /tmp/cc8DLllS.ltrans14.ltrans.o
beep_critBatteryBeep.lto_priv.236                 /tmp/cc8DLllS.ltrans14.ltrans.o
beep_disarmBeep.lto_priv.233                      /tmp/cc8DLllS.ltrans14.ltrans.o
beep_disarmRepeatBeep.lto_priv.242                /tmp/cc8DLllS.ltrans14.ltrans.o
beep_gyroCalibrated.lto_priv.230                  /tmp/cc8DLllS.ltrans14.ltrans.o
beep_lowBatteryBeep.lto_priv.237                  /tmp/cc8DLllS.ltrans14.ltrans.o
beep_multiBeeps.lto_priv.222                      /tmp/cc8DLllS.ltrans14.ltrans.o
                                                  /tmp/cc8DLllS.ltrans28.ltrans.o
                                                  /tmp/cc8DLllS.ltrans16.ltrans.o
beep_readyBeep.lto_priv.241                       /tmp/cc8DLllS.ltrans14.ltrans.o
beep_shortBeep.lto_priv.238                       /tmp/cc8DLllS.ltrans14.ltrans.o
beep_sos.lto_priv.231                             /tmp/cc8DLllS.ltrans14.ltrans.o
beep_txLostBeep.lto_priv.232                      /tmp/cc8DLllS.ltrans14.ltrans.o
beeper                                            /tmp/cc8DLllS.ltrans16.ltrans.o
                                                  obj/main/NAZE/io/beeper.o (symbol from plugin)
                                                  /tmp/cc8DLllS.ltrans29.ltrans.o
                                                  /tmp/cc8DLllS.ltrans28.ltrans.o
                                                  /tmp/cc8DLllS.ltrans14.ltrans.o
                                                  /tmp/cc8DLllS.ltrans12.ltrans.o
                                                  /tmp/cc8DLllS.ltrans3.ltrans.o
                                                  /tmp/cc8DLllS.ltrans1.ltrans.o
                                                  obj/main/NAZE/sensors/gyro.o (symbol from plugin)
                                                  obj/main/NAZE/sensors/battery.o (symbol from plugin)
                                                  obj/main/NAZE/sensors/acceleration.o (symbol from plugin)
                                                  obj/main/NAZE/io/serial_cli.o (symbol from plugin)
                                                  obj/main/NAZE/io/rc_controls.o (symbol from plugin)
                                                  obj/main/NAZE/flight/failsafe.o (symbol from plugin)
                                                  obj/main/NAZE/mw.o (symbol from plugin)
                                                  obj/main/NAZE/flight/navigation.o (symbol from plugin)
beeperConfirmationBeeps                           /tmp/cc8DLllS.ltrans16.ltrans.o
                                                  obj/main/NAZE/io/beeper.o (symbol from plugin)
                                                  /tmp/cc8DLllS.ltrans12.ltrans.o
                                                  /tmp/cc8DLllS.ltrans6.ltrans.o
                                                  /tmp/cc8DLllS.ltrans3.ltrans.o
                                                  obj/main/NAZE/io/rc_controls.o (symbol from plugin)
                                                  obj/main/NAZE/mw.o (symbol from plugin)
                                                  obj/main/NAZE/config/runtime_config.o (symbol from plugin)
                                                  obj/main/NAZE/config/config.o (symbol from plugin)
beeperGpsStatus                                   obj/main/NAZE/io/beeper.o (symbol from plugin)
beeperInit                                        obj/main/NAZE/drivers/sound_beeper.o (symbol from plugin)
                                                  obj/main/NAZE/main.o (symbol from plugin)
beeperIsOn.lto_priv.310                           /tmp/cc8DLllS.ltrans16.ltrans.o
                                                  /tmp/cc8DLllS.ltrans28.ltrans.o
beeperModeForTableIndex                           obj/main/NAZE/io/beeper.o (symbol from plugin)
                                                  obj/main/NAZE/io/serial_cli.o (symbol from plugin)
beeperNameForTableIndex                           obj/main/NAZE/io/beeper.o (symbol from plugin)
                                                  obj/main/NAZE/io/serial_cli.o (symbol from plugin)
beeperNextToggleTime.lto_priv.309                 /tmp/cc8DLllS.ltrans16.ltrans.o
                                                  /tmp/cc8DLllS.ltrans28.ltrans.o
beeperPos.lto_priv.311                            /tmp/cc8DLllS.ltrans16.ltrans.o
                                                  /tmp/cc8DLllS.ltrans28.ltrans.o
beeperSilence                                     /tmp/cc8DLllS.ltrans16.ltrans.o
                                                  obj/main/NAZE/io/beeper.o (symbol from plugin)
                                                  /tmp/cc8DLllS.ltrans28.ltrans.o
                                                  /tmp/cc8DLllS.ltrans14.ltrans.o
                                                  /tmp/cc8DLllS.ltrans3.ltrans.o
                                                  /tmp/cc8DLllS.ltrans2.ltrans.o
                                                  obj/main/NAZE/io/serial_cli.o (symbol from plugin)
                                                  obj/main/NAZE/io/serial_1wire.o (symbol from plugin)
                                                  obj/main/NAZE/mw.o (symbol from plugin)
beeperTable.lto_priv.224                          /tmp/cc8DLllS.ltrans14.ltrans.o
                                                  /tmp/cc8DLllS.ltrans16.ltrans.o
beeperTableEntryCount                             obj/main/NAZE/io/beeper.o (symbol from plugin)
                                                  obj/main/NAZE/io/serial_cli.o (symbol from plugin)
beeperUpdate                                      obj/main/NAZE/io/beeper.o (symbol from plugin)
                                                  obj/main/NAZE/mw.o (symbol from plugin)
blackboxAdvanceIterationTimers.lto_priv.375       /tmp/cc8DLllS.ltrans11.ltrans.o
                                                  /tmp/cc8DLllS.ltrans1.ltrans.o
blackboxConditionCache.lto_priv.386               /tmp/cc8DLllS.ltrans1.ltrans.o
                                                  /tmp/cc8DLllS.ltrans12.ltrans.o
                                                  /tmp/cc8DLllS.ltrans11.ltrans.o
blackboxDeviceBeginLog                            obj/main/NAZE/blackbox/blackbox_io.o (symbol from plugin)
                                                  obj/main/NAZE/blackbox/blackbox.o (symbol from plugin)
blackboxDeviceClose                               obj/main/NAZE/blackbox/blackbox_io.o (symbol from plugin)
                                                  obj/main/NAZE/blackbox/blackbox.o (symbol from plugin)
blackboxDeviceEndLog                              obj/main/NAZE/blackbox/blackbox_io.o (symbol from plugin)
                                                  obj/main/NAZE/blackbox/blackbox.o (symbol from plugin)
blackboxDeviceFlush                               obj/main/NAZE/blackbox/blackbox_io.o (symbol from plugin)
                                                  obj/main/NAZE/blackbox/blackbox.o (symbol from plugin)
blackboxDeviceFlushForce                          /tmp/cc8DLllS.ltrans25.ltrans.o
                                                  obj/main/NAZE/blackbox/blackbox_io.o (symbol from plugin)
                                                  /tmp/cc8DLllS.ltrans1.ltrans.o
                                                  obj/main/NAZE/blackbox/blackbox.o (symbol from plugin)
blackboxDeviceOpen                                obj/main/NAZE/blackbox/blackbox_io.o (symbol from plugin)
                                                  obj/main/NAZE/blackbox/blackbox.o (symbol from plugin)
blackboxDeviceReserveBufferSpace                  /tmp/cc8DLllS.ltrans25.ltrans.o
                                                  obj/main/NAZE/blackbox/blackbox_io.o (symbol from plugin)
                                                  /tmp/cc8DLllS.ltrans11.ltrans.o
                                                  /tmp/cc8DLllS.ltrans1.ltrans.o
                                                  obj/main/NAZE/blackbox/blackbox.o (symbol from plugin)
blackboxHeaderBudget                              /tmp/cc8DLllS.ltrans1.ltrans.o
                                                  obj/main/NAZE/blackbox/blackbox_io.o (symbol from plugin)
                                                  /tmp/cc8DLllS.ltrans25.ltrans.o
                                                  /tmp/cc8DLllS.ltrans11.ltrans.o
                                                  obj/main/NAZE/blackbox/blackbox.o (symbol from plugin)
blackboxHistory.lto_priv.523                      /tmp/cc8DLllS.ltrans12.ltrans.o
                                                  /tmp/cc8DLllS.ltrans11.ltrans.o
blackboxHistoryRing.lto_priv.524                  /tmp/cc8DLllS.ltrans12.ltrans.o
                                                  /tmp/cc8DLllS.ltrans11.ltrans.o
blackboxIFrameIndex.lto_priv.522                  /tmp/cc8DLllS.ltrans12.ltrans.o
                                                  /tmp/cc8DLllS.ltrans11.ltrans.o
blackboxIteration.lto_priv.384                    /tmp/cc8DLllS.ltrans1.ltrans.o
                                                  /tmp/cc8DLllS.ltrans12.ltrans.o
                                                  /tmp/cc8DLllS.ltrans11.ltrans.o
blackboxLastArmingBeep.lto_priv.525               /tmp/cc8DLllS.ltrans12.ltrans.o
                                                  /tmp/cc8DLllS.ltrans11.ltrans.o
blackboxLogEvent                                  /tmp/cc8DLllS.ltrans11.ltrans.o
                                                  obj/main/NAZE/blackbox/blackbox.o (symbol from plugin)
                                                  /tmp/cc8DLllS.ltrans18.ltrans.o
                                                  /tmp/cc8DLllS.ltrans17.ltrans.o
                                                  /tmp/cc8DLllS.ltrans16.ltrans.o
                                                  /tmp/cc8DLllS.ltrans12.ltrans.o
                                                  /tmp/cc8DLllS.ltrans1.ltrans.o
                                                  obj/main/NAZE/io/rc_controls.o (symbol from plugin)
                                                  obj/main/NAZE/flight/gtune.o (symbol from plugin)
blackboxLogInflightAdjustmentEvent                /tmp/cc8DLllS.ltrans16.ltrans.o
                                                  obj/main/NAZE/io/rc_controls.o (symbol from plugin)
                                                  /tmp/cc8DLllS.ltrans18.ltrans.o
                                                  /tmp/cc8DLllS.ltrans3.ltrans.o
blackboxLogInflightAdjustmentEventFloat           obj/main/NAZE/io/rc_controls.o (symbol from plugin)
blackboxLogIteration.lto_priv.376                 /tmp/cc8DLllS.ltrans11.ltrans.o
                                                  /tmp/cc8DLllS.ltrans1.ltrans.o
blackboxLoggedAnyFrames.lto_priv.388              /tmp/cc8DLllS.ltrans1.ltrans.o
                                                  /tmp/cc8DLllS.ltrans12.ltrans.o
                                                  /tmp/cc8DLllS.ltrans11.ltrans.o
blackboxMaxHeaderBytesPerIteration.lto_priv.391   /tmp/cc8DLllS.ltrans1.ltrans.o
                                                  /tmp/cc8DLllS.ltrans12.ltrans.o
blackboxMayEditConfig                             obj/main/NAZE/blackbox/blackbox.o (symbol from plugin)
                                                  obj/main/NAZE/io/serial_msp.o (symbol from plugin)
blackboxModeActivationConditionPresent.lto_priv.383 /tmp/cc8DLllS.ltrans1.ltrans.o
                                                  /tmp/cc8DLllS.ltrans12.ltrans.o
blackboxPFrameIndex.lto_priv.385                  /tmp/cc8DLllS.ltrans1.ltrans.o
                                                  /tmp/cc8DLllS.ltrans12.ltrans.o
                                                  /tmp/cc8DLllS.ltrans11.ltrans.o
blackboxPort.lto_priv.393                         /tmp/cc8DLllS.ltrans1.ltrans.o
                                                  /tmp/cc8DLllS.ltrans25.ltrans.o
                                                  /tmp/cc8DLllS.ltrans12.ltrans.o
                                                  /tmp/cc8DLllS.ltrans11.ltrans.o
blackboxPortSharing.lto_priv.392                  /tmp/cc8DLllS.ltrans1.ltrans.o
                                                  /tmp/cc8DLllS.ltrans12.ltrans.o
blackboxPrint                                     /tmp/cc8DLllS.ltrans25.ltrans.o
                                                  obj/main/NAZE/blackbox/blackbox_io.o (symbol from plugin)
                                                  /tmp/cc8DLllS.ltrans11.ltrans.o
                                                  obj/main/NAZE/blackbox/blackbox.o (symbol from plugin)
blackboxPrintf                                    /tmp/cc8DLllS.ltrans25.ltrans.o
                                                  obj/main/NAZE/blackbox/blackbox_io.o (symbol from plugin)
                                                  /tmp/cc8DLllS.ltrans11.ltrans.o
                                                  obj/main/NAZE/blackbox/blackbox.o (symbol from plugin)
blackboxPrintfHeaderLine                          /tmp/cc8DLllS.ltrans25.ltrans.o
                                                  obj/main/NAZE/blackbox/blackbox_io.o (symbol from plugin)
                                                  /tmp/cc8DLllS.ltrans1.ltrans.o
                                                  obj/main/NAZE/blackbox/blackbox.o (symbol from plugin)
blackboxReplenishHeaderBudget                     obj/main/NAZE/blackbox/blackbox_io.o (symbol from plugin)
                                                  obj/main/NAZE/blackbox/blackbox.o (symbol from plugin)
blackboxSlowFrameIterationTimer.lto_priv.390      /tmp/cc8DLllS.ltrans1.ltrans.o
                                                  /tmp/cc8DLllS.ltrans11.ltrans.o
blackboxState.lto_priv.357                        /tmp/cc8DLllS.ltrans2.ltrans.o
                                                  /tmp/cc8DLllS.ltrans12.ltrans.o
                                                  /tmp/cc8DLllS.ltrans11.ltrans.o
                                                  /tmp/cc8DLllS.ltrans1.ltrans.o
                                                  /tmp/cc8DLllS.ltrans0.ltrans.o
blackboxWrite                                     /tmp/cc8DLllS.ltrans11.ltrans.o
                                                  obj/main/NAZE/blackbox/blackbox_io.o (symbol from plugin)
                                                  /tmp/cc8DLllS.ltrans25.ltrans.o
                                                  /tmp/cc8DLllS.ltrans1.ltrans.o
                                                  obj/main/NAZE/blackbox/blackbox.o (symbol from plugin)
blackboxWriteFloat                                obj/main/NAZE/blackbox/blackbox_io.o (symbol from plugin)
                                                  obj/main/NAZE/blackbox/blackbox.o (symbol from plugin)
blackboxWriteS16                                  obj/main/NAZE/blackbox/blackbox_io.o (symbol from plugin)
                                                  obj/main/NAZE/blackbox/blackbox.o (symbol from plugin)
blackboxWriteSigned16VBArray                      obj/main/NAZE/blackbox/blackbox_io.o (symbol from plugin)
                                                  obj/main/NAZE/blackbox/blackbox.o (symbol from plugin)
blackboxWriteSigned16VBArray.constprop.94         /tmp/cc8DLllS.ltrans24.ltrans.o
                                                  /tmp/cc8DLllS.ltrans11.ltrans.o
blackboxWriteSignedVB                             /tmp/cc8DLllS.ltrans25.ltrans.o
                                                  obj/main/NAZE/blackbox/blackbox_io.o (symbol from plugin)
                                                  /tmp/cc8DLllS.ltrans24.ltrans.o
                                                  /tmp/cc8DLllS.ltrans11.ltrans.o
                                                  obj/main/NAZE/blackbox/blackbox.o (symbol from plugin)
blackboxWriteSignedVBArray                        obj/main/NAZE/blackbox/blackbox_io.o (symbol from plugin)
                                                  obj/main/NAZE/blackbox/blackbox.o (symbol from plugin)
blackboxWriteSignedVBArray.constprop.93           /tmp/cc8DLllS.ltrans24.ltrans.o
                                                  /tmp/cc8DLllS.ltrans11.ltrans.o
blackboxWriteTag2_3S32                            /tmp/cc8DLllS.ltrans25.ltrans.o
                                                  obj/main/NAZE/blackbox/blackbox_io.o (symbol from plugin)
                                                  /tmp/cc8DLllS.ltrans11.ltrans.o
                                                  obj/main/NAZE/blackbox/blackbox.o (symbol from plugin)
blackboxWriteTag8_4S16                            obj/main/NAZE/blackbox/blackbox_io.o (symbol from plugin)
                                                  obj/main/NAZE/blackbox/blackbox.o (symbol from plugin)
blackboxWriteTag8_8SVB                            obj/main/NAZE/blackbox/blackbox_io.o (symbol from plugin)
                                                  obj/main/NAZE/blackbox/blackbox.o (symbol from plugin)
blackboxWriteU32                                  obj/main/NAZE/blackbox/blackbox_io.o (symbol from plugin)
blackboxWriteUnsignedVB                           /tmp/cc8DLllS.ltrans25.ltrans.o
                                                  obj/main/NAZE/blackbox/blackbox_io.o (symbol from plugin)
                                                  /tmp/cc8DLllS.ltrans11.ltrans.o
                                                  obj/main/NAZE/blackbox/blackbox.o (symbol from plugin)
bma280Detect                                      /tmp/cc8DLllS.ltrans4.ltrans.o
                                                  obj/main/NAZE/drivers/accgyro_bma280.o (symbol from plugin)
                                                  /tmp/cc8DLllS.ltrans0.ltrans.o
                                                  obj/main/NAZE/drivers/sensor.o (symbol from plugin)
bma280_name                                       obj/main/NAZE/drivers/accgyro_bma280.o (symbol from plugin)
bmp085Config.lto_priv.571                         /tmp/cc8DLllS.ltrans24.ltrans.o
bmp085Detect                                      /tmp/cc8DLllS.ltrans4.ltrans.o
                                                  obj/main/NAZE/drivers/barometer_bmp085.o (symbol from plugin)
                                                  /tmp/cc8DLllS.ltrans0.ltrans.o
                                                  obj/main/NAZE/drivers/sensor.o (symbol from plugin)
bmp085Disable                                     /tmp/cc8DLllS.ltrans4.ltrans.o
                                                  obj/main/NAZE/drivers/barometer_bmp085.o (symbol from plugin)
                                                  /tmp/cc8DLllS.ltrans0.ltrans.o
                                                  obj/main/NAZE/drivers/sensor.o (symbol from plugin)
bmp085InitXCLRGpio                                obj/main/NAZE/drivers/barometer_bmp085.o (symbol from plugin)
bmp085InitXCLRGpio.constprop.154                  /tmp/cc8DLllS.ltrans24.ltrans.o
                                                  /tmp/cc8DLllS.ltrans4.ltrans.o
bmp085TestEOCConnected                            obj/main/NAZE/drivers/barometer_bmp085.o (symbol from plugin)
bmp085_name                                       obj/main/NAZE/drivers/barometer_bmp085.o (symbol from plugin)
bmp280Detect                                      /tmp/cc8DLllS.ltrans4.ltrans.o
                                                  obj/main/NAZE/drivers/barometer_bmp280.o (symbol from plugin)
                                                  /tmp/cc8DLllS.ltrans0.ltrans.o
                                                  obj/main/NAZE/drivers/sensor.o (symbol from plugin)
bmp280_name                                       obj/main/NAZE/drivers/barometer_bmp280.o (symbol from plugin)
boardRotation.lto_priv.453                        /tmp/cc8DLllS.ltrans18.ltrans.o
                                                  /tmp/cc8DLllS.ltrans0.ltrans.o
bufWriterAppend                                   /tmp/cc8DLllS.ltrans16.ltrans.o
                                                  obj/main/NAZE/drivers/buf_writer.o (symbol from plugin)
                                                  /tmp/cc8DLllS.ltrans9.ltrans.o
                                                  obj/main/NAZE/io/serial_msp.o (symbol from plugin)
                                                  obj/main/NAZE/io/serial_cli.o (symbol from plugin)
bufWriterFlush                                    /tmp/cc8DLllS.ltrans16.ltrans.o
                                                  obj/main/NAZE/drivers/buf_writer.o (symbol from plugin)
                                                  /tmp/cc8DLllS.ltrans14.ltrans.o
                                                  /tmp/cc8DLllS.ltrans10.ltrans.o
                                                  /tmp/cc8DLllS.ltrans2.ltrans.o
                                                  obj/main/NAZE/io/serial_msp.o (symbol from plugin)
                                                  obj/main/NAZE/io/serial_cli.o (symbol from plugin)
bufWriterInit                                     obj/main/NAZE/drivers/buf_writer.o (symbol from plugin)
                                                  obj/main/NAZE/io/serial_msp.o (symbol from plugin)
                                                  obj/main/NAZE/io/serial_cli.o (symbol from plugin)
bufferHead.lto_priv.519                           /tmp/cc8DLllS.ltrans25.ltrans.o
                                                  /tmp/cc8DLllS.ltrans17.ltrans.o
                                                  /tmp/cc8DLllS.ltrans11.ltrans.o
bufferIndex.lto_priv.328                          /tmp/cc8DLllS.ltrans14.ltrans.o
                                                  /tmp/cc8DLllS.ltrans2.ltrans.o
bufferTail.lto_priv.556                           /tmp/cc8DLllS.ltrans25.ltrans.o
                                                  /tmp/cc8DLllS.ltrans17.ltrans.o
buildDate                                         /tmp/cc8DLllS.ltrans9.ltrans.o
                                                  obj/main/NAZE/version.o (symbol from plugin)
                                                  obj/main/NAZE/io/serial_msp.o (symbol from plugin)
                                                  obj/main/NAZE/io/serial_cli.o (symbol from plugin)
                                                  obj/main/NAZE/blackbox/blackbox.o (symbol from plugin)
buildRotationMatrix                               obj/main/NAZE/common/maths.o (symbol from plugin)
                                                  obj/main/NAZE/sensors/boardalignment.o (symbol from plugin)
buildTime                                         /tmp/cc8DLllS.ltrans9.ltrans.o
                                                  obj/main/NAZE/version.o (symbol from plugin)
                                                  obj/main/NAZE/io/serial_msp.o (symbol from plugin)
                                                  obj/main/NAZE/io/serial_cli.o (symbol from plugin)
                                                  obj/main/NAZE/blackbox/blackbox.o (symbol from plugin)
c_log_flags                                       obj/main/NAZE/pif/source/core/pif_log.o (symbol from plugin)
cachedRccCsrValue                                 obj/main/NAZE/drivers/system.o (symbol from plugin)
                                                  obj/main/NAZE/drivers/system_stm32f10x.o (symbol from plugin)
calculateAccZLowPassFilterRCTimeConstant          obj/main/NAZE/flight/imu.o (symbol from plugin)
calculateAltHoldThrottleAdjustment                obj/main/NAZE/flight/altitudehold.o (symbol from plugin)
calculateBatteryCapacityRemainingPercentage       /tmp/cc8DLllS.ltrans18.ltrans.o
                                                  obj/main/NAZE/sensors/battery.o (symbol from plugin)
                                                  /tmp/cc8DLllS.ltrans20.ltrans.o
                                                  /tmp/cc8DLllS.ltrans5.ltrans.o
                                                  obj/main/NAZE/telemetry/frsky.o (symbol from plugin)
                                                  obj/main/NAZE/io/display.o (symbol from plugin)
calculateBatteryPercentage                        obj/main/NAZE/sensors/battery.o (symbol from plugin)
                                                  obj/main/NAZE/io/display.o (symbol from plugin)
calculateChannelRemapping                         obj/main/NAZE/rx/rx.o (symbol from plugin)
calculateEstimatedAltitude                        obj/main/NAZE/flight/altitudehold.o (symbol from plugin)
                                                  obj/main/NAZE/mw.o (symbol from plugin)
calculateRollPitchCenterStatus                    obj/main/NAZE/io/rc_controls.o (symbol from plugin)
                                                  obj/main/NAZE/mw.o (symbol from plugin)
calculateRxChannelsAndUpdateFailsafe              obj/main/NAZE/rx/rx.o (symbol from plugin)
                                                  obj/main/NAZE/mw.o (symbol from plugin)
calculateThrottleAngleCorrection                  obj/main/NAZE/flight/imu.o (symbol from plugin)
                                                  obj/main/NAZE/mw.o (symbol from plugin)
calculateThrottleAngleScale                       obj/main/NAZE/flight/imu.o (symbol from plugin)
calculateThrottleStatus                           /tmp/cc8DLllS.ltrans16.ltrans.o
                                                  obj/main/NAZE/io/rc_controls.o (symbol from plugin)
                                                  /tmp/cc8DLllS.ltrans28.ltrans.o
                                                  /tmp/cc8DLllS.ltrans5.ltrans.o
                                                  /tmp/cc8DLllS.ltrans3.ltrans.o
                                                  obj/main/NAZE/flight/failsafe.o (symbol from plugin)
                                                  obj/main/NAZE/mw.o (symbol from plugin)
                                                  obj/main/NAZE/telemetry/frsky.o (symbol from plugin)
calculate_Gtune                                   /tmp/cc8DLllS.ltrans17.ltrans.o
                                                  obj/main/NAZE/flight/gtune.o (symbol from plugin)
                                                  /tmp/cc8DLllS.ltrans23.ltrans.o
                                                  obj/main/NAZE/flight/pid.o (symbol from plugin)
calculatedAltitude.lto_priv.325                   /tmp/cc8DLllS.ltrans19.ltrans.o
                                                  /tmp/cc8DLllS.ltrans20.ltrans.o
                                                  /tmp/cc8DLllS.ltrans2.ltrans.o
                                                  /tmp/cc8DLllS.ltrans0.ltrans.o
calibratingA.lto_priv.316                         /tmp/cc8DLllS.ltrans3.ltrans.o
                                                  /tmp/cc8DLllS.ltrans29.ltrans.o
                                                  /tmp/cc8DLllS.ltrans2.ltrans.o
                                                  /tmp/cc8DLllS.ltrans1.ltrans.o
                                                  /tmp/cc8DLllS.ltrans0.ltrans.o
calibratingB.lto_priv.273                         /tmp/cc8DLllS.ltrans19.ltrans.o
                                                  /tmp/cc8DLllS.ltrans3.ltrans.o
                                                  /tmp/cc8DLllS.ltrans1.ltrans.o
                                                  /tmp/cc8DLllS.ltrans0.ltrans.o
calibratingG.lto_priv.369                         /tmp/cc8DLllS.ltrans3.ltrans.o
                                                  /tmp/cc8DLllS.ltrans1.ltrans.o
                                                  /tmp/cc8DLllS.ltrans0.ltrans.o
calloc                                            /usr/lib/gcc/arm-none-eabi/4.9.3/../../../arm-none-eabi/lib/armv7-m/libc_nano.a(lib_a-calloc.o)
                                                  /tmp/cc8DLllS.ltrans25.ltrans.o
canSendSmartPortTelemetry                         obj/main/NAZE/telemetry/smartport.o (symbol from plugin)
captures.lto_priv.283                             /tmp/cc8DLllS.ltrans9.ltrans.o
                                                  /tmp/cc8DLllS.ltrans7.ltrans.o
                                                  /tmp/cc8DLllS.ltrans3.ltrans.o
castFloatBytesToInt                               obj/main/NAZE/common/encoding.o (symbol from plugin)
                                                  obj/main/NAZE/blackbox/blackbox_io.o (symbol from plugin)
                                                  obj/main/NAZE/blackbox/blackbox.o (symbol from plugin)
cfTasks                                           /tmp/cc8DLllS.ltrans9.ltrans.o
                                                  obj/main/NAZE/scheduler_tasks.o (symbol from plugin)
                                                  /tmp/cc8DLllS.ltrans19.ltrans.o
                                                  /tmp/cc8DLllS.ltrans12.ltrans.o
                                                  /tmp/cc8DLllS.ltrans7.ltrans.o
                                                  /tmp/cc8DLllS.ltrans6.ltrans.o
                                                  /tmp/cc8DLllS.ltrans0.ltrans.o
                                                  obj/main/NAZE/mw.o (symbol from plugin)
                                                  obj/main/NAZE/main.o (symbol from plugin)
                                                  obj/main/NAZE/scheduler.o (symbol from plugin)
                                                  obj/main/NAZE/drivers/pwm_rx.o (symbol from plugin)
changeControlRateProfile                          obj/main/NAZE/config/config.o (symbol from plugin)
                                                  obj/main/NAZE/io/serial_cli.o (symbol from plugin)
                                                  obj/main/NAZE/io/rc_controls.o (symbol from plugin)
changeProfile                                     obj/main/NAZE/config/config.o (symbol from plugin)
                                                  obj/main/NAZE/io/rc_controls.o (symbol from plugin)
changeTask                                        obj/main/NAZE/scheduler.o (symbol from plugin)
                                                  obj/main/NAZE/main.o (symbol from plugin)
checkFrSkyTelemetryState                          obj/main/NAZE/telemetry/frsky.o (symbol from plugin)
                                                  obj/main/NAZE/telemetry/telemetry.o (symbol from plugin)
checkHoTTTelemetryState                           obj/main/NAZE/telemetry/hott.o (symbol from plugin)
                                                  obj/main/NAZE/telemetry/telemetry.o (symbol from plugin)
checkLtmTelemetryState                            obj/main/NAZE/telemetry/ltm.o (symbol from plugin)
                                                  obj/main/NAZE/telemetry/telemetry.o (symbol from plugin)
checkSmartPortTelemetryState                      obj/main/NAZE/telemetry/smartport.o (symbol from plugin)
                                                  obj/main/NAZE/telemetry/telemetry.o (symbol from plugin)
cleanup_glue                                      /usr/lib/gcc/arm-none-eabi/4.9.3/../../../arm-none-eabi/lib/armv7-m/libc_nano.a(lib_a-reent.o)
cliAdjustmentRange.lto_priv.197                   /tmp/cc8DLllS.ltrans10.ltrans.o
                                                  /tmp/cc8DLllS.ltrans14.ltrans.o
cliAux.lto_priv.198                               /tmp/cc8DLllS.ltrans10.ltrans.o
                                                  /tmp/cc8DLllS.ltrans14.ltrans.o
cliBuffer.lto_priv.329                            /tmp/cc8DLllS.ltrans14.ltrans.o
                                                  /tmp/cc8DLllS.ltrans2.ltrans.o
cliColor.lto_priv.199                             /tmp/cc8DLllS.ltrans10.ltrans.o
                                                  /tmp/cc8DLllS.ltrans14.ltrans.o
cliDefaults.lto_priv.330                          /tmp/cc8DLllS.ltrans14.ltrans.o
cliDump.lto_priv.331                              /tmp/cc8DLllS.ltrans14.ltrans.o
cliEnter                                          obj/main/NAZE/io/serial_cli.o (symbol from plugin)
                                                  obj/main/NAZE/io/serial.o (symbol from plugin)
cliExit.lto_priv.332                              /tmp/cc8DLllS.ltrans14.ltrans.o
                                                  /tmp/cc8DLllS.ltrans2.ltrans.o
cliFeature.lto_priv.333                           /tmp/cc8DLllS.ltrans14.ltrans.o
cliFlashErase.lto_priv.334                        /tmp/cc8DLllS.ltrans14.ltrans.o
cliFlashInfo.lto_priv.335                         /tmp/cc8DLllS.ltrans14.ltrans.o
cliGet.lto_priv.200                               /tmp/cc8DLllS.ltrans9.ltrans.o
                                                  /tmp/cc8DLllS.ltrans14.ltrans.o
cliGpsPassthrough.lto_priv.336                    /tmp/cc8DLllS.ltrans14.ltrans.o
cliHelp.lto_priv.337                              /tmp/cc8DLllS.ltrans14.ltrans.o
cliInit                                           obj/main/NAZE/io/serial_cli.o (symbol from plugin)
                                                  obj/main/NAZE/main.o (symbol from plugin)
cliLed.lto_priv.201                               /tmp/cc8DLllS.ltrans10.ltrans.o
                                                  /tmp/cc8DLllS.ltrans14.ltrans.o
cliMap.lto_priv.338                               /tmp/cc8DLllS.ltrans14.ltrans.o
cliMixer.lto_priv.339                             /tmp/cc8DLllS.ltrans14.ltrans.o
cliMode                                           /tmp/cc8DLllS.ltrans14.ltrans.o
                                                  obj/main/NAZE/io/serial_cli.o (symbol from plugin)
                                                  /tmp/cc8DLllS.ltrans5.ltrans.o
                                                  /tmp/cc8DLllS.ltrans3.ltrans.o
                                                  /tmp/cc8DLllS.ltrans2.ltrans.o
                                                  /tmp/cc8DLllS.ltrans1.ltrans.o
                                                  obj/main/NAZE/io/serial.o (symbol from plugin)
                                                  obj/main/NAZE/mw.o (symbol from plugin)
cliMotor.lto_priv.340                             /tmp/cc8DLllS.ltrans14.ltrans.o
cliMotorMix.lto_priv.202                          /tmp/cc8DLllS.ltrans10.ltrans.o
                                                  /tmp/cc8DLllS.ltrans14.ltrans.o
cliPlaySound.lto_priv.341                         /tmp/cc8DLllS.ltrans14.ltrans.o
cliPort.lto_priv.327                              /tmp/cc8DLllS.ltrans14.ltrans.o
                                                  /tmp/cc8DLllS.ltrans2.ltrans.o
cliPrint.lto_priv.211                             /tmp/cc8DLllS.ltrans9.ltrans.o
                                                  /tmp/cc8DLllS.ltrans14.ltrans.o
                                                  /tmp/cc8DLllS.ltrans10.ltrans.o
                                                  /tmp/cc8DLllS.ltrans2.ltrans.o
cliPrintVar.lto_priv.218                          /tmp/cc8DLllS.ltrans9.ltrans.o
                                                  /tmp/cc8DLllS.ltrans14.ltrans.o
cliPrintf.lto_priv.213                            /tmp/cc8DLllS.ltrans9.ltrans.o
                                                  /tmp/cc8DLllS.ltrans14.ltrans.o
                                                  /tmp/cc8DLllS.ltrans10.ltrans.o
cliProcess                                        obj/main/NAZE/io/serial_cli.o (symbol from plugin)
                                                  obj/main/NAZE/io/serial.o (symbol from plugin)
cliProfile.lto_priv.342                           /tmp/cc8DLllS.ltrans14.ltrans.o
cliPrompt.lto_priv.355                            /tmp/cc8DLllS.ltrans10.ltrans.o
                                                  /tmp/cc8DLllS.ltrans2.ltrans.o
cliRateProfile.lto_priv.343                       /tmp/cc8DLllS.ltrans14.ltrans.o
cliRxFail.lto_priv.204                            /tmp/cc8DLllS.ltrans10.ltrans.o
                                                  /tmp/cc8DLllS.ltrans14.ltrans.o
cliRxRange.lto_priv.203                           /tmp/cc8DLllS.ltrans10.ltrans.o
                                                  /tmp/cc8DLllS.ltrans14.ltrans.o
cliSave.lto_priv.344                              /tmp/cc8DLllS.ltrans14.ltrans.o
cliSerial.lto_priv.205                            /tmp/cc8DLllS.ltrans10.ltrans.o
                                                  /tmp/cc8DLllS.ltrans14.ltrans.o
cliServo.lto_priv.206                             /tmp/cc8DLllS.ltrans10.ltrans.o
                                                  /tmp/cc8DLllS.ltrans14.ltrans.o
cliServoMix.lto_priv.345                          /tmp/cc8DLllS.ltrans14.ltrans.o
cliSet.lto_priv.207                               /tmp/cc8DLllS.ltrans9.ltrans.o
                                                  /tmp/cc8DLllS.ltrans14.ltrans.o
cliShowArgumentRangeError.lto_priv.214            /tmp/cc8DLllS.ltrans10.ltrans.o
                                                  /tmp/cc8DLllS.ltrans14.ltrans.o
cliShowParseError.lto_priv.215                    /tmp/cc8DLllS.ltrans10.ltrans.o
                                                  /tmp/cc8DLllS.ltrans14.ltrans.o
cliStatus.lto_priv.208                            /tmp/cc8DLllS.ltrans9.ltrans.o
                                                  /tmp/cc8DLllS.ltrans14.ltrans.o
cliTasks.lto_priv.209                             /tmp/cc8DLllS.ltrans9.ltrans.o
                                                  /tmp/cc8DLllS.ltrans14.ltrans.o
cliVersion.lto_priv.210                           /tmp/cc8DLllS.ltrans9.ltrans.o
                                                  /tmp/cc8DLllS.ltrans14.ltrans.o
cliWrite.lto_priv.217                             /tmp/cc8DLllS.ltrans9.ltrans.o
                                                  /tmp/cc8DLllS.ltrans14.ltrans.o
                                                  /tmp/cc8DLllS.ltrans2.ltrans.o
cliWriter.lto_priv.195                            /tmp/cc8DLllS.ltrans9.ltrans.o
                                                  /tmp/cc8DLllS.ltrans14.ltrans.o
                                                  /tmp/cc8DLllS.ltrans10.ltrans.o
                                                  /tmp/cc8DLllS.ltrans2.ltrans.o
closeSerialPort                                   /tmp/cc8DLllS.ltrans10.ltrans.o
                                                  obj/main/NAZE/io/serial.o (symbol from plugin)
                                                  /tmp/cc8DLllS.ltrans27.ltrans.o
                                                  /tmp/cc8DLllS.ltrans9.ltrans.o
                                                  /tmp/cc8DLllS.ltrans1.ltrans.o
                                                  obj/main/NAZE/io/serial_msp.o (symbol from plugin)
                                                  obj/main/NAZE/blackbox/blackbox_io.o (symbol from plugin)
                                                  obj/main/NAZE/telemetry/ltm.o (symbol from plugin)
                                                  obj/main/NAZE/telemetry/smartport.o (symbol from plugin)
                                                  obj/main/NAZE/telemetry/hott.o (symbol from plugin)
                                                  obj/main/NAZE/telemetry/frsky.o (symbol from plugin)
cmdTable                                          /tmp/cc8DLllS.ltrans14.ltrans.o
                                                  obj/main/NAZE/io/serial_cli.o (symbol from plugin)
                                                  /tmp/cc8DLllS.ltrans2.ltrans.o
colors                                            /tmp/cc8DLllS.ltrans10.ltrans.o
                                                  obj/main/NAZE/io/ledstrip.o (symbol from plugin)
                                                  /tmp/cc8DLllS.ltrans20.ltrans.o
                                                  /tmp/cc8DLllS.ltrans8.ltrans.o
                                                  /tmp/cc8DLllS.ltrans0.ltrans.o
compassInit                                       obj/main/NAZE/sensors/compass.o (symbol from plugin)
                                                  obj/main/NAZE/main.o (symbol from plugin)
configTimeBase                                    /tmp/cc8DLllS.ltrans17.ltrans.o
                                                  obj/main/NAZE/drivers/timer.o (symbol from plugin)
                                                  /tmp/cc8DLllS.ltrans7.ltrans.o
                                                  obj/main/NAZE/drivers/pwm_output.o (symbol from plugin)
configureAdjustmentState                          obj/main/NAZE/io/rc_controls.o (symbol from plugin)
configureAltitudeHold                             obj/main/NAZE/flight/altitudehold.o (symbol from plugin)
                                                  obj/main/NAZE/config/config.o (symbol from plugin)
configureFrSkyTelemetryPort                       obj/main/NAZE/telemetry/frsky.o (symbol from plugin)
configureHoTTTelemetryPort                        obj/main/NAZE/telemetry/hott.o (symbol from plugin)
configureLtmTelemetryPort                         obj/main/NAZE/telemetry/ltm.o (symbol from plugin)
configureSmartPortTelemetryPort                   obj/main/NAZE/telemetry/smartport.o (symbol from plugin)
constrain                                         obj/main/NAZE/common/maths.o (symbol from plugin)
                                                  obj/main/NAZE/sensors/battery.o (symbol from plugin)
                                                  obj/main/NAZE/rx/rx.o (symbol from plugin)
                                                  obj/main/NAZE/io/serial_msp.o (symbol from plugin)
                                                  obj/main/NAZE/io/serial_cli.o (symbol from plugin)
                                                  obj/main/NAZE/io/rc_controls.o (symbol from plugin)
                                                  obj/main/NAZE/flight/mixer.o (symbol from plugin)
                                                  obj/main/NAZE/flight/pid.o (symbol from plugin)
                                                  obj/main/NAZE/flight/altitudehold.o (symbol from plugin)
                                                  obj/main/NAZE/mw.o (symbol from plugin)
                                                  obj/main/NAZE/scheduler.o (symbol from plugin)
                                                  obj/main/NAZE/config/config.o (symbol from plugin)
                                                  obj/main/NAZE/blackbox/blackbox_io.o (symbol from plugin)
                                                  obj/main/NAZE/telemetry/frsky.o (symbol from plugin)
                                                  obj/main/NAZE/io/display.o (symbol from plugin)
                                                  obj/main/NAZE/flight/navigation.o (symbol from plugin)
                                                  obj/main/NAZE/flight/gtune.o (symbol from plugin)
constrainf                                        obj/main/NAZE/common/maths.o (symbol from plugin)
                                                  obj/main/NAZE/io/rc_controls.o (symbol from plugin)
                                                  obj/main/NAZE/flight/pid.o (symbol from plugin)
copysignf                                         /usr/lib/gcc/arm-none-eabi/4.9.3/../../../arm-none-eabi/lib/armv7-m/libm.a(lib_a-sf_copysign.o)
                                                  /usr/lib/gcc/arm-none-eabi/4.9.3/../../../arm-none-eabi/lib/armv7-m/libm.a(lib_a-sf_scalbn.o)
cosf                                              /tmp/cc8DLllS.ltrans6.ltrans.o
                                                  /tmp/cc8DLllS.ltrans17.ltrans.o
                                                  /tmp/cc8DLllS.ltrans13.ltrans.o
                                                  /tmp/cc8DLllS.ltrans1.ltrans.o
                                                  /tmp/cc8DLllS.ltrans0.ltrans.o
couldBeBusy.lto_priv.557                          /tmp/cc8DLllS.ltrans0.ltrans.o
                                                  /tmp/cc8DLllS.ltrans22.ltrans.o
                                                  /tmp/cc8DLllS.ltrans17.ltrans.o
crc.lto_priv.292                                  /tmp/cc8DLllS.ltrans9.ltrans.o
                                                  /tmp/cc8DLllS.ltrans3.ltrans.o
createTask                                        obj/main/NAZE/scheduler.o (symbol from plugin)
                                                  obj/main/NAZE/main.o (symbol from plugin)
createTask.part.1.lto_priv.398                    /tmp/cc8DLllS.ltrans6.ltrans.o
                                                  /tmp/cc8DLllS.ltrans12.ltrans.o
currentBeeperEntry.lto_priv.308                   /tmp/cc8DLllS.ltrans16.ltrans.o
                                                  /tmp/cc8DLllS.ltrans28.ltrans.o
currentControlRateProfile                         /tmp/cc8DLllS.ltrans14.ltrans.o
                                                  obj/main/NAZE/config/config.o (symbol from plugin)
                                                  /tmp/cc8DLllS.ltrans21.ltrans.o
                                                  /tmp/cc8DLllS.ltrans6.ltrans.o
                                                  /tmp/cc8DLllS.ltrans3.ltrans.o
                                                  /tmp/cc8DLllS.ltrans2.ltrans.o
                                                  /tmp/cc8DLllS.ltrans1.ltrans.o
                                                  obj/main/NAZE/io/serial_msp.o (symbol from plugin)
                                                  obj/main/NAZE/mw.o (symbol from plugin)
currentControlRateProfileIndex.lto_priv.196       /tmp/cc8DLllS.ltrans9.ltrans.o
                                                  /tmp/cc8DLllS.ltrans21.ltrans.o
                                                  /tmp/cc8DLllS.ltrans20.ltrans.o
                                                  /tmp/cc8DLllS.ltrans14.ltrans.o
                                                  /tmp/cc8DLllS.ltrans6.ltrans.o
                                                  /tmp/cc8DLllS.ltrans3.ltrans.o
currentMixer.lto_priv.455                         /tmp/cc8DLllS.ltrans1.ltrans.o
                                                  /tmp/cc8DLllS.ltrans0.ltrans.o
currentMixerMode.lto_priv.454                     /tmp/cc8DLllS.ltrans1.ltrans.o
                                                  /tmp/cc8DLllS.ltrans0.ltrans.o
currentPort.lto_priv.313                          /tmp/cc8DLllS.ltrans9.ltrans.o
                                                  /tmp/cc8DLllS.ltrans2.ltrans.o
currentProfile                                    /tmp/cc8DLllS.ltrans14.ltrans.o
                                                  obj/main/NAZE/config/config.o (symbol from plugin)
                                                  /tmp/cc8DLllS.ltrans29.ltrans.o
                                                  /tmp/cc8DLllS.ltrans21.ltrans.o
                                                  /tmp/cc8DLllS.ltrans12.ltrans.o
                                                  /tmp/cc8DLllS.ltrans10.ltrans.o
                                                  /tmp/cc8DLllS.ltrans6.ltrans.o
                                                  /tmp/cc8DLllS.ltrans3.ltrans.o
                                                  /tmp/cc8DLllS.ltrans2.ltrans.o
                                                  /tmp/cc8DLllS.ltrans1.ltrans.o
                                                  /tmp/cc8DLllS.ltrans0.ltrans.o
                                                  obj/main/NAZE/io/serial_msp.o (symbol from plugin)
                                                  obj/main/NAZE/io/serial_cli.o (symbol from plugin)
                                                  obj/main/NAZE/mw.o (symbol from plugin)
                                                  obj/main/NAZE/main.o (symbol from plugin)
                                                  obj/main/NAZE/blackbox/blackbox.o (symbol from plugin)
currentSensorToCentiamps                          obj/main/NAZE/sensors/battery.o (symbol from plugin)
currentServoMixer.lto_priv.361                    /tmp/cc8DLllS.ltrans16.ltrans.o
                                                  /tmp/cc8DLllS.ltrans1.ltrans.o
                                                  /tmp/cc8DLllS.ltrans0.ltrans.o
customServoMixers.lto_priv.464                    /tmp/cc8DLllS.ltrans16.ltrans.o
                                                  /tmp/cc8DLllS.ltrans0.ltrans.o
cyclePageIds                                      obj/main/NAZE/io/display.o (symbol from plugin)
cycleTime                                         /tmp/cc8DLllS.ltrans9.ltrans.o
                                                  obj/main/NAZE/mw.o (symbol from plugin)
                                                  /tmp/cc8DLllS.ltrans2.ltrans.o
                                                  /tmp/cc8DLllS.ltrans1.ltrans.o
                                                  obj/main/NAZE/io/serial_msp.o (symbol from plugin)
                                                  obj/main/NAZE/io/serial_cli.o (symbol from plugin)
                                                  obj/main/NAZE/flight/gtune.o (symbol from plugin)
dT                                                /tmp/cc8DLllS.ltrans23.ltrans.o
                                                  obj/main/NAZE/mw.o (symbol from plugin)
                                                  /tmp/cc8DLllS.ltrans1.ltrans.o
                                                  obj/main/NAZE/flight/pid.o (symbol from plugin)
deadband3dThrottle.lto_priv.444                   /tmp/cc8DLllS.ltrans3.ltrans.o
                                                  /tmp/cc8DLllS.ltrans0.ltrans.o
debug                                             /tmp/cc8DLllS.ltrans2.ltrans.o
                                                  obj/main/NAZE/debug.o (symbol from plugin)
                                                  /tmp/cc8DLllS.ltrans7.ltrans.o
                                                  /tmp/cc8DLllS.ltrans1.ltrans.o
                                                  /tmp/cc8DLllS.ltrans0.ltrans.o
                                                  obj/main/NAZE/io/serial_msp.o (symbol from plugin)
                                                  obj/main/NAZE/mw.o (symbol from plugin)
                                                  obj/main/NAZE/main.o (symbol from plugin)
                                                  obj/main/NAZE/drivers/pwm_rx.o (symbol from plugin)
defaultColors                                     obj/main/NAZE/io/ledstrip.o (symbol from plugin)
defaultLedStripConfig                             obj/main/NAZE/io/ledstrip.o (symbol from plugin)
degreesToRadians                                  obj/main/NAZE/common/maths.o (symbol from plugin)
                                                  obj/main/NAZE/sensors/boardalignment.o (symbol from plugin)
                                                  obj/main/NAZE/flight/imu.o (symbol from plugin)
                                                  obj/main/NAZE/mw.o (symbol from plugin)
delay                                             /tmp/cc8DLllS.ltrans16.ltrans.o
                                                  obj/main/NAZE/drivers/system.o (symbol from plugin)
                                                  /tmp/cc8DLllS.ltrans28.ltrans.o
                                                  /tmp/cc8DLllS.ltrans22.ltrans.o
                                                  /tmp/cc8DLllS.ltrans14.ltrans.o
                                                  /tmp/cc8DLllS.ltrans10.ltrans.o
                                                  /tmp/cc8DLllS.ltrans7.ltrans.o
                                                  /tmp/cc8DLllS.ltrans6.ltrans.o
                                                  /tmp/cc8DLllS.ltrans4.ltrans.o
                                                  /tmp/cc8DLllS.ltrans2.ltrans.o
                                                  /tmp/cc8DLllS.ltrans0.ltrans.o
                                                  obj/main/NAZE/sensors/battery.o (symbol from plugin)
                                                  obj/main/NAZE/rx/spektrum.o (symbol from plugin)
                                                  obj/main/NAZE/io/serial_msp.o (symbol from plugin)
                                                  obj/main/NAZE/io/serial_cli.o (symbol from plugin)
                                                  obj/main/NAZE/io/serial.o (symbol from plugin)
                                                  obj/main/NAZE/flight/mixer.o (symbol from plugin)
                                                  obj/main/NAZE/main.o (symbol from plugin)
                                                  obj/main/NAZE/config/config.o (symbol from plugin)
                                                  obj/main/NAZE/io/display.o (symbol from plugin)
                                                  obj/main/NAZE/hardware_revision.o (symbol from plugin)
                                                  obj/main/NAZE/drivers/serial_softserial.o (symbol from plugin)
                                                  obj/main/NAZE/drivers/flash_m25p16.o (symbol from plugin)
                                                  obj/main/NAZE/drivers/compass_hmc5883l.o (symbol from plugin)
                                                  obj/main/NAZE/drivers/barometer_bmp280.o (symbol from plugin)
                                                  obj/main/NAZE/drivers/barometer_ms5611.o (symbol from plugin)
                                                  obj/main/NAZE/drivers/barometer_bmp085.o (symbol from plugin)
                                                  obj/main/NAZE/drivers/accgyro_mpu6500.o (symbol from plugin)
                                                  obj/main/NAZE/drivers/accgyro_mpu6050.o (symbol from plugin)
                                                  obj/main/NAZE/drivers/accgyro_mpu3050.o (symbol from plugin)
                                                  obj/main/NAZE/drivers/accgyro_mpu.o (symbol from plugin)
delayMicroseconds                                 /tmp/cc8DLllS.ltrans16.ltrans.o
                                                  obj/main/NAZE/drivers/system.o (symbol from plugin)
                                                  /tmp/cc8DLllS.ltrans22.ltrans.o
                                                  /tmp/cc8DLllS.ltrans19.ltrans.o
                                                  /tmp/cc8DLllS.ltrans4.ltrans.o
                                                  /tmp/cc8DLllS.ltrans0.ltrans.o
                                                  obj/main/NAZE/rx/spektrum.o (symbol from plugin)
                                                  obj/main/NAZE/drivers/sonar_hcsr04.o (symbol from plugin)
                                                  obj/main/NAZE/drivers/bus_i2c_stm32f10x.o (symbol from plugin)
                                                  obj/main/NAZE/drivers/barometer_ms5611.o (symbol from plugin)
                                                  obj/main/NAZE/drivers/barometer_bmp085.o (symbol from plugin)
deltaFilterState.lto_priv.245                     /tmp/cc8DLllS.ltrans23.ltrans.o
                                                  /tmp/cc8DLllS.ltrans30.ltrans.o
detectGyro                                        obj/main/NAZE/sensors/initialisation.o (symbol from plugin)
detectHardwareRevision                            obj/main/NAZE/hardware_revision.o (symbol from plugin)
                                                  obj/main/NAZE/main.o (symbol from plugin)
detectMpu                                         obj/main/NAZE/drivers/accgyro_mpu.o (symbol from plugin)
                                                  obj/main/NAZE/main.o (symbol from plugin)
detectSpiDevice                                   obj/main/NAZE/hardware_revision.o (symbol from plugin)
determineLedStripDimensions                       obj/main/NAZE/io/ledstrip.o (symbol from plugin)
determineOrientationLimits                        obj/main/NAZE/io/ledstrip.o (symbol from plugin)
determinePortSharing                              /tmp/cc8DLllS.ltrans16.ltrans.o
                                                  obj/main/NAZE/io/serial.o (symbol from plugin)
                                                  /tmp/cc8DLllS.ltrans12.ltrans.o
                                                  /tmp/cc8DLllS.ltrans0.ltrans.o
                                                  obj/main/NAZE/blackbox/blackbox_io.o (symbol from plugin)
                                                  obj/main/NAZE/telemetry/ltm.o (symbol from plugin)
                                                  obj/main/NAZE/telemetry/smartport.o (symbol from plugin)
                                                  obj/main/NAZE/telemetry/hott.o (symbol from plugin)
                                                  obj/main/NAZE/telemetry/frsky.o (symbol from plugin)
determineServoMiddleOrForwardFromChannel          /tmp/cc8DLllS.ltrans16.ltrans.o
                                                  obj/main/NAZE/flight/mixer.o (symbol from plugin)
                                                  /tmp/cc8DLllS.ltrans1.ltrans.o
devClear                                          obj/main/NAZE/common/maths.o (symbol from plugin)
                                                  obj/main/NAZE/sensors/gyro.o (symbol from plugin)
devPush                                           obj/main/NAZE/common/maths.o (symbol from plugin)
                                                  obj/main/NAZE/sensors/gyro.o (symbol from plugin)
devStandardDeviation                              obj/main/NAZE/common/maths.o (symbol from plugin)
                                                  obj/main/NAZE/sensors/gyro.o (symbol from plugin)
devVariance                                       obj/main/NAZE/common/maths.o (symbol from plugin)
disableFlightMode                                 /tmp/cc8DLllS.ltrans6.ltrans.o
                                                  obj/main/NAZE/config/runtime_config.o (symbol from plugin)
                                                  /tmp/cc8DLllS.ltrans3.ltrans.o
                                                  /tmp/cc8DLllS.ltrans2.ltrans.o
                                                  obj/main/NAZE/io/serial_msp.o (symbol from plugin)
                                                  obj/main/NAZE/flight/failsafe.o (symbol from plugin)
                                                  obj/main/NAZE/flight/altitudehold.o (symbol from plugin)
                                                  obj/main/NAZE/mw.o (symbol from plugin)
                                                  obj/main/NAZE/flight/navigation.o (symbol from plugin)
disarmAt.lto_priv.381                             /tmp/cc8DLllS.ltrans3.ltrans.o
                                                  /tmp/cc8DLllS.ltrans12.ltrans.o
displayDisablePageCycling                         obj/main/NAZE/io/display.o (symbol from plugin)
                                                  obj/main/NAZE/io/rc_controls.o (symbol from plugin)
displayEnablePageCycling                          obj/main/NAZE/io/display.o (symbol from plugin)
                                                  obj/main/NAZE/io/rc_controls.o (symbol from plugin)
                                                  obj/main/NAZE/main.o (symbol from plugin)
displayInit                                       obj/main/NAZE/io/display.o (symbol from plugin)
                                                  obj/main/NAZE/main.o (symbol from plugin)
displayPresent.lto_priv.539                       /tmp/cc8DLllS.ltrans0.ltrans.o
                                                  /tmp/cc8DLllS.ltrans20.ltrans.o
displayResetPageCycling                           obj/main/NAZE/io/display.o (symbol from plugin)
                                                  obj/main/NAZE/main.o (symbol from plugin)
displaySetNextPageChangeAt                        obj/main/NAZE/io/display.o (symbol from plugin)
displaySetPage                                    obj/main/NAZE/io/display.o (symbol from plugin)
displayShowFixedPage                              obj/main/NAZE/io/display.o (symbol from plugin)
                                                  obj/main/NAZE/io/gps.o (symbol from plugin)
dmaHandlers.lto_priv.419                          /tmp/cc8DLllS.ltrans16.ltrans.o
                                                  /tmp/cc8DLllS.ltrans0.ltrans.o
dmaInit                                           obj/main/NAZE/drivers/dma.o (symbol from plugin)
                                                  obj/main/NAZE/main.o (symbol from plugin)
dmaNoOpHandler                                    /tmp/cc8DLllS.ltrans16.ltrans.o
                                                  obj/main/NAZE/drivers/dma.o (symbol from plugin)
                                                  /tmp/cc8DLllS.ltrans0.ltrans.o
dmaSetHandler                                     obj/main/NAZE/drivers/dma.o (symbol from plugin)
                                                  obj/main/NAZE/drivers/light_ws2811strip.o (symbol from plugin)
doesConfigurationUsePort                          /tmp/cc8DLllS.ltrans16.ltrans.o
                                                  obj/main/NAZE/io/serial.o (symbol from plugin)
                                                  /tmp/cc8DLllS.ltrans0.ltrans.o
                                                  obj/main/NAZE/main.o (symbol from plugin)
drawHorizonalPercentageBar                        /tmp/cc8DLllS.ltrans20.ltrans.o
                                                  obj/main/NAZE/io/display.o (symbol from plugin)
                                                  /tmp/cc8DLllS.ltrans24.ltrans.o
drawRxChannel                                     obj/main/NAZE/io/display.o (symbol from plugin)
drawRxChannel.constprop.121                       /tmp/cc8DLllS.ltrans24.ltrans.o
                                                  /tmp/cc8DLllS.ltrans20.ltrans.o
dynD8                                             /tmp/cc8DLllS.ltrans23.ltrans.o
                                                  obj/main/NAZE/flight/pid.o (symbol from plugin)
                                                  /tmp/cc8DLllS.ltrans1.ltrans.o
                                                  obj/main/NAZE/mw.o (symbol from plugin)
dynI8                                             obj/main/NAZE/flight/pid.o (symbol from plugin)
                                                  obj/main/NAZE/mw.o (symbol from plugin)
dynP8                                             /tmp/cc8DLllS.ltrans23.ltrans.o
                                                  obj/main/NAZE/flight/pid.o (symbol from plugin)
                                                  /tmp/cc8DLllS.ltrans1.ltrans.o
                                                  obj/main/NAZE/mw.o (symbol from plugin)
enableFlightMode                                  /tmp/cc8DLllS.ltrans6.ltrans.o
                                                  obj/main/NAZE/config/runtime_config.o (symbol from plugin)
                                                  /tmp/cc8DLllS.ltrans30.ltrans.o
                                                  /tmp/cc8DLllS.ltrans3.ltrans.o
                                                  obj/main/NAZE/flight/failsafe.o (symbol from plugin)
                                                  obj/main/NAZE/flight/altitudehold.o (symbol from plugin)
                                                  obj/main/NAZE/mw.o (symbol from plugin)
                                                  obj/main/NAZE/flight/navigation.o (symbol from plugin)
enableGPIOPowerUsageAndNoiseReductions            obj/main/NAZE/drivers/system_stm32f10x.o (symbol from plugin)
                                                  obj/main/NAZE/drivers/system.o (symbol from plugin)
enabledSensors.lto_priv.251                       /tmp/cc8DLllS.ltrans9.ltrans.o
                                                  /tmp/cc8DLllS.ltrans29.ltrans.o
                                                  /tmp/cc8DLllS.ltrans20.ltrans.o
                                                  /tmp/cc8DLllS.ltrans19.ltrans.o
                                                  /tmp/cc8DLllS.ltrans13.ltrans.o
                                                  /tmp/cc8DLllS.ltrans12.ltrans.o
                                                  /tmp/cc8DLllS.ltrans5.ltrans.o
                                                  /tmp/cc8DLllS.ltrans3.ltrans.o
                                                  /tmp/cc8DLllS.ltrans2.ltrans.o
                                                  /tmp/cc8DLllS.ltrans1.ltrans.o
                                                  /tmp/cc8DLllS.ltrans0.ltrans.o
end                                               /usr/lib/gcc/arm-none-eabi/4.9.3/../../../arm-none-eabi/lib/armv7-m/libnosys.a(sbrk.o)
ensureEEPROMContainsValidData                     obj/main/NAZE/config/config.o (symbol from plugin)
                                                  obj/main/NAZE/main.o (symbol from plugin)
errno                                             /usr/lib/gcc/arm-none-eabi/4.9.3/../../../arm-none-eabi/lib/armv7-m/libc_nano.a(lib_a-reent.o)
                                                  /usr/lib/gcc/arm-none-eabi/4.9.3/../../../arm-none-eabi/lib/armv7-m/libc_nano.a(lib_a-sbrkr.o)
error.lto_priv.551                                /tmp/cc8DLllS.ltrans13.ltrans.o
                                                  /tmp/cc8DLllS.ltrans17.ltrans.o
errorAngleI.lto_priv.246                          /tmp/cc8DLllS.ltrans23.ltrans.o
                                                  /tmp/cc8DLllS.ltrans30.ltrans.o
errorGyroI.lto_priv.275                           /tmp/cc8DLllS.ltrans23.ltrans.o
                                                  /tmp/cc8DLllS.ltrans3.ltrans.o
errorGyroIf.lto_priv.276                          /tmp/cc8DLllS.ltrans23.ltrans.o
                                                  /tmp/cc8DLllS.ltrans3.ltrans.o
errorVelocityI                                    /tmp/cc8DLllS.ltrans19.ltrans.o
                                                  obj/main/NAZE/flight/altitudehold.o (symbol from plugin)
                                                  /tmp/cc8DLllS.ltrans3.ltrans.o
                                                  /tmp/cc8DLllS.ltrans1.ltrans.o
escAndServoConfig.lto_priv.317                    /tmp/cc8DLllS.ltrans3.ltrans.o
                                                  /tmp/cc8DLllS.ltrans6.ltrans.o
                                                  /tmp/cc8DLllS.ltrans2.ltrans.o
escAndServoConfig.lto_priv.359                    /tmp/cc8DLllS.ltrans1.ltrans.o
                                                  /tmp/cc8DLllS.ltrans6.ltrans.o
escAndServoConfig.lto_priv.360                    /tmp/cc8DLllS.ltrans16.ltrans.o
                                                  /tmp/cc8DLllS.ltrans6.ltrans.o
                                                  /tmp/cc8DLllS.ltrans1.ltrans.o
escCount                                          obj/main/NAZE/io/serial_1wire.o (symbol from plugin)
                                                  obj/main/NAZE/io/serial_msp.o (symbol from plugin)
evaluateOtherData                                 obj/main/NAZE/io/serial.o (symbol from plugin)
                                                  obj/main/NAZE/io/serial_msp.o (symbol from plugin)
extiHandlerConfigs.lto_priv.467                   /tmp/cc8DLllS.ltrans16.ltrans.o
                                                  /tmp/cc8DLllS.ltrans4.ltrans.o
                                                  /tmp/cc8DLllS.ltrans0.ltrans.o
extractAndStoreRxByte                             obj/main/NAZE/drivers/serial_softserial.o (symbol from plugin)
fabsf                                             /usr/lib/gcc/arm-none-eabi/4.9.3/../../../arm-none-eabi/lib/armv7-m/libm.a(lib_a-sf_fabs.o)
                                                  /usr/lib/gcc/arm-none-eabi/4.9.3/../../../arm-none-eabi/lib/armv7-m/libm.a(lib_a-ef_pow.o)
failsafeActivate.lto_priv.306                     /tmp/cc8DLllS.ltrans30.ltrans.o
                                                  /tmp/cc8DLllS.ltrans3.ltrans.o
failsafeConfig.lto_priv.279                       /tmp/cc8DLllS.ltrans30.ltrans.o
                                                  /tmp/cc8DLllS.ltrans6.ltrans.o
                                                  /tmp/cc8DLllS.ltrans3.ltrans.o
failsafeInit                                      obj/main/NAZE/flight/failsafe.o (symbol from plugin)
                                                  obj/main/NAZE/main.o (symbol from plugin)
failsafeIsActive                                  obj/main/NAZE/flight/failsafe.o (symbol from plugin)
                                                  obj/main/NAZE/io/rc_controls.o (symbol from plugin)
                                                  obj/main/NAZE/flight/mixer.o (symbol from plugin)
                                                  obj/main/NAZE/mw.o (symbol from plugin)
                                                  obj/main/NAZE/telemetry/ltm.o (symbol from plugin)
                                                  obj/main/NAZE/io/ledstrip.o (symbol from plugin)
failsafeIsMonitoring                              obj/main/NAZE/flight/failsafe.o (symbol from plugin)
                                                  obj/main/NAZE/mw.o (symbol from plugin)
failsafeIsReceivingRxData                         obj/main/NAZE/flight/failsafe.o (symbol from plugin)
failsafeOnRxResume                                obj/main/NAZE/flight/failsafe.o (symbol from plugin)
                                                  obj/main/NAZE/rx/rx.o (symbol from plugin)
failsafeOnRxSuspend                               obj/main/NAZE/flight/failsafe.o (symbol from plugin)
                                                  obj/main/NAZE/rx/rx.o (symbol from plugin)
failsafeOnValidDataFailed                         obj/main/NAZE/flight/failsafe.o (symbol from plugin)
                                                  obj/main/NAZE/rx/rx.o (symbol from plugin)
failsafeOnValidDataReceived                       obj/main/NAZE/flight/failsafe.o (symbol from plugin)
                                                  obj/main/NAZE/rx/rx.o (symbol from plugin)
failsafePhase                                     obj/main/NAZE/flight/failsafe.o (symbol from plugin)
                                                  obj/main/NAZE/blackbox/blackbox.o (symbol from plugin)
                                                  obj/main/NAZE/io/display.o (symbol from plugin)
failsafeStartMonitoring                           obj/main/NAZE/flight/failsafe.o (symbol from plugin)
                                                  obj/main/NAZE/mw.o (symbol from plugin)
failsafeState.lto_priv.247                        /tmp/cc8DLllS.ltrans9.ltrans.o
                                                  /tmp/cc8DLllS.ltrans30.ltrans.o
                                                  /tmp/cc8DLllS.ltrans20.ltrans.o
                                                  /tmp/cc8DLllS.ltrans11.ltrans.o
                                                  /tmp/cc8DLllS.ltrans8.ltrans.o
                                                  /tmp/cc8DLllS.ltrans6.ltrans.o
                                                  /tmp/cc8DLllS.ltrans5.ltrans.o
                                                  /tmp/cc8DLllS.ltrans3.ltrans.o
                                                  /tmp/cc8DLllS.ltrans1.ltrans.o
                                                  /tmp/cc8DLllS.ltrans0.ltrans.o
failsafeUpdateState                               obj/main/NAZE/flight/failsafe.o (symbol from plugin)
                                                  obj/main/NAZE/mw.o (symbol from plugin)
failureMode                                       /tmp/cc8DLllS.ltrans16.ltrans.o
                                                  obj/main/NAZE/drivers/system.o (symbol from plugin)
                                                  /tmp/cc8DLllS.ltrans6.ltrans.o
                                                  /tmp/cc8DLllS.ltrans4.ltrans.o
                                                  /tmp/cc8DLllS.ltrans0.ltrans.o
                                                  obj/main/NAZE/main.o (symbol from plugin)
                                                  obj/main/NAZE/config/config.o (symbol from plugin)
                                                  obj/main/NAZE/drivers/accgyro_mpu3050.o (symbol from plugin)
                                                  obj/main/NAZE/drivers/accgyro_mpu.o (symbol from plugin)
fastA2F                                           /tmp/cc8DLllS.ltrans6.ltrans.o
                                                  obj/main/NAZE/common/typeconversion.o (symbol from plugin)
                                                  /tmp/cc8DLllS.ltrans10.ltrans.o
                                                  /tmp/cc8DLllS.ltrans9.ltrans.o
                                                  obj/main/NAZE/io/serial_cli.o (symbol from plugin)
fc_acc                                            /tmp/cc8DLllS.ltrans1.ltrans.o
                                                  obj/main/NAZE/flight/imu.o (symbol from plugin)
                                                  /tmp/cc8DLllS.ltrans6.ltrans.o
feature                                           obj/main/NAZE/config/config.o (symbol from plugin)
                                                  obj/main/NAZE/sensors/battery.o (symbol from plugin)
                                                  obj/main/NAZE/sensors/acceleration.o (symbol from plugin)
                                                  obj/main/NAZE/rx/pwm.o (symbol from plugin)
                                                  obj/main/NAZE/rx/rx.o (symbol from plugin)
                                                  obj/main/NAZE/io/serial_msp.o (symbol from plugin)
                                                  obj/main/NAZE/io/rc_controls.o (symbol from plugin)
                                                  obj/main/NAZE/io/beeper.o (symbol from plugin)
                                                  obj/main/NAZE/flight/mixer.o (symbol from plugin)
                                                  obj/main/NAZE/mw.o (symbol from plugin)
                                                  obj/main/NAZE/main.o (symbol from plugin)
                                                  obj/main/NAZE/blackbox/blackbox.o (symbol from plugin)
                                                  obj/main/NAZE/sensors/sonar.o (symbol from plugin)
                                                  obj/main/NAZE/telemetry/smartport.o (symbol from plugin)
                                                  obj/main/NAZE/telemetry/frsky.o (symbol from plugin)
                                                  obj/main/NAZE/io/display.o (symbol from plugin)
                                                  obj/main/NAZE/io/ledstrip.o (symbol from plugin)
                                                  obj/main/NAZE/io/gps.o (symbol from plugin)
                                                  obj/main/NAZE/flight/gtune.o (symbol from plugin)
featureClear                                      /tmp/cc8DLllS.ltrans6.ltrans.o
                                                  obj/main/NAZE/config/config.o (symbol from plugin)
                                                  /tmp/cc8DLllS.ltrans14.ltrans.o
                                                  /tmp/cc8DLllS.ltrans0.ltrans.o
                                                  obj/main/NAZE/rx/rx.o (symbol from plugin)
                                                  obj/main/NAZE/io/serial_cli.o (symbol from plugin)
                                                  obj/main/NAZE/io/gps.o (symbol from plugin)
featureClearAll                                   obj/main/NAZE/config/config.o (symbol from plugin)
                                                  obj/main/NAZE/io/serial_msp.o (symbol from plugin)
featureConfigured                                 obj/main/NAZE/config/config.o (symbol from plugin)
featureMask                                       obj/main/NAZE/config/config.o (symbol from plugin)
                                                  obj/main/NAZE/io/serial_msp.o (symbol from plugin)
                                                  obj/main/NAZE/io/serial_cli.o (symbol from plugin)
featureSet                                        obj/main/NAZE/config/config.o (symbol from plugin)
                                                  obj/main/NAZE/io/serial_msp.o (symbol from plugin)
                                                  obj/main/NAZE/io/serial_cli.o (symbol from plugin)
filterApplyPt1                                    obj/main/NAZE/common/filter.o (symbol from plugin)
                                                  obj/main/NAZE/flight/imu.o (symbol from plugin)
                                                  obj/main/NAZE/mw.o (symbol from plugin)
filterIsSetCheck                                  /tmp/cc8DLllS.ltrans30.ltrans.o
                                                  obj/main/NAZE/flight/pid.o (symbol from plugin)
                                                  /tmp/cc8DLllS.ltrans23.ltrans.o
filterRc                                          obj/main/NAZE/mw.o (symbol from plugin)
filterServos                                      obj/main/NAZE/flight/mixer.o (symbol from plugin)
                                                  obj/main/NAZE/mw.o (symbol from plugin)
filteredCycleTime                                 obj/main/NAZE/mw.o (symbol from plugin)
findNextSerialPortConfig                          /tmp/cc8DLllS.ltrans16.ltrans.o
                                                  obj/main/NAZE/io/serial.o (symbol from plugin)
                                                  /tmp/cc8DLllS.ltrans24.ltrans.o
                                                  obj/main/NAZE/io/serial_msp.o (symbol from plugin)
findNextSharedSerialPort                          obj/main/NAZE/io/serial.o (symbol from plugin)
                                                  obj/main/NAZE/mw.o (symbol from plugin)
findNextSharedSerialPort.constprop.18             /tmp/cc8DLllS.ltrans18.ltrans.o
                                                  /tmp/cc8DLllS.ltrans12.ltrans.o
                                                  /tmp/cc8DLllS.ltrans3.ltrans.o
findSerialPortConfig                              /tmp/cc8DLllS.ltrans16.ltrans.o
                                                  obj/main/NAZE/io/serial.o (symbol from plugin)
                                                  /tmp/cc8DLllS.ltrans24.ltrans.o
                                                  /tmp/cc8DLllS.ltrans18.ltrans.o
                                                  /tmp/cc8DLllS.ltrans12.ltrans.o
                                                  /tmp/cc8DLllS.ltrans0.ltrans.o
                                                  obj/main/NAZE/rx/ibus.o (symbol from plugin)
                                                  obj/main/NAZE/rx/xbus.o (symbol from plugin)
                                                  obj/main/NAZE/rx/spektrum.o (symbol from plugin)
                                                  obj/main/NAZE/rx/sumh.o (symbol from plugin)
                                                  obj/main/NAZE/rx/sumd.o (symbol from plugin)
                                                  obj/main/NAZE/rx/sbus.o (symbol from plugin)
                                                  obj/main/NAZE/io/serial_msp.o (symbol from plugin)
                                                  obj/main/NAZE/blackbox/blackbox_io.o (symbol from plugin)
                                                  obj/main/NAZE/telemetry/ltm.o (symbol from plugin)
                                                  obj/main/NAZE/telemetry/smartport.o (symbol from plugin)
                                                  obj/main/NAZE/telemetry/hott.o (symbol from plugin)
                                                  obj/main/NAZE/telemetry/frsky.o (symbol from plugin)
                                                  obj/main/NAZE/io/gps.o (symbol from plugin)
findSerialPortUsageByPort                         obj/main/NAZE/io/serial.o (symbol from plugin)
findSharedSerialPort                              obj/main/NAZE/io/serial.o (symbol from plugin)
                                                  obj/main/NAZE/mw.o (symbol from plugin)
findSharedSerialPortState.lto_priv.270            /tmp/cc8DLllS.ltrans18.ltrans.o
                                                  /tmp/cc8DLllS.ltrans12.ltrans.o
                                                  /tmp/cc8DLllS.ltrans3.ltrans.o
finishBlackbox                                    obj/main/NAZE/blackbox/blackbox.o (symbol from plugin)
                                                  obj/main/NAZE/mw.o (symbol from plugin)
finitef                                           /usr/lib/gcc/arm-none-eabi/4.9.3/../../../arm-none-eabi/lib/armv7-m/libm.a(lib_a-sf_finite.o)
                                                  /usr/lib/gcc/arm-none-eabi/4.9.3/../../../arm-none-eabi/lib/armv7-m/libm.a(lib_a-wf_pow.o)
flashLedsAndBeep                                  obj/main/NAZE/main.o (symbol from plugin)
flashWriteBuffer.lto_priv.520                     /tmp/cc8DLllS.ltrans25.ltrans.o
                                                  /tmp/cc8DLllS.ltrans17.ltrans.o
                                                  /tmp/cc8DLllS.ltrans11.ltrans.o
flashfsAdvanceTailInBuffer.lto_priv.518           /tmp/cc8DLllS.ltrans17.ltrans.o
                                                  /tmp/cc8DLllS.ltrans25.ltrans.o
flashfsEraseCompletely                            /tmp/cc8DLllS.ltrans17.ltrans.o
                                                  obj/main/NAZE/io/flashfs.o (symbol from plugin)
                                                  /tmp/cc8DLllS.ltrans14.ltrans.o
                                                  /tmp/cc8DLllS.ltrans2.ltrans.o
                                                  obj/main/NAZE/io/serial_msp.o (symbol from plugin)
                                                  obj/main/NAZE/io/serial_cli.o (symbol from plugin)
flashfsEraseRange                                 obj/main/NAZE/io/flashfs.o (symbol from plugin)
flashfsFlushAsync                                 /tmp/cc8DLllS.ltrans17.ltrans.o
                                                  obj/main/NAZE/io/flashfs.o (symbol from plugin)
                                                  /tmp/cc8DLllS.ltrans25.ltrans.o
                                                  /tmp/cc8DLllS.ltrans11.ltrans.o
                                                  obj/main/NAZE/blackbox/blackbox_io.o (symbol from plugin)
flashfsFlushSync                                  /tmp/cc8DLllS.ltrans17.ltrans.o
                                                  obj/main/NAZE/io/flashfs.o (symbol from plugin)
                                                  /tmp/cc8DLllS.ltrans2.ltrans.o
                                                  /tmp/cc8DLllS.ltrans0.ltrans.o
flashfsGetDirtyDataBuffers.lto_priv.516           /tmp/cc8DLllS.ltrans17.ltrans.o
                                                  /tmp/cc8DLllS.ltrans25.ltrans.o
flashfsGetGeometry                                obj/main/NAZE/io/flashfs.o (symbol from plugin)
                                                  obj/main/NAZE/io/serial_msp.o (symbol from plugin)
                                                  obj/main/NAZE/io/serial_cli.o (symbol from plugin)
flashfsGetOffset                                  /tmp/cc8DLllS.ltrans17.ltrans.o
                                                  obj/main/NAZE/io/flashfs.o (symbol from plugin)
                                                  /tmp/cc8DLllS.ltrans14.ltrans.o
                                                  /tmp/cc8DLllS.ltrans2.ltrans.o
                                                  obj/main/NAZE/io/serial_msp.o (symbol from plugin)
                                                  obj/main/NAZE/io/serial_cli.o (symbol from plugin)
flashfsGetSize                                    obj/main/NAZE/io/flashfs.o (symbol from plugin)
                                                  obj/main/NAZE/blackbox/blackbox_io.o (symbol from plugin)
flashfsGetWriteBufferFreeSpace                    obj/main/NAZE/io/flashfs.o (symbol from plugin)
                                                  obj/main/NAZE/blackbox/blackbox_io.o (symbol from plugin)
flashfsGetWriteBufferSize                         obj/main/NAZE/io/flashfs.o (symbol from plugin)
                                                  obj/main/NAZE/blackbox/blackbox_io.o (symbol from plugin)
flashfsIdentifyStartOfFreeSpace                   obj/main/NAZE/io/flashfs.o (symbol from plugin)
flashfsInit                                       obj/main/NAZE/io/flashfs.o (symbol from plugin)
                                                  obj/main/NAZE/main.o (symbol from plugin)
flashfsIsEOF                                      obj/main/NAZE/io/flashfs.o (symbol from plugin)
                                                  obj/main/NAZE/blackbox/blackbox_io.o (symbol from plugin)
flashfsIsReady                                    obj/main/NAZE/io/flashfs.o (symbol from plugin)
                                                  obj/main/NAZE/io/serial_msp.o (symbol from plugin)
                                                  obj/main/NAZE/io/serial_cli.o (symbol from plugin)
flashfsReadAbs                                    obj/main/NAZE/io/flashfs.o (symbol from plugin)
                                                  obj/main/NAZE/io/serial_msp.o (symbol from plugin)
flashfsSeekAbs                                    obj/main/NAZE/io/flashfs.o (symbol from plugin)
flashfsSeekRel                                    obj/main/NAZE/io/flashfs.o (symbol from plugin)
flashfsTransmitBufferUsed.lto_priv.378            /tmp/cc8DLllS.ltrans17.ltrans.o
                                                  /tmp/cc8DLllS.ltrans25.ltrans.o
                                                  /tmp/cc8DLllS.ltrans11.ltrans.o
                                                  /tmp/cc8DLllS.ltrans1.ltrans.o
flashfsWrite                                      obj/main/NAZE/io/flashfs.o (symbol from plugin)
                                                  obj/main/NAZE/blackbox/blackbox_io.o (symbol from plugin)
flashfsWriteBuffers.lto_priv.517                  /tmp/cc8DLllS.ltrans17.ltrans.o
                                                  /tmp/cc8DLllS.ltrans25.ltrans.o
flashfsWriteByte                                  obj/main/NAZE/io/flashfs.o (symbol from plugin)
                                                  obj/main/NAZE/blackbox/blackbox_io.o (symbol from plugin)
flight3DConfig.lto_priv.358                       /tmp/cc8DLllS.ltrans16.ltrans.o
                                                  /tmp/cc8DLllS.ltrans6.ltrans.o
                                                  /tmp/cc8DLllS.ltrans1.ltrans.o
flightControllerIdentifier                        obj/main/NAZE/io/serial_msp.o (symbol from plugin)
flightModeFlags                                   /tmp/cc8DLllS.ltrans9.ltrans.o
                                                  obj/main/NAZE/config/runtime_config.o (symbol from plugin)
                                                  /tmp/cc8DLllS.ltrans30.ltrans.o
                                                  /tmp/cc8DLllS.ltrans23.ltrans.o
                                                  /tmp/cc8DLllS.ltrans17.ltrans.o
                                                  /tmp/cc8DLllS.ltrans13.ltrans.o
                                                  /tmp/cc8DLllS.ltrans11.ltrans.o
                                                  /tmp/cc8DLllS.ltrans8.ltrans.o
                                                  /tmp/cc8DLllS.ltrans6.ltrans.o
                                                  /tmp/cc8DLllS.ltrans5.ltrans.o
                                                  /tmp/cc8DLllS.ltrans3.ltrans.o
                                                  /tmp/cc8DLllS.ltrans1.ltrans.o
                                                  obj/main/NAZE/io/serial_msp.o (symbol from plugin)
                                                  obj/main/NAZE/flight/mixer.o (symbol from plugin)
                                                  obj/main/NAZE/flight/pid.o (symbol from plugin)
                                                  obj/main/NAZE/flight/altitudehold.o (symbol from plugin)
                                                  obj/main/NAZE/mw.o (symbol from plugin)
                                                  obj/main/NAZE/blackbox/blackbox.o (symbol from plugin)
                                                  obj/main/NAZE/telemetry/ltm.o (symbol from plugin)
                                                  obj/main/NAZE/telemetry/smartport.o (symbol from plugin)
                                                  obj/main/NAZE/io/ledstrip.o (symbol from plugin)
                                                  obj/main/NAZE/flight/navigation.o (symbol from plugin)
                                                  obj/main/NAZE/flight/gtune.o (symbol from plugin)
flushHottRxBuffer.lto_priv.256                    /tmp/cc8DLllS.ltrans27.ltrans.o
                                                  /tmp/cc8DLllS.ltrans5.ltrans.o
frSkyDataIdTable                                  obj/main/NAZE/telemetry/smartport.o (symbol from plugin)
free                                              /usr/lib/gcc/arm-none-eabi/4.9.3/../../../arm-none-eabi/lib/armv7-m/libc_nano.a(lib_a-malloc.o)
                                                  /tmp/cc8DLllS.ltrans25.ltrans.o
                                                  /tmp/cc8DLllS.ltrans18.ltrans.o
                                                  /tmp/cc8DLllS.ltrans12.ltrans.o
freeFrSkyTelemetryPort                            obj/main/NAZE/telemetry/frsky.o (symbol from plugin)
freeHoTTTelemetryPort                             obj/main/NAZE/telemetry/hott.o (symbol from plugin)
freeLtmTelemetryPort                              obj/main/NAZE/telemetry/ltm.o (symbol from plugin)
freeSmartPortTelemetryPort                        obj/main/NAZE/telemetry/smartport.o (symbol from plugin)
frskyPortSharing.lto_priv.537                     /tmp/cc8DLllS.ltrans0.ltrans.o
                                                  /tmp/cc8DLllS.ltrans27.ltrans.o
frskyTelemetryEnabled.lto_priv.538                /tmp/cc8DLllS.ltrans5.ltrans.o
                                                  /tmp/cc8DLllS.ltrans27.ltrans.o
ftoa                                              /tmp/cc8DLllS.ltrans6.ltrans.o
                                                  obj/main/NAZE/common/typeconversion.o (symbol from plugin)
                                                  /tmp/cc8DLllS.ltrans14.ltrans.o
                                                  /tmp/cc8DLllS.ltrans10.ltrans.o
                                                  /tmp/cc8DLllS.ltrans9.ltrans.o
                                                  obj/main/NAZE/io/serial_cli.o (symbol from plugin)
g_i2c_port                                        obj/main/NAZE/drivers/bus_i2c.o (symbol from plugin)
g_pfnVectors                                      obj/main/NAZE/startup_stm32f10x_md_gcc.o
g_timer_1ms                                       /tmp/cc8DLllS.ltrans9.ltrans.o
                                                  obj/main/NAZE/config/config.o (symbol from plugin)
                                                  /tmp/cc8DLllS.ltrans16.ltrans.o
                                                  /tmp/cc8DLllS.ltrans12.ltrans.o
                                                  obj/main/NAZE/io/serial_cli.o (symbol from plugin)
                                                  obj/main/NAZE/drivers/system.o (symbol from plugin)
                                                  obj/main/NAZE/main.o (symbol from plugin)
generateLedConfig                                 obj/main/NAZE/io/ledstrip.o (symbol from plugin)
                                                  obj/main/NAZE/io/serial_cli.o (symbol from plugin)
generatePitchRollCurve                            /tmp/cc8DLllS.ltrans16.ltrans.o
                                                  obj/main/NAZE/io/rc_curves.o (symbol from plugin)
                                                  /tmp/cc8DLllS.ltrans21.ltrans.o
                                                  /tmp/cc8DLllS.ltrans3.ltrans.o
                                                  obj/main/NAZE/io/rc_controls.o (symbol from plugin)
                                                  obj/main/NAZE/config/config.o (symbol from plugin)
generateThrottleCurve                             /tmp/cc8DLllS.ltrans16.ltrans.o
                                                  obj/main/NAZE/io/rc_curves.o (symbol from plugin)
                                                  /tmp/cc8DLllS.ltrans21.ltrans.o
                                                  /tmp/cc8DLllS.ltrans3.ltrans.o
                                                  obj/main/NAZE/io/rc_controls.o (symbol from plugin)
                                                  obj/main/NAZE/config/config.o (symbol from plugin)
generateYawCurve                                  obj/main/NAZE/io/rc_curves.o (symbol from plugin)
                                                  obj/main/NAZE/config/config.o (symbol from plugin)
geometry.lto_priv.323                             /tmp/cc8DLllS.ltrans14.ltrans.o
                                                  /tmp/cc8DLllS.ltrans25.ltrans.o
                                                  /tmp/cc8DLllS.ltrans17.ltrans.o
                                                  /tmp/cc8DLllS.ltrans12.ltrans.o
                                                  /tmp/cc8DLllS.ltrans2.ltrans.o
                                                  /tmp/cc8DLllS.ltrans0.ltrans.o
getArmingBeepTimeMicros                           obj/main/NAZE/io/beeper.o (symbol from plugin)
                                                  obj/main/NAZE/blackbox/blackbox.o (symbol from plugin)
getBatteryState                                   obj/main/NAZE/sensors/battery.o (symbol from plugin)
                                                  obj/main/NAZE/telemetry/hott.o (symbol from plugin)
                                                  obj/main/NAZE/io/ledstrip.o (symbol from plugin)
getBatteryStateString                             obj/main/NAZE/sensors/battery.o (symbol from plugin)
                                                  obj/main/NAZE/io/serial_cli.o (symbol from plugin)
getControlRateConfig                              obj/main/NAZE/config/config.o (symbol from plugin)
                                                  obj/main/NAZE/io/display.o (symbol from plugin)
getCosTiltAngle                                   obj/main/NAZE/flight/imu.o (symbol from plugin)
                                                  obj/main/NAZE/flight/altitudehold.o (symbol from plugin)
getCurrentControlRateProfile                      obj/main/NAZE/config/config.o (symbol from plugin)
                                                  obj/main/NAZE/io/serial_cli.o (symbol from plugin)
                                                  obj/main/NAZE/io/rc_controls.o (symbol from plugin)
                                                  obj/main/NAZE/io/display.o (symbol from plugin)
getCurrentMinthrottle                             obj/main/NAZE/config/config.o (symbol from plugin)
getCurrentProfile                                 obj/main/NAZE/config/config.o (symbol from plugin)
                                                  obj/main/NAZE/io/serial_cli.o (symbol from plugin)
                                                  obj/main/NAZE/io/display.o (symbol from plugin)
getLedHsv                                         obj/main/NAZE/drivers/light_ws2811strip.o (symbol from plugin)
                                                  obj/main/NAZE/io/ledstrip.o (symbol from plugin)
getRcStickDeflection                              obj/main/NAZE/io/rc_controls.o (symbol from plugin)
                                                  obj/main/NAZE/flight/pid.o (symbol from plugin)
getRxfailValue.lto_priv.307                       /tmp/cc8DLllS.ltrans9.ltrans.o
                                                  /tmp/cc8DLllS.ltrans3.ltrans.o
getTaskInfo                                       obj/main/NAZE/scheduler.o (symbol from plugin)
                                                  obj/main/NAZE/io/serial_cli.o (symbol from plugin)
gimbalConfig.lto_priv.503                         /tmp/cc8DLllS.ltrans1.ltrans.o
                                                  /tmp/cc8DLllS.ltrans6.ltrans.o
gpioExtiLineConfig                                /tmp/cc8DLllS.ltrans7.ltrans.o
                                                  obj/main/NAZE/drivers/gpio_stm32f10x.o (symbol from plugin)
                                                  /tmp/cc8DLllS.ltrans22.ltrans.o
                                                  /tmp/cc8DLllS.ltrans4.ltrans.o
                                                  /tmp/cc8DLllS.ltrans0.ltrans.o
                                                  obj/main/NAZE/drivers/sonar_hcsr04.o (symbol from plugin)
                                                  obj/main/NAZE/drivers/compass_hmc5883l.o (symbol from plugin)
                                                  obj/main/NAZE/drivers/barometer_bmp085.o (symbol from plugin)
                                                  obj/main/NAZE/drivers/accgyro_mpu.o (symbol from plugin)
gpioInit                                          /tmp/cc8DLllS.ltrans7.ltrans.o
                                                  obj/main/NAZE/drivers/gpio_stm32f10x.o (symbol from plugin)
                                                  /tmp/cc8DLllS.ltrans24.ltrans.o
                                                  /tmp/cc8DLllS.ltrans22.ltrans.o
                                                  /tmp/cc8DLllS.ltrans15.ltrans.o
                                                  /tmp/cc8DLllS.ltrans4.ltrans.o
                                                  /tmp/cc8DLllS.ltrans2.ltrans.o
                                                  /tmp/cc8DLllS.ltrans0.ltrans.o
                                                  obj/main/NAZE/rx/spektrum.o (symbol from plugin)
                                                  obj/main/NAZE/io/serial_1wire.o (symbol from plugin)
                                                  obj/main/NAZE/drivers/system.o (symbol from plugin)
                                                  obj/main/NAZE/drivers/timer.o (symbol from plugin)
                                                  obj/main/NAZE/drivers/system_stm32f10x.o (symbol from plugin)
                                                  obj/main/NAZE/drivers/sound_beeper_stm32f10x.o (symbol from plugin)
                                                  obj/main/NAZE/drivers/serial_uart_stm32f10x.o (symbol from plugin)
                                                  obj/main/NAZE/drivers/serial_softserial.o (symbol from plugin)
                                                  obj/main/NAZE/drivers/pwm_rx.o (symbol from plugin)
                                                  obj/main/NAZE/drivers/pwm_output.o (symbol from plugin)
                                                  obj/main/NAZE/drivers/sonar_hcsr04.o (symbol from plugin)
                                                  obj/main/NAZE/drivers/light_led_stm32f10x.o (symbol from plugin)
                                                  obj/main/NAZE/drivers/inverter.o (symbol from plugin)
                                                  obj/main/NAZE/drivers/compass_hmc5883l.o (symbol from plugin)
                                                  obj/main/NAZE/drivers/bus_i2c_stm32f10x.o (symbol from plugin)
                                                  obj/main/NAZE/drivers/bus_spi.o (symbol from plugin)
                                                  obj/main/NAZE/drivers/barometer_bmp085.o (symbol from plugin)
                                                  obj/main/NAZE/drivers/accgyro_spi_mpu6500.o (symbol from plugin)
                                                  obj/main/NAZE/drivers/accgyro_mpu.o (symbol from plugin)
                                                  obj/main/NAZE/drivers/accgyro_mma845x.o (symbol from plugin)
gpioPinRemapConfig                                obj/main/NAZE/drivers/gpio_stm32f10x.o (symbol from plugin)
gpsConfig.lto_priv.422                            /tmp/cc8DLllS.ltrans19.ltrans.o
                                                  /tmp/cc8DLllS.ltrans13.ltrans.o
                                                  /tmp/cc8DLllS.ltrans0.ltrans.o
gpsData                                           /tmp/cc8DLllS.ltrans19.ltrans.o
                                                  obj/main/NAZE/io/gps.o (symbol from plugin)
                                                  /tmp/cc8DLllS.ltrans20.ltrans.o
                                                  /tmp/cc8DLllS.ltrans13.ltrans.o
                                                  /tmp/cc8DLllS.ltrans0.ltrans.o
                                                  obj/main/NAZE/io/display.o (symbol from plugin)
gpsEnablePassthrough                              obj/main/NAZE/io/gps.o (symbol from plugin)
                                                  obj/main/NAZE/io/serial_cli.o (symbol from plugin)
gpsHistory.lto_priv.521                           /tmp/cc8DLllS.ltrans12.ltrans.o
                                                  /tmp/cc8DLllS.ltrans11.ltrans.o
gpsInit                                           obj/main/NAZE/io/gps.o (symbol from plugin)
                                                  obj/main/NAZE/main.o (symbol from plugin)
gpsInitData.lto_priv.423                          /tmp/cc8DLllS.ltrans19.ltrans.o
                                                  /tmp/cc8DLllS.ltrans0.ltrans.o
gpsInitHardware                                   obj/main/NAZE/io/gps.o (symbol from plugin)
gpsInitNmea                                       obj/main/NAZE/io/gps.o (symbol from plugin)
gpsInitUblox                                      obj/main/NAZE/io/gps.o (symbol from plugin)
gpsNewData.part.2.lto_priv.216                    /tmp/cc8DLllS.ltrans13.ltrans.o
                                                  /tmp/cc8DLllS.ltrans19.ltrans.o
                                                  /tmp/cc8DLllS.ltrans14.ltrans.o
gpsNewFrame                                       /tmp/cc8DLllS.ltrans13.ltrans.o
                                                  obj/main/NAZE/io/gps.o (symbol from plugin)
                                                  /tmp/cc8DLllS.ltrans19.ltrans.o
                                                  /tmp/cc8DLllS.ltrans14.ltrans.o
gpsPacketLog                                      /tmp/cc8DLllS.ltrans0.ltrans.o
                                                  obj/main/NAZE/io/gps.o (symbol from plugin)
                                                  /tmp/cc8DLllS.ltrans20.ltrans.o
                                                  /tmp/cc8DLllS.ltrans13.ltrans.o
                                                  obj/main/NAZE/io/display.o (symbol from plugin)
gpsPort.lto_priv.268                              /tmp/cc8DLllS.ltrans14.ltrans.o
                                                  /tmp/cc8DLllS.ltrans19.ltrans.o
                                                  /tmp/cc8DLllS.ltrans0.ltrans.o
gpsProfile.lto_priv.363                           /tmp/cc8DLllS.ltrans3.ltrans.o
                                                  /tmp/cc8DLllS.ltrans17.ltrans.o
                                                  /tmp/cc8DLllS.ltrans13.ltrans.o
                                                  /tmp/cc8DLllS.ltrans6.ltrans.o
                                                  /tmp/cc8DLllS.ltrans1.ltrans.o
                                                  /tmp/cc8DLllS.ltrans0.ltrans.o
gpsSetState.lto_priv.269                          /tmp/cc8DLllS.ltrans13.ltrans.o
                                                  /tmp/cc8DLllS.ltrans19.ltrans.o
                                                  /tmp/cc8DLllS.ltrans0.ltrans.o
gpsThread                                         obj/main/NAZE/io/gps.o (symbol from plugin)
                                                  obj/main/NAZE/mw.o (symbol from plugin)
gpsUsePIDs                                        /tmp/cc8DLllS.ltrans17.ltrans.o
                                                  obj/main/NAZE/flight/navigation.o (symbol from plugin)
                                                  /tmp/cc8DLllS.ltrans6.ltrans.o
                                                  /tmp/cc8DLllS.ltrans0.ltrans.o
                                                  obj/main/NAZE/config/config.o (symbol from plugin)
gpsUseProfile                                     obj/main/NAZE/flight/navigation.o (symbol from plugin)
                                                  obj/main/NAZE/config/config.o (symbol from plugin)
grab_fields.constprop.125                         /tmp/cc8DLllS.ltrans24.ltrans.o
                                                  /tmp/cc8DLllS.ltrans13.ltrans.o
gyroADC                                           /tmp/cc8DLllS.ltrans23.ltrans.o
                                                  obj/main/NAZE/sensors/gyro.o (symbol from plugin)
                                                  /tmp/cc8DLllS.ltrans20.ltrans.o
                                                  /tmp/cc8DLllS.ltrans17.ltrans.o
                                                  /tmp/cc8DLllS.ltrans11.ltrans.o
                                                  /tmp/cc8DLllS.ltrans2.ltrans.o
                                                  /tmp/cc8DLllS.ltrans1.ltrans.o
                                                  obj/main/NAZE/io/serial_msp.o (symbol from plugin)
                                                  obj/main/NAZE/flight/imu.o (symbol from plugin)
                                                  obj/main/NAZE/flight/pid.o (symbol from plugin)
                                                  obj/main/NAZE/blackbox/blackbox.o (symbol from plugin)
                                                  obj/main/NAZE/io/display.o (symbol from plugin)
                                                  obj/main/NAZE/flight/gtune.o (symbol from plugin)
gyroConfig.lto_priv.506                           /tmp/cc8DLllS.ltrans1.ltrans.o
                                                  /tmp/cc8DLllS.ltrans6.ltrans.o
gyroLpfCutFreq.lto_priv.507                       /tmp/cc8DLllS.ltrans1.ltrans.o
                                                  /tmp/cc8DLllS.ltrans6.ltrans.o
gyroMPU6xxxCalculateDivider                       obj/main/NAZE/drivers/gyro_sync.o (symbol from plugin)
                                                  obj/main/NAZE/drivers/accgyro_mpu6500.o (symbol from plugin)
                                                  obj/main/NAZE/drivers/accgyro_mpu6050.o (symbol from plugin)
gyroScale.lto_priv.446                            /tmp/cc8DLllS.ltrans1.ltrans.o
                                                  /tmp/cc8DLllS.ltrans0.ltrans.o
gyroSetCalibrationCycles                          obj/main/NAZE/sensors/gyro.o (symbol from plugin)
                                                  obj/main/NAZE/io/rc_controls.o (symbol from plugin)
                                                  obj/main/NAZE/main.o (symbol from plugin)
gyroUpdate                                        obj/main/NAZE/sensors/gyro.o (symbol from plugin)
                                                  obj/main/NAZE/flight/imu.o (symbol from plugin)
gyroUpdateSampleRate                              obj/main/NAZE/drivers/gyro_sync.o (symbol from plugin)
                                                  obj/main/NAZE/sensors/initialisation.o (symbol from plugin)
gyro_detect                                       obj/main/NAZE/drivers/sensor.o (symbol from plugin)
                                                  obj/main/NAZE/sensors/initialisation.o (symbol from plugin)
handleBlackbox                                    obj/main/NAZE/blackbox/blackbox.o (symbol from plugin)
                                                  obj/main/NAZE/mw.o (symbol from plugin)
handleFrSkyTelemetry                              obj/main/NAZE/telemetry/frsky.o (symbol from plugin)
                                                  obj/main/NAZE/telemetry/telemetry.o (symbol from plugin)
handleHoTTTelemetry                               obj/main/NAZE/telemetry/hott.o (symbol from plugin)
                                                  obj/main/NAZE/telemetry/telemetry.o (symbol from plugin)
handleInflightCalibrationStickPosition            obj/main/NAZE/mw.o (symbol from plugin)
                                                  obj/main/NAZE/io/rc_controls.o (symbol from plugin)
handleLtmTelemetry                                obj/main/NAZE/telemetry/ltm.o (symbol from plugin)
                                                  obj/main/NAZE/telemetry/telemetry.o (symbol from plugin)
handleOneshotFeatureChangeOnRestart               /tmp/cc8DLllS.ltrans6.ltrans.o
                                                  obj/main/NAZE/config/config.o (symbol from plugin)
                                                  /tmp/cc8DLllS.ltrans14.ltrans.o
                                                  /tmp/cc8DLllS.ltrans2.ltrans.o
                                                  obj/main/NAZE/io/serial_msp.o (symbol from plugin)
                                                  obj/main/NAZE/io/serial_cli.o (symbol from plugin)
handlePageChange                                  obj/main/NAZE/io/display.o (symbol from plugin)
handleSerial                                      obj/main/NAZE/io/serial.o (symbol from plugin)
                                                  obj/main/NAZE/mw.o (symbol from plugin)
handleSmartPortTelemetry                          obj/main/NAZE/telemetry/smartport.o (symbol from plugin)
                                                  obj/main/NAZE/telemetry/telemetry.o (symbol from plugin)
hardwareRevision                                  /tmp/cc8DLllS.ltrans2.ltrans.o
                                                  obj/main/NAZE/hardware_revision.o (symbol from plugin)
                                                  /tmp/cc8DLllS.ltrans22.ltrans.o
                                                  /tmp/cc8DLllS.ltrans4.ltrans.o
                                                  /tmp/cc8DLllS.ltrans0.ltrans.o
                                                  obj/main/NAZE/io/serial_msp.o (symbol from plugin)
                                                  obj/main/NAZE/main.o (symbol from plugin)
                                                  obj/main/NAZE/drivers/compass_hmc5883l.o (symbol from plugin)
                                                  obj/main/NAZE/drivers/barometer_bmp085.o (symbol from plugin)
                                                  obj/main/NAZE/drivers/accgyro_mpu.o (symbol from plugin)
                                                  obj/main/NAZE/drivers/accgyro_mma845x.o (symbol from plugin)
                                                  obj/main/NAZE/drivers/accgyro_adxl345.o (symbol from plugin)
hasEnoughTimeLapsedSinceLastTelemetryTransmission obj/main/NAZE/telemetry/frsky.o (symbol from plugin)
haveProcessedAnnexCodeOnce.lto_priv.356           /tmp/cc8DLllS.ltrans3.ltrans.o
                                                  /tmp/cc8DLllS.ltrans1.ltrans.o
hcsr04_get_distance                               obj/main/NAZE/drivers/sonar_hcsr04.o (symbol from plugin)
                                                  obj/main/NAZE/sensors/sonar.o (symbol from plugin)
hcsr04_init                                       obj/main/NAZE/drivers/sonar_hcsr04.o (symbol from plugin)
                                                  obj/main/NAZE/sensors/sonar.o (symbol from plugin)
hcsr04_start_reading                              obj/main/NAZE/drivers/sonar_hcsr04.o (symbol from plugin)
                                                  obj/main/NAZE/sensors/sonar.o (symbol from plugin)
headFreeModeHold                                  /tmp/cc8DLllS.ltrans3.ltrans.o
                                                  obj/main/NAZE/mw.o (symbol from plugin)
                                                  /tmp/cc8DLllS.ltrans12.ltrans.o
                                                  /tmp/cc8DLllS.ltrans1.ltrans.o
headSerialError.constprop.10                      /tmp/cc8DLllS.ltrans18.ltrans.o
                                                  /tmp/cc8DLllS.ltrans2.ltrans.o
headSerialReply.lto_priv.347                      /tmp/cc8DLllS.ltrans9.ltrans.o
                                                  /tmp/cc8DLllS.ltrans2.ltrans.o
headSerialResponse.lto_priv.191                   /tmp/cc8DLllS.ltrans9.ltrans.o
                                                  /tmp/cc8DLllS.ltrans18.ltrans.o
highestXValueForWest                              /tmp/cc8DLllS.ltrans8.ltrans.o
                                                  obj/main/NAZE/io/ledstrip.o (symbol from plugin)
                                                  /tmp/cc8DLllS.ltrans20.ltrans.o
highestYValueForNorth                             /tmp/cc8DLllS.ltrans8.ltrans.o
                                                  obj/main/NAZE/io/ledstrip.o (symbol from plugin)
                                                  /tmp/cc8DLllS.ltrans20.ltrans.o
hmc5883_name                                      obj/main/NAZE/drivers/compass_hmc5883l.o (symbol from plugin)
hmc5883lDetect                                    /tmp/cc8DLllS.ltrans22.ltrans.o
                                                  obj/main/NAZE/drivers/compass_hmc5883l.o (symbol from plugin)
                                                  /tmp/cc8DLllS.ltrans0.ltrans.o
                                                  obj/main/NAZE/drivers/sensor.o (symbol from plugin)
hmc5883lInit                                      obj/main/NAZE/drivers/compass_hmc5883l.o (symbol from plugin)
hmc5883lRead                                      obj/main/NAZE/drivers/compass_hmc5883l.o (symbol from plugin)
hottEAMMessage.lto_priv.415                       /tmp/cc8DLllS.ltrans5.ltrans.o
                                                  /tmp/cc8DLllS.ltrans0.ltrans.o
hottGPSMessage.lto_priv.416                       /tmp/cc8DLllS.ltrans5.ltrans.o
                                                  /tmp/cc8DLllS.ltrans0.ltrans.o
hottPort.lto_priv.529                             /tmp/cc8DLllS.ltrans5.ltrans.o
                                                  /tmp/cc8DLllS.ltrans27.ltrans.o
hottPortSharing.lto_priv.535                      /tmp/cc8DLllS.ltrans0.ltrans.o
                                                  /tmp/cc8DLllS.ltrans27.ltrans.o
hottPrepareEAMResponse                            obj/main/NAZE/telemetry/hott.o (symbol from plugin)
hottPrepareGPSResponse                            obj/main/NAZE/telemetry/hott.o (symbol from plugin)
hottTelemetryEnabled.lto_priv.536                 /tmp/cc8DLllS.ltrans5.ltrans.o
                                                  /tmp/cc8DLllS.ltrans27.ltrans.o
hse_value                                         /tmp/cc8DLllS.ltrans18.ltrans.o
                                                  obj/main/NAZE/system_stm32f10x.o (symbol from plugin)
                                                  /tmp/cc8DLllS.ltrans0.ltrans.o
                                                  obj/main/NAZE/stm32f10x_rcc.o (symbol from plugin)
                                                  obj/main/NAZE/hardware_revision.o (symbol from plugin)
hsvToRgb24                                        obj/main/NAZE/common/colorconversion.o (symbol from plugin)
                                                  obj/main/NAZE/drivers/light_ws2811strip.o (symbol from plugin)
hsv_black                                         /tmp/cc8DLllS.ltrans8.ltrans.o
                                                  obj/main/NAZE/io/ledstrip.o (symbol from plugin)
                                                  /tmp/cc8DLllS.ltrans21.ltrans.o
hsv_blue                                          /tmp/cc8DLllS.ltrans8.ltrans.o
                                                  obj/main/NAZE/io/ledstrip.o (symbol from plugin)
                                                  /tmp/cc8DLllS.ltrans21.ltrans.o
hsv_cyan                                          obj/main/NAZE/io/ledstrip.o (symbol from plugin)
hsv_darkViolet                                    obj/main/NAZE/io/ledstrip.o (symbol from plugin)
hsv_deepPink                                      obj/main/NAZE/io/ledstrip.o (symbol from plugin)
hsv_green                                         /tmp/cc8DLllS.ltrans8.ltrans.o
                                                  obj/main/NAZE/io/ledstrip.o (symbol from plugin)
                                                  /tmp/cc8DLllS.ltrans21.ltrans.o
hsv_lightBlue                                     obj/main/NAZE/io/ledstrip.o (symbol from plugin)
hsv_limeGreen                                     obj/main/NAZE/io/ledstrip.o (symbol from plugin)
hsv_magenta                                       obj/main/NAZE/io/ledstrip.o (symbol from plugin)
hsv_mintGreen                                     obj/main/NAZE/io/ledstrip.o (symbol from plugin)
hsv_orange                                        /tmp/cc8DLllS.ltrans8.ltrans.o
                                                  obj/main/NAZE/io/ledstrip.o (symbol from plugin)
                                                  /tmp/cc8DLllS.ltrans21.ltrans.o
hsv_red                                           /tmp/cc8DLllS.ltrans8.ltrans.o
                                                  obj/main/NAZE/io/ledstrip.o (symbol from plugin)
                                                  /tmp/cc8DLllS.ltrans21.ltrans.o
hsv_white                                         /tmp/cc8DLllS.ltrans0.ltrans.o
                                                  obj/main/NAZE/io/ledstrip.o (symbol from plugin)
                                                  /tmp/cc8DLllS.ltrans21.ltrans.o
                                                  obj/main/NAZE/drivers/light_ws2811strip_stm32f10x.o (symbol from plugin)
hsv_yellow                                        /tmp/cc8DLllS.ltrans8.ltrans.o
                                                  obj/main/NAZE/io/ledstrip.o (symbol from plugin)
                                                  /tmp/cc8DLllS.ltrans21.ltrans.o
i2a                                               obj/main/NAZE/common/typeconversion.o (symbol from plugin)
                                                  obj/main/NAZE/common/printf.o (symbol from plugin)
i2cErrorCount.lto_priv.326                        /tmp/cc8DLllS.ltrans9.ltrans.o
                                                  /tmp/cc8DLllS.ltrans26.ltrans.o
                                                  /tmp/cc8DLllS.ltrans2.ltrans.o
i2cGetErrorCounter                                obj/main/NAZE/drivers/bus_i2c_stm32f10x.o (symbol from plugin)
                                                  obj/main/NAZE/io/serial_msp.o (symbol from plugin)
                                                  obj/main/NAZE/io/serial_cli.o (symbol from plugin)
i2cInit                                           /tmp/cc8DLllS.ltrans22.ltrans.o
                                                  obj/main/NAZE/drivers/bus_i2c_stm32f10x.o (symbol from plugin)
                                                  /tmp/cc8DLllS.ltrans26.ltrans.o
                                                  /tmp/cc8DLllS.ltrans18.ltrans.o
                                                  obj/main/NAZE/drivers/bus_i2c.o (symbol from plugin)
i2cOverClock.lto_priv.568                         /tmp/cc8DLllS.ltrans0.ltrans.o
                                                  /tmp/cc8DLllS.ltrans22.ltrans.o
i2cRead                                           /tmp/cc8DLllS.ltrans26.ltrans.o
                                                  obj/main/NAZE/drivers/bus_i2c_stm32f10x.o (symbol from plugin)
                                                  /tmp/cc8DLllS.ltrans22.ltrans.o
                                                  /tmp/cc8DLllS.ltrans16.ltrans.o
                                                  /tmp/cc8DLllS.ltrans4.ltrans.o
                                                  /tmp/cc8DLllS.ltrans0.ltrans.o
                                                  obj/main/NAZE/drivers/bus_i2c.o (symbol from plugin)
                                                  obj/main/NAZE/drivers/compass_hmc5883l.o (symbol from plugin)
                                                  obj/main/NAZE/drivers/barometer_bmp280.o (symbol from plugin)
                                                  obj/main/NAZE/drivers/barometer_ms5611.o (symbol from plugin)
                                                  obj/main/NAZE/drivers/barometer_bmp085.o (symbol from plugin)
                                                  obj/main/NAZE/drivers/accgyro_mpu.o (symbol from plugin)
                                                  obj/main/NAZE/drivers/accgyro_mma845x.o (symbol from plugin)
                                                  obj/main/NAZE/drivers/accgyro_bma280.o (symbol from plugin)
                                                  obj/main/NAZE/drivers/accgyro_adxl345.o (symbol from plugin)
i2cSetOverclock                                   obj/main/NAZE/drivers/bus_i2c_stm32f10x.o (symbol from plugin)
                                                  obj/main/NAZE/main.o (symbol from plugin)
i2cWrite                                          /tmp/cc8DLllS.ltrans26.ltrans.o
                                                  obj/main/NAZE/drivers/bus_i2c_stm32f10x.o (symbol from plugin)
                                                  /tmp/cc8DLllS.ltrans22.ltrans.o
                                                  /tmp/cc8DLllS.ltrans4.ltrans.o
                                                  obj/main/NAZE/drivers/display_ug2864hsweg01.o (symbol from plugin)
                                                  obj/main/NAZE/drivers/compass_hmc5883l.o (symbol from plugin)
                                                  obj/main/NAZE/drivers/barometer_bmp280.o (symbol from plugin)
                                                  obj/main/NAZE/drivers/barometer_ms5611.o (symbol from plugin)
                                                  obj/main/NAZE/drivers/barometer_bmp085.o (symbol from plugin)
                                                  obj/main/NAZE/drivers/accgyro_mpu.o (symbol from plugin)
                                                  obj/main/NAZE/drivers/accgyro_mma845x.o (symbol from plugin)
                                                  obj/main/NAZE/drivers/accgyro_bma280.o (symbol from plugin)
                                                  obj/main/NAZE/drivers/accgyro_adxl345.o (symbol from plugin)
i2cWriteBuffer                                    /tmp/cc8DLllS.ltrans26.ltrans.o
                                                  obj/main/NAZE/drivers/bus_i2c_stm32f10x.o (symbol from plugin)
                                                  /tmp/cc8DLllS.ltrans16.ltrans.o
                                                  obj/main/NAZE/drivers/bus_i2c.o (symbol from plugin)
i2c_OLED_clear_display                            obj/main/NAZE/drivers/display_ug2864hsweg01.o (symbol from plugin)
i2c_OLED_clear_display_quick                      obj/main/NAZE/drivers/display_ug2864hsweg01.o (symbol from plugin)
                                                  obj/main/NAZE/io/display.o (symbol from plugin)
i2c_OLED_send_byte.lto_priv.540                   /tmp/cc8DLllS.ltrans22.ltrans.o
                                                  /tmp/cc8DLllS.ltrans20.ltrans.o
i2c_OLED_send_char                                /tmp/cc8DLllS.ltrans22.ltrans.o
                                                  obj/main/NAZE/drivers/display_ug2864hsweg01.o (symbol from plugin)
                                                  /tmp/cc8DLllS.ltrans24.ltrans.o
                                                  /tmp/cc8DLllS.ltrans20.ltrans.o
                                                  obj/main/NAZE/io/display.o (symbol from plugin)
i2c_OLED_send_cmd.lto_priv.495                    /tmp/cc8DLllS.ltrans22.ltrans.o
                                                  /tmp/cc8DLllS.ltrans20.ltrans.o
                                                  /tmp/cc8DLllS.ltrans0.ltrans.o
i2c_OLED_send_string                              /tmp/cc8DLllS.ltrans22.ltrans.o
                                                  obj/main/NAZE/drivers/display_ug2864hsweg01.o (symbol from plugin)
                                                  /tmp/cc8DLllS.ltrans20.ltrans.o
                                                  obj/main/NAZE/io/display.o (symbol from plugin)
i2c_OLED_set_line                                 /tmp/cc8DLllS.ltrans22.ltrans.o
                                                  obj/main/NAZE/drivers/display_ug2864hsweg01.o (symbol from plugin)
                                                  /tmp/cc8DLllS.ltrans20.ltrans.o
                                                  obj/main/NAZE/io/display.o (symbol from plugin)
i2c_OLED_set_xy                                   /tmp/cc8DLllS.ltrans22.ltrans.o
                                                  obj/main/NAZE/drivers/display_ug2864hsweg01.o (symbol from plugin)
                                                  /tmp/cc8DLllS.ltrans20.ltrans.o
                                                  obj/main/NAZE/io/display.o (symbol from plugin)
i2c_er_handler.lto_priv.575                       /tmp/cc8DLllS.ltrans26.ltrans.o
                                                  /tmp/cc8DLllS.ltrans4.ltrans.o
i2c_ev_handler.lto_priv.574                       /tmp/cc8DLllS.ltrans26.ltrans.o
                                                  /tmp/cc8DLllS.ltrans4.ltrans.o
ibus.lto_priv.285                                 /tmp/cc8DLllS.ltrans9.ltrans.o
                                                  /tmp/cc8DLllS.ltrans3.ltrans.o
ibusChannelData.lto_priv.286                      /tmp/cc8DLllS.ltrans9.ltrans.o
                                                  /tmp/cc8DLllS.ltrans3.ltrans.o
ibusDataReceive.lto_priv.440                      /tmp/cc8DLllS.ltrans9.ltrans.o
                                                  /tmp/cc8DLllS.ltrans0.ltrans.o
ibusFrameDone.lto_priv.284                        /tmp/cc8DLllS.ltrans9.ltrans.o
                                                  /tmp/cc8DLllS.ltrans3.ltrans.o
ibusFrameStatus                                   obj/main/NAZE/rx/ibus.o (symbol from plugin)
                                                  obj/main/NAZE/rx/rx.o (symbol from plugin)
ibusInit                                          obj/main/NAZE/rx/ibus.o (symbol from plugin)
                                                  obj/main/NAZE/rx/rx.o (symbol from plugin)
ibusReadRawRC.lto_priv.439                        /tmp/cc8DLllS.ltrans9.ltrans.o
                                                  /tmp/cc8DLllS.ltrans0.ltrans.o
imuCalculateAcceleration                          obj/main/NAZE/flight/imu.o (symbol from plugin)
imuComputeRotationMatrix.lto_priv.380             /tmp/cc8DLllS.ltrans16.ltrans.o
                                                  /tmp/cc8DLllS.ltrans1.ltrans.o
                                                  /tmp/cc8DLllS.ltrans0.ltrans.o
imuConfigure                                      obj/main/NAZE/flight/imu.o (symbol from plugin)
                                                  obj/main/NAZE/config/config.o (symbol from plugin)
imuInit                                           obj/main/NAZE/flight/imu.o (symbol from plugin)
                                                  obj/main/NAZE/main.o (symbol from plugin)
imuResetAccelerationSum                           obj/main/NAZE/flight/imu.o (symbol from plugin)
                                                  obj/main/NAZE/flight/altitudehold.o (symbol from plugin)
imuRuntimeConfig.lto_priv.445                     /tmp/cc8DLllS.ltrans1.ltrans.o
                                                  /tmp/cc8DLllS.ltrans6.ltrans.o
                                                  /tmp/cc8DLllS.ltrans0.ltrans.o
imuTransformVectorBodyToEarth                     obj/main/NAZE/flight/imu.o (symbol from plugin)
imuUpdateAccelerometer                            obj/main/NAZE/flight/imu.o (symbol from plugin)
                                                  obj/main/NAZE/mw.o (symbol from plugin)
imuUpdateGyroAndAttitude                          obj/main/NAZE/flight/imu.o (symbol from plugin)
                                                  obj/main/NAZE/mw.o (symbol from plugin)
init                                              /tmp/cc8DLllS.ltrans0.ltrans.o
                                                  obj/main/NAZE/main.o (symbol from plugin)
                                                  /tmp/cc8DLllS.ltrans12.ltrans.o
initBeeperHardware                                obj/main/NAZE/drivers/sound_beeper_stm32f10x.o (symbol from plugin)
                                                  obj/main/NAZE/drivers/sound_beeper.o (symbol from plugin)
initBlackbox                                      obj/main/NAZE/blackbox/blackbox.o (symbol from plugin)
                                                  obj/main/NAZE/main.o (symbol from plugin)
initBoardAlignment                                obj/main/NAZE/sensors/boardalignment.o (symbol from plugin)
                                                  obj/main/NAZE/main.o (symbol from plugin)
initEEPROM                                        obj/main/NAZE/config/config.o (symbol from plugin)
                                                  obj/main/NAZE/main.o (symbol from plugin)
initFrSkyTelemetry                                obj/main/NAZE/telemetry/frsky.o (symbol from plugin)
                                                  obj/main/NAZE/telemetry/telemetry.o (symbol from plugin)
initGyroFilterCoefficients                        obj/main/NAZE/sensors/gyro.o (symbol from plugin)
initHoTTTelemetry                                 obj/main/NAZE/telemetry/hott.o (symbol from plugin)
                                                  obj/main/NAZE/telemetry/telemetry.o (symbol from plugin)
initI2cDevice                                     obj/main/NAZE/drivers/bus_i2c.o (symbol from plugin)
                                                  obj/main/NAZE/main.o (symbol from plugin)
initI2cDevice.constprop.26                        /tmp/cc8DLllS.ltrans18.ltrans.o
                                                  /tmp/cc8DLllS.ltrans0.ltrans.o
initInverter                                      obj/main/NAZE/drivers/inverter.o (symbol from plugin)
                                                  obj/main/NAZE/main.o (symbol from plugin)
initLtmTelemetry                                  obj/main/NAZE/telemetry/ltm.o (symbol from plugin)
                                                  obj/main/NAZE/telemetry/telemetry.o (symbol from plugin)
initRxRefreshRate                                 obj/main/NAZE/rx/rx.o (symbol from plugin)
                                                  obj/main/NAZE/mw.o (symbol from plugin)
initSensorLink                                    obj/main/NAZE/sensors/sensors.o (symbol from plugin)
                                                  obj/main/NAZE/main.o (symbol from plugin)
initSmartPortTelemetry                            obj/main/NAZE/telemetry/smartport.o (symbol from plugin)
                                                  obj/main/NAZE/telemetry/telemetry.o (symbol from plugin)
initSpi2                                          obj/main/NAZE/drivers/bus_spi.o (symbol from plugin)
init_Gtune                                        obj/main/NAZE/flight/gtune.o (symbol from plugin)
                                                  obj/main/NAZE/mw.o (symbol from plugin)
init_printf                                       obj/main/NAZE/common/printf.o (symbol from plugin)
initialThrottleHold.lto_priv.366                  /tmp/cc8DLllS.ltrans3.ltrans.o
                                                  /tmp/cc8DLllS.ltrans1.ltrans.o
inputFilteringMode.lto_priv.563                   /tmp/cc8DLllS.ltrans0.ltrans.o
                                                  /tmp/cc8DLllS.ltrans7.ltrans.o
inputSource_e                                     obj/main/NAZE/io/serial_msp.o (symbol from plugin)
                                                  obj/main/NAZE/io/serial_cli.o (symbol from plugin)
                                                  obj/main/NAZE/io/serial_1wire.o (symbol from plugin)
                                                  obj/main/NAZE/flight/mixer.o (symbol from plugin)
                                                  obj/main/NAZE/flight/imu.o (symbol from plugin)
                                                  obj/main/NAZE/flight/pid.o (symbol from plugin)
                                                  obj/main/NAZE/flight/altitudehold.o (symbol from plugin)
                                                  obj/main/NAZE/mw.o (symbol from plugin)
                                                  obj/main/NAZE/main.o (symbol from plugin)
                                                  obj/main/NAZE/config/config.o (symbol from plugin)
                                                  obj/main/NAZE/build_config.o (symbol from plugin)
                                                  obj/main/NAZE/blackbox/blackbox_io.o (symbol from plugin)
                                                  obj/main/NAZE/blackbox/blackbox.o (symbol from plugin)
                                                  obj/main/NAZE/telemetry/ltm.o (symbol from plugin)
                                                  obj/main/NAZE/telemetry/smartport.o (symbol from plugin)
                                                  obj/main/NAZE/telemetry/frsky.o (symbol from plugin)
isAccelUpdatedAtLeastOnce.lto_priv.370            /tmp/cc8DLllS.ltrans29.ltrans.o
                                                  /tmp/cc8DLllS.ltrans1.ltrans.o
isAccelerationCalibrationComplete                 obj/main/NAZE/sensors/acceleration.o (symbol from plugin)
                                                  obj/main/NAZE/mw.o (symbol from plugin)
isBaroCalibrationComplete                         obj/main/NAZE/sensors/barometer.o (symbol from plugin)
                                                  obj/main/NAZE/flight/altitudehold.o (symbol from plugin)
                                                  obj/main/NAZE/mw.o (symbol from plugin)
isBlackboxDeviceFull                              /tmp/cc8DLllS.ltrans25.ltrans.o
                                                  obj/main/NAZE/blackbox/blackbox_io.o (symbol from plugin)
                                                  /tmp/cc8DLllS.ltrans12.ltrans.o
                                                  /tmp/cc8DLllS.ltrans1.ltrans.o
                                                  obj/main/NAZE/blackbox/blackbox.o (symbol from plugin)
isCalibrating                                     obj/main/NAZE/mw.o (symbol from plugin)
isEEPROMContentValid.lto_priv.497                 /tmp/cc8DLllS.ltrans21.ltrans.o
                                                  /tmp/cc8DLllS.ltrans6.ltrans.o
                                                  /tmp/cc8DLllS.ltrans0.ltrans.o
isGyroCalibrationComplete                         obj/main/NAZE/sensors/gyro.o (symbol from plugin)
                                                  obj/main/NAZE/mw.o (symbol from plugin)
isMPUSoftReset                                    obj/main/NAZE/drivers/system_stm32f10x.o (symbol from plugin)
                                                  obj/main/NAZE/rx/spektrum.o (symbol from plugin)
isMixerUsingServos                                obj/main/NAZE/flight/mixer.o (symbol from plugin)
                                                  obj/main/NAZE/main.o (symbol from plugin)
isModeActivationConditionPresent                  /tmp/cc8DLllS.ltrans16.ltrans.o
                                                  obj/main/NAZE/io/rc_controls.o (symbol from plugin)
                                                  /tmp/cc8DLllS.ltrans12.ltrans.o
                                                  /tmp/cc8DLllS.ltrans6.ltrans.o
                                                  /tmp/cc8DLllS.ltrans2.ltrans.o
                                                  obj/main/NAZE/blackbox/blackbox.o (symbol from plugin)
isMotorBrushed                                    obj/main/NAZE/drivers/pwm_output.o (symbol from plugin)
                                                  obj/main/NAZE/drivers/pwm_mapping.o (symbol from plugin)
isOnFinalAccelerationCalibrationCycle             obj/main/NAZE/sensors/acceleration.o (symbol from plugin)
isOnFinalGyroCalibrationCycle                     obj/main/NAZE/sensors/gyro.o (symbol from plugin)
isOnFirstAccelerationCalibrationCycle             obj/main/NAZE/sensors/acceleration.o (symbol from plugin)
isOnFirstGyroCalibrationCycle                     obj/main/NAZE/sensors/gyro.o (symbol from plugin)
isPPMDataBeingReceived                            obj/main/NAZE/drivers/pwm_rx.o (symbol from plugin)
                                                  obj/main/NAZE/rx/rx.o (symbol from plugin)
isPWMDataBeingReceived                            obj/main/NAZE/drivers/pwm_rx.o (symbol from plugin)
                                                  obj/main/NAZE/rx/rx.o (symbol from plugin)
isRXDataNew.lto_priv.367                          /tmp/cc8DLllS.ltrans3.ltrans.o
                                                  /tmp/cc8DLllS.ltrans1.ltrans.o
isRangeActive                                     obj/main/NAZE/io/rc_controls.o (symbol from plugin)
isRangeActive.part.3.lto_priv.305                 /tmp/cc8DLllS.ltrans16.ltrans.o
                                                  /tmp/cc8DLllS.ltrans3.ltrans.o
isSerialConfigValid                               obj/main/NAZE/io/serial.o (symbol from plugin)
                                                  obj/main/NAZE/config/config.o (symbol from plugin)
isSerialPortShared                                obj/main/NAZE/io/serial.o (symbol from plugin)
isSerialTransmitBufferEmpty                       /tmp/cc8DLllS.ltrans16.ltrans.o
                                                  obj/main/NAZE/drivers/serial.o (symbol from plugin)
                                                  /tmp/cc8DLllS.ltrans25.ltrans.o
                                                  /tmp/cc8DLllS.ltrans19.ltrans.o
                                                  /tmp/cc8DLllS.ltrans10.ltrans.o
                                                  obj/main/NAZE/io/serial.o (symbol from plugin)
                                                  obj/main/NAZE/common/printf.o (symbol from plugin)
                                                  obj/main/NAZE/blackbox/blackbox_io.o (symbol from plugin)
                                                  obj/main/NAZE/io/gps.o (symbol from plugin)
isSmartPortTimedOut                               obj/main/NAZE/telemetry/smartport.o (symbol from plugin)
isSoftSerialTransmitBufferEmpty                   /tmp/cc8DLllS.ltrans15.ltrans.o
                                                  obj/main/NAZE/drivers/serial_softserial.o (symbol from plugin)
                                                  /tmp/cc8DLllS.ltrans7.ltrans.o
isThrustFacingDownwards                           obj/main/NAZE/flight/altitudehold.o (symbol from plugin)
isUartTransmitBufferEmpty                         obj/main/NAZE/drivers/serial_uart.o (symbol from plugin)
isUsingSticksForArming                            obj/main/NAZE/io/rc_controls.o (symbol from plugin)
                                                  obj/main/NAZE/flight/failsafe.o (symbol from plugin)
                                                  obj/main/NAZE/mw.o (symbol from plugin)
isUsingSticksToArm.lto_priv.318                   /tmp/cc8DLllS.ltrans3.ltrans.o
                                                  /tmp/cc8DLllS.ltrans6.ltrans.o
                                                  /tmp/cc8DLllS.ltrans2.ltrans.o
                                                  /tmp/cc8DLllS.ltrans1.ltrans.o
isWS2811LedStripReady                             obj/main/NAZE/drivers/light_ws2811strip.o (symbol from plugin)
                                                  obj/main/NAZE/io/ledstrip.o (symbol from plugin)
itoa                                              obj/main/NAZE/common/typeconversion.o (symbol from plugin)
                                                  obj/main/NAZE/io/serial_cli.o (symbol from plugin)
itoa.constprop.55                                 /tmp/cc8DLllS.ltrans24.ltrans.o
                                                  /tmp/cc8DLllS.ltrans10.ltrans.o
                                                  /tmp/cc8DLllS.ltrans6.ltrans.o
kDaysInMonth                                      obj/main/NAZE/pif/source/core/pif.o (symbol from plugin)
kPifHexLowerChar                                  obj/main/NAZE/pif/source/core/pif.o (symbol from plugin)
kPifHexUpperChar                                  obj/main/NAZE/pif/source/core/pif.o (symbol from plugin)
kPifMonth3                                        obj/main/NAZE/pif/source/core/pif.o (symbol from plugin)
lastMeasurementAt.lto_priv.421                    /tmp/cc8DLllS.ltrans19.ltrans.o
                                                  /tmp/cc8DLllS.ltrans0.ltrans.o
latchActiveFeatures                               obj/main/NAZE/config/config.o (symbol from plugin)
                                                  obj/main/NAZE/main.o (symbol from plugin)
ledColorBuffer.lto_priv.418                       /tmp/cc8DLllS.ltrans8.ltrans.o
                                                  /tmp/cc8DLllS.ltrans20.ltrans.o
                                                  /tmp/cc8DLllS.ltrans7.ltrans.o
                                                  /tmp/cc8DLllS.ltrans0.ltrans.o
ledConfigs                                        /tmp/cc8DLllS.ltrans10.ltrans.o
                                                  obj/main/NAZE/io/ledstrip.o (symbol from plugin)
                                                  /tmp/cc8DLllS.ltrans20.ltrans.o
                                                  /tmp/cc8DLllS.ltrans8.ltrans.o
                                                  /tmp/cc8DLllS.ltrans0.ltrans.o
ledCount                                          /tmp/cc8DLllS.ltrans8.ltrans.o
                                                  obj/main/NAZE/io/ledstrip.o (symbol from plugin)
                                                  /tmp/cc8DLllS.ltrans20.ltrans.o
ledGridHeight                                     obj/main/NAZE/io/ledstrip.o (symbol from plugin)
ledGridWidth                                      obj/main/NAZE/io/ledstrip.o (symbol from plugin)
ledInit                                           obj/main/NAZE/drivers/light_led_stm32f10x.o (symbol from plugin)
                                                  obj/main/NAZE/main.o (symbol from plugin)
ledStripDMABuffer                                 /tmp/cc8DLllS.ltrans0.ltrans.o
                                                  obj/main/NAZE/drivers/light_ws2811strip.o (symbol from plugin)
                                                  /tmp/cc8DLllS.ltrans7.ltrans.o
                                                  obj/main/NAZE/drivers/light_ws2811strip_stm32f10x.o (symbol from plugin)
ledStripEnable                                    obj/main/NAZE/io/ledstrip.o (symbol from plugin)
                                                  obj/main/NAZE/main.o (symbol from plugin)
ledStripInit                                      obj/main/NAZE/io/ledstrip.o (symbol from plugin)
                                                  obj/main/NAZE/main.o (symbol from plugin)
ledStripInitialised.lto_priv.417                  /tmp/cc8DLllS.ltrans8.ltrans.o
                                                  /tmp/cc8DLllS.ltrans0.ltrans.o
ledsInRingCount                                   obj/main/NAZE/io/ledstrip.o (symbol from plugin)
li2a                                              obj/main/NAZE/common/typeconversion.o (symbol from plugin)
                                                  obj/main/NAZE/common/printf.o (symbol from plugin)
loadCustomServoMixer                              /tmp/cc8DLllS.ltrans16.ltrans.o
                                                  obj/main/NAZE/flight/mixer.o (symbol from plugin)
                                                  /tmp/cc8DLllS.ltrans2.ltrans.o
                                                  /tmp/cc8DLllS.ltrans0.ltrans.o
                                                  obj/main/NAZE/io/serial_msp.o (symbol from plugin)
lookupBaudRateIndex                               obj/main/NAZE/io/serial.o (symbol from plugin)
                                                  obj/main/NAZE/io/serial_cli.o (symbol from plugin)
                                                  obj/main/NAZE/io/gps.o (symbol from plugin)
lookupPitchRollRC                                 /tmp/cc8DLllS.ltrans16.ltrans.o
                                                  obj/main/NAZE/io/rc_curves.o (symbol from plugin)
                                                  /tmp/cc8DLllS.ltrans1.ltrans.o
                                                  obj/main/NAZE/mw.o (symbol from plugin)
lookupThrottleRC                                  /tmp/cc8DLllS.ltrans16.ltrans.o
                                                  obj/main/NAZE/io/rc_curves.o (symbol from plugin)
                                                  /tmp/cc8DLllS.ltrans1.ltrans.o
                                                  obj/main/NAZE/mw.o (symbol from plugin)
lookupTimerIndex.lto_priv.244                     /tmp/cc8DLllS.ltrans17.ltrans.o
                                                  /tmp/cc8DLllS.ltrans16.ltrans.o
lookupYawRC                                       /tmp/cc8DLllS.ltrans1.ltrans.o
                                                  obj/main/NAZE/io/rc_curves.o (symbol from plugin)
                                                  /tmp/cc8DLllS.ltrans21.ltrans.o
                                                  obj/main/NAZE/mw.o (symbol from plugin)
lowestXValueForEast                               /tmp/cc8DLllS.ltrans8.ltrans.o
                                                  obj/main/NAZE/io/ledstrip.o (symbol from plugin)
                                                  /tmp/cc8DLllS.ltrans20.ltrans.o
lowestYValueForSouth                              /tmp/cc8DLllS.ltrans8.ltrans.o
                                                  obj/main/NAZE/io/ledstrip.o (symbol from plugin)
                                                  /tmp/cc8DLllS.ltrans20.ltrans.o
lrintf                                            /usr/lib/gcc/arm-none-eabi/4.9.3/../../../arm-none-eabi/lib/armv7-m/libm.a(lib_a-sf_lrint.o)
                                                  /tmp/cc8DLllS.ltrans23.ltrans.o
                                                  /tmp/cc8DLllS.ltrans19.ltrans.o
                                                  /tmp/cc8DLllS.ltrans18.ltrans.o
                                                  /tmp/cc8DLllS.ltrans2.ltrans.o
                                                  /tmp/cc8DLllS.ltrans1.ltrans.o
ltmEnabled.lto_priv.531                           /tmp/cc8DLllS.ltrans5.ltrans.o
                                                  /tmp/cc8DLllS.ltrans27.ltrans.o
ltmPort.lto_priv.527                              /tmp/cc8DLllS.ltrans5.ltrans.o
                                                  /tmp/cc8DLllS.ltrans27.ltrans.o
ltmPortSharing.lto_priv.530                       /tmp/cc8DLllS.ltrans0.ltrans.o
                                                  /tmp/cc8DLllS.ltrans27.ltrans.o
ltm_finalise.lto_priv.259                         /tmp/cc8DLllS.ltrans27.ltrans.o
                                                  /tmp/cc8DLllS.ltrans5.ltrans.o
ltm_initialise_packet.lto_priv.262                /tmp/cc8DLllS.ltrans27.ltrans.o
                                                  /tmp/cc8DLllS.ltrans5.ltrans.o
ltm_serialise_16.lto_priv.263                     /tmp/cc8DLllS.ltrans27.ltrans.o
                                                  /tmp/cc8DLllS.ltrans5.ltrans.o
ltm_serialise_32.lto_priv.261                     /tmp/cc8DLllS.ltrans27.ltrans.o
                                                  /tmp/cc8DLllS.ltrans5.ltrans.o
ltm_serialise_8.lto_priv.260                      /tmp/cc8DLllS.ltrans27.ltrans.o
                                                  /tmp/cc8DLllS.ltrans5.ltrans.o
m25p16_eraseCompletely                            obj/main/NAZE/drivers/flash_m25p16.o (symbol from plugin)
                                                  obj/main/NAZE/io/flashfs.o (symbol from plugin)
m25p16_eraseSector                                obj/main/NAZE/drivers/flash_m25p16.o (symbol from plugin)
                                                  obj/main/NAZE/io/flashfs.o (symbol from plugin)
m25p16_getGeometry                                obj/main/NAZE/drivers/flash_m25p16.o (symbol from plugin)
                                                  obj/main/NAZE/io/flashfs.o (symbol from plugin)
m25p16_init                                       obj/main/NAZE/drivers/flash_m25p16.o (symbol from plugin)
                                                  obj/main/NAZE/main.o (symbol from plugin)
m25p16_isReady                                    /tmp/cc8DLllS.ltrans22.ltrans.o
                                                  obj/main/NAZE/drivers/flash_m25p16.o (symbol from plugin)
                                                  /tmp/cc8DLllS.ltrans17.ltrans.o
                                                  /tmp/cc8DLllS.ltrans14.ltrans.o
                                                  /tmp/cc8DLllS.ltrans2.ltrans.o
                                                  obj/main/NAZE/io/flashfs.o (symbol from plugin)
m25p16_pageProgram                                obj/main/NAZE/drivers/flash_m25p16.o (symbol from plugin)
m25p16_pageProgramBegin                           obj/main/NAZE/drivers/flash_m25p16.o (symbol from plugin)
                                                  obj/main/NAZE/io/flashfs.o (symbol from plugin)
m25p16_pageProgramContinue                        obj/main/NAZE/drivers/flash_m25p16.o (symbol from plugin)
                                                  obj/main/NAZE/io/flashfs.o (symbol from plugin)
m25p16_pageProgramFinish                          obj/main/NAZE/drivers/flash_m25p16.o (symbol from plugin)
                                                  obj/main/NAZE/io/flashfs.o (symbol from plugin)
m25p16_readBytes                                  /tmp/cc8DLllS.ltrans22.ltrans.o
                                                  obj/main/NAZE/drivers/flash_m25p16.o (symbol from plugin)
                                                  /tmp/cc8DLllS.ltrans2.ltrans.o
                                                  /tmp/cc8DLllS.ltrans0.ltrans.o
                                                  obj/main/NAZE/io/flashfs.o (symbol from plugin)
m25p16_waitForReady                               /tmp/cc8DLllS.ltrans22.ltrans.o
                                                  obj/main/NAZE/drivers/flash_m25p16.o (symbol from plugin)
                                                  /tmp/cc8DLllS.ltrans17.ltrans.o
mAhDrawn                                          /tmp/cc8DLllS.ltrans18.ltrans.o
                                                  obj/main/NAZE/sensors/battery.o (symbol from plugin)
                                                  /tmp/cc8DLllS.ltrans28.ltrans.o
                                                  /tmp/cc8DLllS.ltrans20.ltrans.o
                                                  /tmp/cc8DLllS.ltrans5.ltrans.o
                                                  /tmp/cc8DLllS.ltrans2.ltrans.o
                                                  obj/main/NAZE/io/serial_msp.o (symbol from plugin)
                                                  obj/main/NAZE/telemetry/smartport.o (symbol from plugin)
                                                  obj/main/NAZE/telemetry/hott.o (symbol from plugin)
                                                  obj/main/NAZE/telemetry/frsky.o (symbol from plugin)
                                                  obj/main/NAZE/io/display.o (symbol from plugin)
magADC                                            /tmp/cc8DLllS.ltrans19.ltrans.o
                                                  obj/main/NAZE/sensors/compass.o (symbol from plugin)
                                                  /tmp/cc8DLllS.ltrans20.ltrans.o
                                                  /tmp/cc8DLllS.ltrans11.ltrans.o
                                                  /tmp/cc8DLllS.ltrans2.ltrans.o
                                                  /tmp/cc8DLllS.ltrans1.ltrans.o
                                                  obj/main/NAZE/io/serial_msp.o (symbol from plugin)
                                                  obj/main/NAZE/flight/imu.o (symbol from plugin)
                                                  obj/main/NAZE/blackbox/blackbox.o (symbol from plugin)
                                                  obj/main/NAZE/io/display.o (symbol from plugin)
magADCRaw                                         obj/main/NAZE/sensors/compass.o (symbol from plugin)
magHold                                           /tmp/cc8DLllS.ltrans3.ltrans.o
                                                  obj/main/NAZE/mw.o (symbol from plugin)
                                                  /tmp/cc8DLllS.ltrans13.ltrans.o
                                                  /tmp/cc8DLllS.ltrans2.ltrans.o
                                                  /tmp/cc8DLllS.ltrans1.ltrans.o
                                                  obj/main/NAZE/io/serial_msp.o (symbol from plugin)
                                                  obj/main/NAZE/flight/navigation.o (symbol from plugin)
magInit.lto_priv.447                              /tmp/cc8DLllS.ltrans19.ltrans.o
                                                  /tmp/cc8DLllS.ltrans0.ltrans.o
mag_detect                                        obj/main/NAZE/drivers/sensor.o (symbol from plugin)
                                                  obj/main/NAZE/sensors/initialisation.o (symbol from plugin)
main                                              /tmp/cc8DLllS.ltrans12.ltrans.o
                                                  obj/main/NAZE/main.o (symbol from plugin)
                                                  obj/main/NAZE/startup_stm32f10x_md_gcc.o
malloc                                            /usr/lib/gcc/arm-none-eabi/4.9.3/../../../arm-none-eabi/lib/armv7-m/libc_nano.a(lib_a-malloc.o)
                                                  /usr/lib/gcc/arm-none-eabi/4.9.3/../../../arm-none-eabi/lib/armv7-m/libc_nano.a(lib_a-strtok.o)
masterConfig                                      /tmp/cc8DLllS.ltrans24.ltrans.o
                                                  obj/main/NAZE/config/config.o (symbol from plugin)
                                                  /tmp/cc8DLllS.ltrans28.ltrans.o
                                                  /tmp/cc8DLllS.ltrans25.ltrans.o
                                                  /tmp/cc8DLllS.ltrans21.ltrans.o
                                                  /tmp/cc8DLllS.ltrans20.ltrans.o
                                                  /tmp/cc8DLllS.ltrans19.ltrans.o
                                                  /tmp/cc8DLllS.ltrans18.ltrans.o
                                                  /tmp/cc8DLllS.ltrans14.ltrans.o
                                                  /tmp/cc8DLllS.ltrans12.ltrans.o
                                                  /tmp/cc8DLllS.ltrans11.ltrans.o
                                                  /tmp/cc8DLllS.ltrans10.ltrans.o
                                                  /tmp/cc8DLllS.ltrans9.ltrans.o
                                                  /tmp/cc8DLllS.ltrans6.ltrans.o
                                                  /tmp/cc8DLllS.ltrans5.ltrans.o
                                                  /tmp/cc8DLllS.ltrans3.ltrans.o
                                                  /tmp/cc8DLllS.ltrans2.ltrans.o
                                                  /tmp/cc8DLllS.ltrans1.ltrans.o
                                                  /tmp/cc8DLllS.ltrans0.ltrans.o
                                                  obj/main/NAZE/io/serial_msp.o (symbol from plugin)
                                                  obj/main/NAZE/io/serial_cli.o (symbol from plugin)
                                                  obj/main/NAZE/mw.o (symbol from plugin)
                                                  obj/main/NAZE/main.o (symbol from plugin)
                                                  obj/main/NAZE/blackbox/blackbox_io.o (symbol from plugin)
                                                  obj/main/NAZE/blackbox/blackbox.o (symbol from plugin)
matherr                                           /usr/lib/gcc/arm-none-eabi/4.9.3/../../../arm-none-eabi/lib/armv7-m/libm.a(lib_a-s_matherr.o)
                                                  /usr/lib/gcc/arm-none-eabi/4.9.3/../../../arm-none-eabi/lib/armv7-m/libm.a(lib_a-wf_sqrt.o)
                                                  /usr/lib/gcc/arm-none-eabi/4.9.3/../../../arm-none-eabi/lib/armv7-m/libm.a(lib_a-wf_pow.o)
measurement.lto_priv.566                          /tmp/cc8DLllS.ltrans27.ltrans.o
                                                  /tmp/cc8DLllS.ltrans7.ltrans.o
memcmp                                            /usr/lib/gcc/arm-none-eabi/4.9.3/../../../arm-none-eabi/lib/armv7-m/libc_nano.a(lib_a-memcmp.o)
                                                  /tmp/cc8DLllS.ltrans11.ltrans.o
memcpy                                            /usr/lib/gcc/arm-none-eabi/4.9.3/../../../arm-none-eabi/lib/armv7-m/libc_nano.a(lib_a-memcpy.o)
                                                  /tmp/cc8DLllS.ltrans25.ltrans.o
                                                  /tmp/cc8DLllS.ltrans21.ltrans.o
                                                  /tmp/cc8DLllS.ltrans6.ltrans.o
memset                                            /usr/lib/gcc/arm-none-eabi/4.9.3/../../../arm-none-eabi/lib/armv7-m/libc_nano.a(lib_a-memset.o)
                                                  /usr/lib/gcc/arm-none-eabi/4.9.3/../../../arm-none-eabi/lib/armv7-m/libc_nano.a(lib_a-nano-callocr.o)
                                                  /tmp/cc8DLllS.ltrans25.ltrans.o
                                                  /tmp/cc8DLllS.ltrans24.ltrans.o
                                                  /tmp/cc8DLllS.ltrans21.ltrans.o
                                                  /tmp/cc8DLllS.ltrans18.ltrans.o
                                                  /tmp/cc8DLllS.ltrans16.ltrans.o
                                                  /tmp/cc8DLllS.ltrans14.ltrans.o
                                                  /tmp/cc8DLllS.ltrans12.ltrans.o
                                                  /tmp/cc8DLllS.ltrans10.ltrans.o
                                                  /tmp/cc8DLllS.ltrans9.ltrans.o
                                                  /tmp/cc8DLllS.ltrans6.ltrans.o
                                                  /tmp/cc8DLllS.ltrans2.ltrans.o
                                                  /tmp/cc8DLllS.ltrans0.ltrans.o
micros                                            /tmp/cc8DLllS.ltrans16.ltrans.o
                                                  obj/main/NAZE/drivers/system.o (symbol from plugin)
                                                  /tmp/cc8DLllS.ltrans28.ltrans.o
                                                  /tmp/cc8DLllS.ltrans20.ltrans.o
                                                  /tmp/cc8DLllS.ltrans12.ltrans.o
                                                  /tmp/cc8DLllS.ltrans9.ltrans.o
                                                  /tmp/cc8DLllS.ltrans8.ltrans.o
                                                  /tmp/cc8DLllS.ltrans7.ltrans.o
                                                  /tmp/cc8DLllS.ltrans5.ltrans.o
                                                  /tmp/cc8DLllS.ltrans1.ltrans.o
                                                  /tmp/cc8DLllS.ltrans0.ltrans.o
                                                  obj/main/NAZE/rx/ibus.o (symbol from plugin)
                                                  obj/main/NAZE/rx/xbus.o (symbol from plugin)
                                                  obj/main/NAZE/rx/spektrum.o (symbol from plugin)
                                                  obj/main/NAZE/rx/sumh.o (symbol from plugin)
                                                  obj/main/NAZE/rx/sumd.o (symbol from plugin)
                                                  obj/main/NAZE/rx/sbus.o (symbol from plugin)
                                                  obj/main/NAZE/rx/rx.o (symbol from plugin)
                                                  obj/main/NAZE/io/statusindicator.o (symbol from plugin)
                                                  obj/main/NAZE/io/beeper.o (symbol from plugin)
                                                  obj/main/NAZE/flight/imu.o (symbol from plugin)
                                                  obj/main/NAZE/main.o (symbol from plugin)
                                                  obj/main/NAZE/telemetry/hott.o (symbol from plugin)
                                                  obj/main/NAZE/io/display.o (symbol from plugin)
                                                  obj/main/NAZE/io/ledstrip.o (symbol from plugin)
                                                  obj/main/NAZE/drivers/sonar_hcsr04.o (symbol from plugin)
millis                                            obj/main/NAZE/drivers/system.o (symbol from plugin)
                                                  obj/main/NAZE/rx/rx.o (symbol from plugin)
                                                  obj/main/NAZE/io/statusindicator.o (symbol from plugin)
                                                  obj/main/NAZE/io/serial_cli.o (symbol from plugin)
                                                  obj/main/NAZE/io/rc_controls.o (symbol from plugin)
                                                  obj/main/NAZE/io/beeper.o (symbol from plugin)
                                                  obj/main/NAZE/flight/imu.o (symbol from plugin)
                                                  obj/main/NAZE/flight/failsafe.o (symbol from plugin)
                                                  obj/main/NAZE/mw.o (symbol from plugin)
                                                  obj/main/NAZE/blackbox/blackbox.o (symbol from plugin)
                                                  obj/main/NAZE/telemetry/ltm.o (symbol from plugin)
                                                  obj/main/NAZE/telemetry/smartport.o (symbol from plugin)
                                                  obj/main/NAZE/telemetry/hott.o (symbol from plugin)
                                                  obj/main/NAZE/telemetry/frsky.o (symbol from plugin)
                                                  obj/main/NAZE/io/gps.o (symbol from plugin)
                                                  obj/main/NAZE/flight/navigation.o (symbol from plugin)
                                                  obj/main/NAZE/drivers/sonar_hcsr04.o (symbol from plugin)
                                                  obj/main/NAZE/drivers/flash_m25p16.o (symbol from plugin)
mixConstrainMotorForFailsafeCondition             obj/main/NAZE/flight/mixer.o (symbol from plugin)
mixTable                                          obj/main/NAZE/flight/mixer.o (symbol from plugin)
                                                  obj/main/NAZE/mw.o (symbol from plugin)
mixerAtail4.lto_priv.485                          /tmp/cc8DLllS.ltrans10.ltrans.o
mixerBicopter.lto_priv.473                        /tmp/cc8DLllS.ltrans10.ltrans.o
mixerConfig.lto_priv.448                          /tmp/cc8DLllS.ltrans1.ltrans.o
                                                  /tmp/cc8DLllS.ltrans6.ltrans.o
                                                  /tmp/cc8DLllS.ltrans0.ltrans.o
mixerDualcopter.lto_priv.484                      /tmp/cc8DLllS.ltrans10.ltrans.o
mixerHex6H.lto_priv.483                           /tmp/cc8DLllS.ltrans10.ltrans.o
mixerHex6P.lto_priv.475                           /tmp/cc8DLllS.ltrans10.ltrans.o
mixerHex6X.lto_priv.478                           /tmp/cc8DLllS.ltrans10.ltrans.o
mixerInit                                         obj/main/NAZE/flight/mixer.o (symbol from plugin)
                                                  obj/main/NAZE/main.o (symbol from plugin)
mixerInitialiseServoFiltering                     obj/main/NAZE/flight/mixer.o (symbol from plugin)
                                                  obj/main/NAZE/main.o (symbol from plugin)
mixerLoadMix                                      obj/main/NAZE/flight/mixer.o (symbol from plugin)
                                                  obj/main/NAZE/io/serial_cli.o (symbol from plugin)
mixerNames.lto_priv.219                           /tmp/cc8DLllS.ltrans14.ltrans.o
                                                  /tmp/cc8DLllS.ltrans10.ltrans.o
mixerOctoFlatP.lto_priv.480                       /tmp/cc8DLllS.ltrans10.ltrans.o
mixerOctoFlatX.lto_priv.481                       /tmp/cc8DLllS.ltrans10.ltrans.o
mixerOctoX8.lto_priv.479                          /tmp/cc8DLllS.ltrans10.ltrans.o
mixerQuadP.lto_priv.471                           /tmp/cc8DLllS.ltrans10.ltrans.o
mixerQuadX.lto_priv.472                           /tmp/cc8DLllS.ltrans10.ltrans.o
mixerResetDisarmedMotors                          /tmp/cc8DLllS.ltrans16.ltrans.o
                                                  obj/main/NAZE/flight/mixer.o (symbol from plugin)
                                                  /tmp/cc8DLllS.ltrans14.ltrans.o
                                                  /tmp/cc8DLllS.ltrans0.ltrans.o
                                                  obj/main/NAZE/io/serial_cli.o (symbol from plugin)
mixerSingleProp.lto_priv.476                      /tmp/cc8DLllS.ltrans10.ltrans.o
mixerTricopter.lto_priv.470                       /tmp/cc8DLllS.ltrans10.ltrans.o
mixerUseConfigs                                   obj/main/NAZE/flight/mixer.o (symbol from plugin)
                                                  obj/main/NAZE/config/config.o (symbol from plugin)
mixerUsePWMIOConfiguration                        obj/main/NAZE/flight/mixer.o (symbol from plugin)
                                                  obj/main/NAZE/main.o (symbol from plugin)
mixerVtail4.lto_priv.482                          /tmp/cc8DLllS.ltrans10.ltrans.o
mixerY4.lto_priv.477                              /tmp/cc8DLllS.ltrans10.ltrans.o
mixerY6.lto_priv.474                              /tmp/cc8DLllS.ltrans10.ltrans.o
mixers                                            /tmp/cc8DLllS.ltrans10.ltrans.o
                                                  obj/main/NAZE/flight/mixer.o (symbol from plugin)
                                                  /tmp/cc8DLllS.ltrans0.ltrans.o
mma8452Detect                                     /tmp/cc8DLllS.ltrans4.ltrans.o
                                                  obj/main/NAZE/drivers/accgyro_mma845x.o (symbol from plugin)
                                                  /tmp/cc8DLllS.ltrans0.ltrans.o
                                                  obj/main/NAZE/drivers/sensor.o (symbol from plugin)
mma845x_name                                      obj/main/NAZE/drivers/accgyro_mma845x.o (symbol from plugin)
motor                                             /tmp/cc8DLllS.ltrans16.ltrans.o
                                                  obj/main/NAZE/flight/mixer.o (symbol from plugin)
                                                  /tmp/cc8DLllS.ltrans11.ltrans.o
                                                  /tmp/cc8DLllS.ltrans2.ltrans.o
                                                  /tmp/cc8DLllS.ltrans1.ltrans.o
                                                  obj/main/NAZE/io/serial_msp.o (symbol from plugin)
                                                  obj/main/NAZE/io/serial_1wire.o (symbol from plugin)
                                                  obj/main/NAZE/blackbox/blackbox.o (symbol from plugin)
motorControlEnable                                /tmp/cc8DLllS.ltrans1.ltrans.o
                                                  obj/main/NAZE/mw.o (symbol from plugin)
                                                  /tmp/cc8DLllS.ltrans0.ltrans.o
                                                  obj/main/NAZE/main.o (symbol from plugin)
motorCount                                        /tmp/cc8DLllS.ltrans16.ltrans.o
                                                  obj/main/NAZE/flight/mixer.o (symbol from plugin)
                                                  /tmp/cc8DLllS.ltrans23.ltrans.o
                                                  /tmp/cc8DLllS.ltrans12.ltrans.o
                                                  /tmp/cc8DLllS.ltrans11.ltrans.o
                                                  /tmp/cc8DLllS.ltrans6.ltrans.o
                                                  /tmp/cc8DLllS.ltrans1.ltrans.o
                                                  /tmp/cc8DLllS.ltrans0.ltrans.o
                                                  obj/main/NAZE/flight/pid.o (symbol from plugin)
                                                  obj/main/NAZE/blackbox/blackbox.o (symbol from plugin)
                                                  obj/main/NAZE/flight/gtune.o (symbol from plugin)
motorLimitReached                                 /tmp/cc8DLllS.ltrans23.ltrans.o
                                                  obj/main/NAZE/flight/mixer.o (symbol from plugin)
                                                  /tmp/cc8DLllS.ltrans1.ltrans.o
                                                  obj/main/NAZE/flight/pid.o (symbol from plugin)
motor_disarmed                                    /tmp/cc8DLllS.ltrans14.ltrans.o
                                                  obj/main/NAZE/flight/mixer.o (symbol from plugin)
                                                  /tmp/cc8DLllS.ltrans16.ltrans.o
                                                  /tmp/cc8DLllS.ltrans2.ltrans.o
                                                  /tmp/cc8DLllS.ltrans1.ltrans.o
                                                  obj/main/NAZE/io/serial_msp.o (symbol from plugin)
                                                  obj/main/NAZE/io/serial_cli.o (symbol from plugin)
motors.lto_priv.457                               /tmp/cc8DLllS.ltrans16.ltrans.o
                                                  /tmp/cc8DLllS.ltrans7.ltrans.o
                                                  /tmp/cc8DLllS.ltrans6.ltrans.o
                                                  /tmp/cc8DLllS.ltrans0.ltrans.o
mpu3050Detect                                     /tmp/cc8DLllS.ltrans4.ltrans.o
                                                  obj/main/NAZE/drivers/accgyro_mpu3050.o (symbol from plugin)
                                                  /tmp/cc8DLllS.ltrans0.ltrans.o
                                                  obj/main/NAZE/drivers/sensor.o (symbol from plugin)
mpu3050_name                                      obj/main/NAZE/drivers/accgyro_mpu3050.o (symbol from plugin)
mpu6050AccDetect                                  /tmp/cc8DLllS.ltrans4.ltrans.o
                                                  obj/main/NAZE/drivers/accgyro_mpu6050.o (symbol from plugin)
                                                  /tmp/cc8DLllS.ltrans0.ltrans.o
                                                  obj/main/NAZE/drivers/sensor.o (symbol from plugin)
mpu6050GyroDetect                                 /tmp/cc8DLllS.ltrans4.ltrans.o
                                                  obj/main/NAZE/drivers/accgyro_mpu6050.o (symbol from plugin)
                                                  /tmp/cc8DLllS.ltrans0.ltrans.o
                                                  obj/main/NAZE/drivers/sensor.o (symbol from plugin)
mpu6050_name                                      obj/main/NAZE/drivers/accgyro_mpu6050.o (symbol from plugin)
mpu6500AccDetect                                  /tmp/cc8DLllS.ltrans4.ltrans.o
                                                  obj/main/NAZE/drivers/accgyro_mpu6500.o (symbol from plugin)
                                                  /tmp/cc8DLllS.ltrans0.ltrans.o
                                                  obj/main/NAZE/drivers/sensor.o (symbol from plugin)
mpu6500AccInit                                    obj/main/NAZE/drivers/accgyro_mpu6500.o (symbol from plugin)
                                                  obj/main/NAZE/drivers/accgyro_spi_mpu6500.o (symbol from plugin)
mpu6500GyroDetect                                 /tmp/cc8DLllS.ltrans4.ltrans.o
                                                  obj/main/NAZE/drivers/accgyro_mpu6500.o (symbol from plugin)
                                                  /tmp/cc8DLllS.ltrans0.ltrans.o
                                                  obj/main/NAZE/drivers/sensor.o (symbol from plugin)
mpu6500GyroInit                                   obj/main/NAZE/drivers/accgyro_mpu6500.o (symbol from plugin)
                                                  obj/main/NAZE/drivers/accgyro_spi_mpu6500.o (symbol from plugin)
mpu6500ReadRegister                               /tmp/cc8DLllS.ltrans4.ltrans.o
                                                  obj/main/NAZE/drivers/accgyro_spi_mpu6500.o (symbol from plugin)
                                                  obj/main/NAZE/drivers/accgyro_mpu.o (symbol from plugin)
mpu6500SpiAccDetect                               /tmp/cc8DLllS.ltrans4.ltrans.o
                                                  obj/main/NAZE/drivers/accgyro_spi_mpu6500.o (symbol from plugin)
                                                  /tmp/cc8DLllS.ltrans0.ltrans.o
                                                  obj/main/NAZE/drivers/sensor.o (symbol from plugin)
mpu6500SpiDetect                                  obj/main/NAZE/drivers/accgyro_spi_mpu6500.o (symbol from plugin)
                                                  obj/main/NAZE/drivers/accgyro_mpu.o (symbol from plugin)
mpu6500SpiGyroDetect                              /tmp/cc8DLllS.ltrans4.ltrans.o
                                                  obj/main/NAZE/drivers/accgyro_spi_mpu6500.o (symbol from plugin)
                                                  /tmp/cc8DLllS.ltrans0.ltrans.o
                                                  obj/main/NAZE/drivers/sensor.o (symbol from plugin)
mpu6500WriteRegister                              /tmp/cc8DLllS.ltrans4.ltrans.o
                                                  obj/main/NAZE/drivers/accgyro_spi_mpu6500.o (symbol from plugin)
                                                  obj/main/NAZE/drivers/accgyro_mpu.o (symbol from plugin)
mpu6500_name                                      obj/main/NAZE/drivers/accgyro_mpu6500.o (symbol from plugin)
mpu6500_spi_name                                  obj/main/NAZE/drivers/accgyro_spi_mpu6500.o (symbol from plugin)
mpuAccRead                                        obj/main/NAZE/drivers/accgyro_mpu.o (symbol from plugin)
                                                  obj/main/NAZE/drivers/accgyro_spi_mpu6500.o (symbol from plugin)
                                                  obj/main/NAZE/drivers/accgyro_mpu6500.o (symbol from plugin)
                                                  obj/main/NAZE/drivers/accgyro_mpu6050.o (symbol from plugin)
mpuConfiguration                                  /tmp/cc8DLllS.ltrans0.ltrans.o
                                                  obj/main/NAZE/drivers/accgyro_mpu.o (symbol from plugin)
                                                  /tmp/cc8DLllS.ltrans4.ltrans.o
                                                  obj/main/NAZE/drivers/accgyro_mpu6500.o (symbol from plugin)
                                                  obj/main/NAZE/drivers/accgyro_mpu6050.o (symbol from plugin)
                                                  obj/main/NAZE/drivers/accgyro_mpu3050.o (symbol from plugin)
mpuDetectionResult                                /tmp/cc8DLllS.ltrans0.ltrans.o
                                                  obj/main/NAZE/drivers/accgyro_mpu.o (symbol from plugin)
                                                  /tmp/cc8DLllS.ltrans4.ltrans.o
                                                  obj/main/NAZE/drivers/accgyro_spi_mpu6500.o (symbol from plugin)
                                                  obj/main/NAZE/drivers/accgyro_mpu6500.o (symbol from plugin)
                                                  obj/main/NAZE/drivers/accgyro_mpu6050.o (symbol from plugin)
                                                  obj/main/NAZE/drivers/accgyro_mpu3050.o (symbol from plugin)
mpuDividerDrops.lto_priv.572                      /tmp/cc8DLllS.ltrans0.ltrans.o
                                                  /tmp/cc8DLllS.ltrans4.ltrans.o
mpuGyroRead                                       obj/main/NAZE/drivers/accgyro_mpu.o (symbol from plugin)
                                                  obj/main/NAZE/drivers/accgyro_spi_mpu6500.o (symbol from plugin)
                                                  obj/main/NAZE/drivers/accgyro_mpu6500.o (symbol from plugin)
                                                  obj/main/NAZE/drivers/accgyro_mpu6050.o (symbol from plugin)
                                                  obj/main/NAZE/drivers/accgyro_mpu3050.o (symbol from plugin)
mpuIntExtiConfig.lto_priv.573                     /tmp/cc8DLllS.ltrans0.ltrans.o
                                                  /tmp/cc8DLllS.ltrans4.ltrans.o
mpuIntExtiInit                                    obj/main/NAZE/drivers/accgyro_mpu.o (symbol from plugin)
                                                  obj/main/NAZE/drivers/accgyro_mpu6500.o (symbol from plugin)
                                                  obj/main/NAZE/drivers/accgyro_mpu6050.o (symbol from plugin)
mpuReadRegisterI2C.lto_priv.450                   /tmp/cc8DLllS.ltrans4.ltrans.o
                                                  /tmp/cc8DLllS.ltrans0.ltrans.o
mpuWriteRegisterI2C.lto_priv.451                  /tmp/cc8DLllS.ltrans4.ltrans.o
                                                  /tmp/cc8DLllS.ltrans0.ltrans.o
ms5611Detect                                      /tmp/cc8DLllS.ltrans4.ltrans.o
                                                  obj/main/NAZE/drivers/barometer_ms5611.o (symbol from plugin)
                                                  /tmp/cc8DLllS.ltrans0.ltrans.o
                                                  obj/main/NAZE/drivers/sensor.o (symbol from plugin)
ms5611_name                                       obj/main/NAZE/drivers/barometer_ms5611.o (symbol from plugin)
mspAllocateSerialPorts                            obj/main/NAZE/io/serial_msp.o (symbol from plugin)
                                                  obj/main/NAZE/mw.o (symbol from plugin)
                                                  obj/main/NAZE/blackbox/blackbox_io.o (symbol from plugin)
mspAllocateSerialPorts.constprop.91               /tmp/cc8DLllS.ltrans24.ltrans.o
                                                  /tmp/cc8DLllS.ltrans3.ltrans.o
                                                  /tmp/cc8DLllS.ltrans2.ltrans.o
                                                  /tmp/cc8DLllS.ltrans1.ltrans.o
                                                  /tmp/cc8DLllS.ltrans0.ltrans.o
mspFrame.lto_priv.319                             /tmp/cc8DLllS.ltrans9.ltrans.o
                                                  /tmp/cc8DLllS.ltrans2.ltrans.o
mspInit                                           obj/main/NAZE/io/serial_msp.o (symbol from plugin)
                                                  obj/main/NAZE/main.o (symbol from plugin)
mspPorts.lto_priv.194                             /tmp/cc8DLllS.ltrans24.ltrans.o
                                                  /tmp/cc8DLllS.ltrans9.ltrans.o
                                                  /tmp/cc8DLllS.ltrans2.ltrans.o
                                                  /tmp/cc8DLllS.ltrans0.ltrans.o
mspProcess                                        obj/main/NAZE/io/serial_msp.o (symbol from plugin)
                                                  obj/main/NAZE/io/serial.o (symbol from plugin)
mspReleasePortIfAllocated                         /tmp/cc8DLllS.ltrans9.ltrans.o
                                                  obj/main/NAZE/io/serial_msp.o (symbol from plugin)
                                                  /tmp/cc8DLllS.ltrans12.ltrans.o
                                                  /tmp/cc8DLllS.ltrans3.ltrans.o
                                                  /tmp/cc8DLllS.ltrans2.ltrans.o
                                                  obj/main/NAZE/mw.o (symbol from plugin)
mspSerialPort.lto_priv.315                        /tmp/cc8DLllS.ltrans9.ltrans.o
                                                  /tmp/cc8DLllS.ltrans2.ltrans.o
mwArm                                             /tmp/cc8DLllS.ltrans12.ltrans.o
                                                  obj/main/NAZE/mw.o (symbol from plugin)
                                                  /tmp/cc8DLllS.ltrans3.ltrans.o
                                                  obj/main/NAZE/io/rc_controls.o (symbol from plugin)
mwDisarm                                          /tmp/cc8DLllS.ltrans12.ltrans.o
                                                  obj/main/NAZE/mw.o (symbol from plugin)
                                                  /tmp/cc8DLllS.ltrans3.ltrans.o
                                                  obj/main/NAZE/io/rc_controls.o (symbol from plugin)
                                                  obj/main/NAZE/flight/failsafe.o (symbol from plugin)
nanf                                              /usr/lib/gcc/arm-none-eabi/4.9.3/../../../arm-none-eabi/lib/armv7-m/libm.a(lib_a-sf_nan.o)
                                                  /usr/lib/gcc/arm-none-eabi/4.9.3/../../../arm-none-eabi/lib/armv7-m/libm.a(lib_a-ef_pow.o)
nav.lto_priv.364                                  /tmp/cc8DLllS.ltrans3.ltrans.o
                                                  /tmp/cc8DLllS.ltrans13.ltrans.o
                                                  /tmp/cc8DLllS.ltrans1.ltrans.o
navPID.lto_priv.542                               /tmp/cc8DLllS.ltrans3.ltrans.o
                                                  /tmp/cc8DLllS.ltrans13.ltrans.o
navPID_PARAM.lto_priv.554                         /tmp/cc8DLllS.ltrans13.ltrans.o
                                                  /tmp/cc8DLllS.ltrans17.ltrans.o
nav_bearing.lto_priv.547                          /tmp/cc8DLllS.ltrans13.ltrans.o
                                                  /tmp/cc8DLllS.ltrans17.ltrans.o
nav_mode                                          /tmp/cc8DLllS.ltrans3.ltrans.o
                                                  obj/main/NAZE/flight/navigation.o (symbol from plugin)
                                                  /tmp/cc8DLllS.ltrans13.ltrans.o
                                                  /tmp/cc8DLllS.ltrans2.ltrans.o
                                                  obj/main/NAZE/io/serial_msp.o (symbol from plugin)
nav_rated.lto_priv.365                            /tmp/cc8DLllS.ltrans3.ltrans.o
                                                  /tmp/cc8DLllS.ltrans1.ltrans.o
nav_takeoff_bearing.lto_priv.555                  /tmp/cc8DLllS.ltrans13.ltrans.o
                                                  /tmp/cc8DLllS.ltrans17.ltrans.o
navigationInit                                    obj/main/NAZE/flight/navigation.o (symbol from plugin)
                                                  obj/main/NAZE/main.o (symbol from plugin)
normalizeV                                        obj/main/NAZE/common/maths.o (symbol from plugin)
nullReadRawRC.lto_priv.189                        /tmp/cc8DLllS.ltrans9.ltrans.o
                                                  /tmp/cc8DLllS.ltrans18.ltrans.o
                                                  /tmp/cc8DLllS.ltrans0.ltrans.o
onGpsNewData                                      obj/main/NAZE/flight/navigation.o (symbol from plugin)
                                                  obj/main/NAZE/io/gps.o (symbol from plugin)
onSerialRxPinChange                               /tmp/cc8DLllS.ltrans15.ltrans.o
                                                  obj/main/NAZE/drivers/serial_softserial.o (symbol from plugin)
                                                  /tmp/cc8DLllS.ltrans7.ltrans.o
onSerialTimer                                     obj/main/NAZE/drivers/serial_softserial.o (symbol from plugin)
openSerialPort                                    /tmp/cc8DLllS.ltrans16.ltrans.o
                                                  obj/main/NAZE/io/serial.o (symbol from plugin)
                                                  /tmp/cc8DLllS.ltrans27.ltrans.o
                                                  /tmp/cc8DLllS.ltrans24.ltrans.o
                                                  /tmp/cc8DLllS.ltrans18.ltrans.o
                                                  /tmp/cc8DLllS.ltrans12.ltrans.o
                                                  /tmp/cc8DLllS.ltrans0.ltrans.o
                                                  obj/main/NAZE/rx/ibus.o (symbol from plugin)
                                                  obj/main/NAZE/rx/xbus.o (symbol from plugin)
                                                  obj/main/NAZE/rx/spektrum.o (symbol from plugin)
                                                  obj/main/NAZE/rx/sumh.o (symbol from plugin)
                                                  obj/main/NAZE/rx/sumd.o (symbol from plugin)
                                                  obj/main/NAZE/rx/sbus.o (symbol from plugin)
                                                  obj/main/NAZE/io/serial_msp.o (symbol from plugin)
                                                  obj/main/NAZE/blackbox/blackbox_io.o (symbol from plugin)
                                                  obj/main/NAZE/telemetry/ltm.o (symbol from plugin)
                                                  obj/main/NAZE/telemetry/smartport.o (symbol from plugin)
                                                  obj/main/NAZE/telemetry/hott.o (symbol from plugin)
                                                  obj/main/NAZE/telemetry/frsky.o (symbol from plugin)
                                                  obj/main/NAZE/io/gps.o (symbol from plugin)
openSoftSerial                                    /tmp/cc8DLllS.ltrans7.ltrans.o
                                                  obj/main/NAZE/drivers/serial_softserial.o (symbol from plugin)
                                                  /tmp/cc8DLllS.ltrans16.ltrans.o
                                                  /tmp/cc8DLllS.ltrans15.ltrans.o
                                                  obj/main/NAZE/io/serial.o (symbol from plugin)
original_target_bearing.lto_priv.548              /tmp/cc8DLllS.ltrans13.ltrans.o
                                                  /tmp/cc8DLllS.ltrans17.ltrans.o
p_task_altitude.lto_priv.567                      /tmp/cc8DLllS.ltrans0.ltrans.o
                                                  /tmp/cc8DLllS.ltrans7.ltrans.o
packFlightModeFlags.lto_priv.354                  /tmp/cc8DLllS.ltrans9.ltrans.o
                                                  /tmp/cc8DLllS.ltrans2.ltrans.o
padHalfLineBuffer                                 obj/main/NAZE/io/display.o (symbol from plugin)
padLineBuffer                                     obj/main/NAZE/io/display.o (symbol from plugin)
pageState.lto_priv.274                            /tmp/cc8DLllS.ltrans14.ltrans.o
                                                  /tmp/cc8DLllS.ltrans20.ltrans.o
                                                  /tmp/cc8DLllS.ltrans3.ltrans.o
                                                  /tmp/cc8DLllS.ltrans0.ltrans.o
parseColor                                        obj/main/NAZE/io/ledstrip.o (symbol from plugin)
                                                  obj/main/NAZE/io/serial_cli.o (symbol from plugin)
parseLedStripConfig                               obj/main/NAZE/io/ledstrip.o (symbol from plugin)
                                                  obj/main/NAZE/io/serial_cli.o (symbol from plugin)
parseRcChannels                                   obj/main/NAZE/rx/rx.o (symbol from plugin)
                                                  obj/main/NAZE/io/serial_cli.o (symbol from plugin)
                                                  obj/main/NAZE/config/config.o (symbol from plugin)
parseRcChannels.constprop.60                      /tmp/cc8DLllS.ltrans24.ltrans.o
                                                  /tmp/cc8DLllS.ltrans21.ltrans.o
                                                  /tmp/cc8DLllS.ltrans14.ltrans.o
performAcclerationCalibration                     obj/main/NAZE/sensors/acceleration.o (symbol from plugin)
performBaroCalibrationCycle                       obj/main/NAZE/sensors/barometer.o (symbol from plugin)
                                                  obj/main/NAZE/flight/altitudehold.o (symbol from plugin)
performInflightAccelerationCalibration            obj/main/NAZE/sensors/acceleration.o (symbol from plugin)
pidLuxFloat.lto_priv.228                          /tmp/cc8DLllS.ltrans23.ltrans.o
                                                  /tmp/cc8DLllS.ltrans16.ltrans.o
pidMultiWii23.lto_priv.229                        /tmp/cc8DLllS.ltrans23.ltrans.o
                                                  /tmp/cc8DLllS.ltrans16.ltrans.o
pidMultiWiiRewrite.lto_priv.227                   /tmp/cc8DLllS.ltrans23.ltrans.o
                                                  /tmp/cc8DLllS.ltrans16.ltrans.o
pidProfile.lto_priv.272                           /tmp/cc8DLllS.ltrans18.ltrans.o
                                                  /tmp/cc8DLllS.ltrans6.ltrans.o
                                                  /tmp/cc8DLllS.ltrans3.ltrans.o
                                                  /tmp/cc8DLllS.ltrans2.ltrans.o
pidProfile.lto_priv.499                           /tmp/cc8DLllS.ltrans19.ltrans.o
                                                  /tmp/cc8DLllS.ltrans6.ltrans.o
pidResetErrorAngle                                /tmp/cc8DLllS.ltrans30.ltrans.o
                                                  obj/main/NAZE/flight/pid.o (symbol from plugin)
                                                  /tmp/cc8DLllS.ltrans3.ltrans.o
                                                  obj/main/NAZE/mw.o (symbol from plugin)
pidResetErrorGyro                                 obj/main/NAZE/flight/pid.o (symbol from plugin)
                                                  obj/main/NAZE/mw.o (symbol from plugin)
pidSetController                                  /tmp/cc8DLllS.ltrans16.ltrans.o
                                                  obj/main/NAZE/flight/pid.o (symbol from plugin)
                                                  /tmp/cc8DLllS.ltrans6.ltrans.o
                                                  /tmp/cc8DLllS.ltrans2.ltrans.o
                                                  obj/main/NAZE/io/serial_msp.o (symbol from plugin)
                                                  obj/main/NAZE/config/config.o (symbol from plugin)
pid_controller                                    /tmp/cc8DLllS.ltrans16.ltrans.o
                                                  obj/main/NAZE/flight/pid.o (symbol from plugin)
                                                  /tmp/cc8DLllS.ltrans1.ltrans.o
                                                  obj/main/NAZE/mw.o (symbol from plugin)
pifBmp280_AddTaskForReading                       obj/main/NAZE/pif/source/sensor/pif_bmp280.o (symbol from plugin)
pifBmp280_Clear                                   obj/main/NAZE/pif/source/sensor/pif_bmp280.o (symbol from plugin)
pifBmp280_Init                                    obj/main/NAZE/pif/source/sensor/pif_bmp280.o (symbol from plugin)
pifBmp280_ReadBarometric                          obj/main/NAZE/pif/source/sensor/pif_bmp280.o (symbol from plugin)
pifBmp280_ReadRawData                             obj/main/NAZE/pif/source/sensor/pif_bmp280.o (symbol from plugin)
pifBmp280_SetOverSamplingRate                     obj/main/NAZE/pif/source/sensor/pif_bmp280.o (symbol from plugin)
pifCheckSum                                       obj/main/NAZE/pif/source/core/pif.o (symbol from plugin)
pifCheckXor                                       obj/main/NAZE/pif/source/core/pif.o (symbol from plugin)
pifComm_AllocRxBuffer                             obj/main/NAZE/pif/source/core/pif_comm.o (symbol from plugin)
pifComm_AllocTxBuffer                             obj/main/NAZE/pif/source/core/pif_comm.o (symbol from plugin)
pifComm_AttachClient                              obj/main/NAZE/pif/source/core/pif_comm.o (symbol from plugin)
                                                  obj/main/NAZE/pif/source/core/pif_log.o (symbol from plugin)
pifComm_AttachTask                                obj/main/NAZE/pif/source/core/pif_comm.o (symbol from plugin)
pifComm_Clear                                     obj/main/NAZE/pif/source/core/pif_comm.o (symbol from plugin)
pifComm_DetachClient                              obj/main/NAZE/pif/source/core/pif_comm.o (symbol from plugin)
                                                  obj/main/NAZE/pif/source/core/pif_log.o (symbol from plugin)
pifComm_EndGetTxData                              obj/main/NAZE/pif/source/core/pif_comm.o (symbol from plugin)
pifComm_FinishTransfer                            obj/main/NAZE/pif/source/core/pif_comm.o (symbol from plugin)
pifComm_ForceSendData                             obj/main/NAZE/pif/source/core/pif_comm.o (symbol from plugin)
                                                  obj/main/NAZE/pif/source/core/pif_log.o (symbol from plugin)
pifComm_GetFillSizeOfTxBuffer                     obj/main/NAZE/pif/source/core/pif_comm.o (symbol from plugin)
pifComm_GetRemainSizeOfRxBuffer                   obj/main/NAZE/pif/source/core/pif_comm.o (symbol from plugin)
pifComm_GetTxByte                                 obj/main/NAZE/pif/source/core/pif_comm.o (symbol from plugin)
pifComm_Init                                      obj/main/NAZE/pif/source/core/pif_comm.o (symbol from plugin)
pifComm_PutRxByte                                 obj/main/NAZE/pif/source/core/pif_comm.o (symbol from plugin)
pifComm_PutRxData                                 obj/main/NAZE/pif/source/core/pif_comm.o (symbol from plugin)
pifComm_ReceiveRxData                             obj/main/NAZE/pif/source/core/pif_comm.o (symbol from plugin)
pifComm_SendTxData                                obj/main/NAZE/pif/source/core/pif_comm.o (symbol from plugin)
pifComm_StartGetTxData                            obj/main/NAZE/pif/source/core/pif_comm.o (symbol from plugin)
pifCrc16                                          obj/main/NAZE/pif/source/core/pif.o (symbol from plugin)
pifCrc16_Add                                      obj/main/NAZE/pif/source/core/pif.o (symbol from plugin)
pifCrc7                                           obj/main/NAZE/pif/source/core/pif.o (symbol from plugin)
pifCrc7_Add                                       obj/main/NAZE/pif/source/core/pif.o (symbol from plugin)
pifCrc7_Result                                    obj/main/NAZE/pif/source/core/pif.o (symbol from plugin)
pifDList_Add                                      obj/main/NAZE/pif/source/core/pif_list.o (symbol from plugin)
pifDList_AddFirst                                 obj/main/NAZE/pif/source/core/pif_list.o (symbol from plugin)
pifDList_AddLast                                  obj/main/NAZE/pif/source/core/pif_list.o (symbol from plugin)
pifDList_Clear                                    obj/main/NAZE/pif/source/core/pif_list.o (symbol from plugin)
pifDList_Find                                     obj/main/NAZE/pif/source/core/pif_list.o (symbol from plugin)
pifDList_Init                                     obj/main/NAZE/pif/source/core/pif_list.o (symbol from plugin)
pifDList_Remove                                   obj/main/NAZE/pif/source/core/pif_list.o (symbol from plugin)
pifDList_RemoveFirst                              obj/main/NAZE/pif/source/core/pif_list.o (symbol from plugin)
pifDList_RemoveIterator                           obj/main/NAZE/pif/source/core/pif_list.o (symbol from plugin)
pifDList_RemoveLast                               obj/main/NAZE/pif/source/core/pif_list.o (symbol from plugin)
pifFixList_AddFirst                               obj/main/NAZE/pif/source/core/pif_list.o (symbol from plugin)
                                                  obj/main/NAZE/pif/source/core/pif_timer.o (symbol from plugin)
                                                  obj/main/NAZE/pif/source/core/pif_task.o (symbol from plugin)
                                                  obj/main/NAZE/pif/source/core/pif_i2c.o (symbol from plugin)
pifFixList_Clear                                  obj/main/NAZE/pif/source/core/pif_list.o (symbol from plugin)
                                                  obj/main/NAZE/pif/source/core/pif_timer.o (symbol from plugin)
                                                  obj/main/NAZE/pif/source/core/pif_task.o (symbol from plugin)
                                                  obj/main/NAZE/pif/source/core/pif_i2c.o (symbol from plugin)
pifFixList_Init                                   obj/main/NAZE/pif/source/core/pif_list.o (symbol from plugin)
                                                  obj/main/NAZE/pif/source/core/pif_timer.o (symbol from plugin)
                                                  obj/main/NAZE/pif/source/core/pif_task.o (symbol from plugin)
                                                  obj/main/NAZE/pif/source/core/pif_i2c.o (symbol from plugin)
pifFixList_Init.part.1.lto_priv.190               /tmp/cc8DLllS.ltrans25.ltrans.o
                                                  /tmp/cc8DLllS.ltrans18.ltrans.o
                                                  /tmp/cc8DLllS.ltrans12.ltrans.o
pifFixList_Remove                                 /tmp/cc8DLllS.ltrans25.ltrans.o
                                                  obj/main/NAZE/pif/source/core/pif_list.o (symbol from plugin)
                                                  /tmp/cc8DLllS.ltrans21.ltrans.o
                                                  /tmp/cc8DLllS.ltrans16.ltrans.o
                                                  /tmp/cc8DLllS.ltrans12.ltrans.o
                                                  obj/main/NAZE/pif/source/core/pif_timer.o (symbol from plugin)
                                                  obj/main/NAZE/pif/source/core/pif_task.o (symbol from plugin)
                                                  obj/main/NAZE/pif/source/core/pif_i2c.o (symbol from plugin)
pifI2cDevice_Read                                 obj/main/NAZE/pif/source/core/pif_i2c.o (symbol from plugin)
pifI2cDevice_ReadRegBit16                         obj/main/NAZE/pif/source/core/pif_i2c.o (symbol from plugin)
pifI2cDevice_ReadRegBit8                          obj/main/NAZE/pif/source/core/pif_i2c.o (symbol from plugin)
                                                  obj/main/NAZE/pif/source/sensor/pif_mpu6500.o (symbol from plugin)
pifI2cDevice_ReadRegByte                          obj/main/NAZE/pif/source/core/pif_i2c.o (symbol from plugin)
                                                  obj/main/NAZE/pif/source/sensor/pif_bmp280.o (symbol from plugin)
                                                  obj/main/NAZE/pif/source/sensor/pif_mpu6500.o (symbol from plugin)
pifI2cDevice_ReadRegBytes                         obj/main/NAZE/pif/source/core/pif_i2c.o (symbol from plugin)
                                                  obj/main/NAZE/pif/source/sensor/pif_bmp280.o (symbol from plugin)
                                                  obj/main/NAZE/pif/source/sensor/pif_mpu6500.o (symbol from plugin)
pifI2cDevice_ReadRegWord                          obj/main/NAZE/pif/source/core/pif_i2c.o (symbol from plugin)
pifI2cDevice_Write                                obj/main/NAZE/pif/source/core/pif_i2c.o (symbol from plugin)
pifI2cDevice_WriteRegBit16                        obj/main/NAZE/pif/source/core/pif_i2c.o (symbol from plugin)
pifI2cDevice_WriteRegBit8                         obj/main/NAZE/pif/source/core/pif_i2c.o (symbol from plugin)
                                                  obj/main/NAZE/pif/source/sensor/pif_mpu6500.o (symbol from plugin)
pifI2cDevice_WriteRegByte                         obj/main/NAZE/pif/source/core/pif_i2c.o (symbol from plugin)
                                                  obj/main/NAZE/pif/source/sensor/pif_bmp280.o (symbol from plugin)
                                                  obj/main/NAZE/pif/source/sensor/pif_mpu6500.o (symbol from plugin)
pifI2cDevice_WriteRegBytes                        obj/main/NAZE/pif/source/core/pif_i2c.o (symbol from plugin)
pifI2cDevice_WriteRegWord                         obj/main/NAZE/pif/source/core/pif_i2c.o (symbol from plugin)
pifI2cPort_AddDevice                              obj/main/NAZE/pif/source/core/pif_i2c.o (symbol from plugin)
                                                  obj/main/NAZE/pif/source/sensor/pif_bmp280.o (symbol from plugin)
                                                  obj/main/NAZE/pif/source/sensor/pif_mpu6500.o (symbol from plugin)
pifI2cPort_Clear                                  obj/main/NAZE/pif/source/core/pif_i2c.o (symbol from plugin)
pifI2cPort_Init                                   obj/main/NAZE/pif/source/core/pif_i2c.o (symbol from plugin)
                                                  obj/main/NAZE/drivers/bus_i2c.o (symbol from plugin)
pifI2cPort_RemoveDevice                           obj/main/NAZE/pif/source/core/pif_i2c.o (symbol from plugin)
                                                  obj/main/NAZE/pif/source/sensor/pif_bmp280.o (symbol from plugin)
                                                  obj/main/NAZE/pif/source/sensor/pif_mpu6500.o (symbol from plugin)
pifI2cPort_ScanAddress                            obj/main/NAZE/pif/source/core/pif_i2c.o (symbol from plugin)
pifI2cPort_sigEndTransfer                         obj/main/NAZE/pif/source/core/pif_i2c.o (symbol from plugin)
pifImuSensor_Init                                 obj/main/NAZE/pif/source/sensor/pif_imu_sensor.o (symbol from plugin)
pifImuSensor_InitBoardAlignment                   obj/main/NAZE/pif/source/sensor/pif_imu_sensor.o (symbol from plugin)
pifImuSensor_ReadAccel2                           obj/main/NAZE/pif/source/sensor/pif_imu_sensor.o (symbol from plugin)
pifImuSensor_ReadAccel4                           obj/main/NAZE/pif/source/sensor/pif_imu_sensor.o (symbol from plugin)
pifImuSensor_ReadGyro2                            obj/main/NAZE/pif/source/sensor/pif_imu_sensor.o (symbol from plugin)
pifImuSensor_ReadGyro4                            obj/main/NAZE/pif/source/sensor/pif_imu_sensor.o (symbol from plugin)
pifImuSensor_ReadMag2                             obj/main/NAZE/pif/source/sensor/pif_imu_sensor.o (symbol from plugin)
pifImuSensor_ReadMag4                             obj/main/NAZE/pif/source/sensor/pif_imu_sensor.o (symbol from plugin)
pifImuSensor_ReadNormalizeAccel2                  obj/main/NAZE/pif/source/sensor/pif_imu_sensor.o (symbol from plugin)
pifImuSensor_ReadNormalizeAccel4                  obj/main/NAZE/pif/source/sensor/pif_imu_sensor.o (symbol from plugin)
pifImuSensor_ReadNormalizeGyro2                   obj/main/NAZE/pif/source/sensor/pif_imu_sensor.o (symbol from plugin)
pifImuSensor_ReadNormalizeGyro4                   obj/main/NAZE/pif/source/sensor/pif_imu_sensor.o (symbol from plugin)
pifImuSensor_SetAccelAlign                        obj/main/NAZE/pif/source/sensor/pif_imu_sensor.o (symbol from plugin)
pifImuSensor_SetGyroAlign                         obj/main/NAZE/pif/source/sensor/pif_imu_sensor.o (symbol from plugin)
pifImuSensor_SetMagAlign                          obj/main/NAZE/pif/source/sensor/pif_imu_sensor.o (symbol from plugin)
pifLog_AttachComm                                 obj/main/NAZE/pif/source/core/pif_log.o (symbol from plugin)
pifLog_Clear                                      obj/main/NAZE/pif/source/core/pif_log.o (symbol from plugin)
pifLog_DetachComm                                 obj/main/NAZE/pif/source/core/pif_log.o (symbol from plugin)
pifLog_Disable                                    obj/main/NAZE/pif/source/core/pif_log.o (symbol from plugin)
pifLog_Enable                                     obj/main/NAZE/pif/source/core/pif_log.o (symbol from plugin)
pifLog_GetCommTask                                obj/main/NAZE/pif/source/core/pif_log.o (symbol from plugin)
pifLog_Init                                       obj/main/NAZE/pif/source/core/pif_log.o (symbol from plugin)
pifLog_InitHeap                                   obj/main/NAZE/pif/source/core/pif_log.o (symbol from plugin)
pifLog_InitStatic                                 obj/main/NAZE/pif/source/core/pif_log.o (symbol from plugin)
pifLog_IsEmpty                                    obj/main/NAZE/pif/source/core/pif_log.o (symbol from plugin)
pifLog_Print                                      obj/main/NAZE/pif/source/core/pif_log.o (symbol from plugin)
                                                  obj/main/NAZE/pif/source/core/pif_i2c.o (symbol from plugin)
pifLog_PrintInBuffer                              obj/main/NAZE/pif/source/core/pif_log.o (symbol from plugin)
pifLog_Printf                                     obj/main/NAZE/pif/source/core/pif_log.o (symbol from plugin)
                                                  obj/main/NAZE/pif/source/sensor/pif_mpu6500.o (symbol from plugin)
                                                  obj/main/NAZE/pif/source/core/pif_task.o (symbol from plugin)
                                                  obj/main/NAZE/pif/source/core/pif_i2c.o (symbol from plugin)
pifLog_Printf.constprop.82                        /tmp/cc8DLllS.ltrans24.ltrans.o
                                                  /tmp/cc8DLllS.ltrans21.ltrans.o
pifLog_SendAndExit                                obj/main/NAZE/pif/source/core/pif_log.o (symbol from plugin)
pifMpu6500_CalibrationGyro                        obj/main/NAZE/pif/source/sensor/pif_mpu6500.o (symbol from plugin)
pifMpu6500_Clear                                  obj/main/NAZE/pif/source/sensor/pif_mpu6500.o (symbol from plugin)
pifMpu6500_Init                                   obj/main/NAZE/pif/source/sensor/pif_mpu6500.o (symbol from plugin)
pifMpu6500_ReadAccel                              obj/main/NAZE/pif/source/sensor/pif_mpu6500.o (symbol from plugin)
pifMpu6500_ReadGyro                               obj/main/NAZE/pif/source/sensor/pif_mpu6500.o (symbol from plugin)
pifMpu6500_ReadTemperature                        obj/main/NAZE/pif/source/sensor/pif_mpu6500.o (symbol from plugin)
pifMpu6500_SetAccelConfig                         obj/main/NAZE/pif/source/sensor/pif_mpu6500.o (symbol from plugin)
pifMpu6500_SetAccelFsSel                          obj/main/NAZE/pif/source/sensor/pif_mpu6500.o (symbol from plugin)
pifMpu6500_SetGyroConfig                          obj/main/NAZE/pif/source/sensor/pif_mpu6500.o (symbol from plugin)
pifMpu6500_SetGyroFsSel                           obj/main/NAZE/pif/source/sensor/pif_mpu6500.o (symbol from plugin)
pifMpu6500_SetThreshold                           obj/main/NAZE/pif/source/sensor/pif_mpu6500.o (symbol from plugin)
pifPidControl_Calcurate                           obj/main/NAZE/pif/source/core/pif.o (symbol from plugin)
pifPidControl_Init                                obj/main/NAZE/pif/source/core/pif.o (symbol from plugin)
pifRingBuffer_BackupHead                          obj/main/NAZE/pif/source/core/pif_ring_buffer.o (symbol from plugin)
pifRingBuffer_ChopsOffChar                        obj/main/NAZE/pif/source/core/pif_ring_buffer.o (symbol from plugin)
pifRingBuffer_ChopsOffLength                      obj/main/NAZE/pif/source/core/pif_ring_buffer.o (symbol from plugin)
pifRingBuffer_ChopsOffNone                        obj/main/NAZE/pif/source/core/pif_ring_buffer.o (symbol from plugin)
pifRingBuffer_Clear                               obj/main/NAZE/pif/source/core/pif_ring_buffer.o (symbol from plugin)
                                                  obj/main/NAZE/pif/source/core/pif_log.o (symbol from plugin)
pifRingBuffer_CopyAll                             obj/main/NAZE/pif/source/core/pif_ring_buffer.o (symbol from plugin)
                                                  obj/main/NAZE/pif/source/core/pif_log.o (symbol from plugin)
pifRingBuffer_CopyLength                          obj/main/NAZE/pif/source/core/pif_ring_buffer.o (symbol from plugin)
pifRingBuffer_CopyToArray                         obj/main/NAZE/pif/source/core/pif_ring_buffer.o (symbol from plugin)
                                                  obj/main/NAZE/pif/source/core/pif_comm.o (symbol from plugin)
pifRingBuffer_CreateHeap                          obj/main/NAZE/pif/source/core/pif_ring_buffer.o (symbol from plugin)
                                                  obj/main/NAZE/pif/source/core/pif_log.o (symbol from plugin)
                                                  obj/main/NAZE/pif/source/core/pif_comm.o (symbol from plugin)
pifRingBuffer_CreateStatic                        obj/main/NAZE/pif/source/core/pif_ring_buffer.o (symbol from plugin)
pifRingBuffer_Destroy                             obj/main/NAZE/pif/source/core/pif_ring_buffer.o (symbol from plugin)
                                                  obj/main/NAZE/pif/source/core/pif_log.o (symbol from plugin)
                                                  obj/main/NAZE/pif/source/core/pif_comm.o (symbol from plugin)
pifRingBuffer_GetByte                             obj/main/NAZE/pif/source/core/pif_ring_buffer.o (symbol from plugin)
                                                  obj/main/NAZE/pif/source/core/pif_comm.o (symbol from plugin)
pifRingBuffer_GetFillSize                         obj/main/NAZE/pif/source/core/pif_ring_buffer.o (symbol from plugin)
                                                  obj/main/NAZE/pif/source/core/pif_log.o (symbol from plugin)
                                                  obj/main/NAZE/pif/source/core/pif_comm.o (symbol from plugin)
pifRingBuffer_GetLinerSize                        obj/main/NAZE/pif/source/core/pif_ring_buffer.o (symbol from plugin)
                                                  obj/main/NAZE/pif/source/core/pif_log.o (symbol from plugin)
                                                  obj/main/NAZE/pif/source/core/pif_comm.o (symbol from plugin)
pifRingBuffer_GetRemainSize                       obj/main/NAZE/pif/source/core/pif_ring_buffer.o (symbol from plugin)
                                                  obj/main/NAZE/pif/source/core/pif_comm.o (symbol from plugin)
pifRingBuffer_GetTailPointer                      obj/main/NAZE/pif/source/core/pif_ring_buffer.o (symbol from plugin)
                                                  obj/main/NAZE/pif/source/core/pif_log.o (symbol from plugin)
                                                  obj/main/NAZE/pif/source/core/pif_comm.o (symbol from plugin)
pifRingBuffer_InitHeap                            obj/main/NAZE/pif/source/core/pif_ring_buffer.o (symbol from plugin)
                                                  obj/main/NAZE/pif/source/core/pif_log.o (symbol from plugin)
pifRingBuffer_InitStatic                          obj/main/NAZE/pif/source/core/pif_ring_buffer.o (symbol from plugin)
                                                  obj/main/NAZE/pif/source/core/pif_log.o (symbol from plugin)
pifRingBuffer_IsBuffer                            obj/main/NAZE/pif/source/core/pif_ring_buffer.o (symbol from plugin)
                                                  obj/main/NAZE/pif/source/core/pif_log.o (symbol from plugin)
pifRingBuffer_IsEmpty                             obj/main/NAZE/pif/source/core/pif_ring_buffer.o (symbol from plugin)
                                                  obj/main/NAZE/pif/source/core/pif_log.o (symbol from plugin)
                                                  obj/main/NAZE/pif/source/core/pif_comm.o (symbol from plugin)
pifRingBuffer_PutByte                             obj/main/NAZE/pif/source/core/pif_ring_buffer.o (symbol from plugin)
                                                  obj/main/NAZE/pif/source/core/pif_comm.o (symbol from plugin)
pifRingBuffer_PutData                             obj/main/NAZE/pif/source/core/pif_ring_buffer.o (symbol from plugin)
                                                  obj/main/NAZE/pif/source/core/pif_comm.o (symbol from plugin)
pifRingBuffer_PutString                           /tmp/cc8DLllS.ltrans21.ltrans.o
                                                  obj/main/NAZE/pif/source/core/pif_ring_buffer.o (symbol from plugin)
                                                  /tmp/cc8DLllS.ltrans25.ltrans.o
                                                  obj/main/NAZE/pif/source/core/pif_log.o (symbol from plugin)
pifRingBuffer_Remove                              obj/main/NAZE/pif/source/core/pif_ring_buffer.o (symbol from plugin)
                                                  obj/main/NAZE/pif/source/core/pif_log.o (symbol from plugin)
                                                  obj/main/NAZE/pif/source/core/pif_comm.o (symbol from plugin)
pifRingBuffer_ResizeHeap                          obj/main/NAZE/pif/source/core/pif_ring_buffer.o (symbol from plugin)
pifRingBuffer_RestoreHead                         obj/main/NAZE/pif/source/core/pif_ring_buffer.o (symbol from plugin)
pifRingBuffer_SetName                             obj/main/NAZE/pif/source/core/pif_ring_buffer.o (symbol from plugin)
                                                  obj/main/NAZE/pif/source/core/pif_comm.o (symbol from plugin)
pifSList_AddFirst                                 obj/main/NAZE/pif/source/core/pif_list.o (symbol from plugin)
pifSList_AddLast                                  obj/main/NAZE/pif/source/core/pif_list.o (symbol from plugin)
pifSList_Clear                                    obj/main/NAZE/pif/source/core/pif_list.o (symbol from plugin)
pifSList_Find                                     obj/main/NAZE/pif/source/core/pif_list.o (symbol from plugin)
pifSList_Init                                     obj/main/NAZE/pif/source/core/pif_list.o (symbol from plugin)
pifSList_RemoveFirst                              obj/main/NAZE/pif/source/core/pif_list.o (symbol from plugin)
pifTaskManager_Add                                /tmp/cc8DLllS.ltrans21.ltrans.o
                                                  obj/main/NAZE/pif/source/core/pif_task.o (symbol from plugin)
                                                  /tmp/cc8DLllS.ltrans12.ltrans.o
                                                  /tmp/cc8DLllS.ltrans6.ltrans.o
                                                  obj/main/NAZE/scheduler.o (symbol from plugin)
                                                  obj/main/NAZE/pif/source/sensor/pif_bmp280.o (symbol from plugin)
                                                  obj/main/NAZE/pif/source/core/pif_timer.o (symbol from plugin)
                                                  obj/main/NAZE/pif/source/core/pif_comm.o (symbol from plugin)
pifTaskManager_Clear                              obj/main/NAZE/pif/source/core/pif_task.o (symbol from plugin)
                                                  obj/main/NAZE/pif/source/core/pif.o (symbol from plugin)
pifTaskManager_Count                              obj/main/NAZE/pif/source/core/pif_task.o (symbol from plugin)
                                                  obj/main/NAZE/io/serial_cli.o (symbol from plugin)
pifTaskManager_Init                               obj/main/NAZE/pif/source/core/pif_task.o (symbol from plugin)
                                                  obj/main/NAZE/main.o (symbol from plugin)
pifTaskManager_Loop                               obj/main/NAZE/pif/source/core/pif_task.o (symbol from plugin)
                                                  obj/main/NAZE/main.o (symbol from plugin)
pifTaskManager_Remove                             obj/main/NAZE/pif/source/core/pif_task.o (symbol from plugin)
                                                  obj/main/NAZE/pif/source/sensor/pif_bmp280.o (symbol from plugin)
                                                  obj/main/NAZE/pif/source/core/pif_timer.o (symbol from plugin)
                                                  obj/main/NAZE/pif/source/core/pif_comm.o (symbol from plugin)
pifTaskManager_Yield                              obj/main/NAZE/pif/source/core/pif_task.o (symbol from plugin)
                                                  obj/main/NAZE/pif/source/core/pif_log.o (symbol from plugin)
pifTaskManager_YieldMs                            obj/main/NAZE/pif/source/core/pif_task.o (symbol from plugin)
                                                  obj/main/NAZE/pif/source/sensor/pif_bmp280.o (symbol from plugin)
                                                  obj/main/NAZE/pif/source/sensor/pif_mpu6500.o (symbol from plugin)
pifTaskManager_YieldUs                            obj/main/NAZE/pif/source/core/pif_task.o (symbol from plugin)
pifTask_ChangeMode                                obj/main/NAZE/pif/source/core/pif_task.o (symbol from plugin)
                                                  obj/main/NAZE/scheduler.o (symbol from plugin)
pifTask_ChangePeriod                              obj/main/NAZE/pif/source/core/pif_task.o (symbol from plugin)
pifTask_DelayMs                                   obj/main/NAZE/pif/source/core/pif_task.o (symbol from plugin)
pifTask_GetDeltaTime                              obj/main/NAZE/pif/source/core/pif_task.o (symbol from plugin)
                                                  obj/main/NAZE/mw.o (symbol from plugin)
pifTask_GetDeltaTime.constprop.79                 /tmp/cc8DLllS.ltrans24.ltrans.o
                                                  /tmp/cc8DLllS.ltrans19.ltrans.o
                                                  /tmp/cc8DLllS.ltrans3.ltrans.o
                                                  /tmp/cc8DLllS.ltrans1.ltrans.o
pifTask_Init                                      obj/main/NAZE/pif/source/core/pif_task.o (symbol from plugin)
pifTimerManager_Add                               obj/main/NAZE/pif/source/core/pif_timer.o (symbol from plugin)
pifTimerManager_Clear                             obj/main/NAZE/pif/source/core/pif_timer.o (symbol from plugin)
pifTimerManager_Count                             obj/main/NAZE/pif/source/core/pif_timer.o (symbol from plugin)
                                                  obj/main/NAZE/io/serial_cli.o (symbol from plugin)
pifTimerManager_Init                              obj/main/NAZE/pif/source/core/pif_timer.o (symbol from plugin)
                                                  obj/main/NAZE/main.o (symbol from plugin)
pifTimerManager_Remove                            obj/main/NAZE/pif/source/core/pif_timer.o (symbol from plugin)
pifTimerManager_sigTick                           obj/main/NAZE/pif/source/core/pif_timer.o (symbol from plugin)
                                                  obj/main/NAZE/drivers/system.o (symbol from plugin)
pifTimer_AttachEvtFinish                          obj/main/NAZE/pif/source/core/pif_timer.o (symbol from plugin)
pifTimer_AttachEvtIntFinish                       obj/main/NAZE/pif/source/core/pif_timer.o (symbol from plugin)
pifTimer_Elapsed                                  obj/main/NAZE/pif/source/core/pif_timer.o (symbol from plugin)
pifTimer_Remain                                   obj/main/NAZE/pif/source/core/pif_timer.o (symbol from plugin)
pifTimer_Reset                                    obj/main/NAZE/pif/source/core/pif_timer.o (symbol from plugin)
pifTimer_SetPwmDuty                               obj/main/NAZE/pif/source/core/pif_timer.o (symbol from plugin)
pifTimer_Start                                    obj/main/NAZE/pif/source/core/pif_timer.o (symbol from plugin)
pifTimer_Stop                                     obj/main/NAZE/pif/source/core/pif_timer.o (symbol from plugin)
pif_BinToString                                   /tmp/cc8DLllS.ltrans25.ltrans.o
                                                  obj/main/NAZE/pif/source/core/pif.o (symbol from plugin)
                                                  /tmp/cc8DLllS.ltrans24.ltrans.o
pif_ClearError                                    obj/main/NAZE/pif/source/core/pif.o (symbol from plugin)
pif_DecToString                                   /tmp/cc8DLllS.ltrans25.ltrans.o
                                                  obj/main/NAZE/pif/source/core/pif.o (symbol from plugin)
                                                  /tmp/cc8DLllS.ltrans24.ltrans.o
                                                  obj/main/NAZE/pif/source/core/pif_log.o (symbol from plugin)
pif_Delay1ms                                      obj/main/NAZE/pif/source/core/pif.o (symbol from plugin)
                                                  obj/main/NAZE/main.o (symbol from plugin)
                                                  obj/main/NAZE/pif/source/core/pif_i2c.o (symbol from plugin)
pif_Delay1us                                      obj/main/NAZE/pif/source/core/pif.o (symbol from plugin)
pif_Exit                                          obj/main/NAZE/pif/source/core/pif.o (symbol from plugin)
pif_FloatToString                                 obj/main/NAZE/pif/source/core/pif.o (symbol from plugin)
pif_HexToString                                   /tmp/cc8DLllS.ltrans25.ltrans.o
                                                  obj/main/NAZE/pif/source/core/pif.o (symbol from plugin)
                                                  /tmp/cc8DLllS.ltrans24.ltrans.o
pif_Init                                          obj/main/NAZE/pif/source/core/pif.o (symbol from plugin)
                                                  obj/main/NAZE/main.o (symbol from plugin)
pif_PrintFormat                                   obj/main/NAZE/pif/source/core/pif.o (symbol from plugin)
                                                  obj/main/NAZE/pif/source/core/pif_log.o (symbol from plugin)
pif_Printf                                        obj/main/NAZE/pif/source/core/pif.o (symbol from plugin)
pif_act_gpio_read                                 obj/main/NAZE/pif/source/core/pif.o (symbol from plugin)
pif_act_gpio_write                                obj/main/NAZE/pif/source/core/pif.o (symbol from plugin)
pif_act_timer1us                                  /tmp/cc8DLllS.ltrans24.ltrans.o
                                                  obj/main/NAZE/pif/source/core/pif.o (symbol from plugin)
                                                  /tmp/cc8DLllS.ltrans25.ltrans.o
                                                  /tmp/cc8DLllS.ltrans21.ltrans.o
                                                  /tmp/cc8DLllS.ltrans12.ltrans.o
                                                  obj/main/NAZE/pif/source/core/pif_task.o (symbol from plugin)
pif_cumulative_timer1ms                           /tmp/cc8DLllS.ltrans24.ltrans.o
                                                  obj/main/NAZE/pif/source/core/pif.o (symbol from plugin)
                                                  /tmp/cc8DLllS.ltrans21.ltrans.o
                                                  /tmp/cc8DLllS.ltrans16.ltrans.o
                                                  /tmp/cc8DLllS.ltrans12.ltrans.o
                                                  obj/main/NAZE/pif/source/sensor/pif_bmp280.o (symbol from plugin)
                                                  obj/main/NAZE/pif/source/core/pif_task.o (symbol from plugin)
                                                  obj/main/NAZE/pif/source/core/pif_i2c.o (symbol from plugin)
pif_datetime                                      /tmp/cc8DLllS.ltrans24.ltrans.o
                                                  obj/main/NAZE/pif/source/core/pif.o (symbol from plugin)
                                                  /tmp/cc8DLllS.ltrans16.ltrans.o
                                                  /tmp/cc8DLllS.ltrans12.ltrans.o
                                                  obj/main/NAZE/pif/source/core/pif_log.o (symbol from plugin)
pif_error                                         /tmp/cc8DLllS.ltrans18.ltrans.o
                                                  obj/main/NAZE/pif/source/core/pif.o (symbol from plugin)
                                                  /tmp/cc8DLllS.ltrans21.ltrans.o
                                                  obj/main/NAZE/pif/source/sensor/pif_bmp280.o (symbol from plugin)
                                                  obj/main/NAZE/pif/source/sensor/pif_mpu6500.o (symbol from plugin)
                                                  obj/main/NAZE/pif/source/core/pif_timer.o (symbol from plugin)
                                                  obj/main/NAZE/pif/source/core/pif_task.o (symbol from plugin)
                                                  obj/main/NAZE/pif/source/core/pif_ring_buffer.o (symbol from plugin)
                                                  obj/main/NAZE/pif/source/core/pif_list.o (symbol from plugin)
                                                  obj/main/NAZE/pif/source/core/pif_i2c.o (symbol from plugin)
                                                  obj/main/NAZE/pif/source/core/pif_comm.o (symbol from plugin)
pif_id                                            /tmp/cc8DLllS.ltrans18.ltrans.o
                                                  obj/main/NAZE/pif/source/core/pif.o (symbol from plugin)
                                                  /tmp/cc8DLllS.ltrans21.ltrans.o
                                                  /tmp/cc8DLllS.ltrans12.ltrans.o
                                                  obj/main/NAZE/pif/source/sensor/pif_bmp280.o (symbol from plugin)
                                                  obj/main/NAZE/pif/source/sensor/pif_mpu6500.o (symbol from plugin)
                                                  obj/main/NAZE/pif/source/core/pif_timer.o (symbol from plugin)
                                                  obj/main/NAZE/pif/source/core/pif_task.o (symbol from plugin)
                                                  obj/main/NAZE/pif/source/core/pif_ring_buffer.o (symbol from plugin)
                                                  obj/main/NAZE/pif/source/core/pif_i2c.o (symbol from plugin)
                                                  obj/main/NAZE/pif/source/core/pif_comm.o (symbol from plugin)
pif_log_flag                                      obj/main/NAZE/pif/source/core/pif_log.o (symbol from plugin)
                                                  obj/main/NAZE/pif/source/core/pif_task.o (symbol from plugin)
pif_performance                                   /tmp/cc8DLllS.ltrans9.ltrans.o
                                                  obj/main/NAZE/pif/source/core/pif.o (symbol from plugin)
                                                  /tmp/cc8DLllS.ltrans21.ltrans.o
                                                  /tmp/cc8DLllS.ltrans16.ltrans.o
                                                  /tmp/cc8DLllS.ltrans2.ltrans.o
                                                  /tmp/cc8DLllS.ltrans1.ltrans.o
                                                  obj/main/NAZE/io/serial_msp.o (symbol from plugin)
                                                  obj/main/NAZE/io/serial_cli.o (symbol from plugin)
                                                  obj/main/NAZE/mw.o (symbol from plugin)
                                                  obj/main/NAZE/pif/source/core/pif_task.o (symbol from plugin)
pif_sigTimer1ms                                   obj/main/NAZE/pif/source/core/pif.o (symbol from plugin)
                                                  obj/main/NAZE/drivers/system.o (symbol from plugin)
pif_timer1ms                                      /tmp/cc8DLllS.ltrans24.ltrans.o
                                                  obj/main/NAZE/pif/source/core/pif.o (symbol from plugin)
                                                  /tmp/cc8DLllS.ltrans16.ltrans.o
                                                  obj/main/NAZE/pif/source/core/pif_log.o (symbol from plugin)
pif_timer1sec                                     obj/main/NAZE/pif/source/core/pif.o (symbol from plugin)
pif_timer1us                                      /tmp/cc8DLllS.ltrans19.ltrans.o
                                                  obj/main/NAZE/pif/source/core/pif.o (symbol from plugin)
                                                  /tmp/cc8DLllS.ltrans28.ltrans.o
                                                  /tmp/cc8DLllS.ltrans25.ltrans.o
                                                  /tmp/cc8DLllS.ltrans12.ltrans.o
                                                  /tmp/cc8DLllS.ltrans11.ltrans.o
                                                  /tmp/cc8DLllS.ltrans3.ltrans.o
                                                  /tmp/cc8DLllS.ltrans1.ltrans.o
                                                  obj/main/NAZE/sensors/compass.o (symbol from plugin)
                                                  obj/main/NAZE/mw.o (symbol from plugin)
                                                  obj/main/NAZE/pif/source/core/pif_task.o (symbol from plugin)
                                                  obj/main/NAZE/blackbox/blackbox.o (symbol from plugin)
portConfig.lto_priv.411                           /tmp/cc8DLllS.ltrans0.ltrans.o
                                                  /tmp/cc8DLllS.ltrans27.ltrans.o
portConfig.lto_priv.412                           /tmp/cc8DLllS.ltrans5.ltrans.o
                                                  /tmp/cc8DLllS.ltrans27.ltrans.o
                                                  /tmp/cc8DLllS.ltrans0.ltrans.o
portConfig.lto_priv.413                           /tmp/cc8DLllS.ltrans0.ltrans.o
                                                  /tmp/cc8DLllS.ltrans27.ltrans.o
portConfig.lto_priv.414                           /tmp/cc8DLllS.ltrans0.ltrans.o
                                                  /tmp/cc8DLllS.ltrans27.ltrans.o
posholdPID_PARAM.lto_priv.552                     /tmp/cc8DLllS.ltrans13.ltrans.o
                                                  /tmp/cc8DLllS.ltrans17.ltrans.o
poshold_ratePID.lto_priv.541                      /tmp/cc8DLllS.ltrans3.ltrans.o
                                                  /tmp/cc8DLllS.ltrans13.ltrans.o
poshold_ratePID_PARAM.lto_priv.553                /tmp/cc8DLllS.ltrans13.ltrans.o
                                                  /tmp/cc8DLllS.ltrans17.ltrans.o
powf                                              /usr/lib/gcc/arm-none-eabi/4.9.3/../../../arm-none-eabi/lib/armv7-m/libm.a(lib_a-wf_pow.o)
                                                  /tmp/cc8DLllS.ltrans19.ltrans.o
ppmAvoidPWMTimerClash                             obj/main/NAZE/drivers/pwm_rx.o (symbol from plugin)
ppmDev                                            /tmp/cc8DLllS.ltrans0.ltrans.o
                                                  obj/main/NAZE/drivers/pwm_rx.o (symbol from plugin)
                                                  /tmp/cc8DLllS.ltrans7.ltrans.o
ppmEdgeCallback.lto_priv.462                      /tmp/cc8DLllS.ltrans7.ltrans.o
                                                  /tmp/cc8DLllS.ltrans0.ltrans.o
ppmFrameCount.lto_priv.564                        /tmp/cc8DLllS.ltrans3.ltrans.o
                                                  /tmp/cc8DLllS.ltrans7.ltrans.o
ppmISREvent                                       obj/main/NAZE/drivers/pwm_rx.o (symbol from plugin)
ppmInConfig                                       obj/main/NAZE/drivers/pwm_rx.o (symbol from plugin)
                                                  obj/main/NAZE/drivers/pwm_mapping.o (symbol from plugin)
ppmOverflowCallback.lto_priv.463                  /tmp/cc8DLllS.ltrans7.ltrans.o
                                                  /tmp/cc8DLllS.ltrans0.ltrans.o
ppmRead                                           obj/main/NAZE/drivers/pwm_rx.o (symbol from plugin)
                                                  obj/main/NAZE/rx/pwm.o (symbol from plugin)
ppmReadRawRC.lto_priv.443                         /tmp/cc8DLllS.ltrans9.ltrans.o
                                                  /tmp/cc8DLllS.ltrans0.ltrans.o
prepareForNextRxByte                              obj/main/NAZE/drivers/serial_softserial.o (symbol from plugin)
printfSerialPort.lto_priv.498                     /tmp/cc8DLllS.ltrans2.ltrans.o
                                                  /tmp/cc8DLllS.ltrans6.ltrans.o
printfSupportInit                                 obj/main/NAZE/common/printf.o (symbol from plugin)
                                                  obj/main/NAZE/main.o (symbol from plugin)
processRcAdjustments                              obj/main/NAZE/io/rc_controls.o (symbol from plugin)
                                                  obj/main/NAZE/mw.o (symbol from plugin)
processRcStickPositions                           obj/main/NAZE/io/rc_controls.o (symbol from plugin)
                                                  obj/main/NAZE/mw.o (symbol from plugin)
processRx                                         obj/main/NAZE/mw.o (symbol from plugin)
processRxState                                    obj/main/NAZE/drivers/serial_softserial.o (symbol from plugin)
processTxState                                    obj/main/NAZE/drivers/serial_softserial.o (symbol from plugin)
pwmBrushedMotorConfig                             obj/main/NAZE/drivers/pwm_output.o (symbol from plugin)
                                                  obj/main/NAZE/drivers/pwm_mapping.o (symbol from plugin)
pwmBrushlessMotorConfig                           obj/main/NAZE/drivers/pwm_output.o (symbol from plugin)
                                                  obj/main/NAZE/drivers/pwm_mapping.o (symbol from plugin)
pwmCompleteOneshotMotorUpdate                     obj/main/NAZE/drivers/pwm_output.o (symbol from plugin)
                                                  obj/main/NAZE/flight/mixer.o (symbol from plugin)
pwmEdgeCallback.lto_priv.460                      /tmp/cc8DLllS.ltrans7.ltrans.o
                                                  /tmp/cc8DLllS.ltrans0.ltrans.o
pwmGetOutputConfiguration                         obj/main/NAZE/drivers/pwm_mapping.o (symbol from plugin)
                                                  obj/main/NAZE/io/serial_1wire.o (symbol from plugin)
pwmICConfig                                       /tmp/cc8DLllS.ltrans7.ltrans.o
                                                  obj/main/NAZE/drivers/pwm_rx.o (symbol from plugin)
                                                  /tmp/cc8DLllS.ltrans0.ltrans.o
pwmIOConfiguration.lto_priv.456                   /tmp/cc8DLllS.ltrans2.ltrans.o
                                                  /tmp/cc8DLllS.ltrans0.ltrans.o
pwmInConfig                                       obj/main/NAZE/drivers/pwm_rx.o (symbol from plugin)
                                                  obj/main/NAZE/drivers/pwm_mapping.o (symbol from plugin)
pwmInit                                           obj/main/NAZE/drivers/pwm_mapping.o (symbol from plugin)
                                                  obj/main/NAZE/main.o (symbol from plugin)
pwmOneshotMotorConfig                             obj/main/NAZE/drivers/pwm_output.o (symbol from plugin)
                                                  obj/main/NAZE/drivers/pwm_mapping.o (symbol from plugin)
pwmOutConfig.lto_priv.496                         /tmp/cc8DLllS.ltrans7.ltrans.o
                                                  /tmp/cc8DLllS.ltrans0.ltrans.o
pwmOverflowCallback.lto_priv.461                  /tmp/cc8DLllS.ltrans7.ltrans.o
                                                  /tmp/cc8DLllS.ltrans0.ltrans.o
pwmRead                                           obj/main/NAZE/drivers/pwm_rx.o (symbol from plugin)
                                                  obj/main/NAZE/rx/pwm.o (symbol from plugin)
pwmReadRawRC.lto_priv.442                         /tmp/cc8DLllS.ltrans9.ltrans.o
                                                  /tmp/cc8DLllS.ltrans0.ltrans.o
pwmRxInit                                         obj/main/NAZE/drivers/pwm_rx.o (symbol from plugin)
                                                  obj/main/NAZE/main.o (symbol from plugin)
pwmServoConfig                                    obj/main/NAZE/drivers/pwm_output.o (symbol from plugin)
                                                  obj/main/NAZE/drivers/pwm_mapping.o (symbol from plugin)
pwmShutdownPulsesForAllMotors                     obj/main/NAZE/drivers/pwm_output.o (symbol from plugin)
                                                  obj/main/NAZE/flight/mixer.o (symbol from plugin)
pwmWriteBrushed.lto_priv.459                      /tmp/cc8DLllS.ltrans7.ltrans.o
                                                  /tmp/cc8DLllS.ltrans0.ltrans.o
pwmWriteMotor                                     obj/main/NAZE/drivers/pwm_output.o (symbol from plugin)
                                                  obj/main/NAZE/flight/mixer.o (symbol from plugin)
pwmWriteServo                                     /tmp/cc8DLllS.ltrans7.ltrans.o
                                                  obj/main/NAZE/drivers/pwm_output.o (symbol from plugin)
                                                  /tmp/cc8DLllS.ltrans1.ltrans.o
                                                  obj/main/NAZE/flight/mixer.o (symbol from plugin)
pwmWriteStandard.lto_priv.458                     /tmp/cc8DLllS.ltrans7.ltrans.o
                                                  /tmp/cc8DLllS.ltrans0.ltrans.o
q0.lto_priv.371                                   /tmp/cc8DLllS.ltrans16.ltrans.o
                                                  /tmp/cc8DLllS.ltrans1.ltrans.o
q1.lto_priv.372                                   /tmp/cc8DLllS.ltrans16.ltrans.o
                                                  /tmp/cc8DLllS.ltrans1.ltrans.o
q2.lto_priv.373                                   /tmp/cc8DLllS.ltrans16.ltrans.o
                                                  /tmp/cc8DLllS.ltrans1.ltrans.o
q3.lto_priv.374                                   /tmp/cc8DLllS.ltrans16.ltrans.o
                                                  /tmp/cc8DLllS.ltrans1.ltrans.o
quickMedianFilter3                                obj/main/NAZE/common/maths.o (symbol from plugin)
                                                  obj/main/NAZE/sensors/barometer.o (symbol from plugin)
quickMedianFilter5                                obj/main/NAZE/common/maths.o (symbol from plugin)
                                                  obj/main/NAZE/sensors/sonar.o (symbol from plugin)
quickMedianFilter7                                obj/main/NAZE/common/maths.o (symbol from plugin)
quickMedianFilter9                                obj/main/NAZE/common/maths.o (symbol from plugin)
rMat.lto_priv.267                                 /tmp/cc8DLllS.ltrans16.ltrans.o
                                                  /tmp/cc8DLllS.ltrans19.ltrans.o
                                                  /tmp/cc8DLllS.ltrans1.ltrans.o
rcAliasToAngleIndexMap                            obj/main/NAZE/flight/pid.o (symbol from plugin)
rcChannelLetters                                  /tmp/cc8DLllS.ltrans24.ltrans.o
                                                  obj/main/NAZE/rx/rx.o (symbol from plugin)
                                                  /tmp/cc8DLllS.ltrans14.ltrans.o
                                                  obj/main/NAZE/io/serial_cli.o (symbol from plugin)
                                                  obj/main/NAZE/io/display.o (symbol from plugin)
rcCommand                                         /tmp/cc8DLllS.ltrans23.ltrans.o
                                                  obj/main/NAZE/io/rc_controls.o (symbol from plugin)
                                                  /tmp/cc8DLllS.ltrans30.ltrans.o
                                                  /tmp/cc8DLllS.ltrans28.ltrans.o
                                                  /tmp/cc8DLllS.ltrans17.ltrans.o
                                                  /tmp/cc8DLllS.ltrans11.ltrans.o
                                                  /tmp/cc8DLllS.ltrans8.ltrans.o
                                                  /tmp/cc8DLllS.ltrans5.ltrans.o
                                                  /tmp/cc8DLllS.ltrans3.ltrans.o
                                                  /tmp/cc8DLllS.ltrans1.ltrans.o
                                                  obj/main/NAZE/sensors/battery.o (symbol from plugin)
                                                  obj/main/NAZE/flight/mixer.o (symbol from plugin)
                                                  obj/main/NAZE/flight/pid.o (symbol from plugin)
                                                  obj/main/NAZE/flight/altitudehold.o (symbol from plugin)
                                                  obj/main/NAZE/mw.o (symbol from plugin)
                                                  obj/main/NAZE/blackbox/blackbox.o (symbol from plugin)
                                                  obj/main/NAZE/telemetry/frsky.o (symbol from plugin)
                                                  obj/main/NAZE/io/ledstrip.o (symbol from plugin)
                                                  obj/main/NAZE/flight/gtune.o (symbol from plugin)
rcControlsConfig.lto_priv.501                     /tmp/cc8DLllS.ltrans1.ltrans.o
                                                  /tmp/cc8DLllS.ltrans6.ltrans.o
rcData                                            /tmp/cc8DLllS.ltrans24.ltrans.o
                                                  obj/main/NAZE/rx/rx.o (symbol from plugin)
                                                  /tmp/cc8DLllS.ltrans23.ltrans.o
                                                  /tmp/cc8DLllS.ltrans16.ltrans.o
                                                  /tmp/cc8DLllS.ltrans9.ltrans.o
                                                  /tmp/cc8DLllS.ltrans8.ltrans.o
                                                  /tmp/cc8DLllS.ltrans3.ltrans.o
                                                  /tmp/cc8DLllS.ltrans2.ltrans.o
                                                  /tmp/cc8DLllS.ltrans1.ltrans.o
                                                  /tmp/cc8DLllS.ltrans0.ltrans.o
                                                  obj/main/NAZE/io/serial_msp.o (symbol from plugin)
                                                  obj/main/NAZE/io/rc_controls.o (symbol from plugin)
                                                  obj/main/NAZE/flight/mixer.o (symbol from plugin)
                                                  obj/main/NAZE/flight/failsafe.o (symbol from plugin)
                                                  obj/main/NAZE/flight/altitudehold.o (symbol from plugin)
                                                  obj/main/NAZE/mw.o (symbol from plugin)
                                                  obj/main/NAZE/io/display.o (symbol from plugin)
                                                  obj/main/NAZE/io/ledstrip.o (symbol from plugin)
rcFrameComplete.lto_priv.299                      /tmp/cc8DLllS.ltrans9.ltrans.o
                                                  /tmp/cc8DLllS.ltrans3.ltrans.o
rcInvalidPulsPeriod                               /tmp/cc8DLllS.ltrans3.ltrans.o
                                                  obj/main/NAZE/rx/rx.o (symbol from plugin)
                                                  /tmp/cc8DLllS.ltrans0.ltrans.o
rcModeActivationMask                              /tmp/cc8DLllS.ltrans9.ltrans.o
                                                  obj/main/NAZE/io/rc_controls.o (symbol from plugin)
                                                  /tmp/cc8DLllS.ltrans28.ltrans.o
                                                  /tmp/cc8DLllS.ltrans27.ltrans.o
                                                  /tmp/cc8DLllS.ltrans23.ltrans.o
                                                  /tmp/cc8DLllS.ltrans12.ltrans.o
                                                  /tmp/cc8DLllS.ltrans8.ltrans.o
                                                  /tmp/cc8DLllS.ltrans3.ltrans.o
                                                  /tmp/cc8DLllS.ltrans1.ltrans.o
                                                  obj/main/NAZE/rx/rx.o (symbol from plugin)
                                                  obj/main/NAZE/io/serial_msp.o (symbol from plugin)
                                                  obj/main/NAZE/io/beeper.o (symbol from plugin)
                                                  obj/main/NAZE/flight/mixer.o (symbol from plugin)
                                                  obj/main/NAZE/flight/pid.o (symbol from plugin)
                                                  obj/main/NAZE/flight/failsafe.o (symbol from plugin)
                                                  obj/main/NAZE/flight/altitudehold.o (symbol from plugin)
                                                  obj/main/NAZE/mw.o (symbol from plugin)
                                                  obj/main/NAZE/blackbox/blackbox.o (symbol from plugin)
                                                  obj/main/NAZE/telemetry/telemetry.o (symbol from plugin)
                                                  obj/main/NAZE/io/ledstrip.o (symbol from plugin)
                                                  obj/main/NAZE/flight/navigation.o (symbol from plugin)
rcRaw                                             obj/main/NAZE/rx/rx.o (symbol from plugin)
rcReadRawFunc.lto_priv.282                        /tmp/cc8DLllS.ltrans18.ltrans.o
                                                  /tmp/cc8DLllS.ltrans3.ltrans.o
                                                  /tmp/cc8DLllS.ltrans0.ltrans.o
rcSampleIndex.lto_priv.424                        /tmp/cc8DLllS.ltrans3.ltrans.o
                                                  /tmp/cc8DLllS.ltrans0.ltrans.o
read16.lto_priv.350                               /tmp/cc8DLllS.ltrans9.ltrans.o
                                                  /tmp/cc8DLllS.ltrans2.ltrans.o
read32.lto_priv.351                               /tmp/cc8DLllS.ltrans9.ltrans.o
                                                  /tmp/cc8DLllS.ltrans2.ltrans.o
read8.lto_priv.349                                /tmp/cc8DLllS.ltrans9.ltrans.o
                                                  /tmp/cc8DLllS.ltrans2.ltrans.o
readEEPROM                                        /tmp/cc8DLllS.ltrans6.ltrans.o
                                                  obj/main/NAZE/config/config.o (symbol from plugin)
                                                  /tmp/cc8DLllS.ltrans14.ltrans.o
                                                  /tmp/cc8DLllS.ltrans3.ltrans.o
                                                  /tmp/cc8DLllS.ltrans2.ltrans.o
                                                  /tmp/cc8DLllS.ltrans0.ltrans.o
                                                  obj/main/NAZE/io/serial_msp.o (symbol from plugin)
                                                  obj/main/NAZE/io/serial_cli.o (symbol from plugin)
                                                  obj/main/NAZE/main.o (symbol from plugin)
readEEPROMAndNotify                               obj/main/NAZE/config/config.o (symbol from plugin)
reconfigureAlignment                              obj/main/NAZE/sensors/initialisation.o (symbol from plugin)
reevalulateLedConfig                              /tmp/cc8DLllS.ltrans20.ltrans.o
                                                  obj/main/NAZE/io/ledstrip.o (symbol from plugin)
                                                  /tmp/cc8DLllS.ltrans21.ltrans.o
                                                  /tmp/cc8DLllS.ltrans10.ltrans.o
                                                  /tmp/cc8DLllS.ltrans2.ltrans.o
                                                  /tmp/cc8DLllS.ltrans0.ltrans.o
                                                  obj/main/NAZE/io/serial_msp.o (symbol from plugin)
registerExtiCallbackHandler                       /tmp/cc8DLllS.ltrans16.ltrans.o
                                                  obj/main/NAZE/drivers/system.o (symbol from plugin)
                                                  /tmp/cc8DLllS.ltrans22.ltrans.o
                                                  /tmp/cc8DLllS.ltrans4.ltrans.o
                                                  obj/main/NAZE/drivers/compass_hmc5883l.o (symbol from plugin)
                                                  obj/main/NAZE/drivers/barometer_bmp085.o (symbol from plugin)
                                                  obj/main/NAZE/drivers/accgyro_mpu.o (symbol from plugin)
releaseSharedTelemetryPorts                       obj/main/NAZE/mw.o (symbol from plugin)
resetAdjustmentStates                             obj/main/NAZE/io/rc_controls.o (symbol from plugin)
                                                  obj/main/NAZE/config/config.o (symbol from plugin)
resetAllRxChannelRangeConfigurations              obj/main/NAZE/rx/rx.o (symbol from plugin)
                                                  obj/main/NAZE/io/serial_cli.o (symbol from plugin)
                                                  obj/main/NAZE/config/config.o (symbol from plugin)
resetBarometerConfig                              obj/main/NAZE/config/config.o (symbol from plugin)
resetConf.lto_priv.212                            /tmp/cc8DLllS.ltrans21.ltrans.o
                                                  /tmp/cc8DLllS.ltrans14.ltrans.o
                                                  /tmp/cc8DLllS.ltrans2.ltrans.o
                                                  /tmp/cc8DLllS.ltrans0.ltrans.o
resetDisplay                                      obj/main/NAZE/io/display.o (symbol from plugin)
resetEEPROM                                       obj/main/NAZE/config/config.o (symbol from plugin)
                                                  obj/main/NAZE/io/serial_msp.o (symbol from plugin)
                                                  obj/main/NAZE/io/serial_cli.o (symbol from plugin)
resetEscAndServoConfig                            obj/main/NAZE/config/config.o (symbol from plugin)
resetFlight3DConfig                               obj/main/NAZE/config/config.o (symbol from plugin)
resetGpsProfile                                   obj/main/NAZE/config/config.o (symbol from plugin)
resetPPMDataReceivedState                         obj/main/NAZE/drivers/pwm_rx.o (symbol from plugin)
                                                  obj/main/NAZE/rx/rx.o (symbol from plugin)
resetPidProfile                                   obj/main/NAZE/config/config.o (symbol from plugin)
                                                  obj/main/NAZE/io/serial_msp.o (symbol from plugin)
resetRcControlsConfig                             obj/main/NAZE/config/config.o (symbol from plugin)
resetRollAndPitchTrims                            obj/main/NAZE/sensors/acceleration.o (symbol from plugin)
                                                  obj/main/NAZE/config/config.o (symbol from plugin)
resetSerialConfig                                 obj/main/NAZE/config/config.o (symbol from plugin)
resetSerialConfig.constprop.70                    /tmp/cc8DLllS.ltrans24.ltrans.o
                                                  /tmp/cc8DLllS.ltrans21.ltrans.o
                                                  /tmp/cc8DLllS.ltrans6.ltrans.o
resumeRxSignal                                    /tmp/cc8DLllS.ltrans9.ltrans.o
                                                  obj/main/NAZE/rx/rx.o (symbol from plugin)
                                                  /tmp/cc8DLllS.ltrans6.ltrans.o
                                                  obj/main/NAZE/config/config.o (symbol from plugin)
rint                                              /usr/lib/gcc/arm-none-eabi/4.9.3/../../../arm-none-eabi/lib/armv7-m/libm.a(lib_a-s_rint.o)
                                                  /usr/lib/gcc/arm-none-eabi/4.9.3/../../../arm-none-eabi/lib/armv7-m/libm.a(lib_a-wf_pow.o)
rotateV                                           obj/main/NAZE/common/maths.o (symbol from plugin)
rssi                                              /tmp/cc8DLllS.ltrans5.ltrans.o
                                                  obj/main/NAZE/rx/rx.o (symbol from plugin)
                                                  /tmp/cc8DLllS.ltrans11.ltrans.o
                                                  /tmp/cc8DLllS.ltrans3.ltrans.o
                                                  /tmp/cc8DLllS.ltrans2.ltrans.o
                                                  obj/main/NAZE/io/serial_msp.o (symbol from plugin)
                                                  obj/main/NAZE/blackbox/blackbox.o (symbol from plugin)
                                                  obj/main/NAZE/telemetry/ltm.o (symbol from plugin)
rxAreFlightChannelsValid                          obj/main/NAZE/rx/rx.o (symbol from plugin)
                                                  obj/main/NAZE/blackbox/blackbox.o (symbol from plugin)
                                                  obj/main/NAZE/io/display.o (symbol from plugin)
rxConfig.lto_priv.277                             /tmp/cc8DLllS.ltrans3.ltrans.o
                                                  /tmp/cc8DLllS.ltrans0.ltrans.o
rxConfig.lto_priv.278                             /tmp/cc8DLllS.ltrans9.ltrans.o
                                                  /tmp/cc8DLllS.ltrans6.ltrans.o
                                                  /tmp/cc8DLllS.ltrans3.ltrans.o
                                                  /tmp/cc8DLllS.ltrans0.ltrans.o
rxConfig.lto_priv.504                             /tmp/cc8DLllS.ltrans1.ltrans.o
                                                  /tmp/cc8DLllS.ltrans6.ltrans.o
rxFlightChannelsValid.lto_priv.526                /tmp/cc8DLllS.ltrans3.ltrans.o
                                                  /tmp/cc8DLllS.ltrans20.ltrans.o
                                                  /tmp/cc8DLllS.ltrans11.ltrans.o
rxInit                                            obj/main/NAZE/rx/rx.o (symbol from plugin)
                                                  obj/main/NAZE/main.o (symbol from plugin)
rxIsReceivingSignal                               obj/main/NAZE/rx/rx.o (symbol from plugin)
                                                  obj/main/NAZE/io/rc_controls.o (symbol from plugin)
                                                  obj/main/NAZE/blackbox/blackbox.o (symbol from plugin)
                                                  obj/main/NAZE/io/display.o (symbol from plugin)
                                                  obj/main/NAZE/io/ledstrip.o (symbol from plugin)
rxMspFrameComplete                                obj/main/NAZE/rx/msp.o (symbol from plugin)
                                                  obj/main/NAZE/rx/rx.o (symbol from plugin)
rxMspFrameDone.lto_priv.320                       /tmp/cc8DLllS.ltrans3.ltrans.o
                                                  /tmp/cc8DLllS.ltrans2.ltrans.o
rxMspFrameReceive                                 obj/main/NAZE/rx/msp.o (symbol from plugin)
                                                  obj/main/NAZE/io/serial_msp.o (symbol from plugin)
rxMspInit                                         obj/main/NAZE/rx/msp.o (symbol from plugin)
                                                  obj/main/NAZE/rx/rx.o (symbol from plugin)
rxMspReadRawRC.lto_priv.441                       /tmp/cc8DLllS.ltrans9.ltrans.o
                                                  /tmp/cc8DLllS.ltrans0.ltrans.o
rxPwmInit                                         obj/main/NAZE/rx/pwm.o (symbol from plugin)
                                                  obj/main/NAZE/rx/rx.o (symbol from plugin)
rxRefreshRate.lto_priv.425                        /tmp/cc8DLllS.ltrans1.ltrans.o
                                                  /tmp/cc8DLllS.ltrans0.ltrans.o
rxRuntimeConfig                                   /tmp/cc8DLllS.ltrans18.ltrans.o
                                                  obj/main/NAZE/rx/rx.o (symbol from plugin)
                                                  /tmp/cc8DLllS.ltrans20.ltrans.o
                                                  /tmp/cc8DLllS.ltrans16.ltrans.o
                                                  /tmp/cc8DLllS.ltrans3.ltrans.o
                                                  /tmp/cc8DLllS.ltrans2.ltrans.o
                                                  /tmp/cc8DLllS.ltrans0.ltrans.o
                                                  obj/main/NAZE/io/serial_msp.o (symbol from plugin)
                                                  obj/main/NAZE/flight/mixer.o (symbol from plugin)
                                                  obj/main/NAZE/io/display.o (symbol from plugin)
rxRuntimeConfigPtr.lto_priv.302                   /tmp/cc8DLllS.ltrans18.ltrans.o
                                                  /tmp/cc8DLllS.ltrans3.ltrans.o
rxSignalReceived.lto_priv.271                     /tmp/cc8DLllS.ltrans8.ltrans.o
                                                  /tmp/cc8DLllS.ltrans20.ltrans.o
                                                  /tmp/cc8DLllS.ltrans11.ltrans.o
                                                  /tmp/cc8DLllS.ltrans3.ltrans.o
s_it_current.lto_priv.508                         /tmp/cc8DLllS.ltrans12.ltrans.o
                                                  /tmp/cc8DLllS.ltrans25.ltrans.o
                                                  /tmp/cc8DLllS.ltrans21.ltrans.o
s_loop_count.lto_priv.510                         /tmp/cc8DLllS.ltrans12.ltrans.o
                                                  /tmp/cc8DLllS.ltrans25.ltrans.o
                                                  /tmp/cc8DLllS.ltrans21.ltrans.o
s_pass_count.lto_priv.509                         /tmp/cc8DLllS.ltrans12.ltrans.o
                                                  /tmp/cc8DLllS.ltrans25.ltrans.o
                                                  /tmp/cc8DLllS.ltrans21.ltrans.o
s_table.lto_priv.512                              /tmp/cc8DLllS.ltrans12.ltrans.o
                                                  /tmp/cc8DLllS.ltrans21.ltrans.o
s_table_number.lto_priv.511                       /tmp/cc8DLllS.ltrans12.ltrans.o
                                                  /tmp/cc8DLllS.ltrans21.ltrans.o
s_task_stack.lto_priv.514                         /tmp/cc8DLllS.ltrans21.ltrans.o
                                                  /tmp/cc8DLllS.ltrans25.ltrans.o
s_task_stack_ptr.lto_priv.513                     /tmp/cc8DLllS.ltrans21.ltrans.o
                                                  /tmp/cc8DLllS.ltrans25.ltrans.o
s_tasks.lto_priv.394                              /tmp/cc8DLllS.ltrans9.ltrans.o
                                                  /tmp/cc8DLllS.ltrans25.ltrans.o
                                                  /tmp/cc8DLllS.ltrans21.ltrans.o
                                                  /tmp/cc8DLllS.ltrans12.ltrans.o
saveConfigAndNotify                               /tmp/cc8DLllS.ltrans6.ltrans.o
                                                  obj/main/NAZE/config/config.o (symbol from plugin)
                                                  /tmp/cc8DLllS.ltrans29.ltrans.o
                                                  /tmp/cc8DLllS.ltrans19.ltrans.o
                                                  /tmp/cc8DLllS.ltrans3.ltrans.o
                                                  /tmp/cc8DLllS.ltrans0.ltrans.o
                                                  obj/main/NAZE/sensors/compass.o (symbol from plugin)
                                                  obj/main/NAZE/sensors/acceleration.o (symbol from plugin)
                                                  obj/main/NAZE/rx/spektrum.o (symbol from plugin)
                                                  obj/main/NAZE/io/rc_controls.o (symbol from plugin)
                                                  obj/main/NAZE/mw.o (symbol from plugin)
sbusChannelData.lto_priv.298                      /tmp/cc8DLllS.ltrans9.ltrans.o
                                                  /tmp/cc8DLllS.ltrans3.ltrans.o
                                                  /tmp/cc8DLllS.ltrans0.ltrans.o
sbusDataReceive.lto_priv.427                      /tmp/cc8DLllS.ltrans9.ltrans.o
                                                  /tmp/cc8DLllS.ltrans0.ltrans.o
sbusFrame.lto_priv.297                            /tmp/cc8DLllS.ltrans9.ltrans.o
                                                  /tmp/cc8DLllS.ltrans3.ltrans.o
sbusFrameDone.lto_priv.296                        /tmp/cc8DLllS.ltrans9.ltrans.o
                                                  /tmp/cc8DLllS.ltrans3.ltrans.o
sbusFrameStatus                                   obj/main/NAZE/rx/sbus.o (symbol from plugin)
                                                  obj/main/NAZE/rx/rx.o (symbol from plugin)
sbusInit                                          obj/main/NAZE/rx/sbus.o (symbol from plugin)
                                                  obj/main/NAZE/rx/rx.o (symbol from plugin)
sbusReadRawRC.lto_priv.426                        /tmp/cc8DLllS.ltrans9.ltrans.o
                                                  /tmp/cc8DLllS.ltrans0.ltrans.o
scalbnf                                           /usr/lib/gcc/arm-none-eabi/4.9.3/../../../arm-none-eabi/lib/armv7-m/libm.a(lib_a-sf_scalbn.o)
                                                  /usr/lib/gcc/arm-none-eabi/4.9.3/../../../arm-none-eabi/lib/armv7-m/libm.a(lib_a-ef_pow.o)
scaleItermToRcInput                               /tmp/cc8DLllS.ltrans30.ltrans.o
                                                  obj/main/NAZE/flight/pid.o (symbol from plugin)
                                                  /tmp/cc8DLllS.ltrans23.ltrans.o
scaleLedValue                                     obj/main/NAZE/drivers/light_ws2811strip.o (symbol from plugin)
scaleRange                                        obj/main/NAZE/common/maths.o (symbol from plugin)
                                                  obj/main/NAZE/rx/rx.o (symbol from plugin)
                                                  obj/main/NAZE/flight/mixer.o (symbol from plugin)
                                                  obj/main/NAZE/io/ledstrip.o (symbol from plugin)
sectionTimes                                      obj/main/NAZE/debug.o (symbol from plugin)
selectMPUIntExtiConfig                            obj/main/NAZE/drivers/accgyro_mpu.o (symbol from plugin)
sendDataHead.lto_priv.254                         /tmp/cc8DLllS.ltrans27.ltrans.o
                                                  /tmp/cc8DLllS.ltrans5.ltrans.o
sendFieldDefinition.lto_priv.377                  /tmp/cc8DLllS.ltrans11.ltrans.o
                                                  /tmp/cc8DLllS.ltrans1.ltrans.o
sendLatLong.lto_priv.255                          /tmp/cc8DLllS.ltrans27.ltrans.o
                                                  /tmp/cc8DLllS.ltrans5.ltrans.o
sendTelemetryTail.lto_priv.252                    /tmp/cc8DLllS.ltrans27.ltrans.o
                                                  /tmp/cc8DLllS.ltrans5.ltrans.o
sensor_link                                       /tmp/cc8DLllS.ltrans9.ltrans.o
                                                  obj/main/NAZE/sensors/sensors.o (symbol from plugin)
                                                  /tmp/cc8DLllS.ltrans29.ltrans.o
                                                  /tmp/cc8DLllS.ltrans23.ltrans.o
                                                  /tmp/cc8DLllS.ltrans19.ltrans.o
                                                  /tmp/cc8DLllS.ltrans12.ltrans.o
                                                  /tmp/cc8DLllS.ltrans11.ltrans.o
                                                  /tmp/cc8DLllS.ltrans5.ltrans.o
                                                  /tmp/cc8DLllS.ltrans2.ltrans.o
                                                  /tmp/cc8DLllS.ltrans1.ltrans.o
                                                  /tmp/cc8DLllS.ltrans0.ltrans.o
                                                  obj/main/NAZE/sensors/gyro.o (symbol from plugin)
                                                  obj/main/NAZE/sensors/compass.o (symbol from plugin)
                                                  obj/main/NAZE/sensors/acceleration.o (symbol from plugin)
                                                  obj/main/NAZE/io/serial_msp.o (symbol from plugin)
                                                  obj/main/NAZE/io/serial_cli.o (symbol from plugin)
                                                  obj/main/NAZE/flight/imu.o (symbol from plugin)
                                                  obj/main/NAZE/flight/pid.o (symbol from plugin)
                                                  obj/main/NAZE/flight/altitudehold.o (symbol from plugin)
                                                  obj/main/NAZE/mw.o (symbol from plugin)
                                                  obj/main/NAZE/main.o (symbol from plugin)
                                                  obj/main/NAZE/blackbox/blackbox.o (symbol from plugin)
                                                  obj/main/NAZE/sensors/barometer.o (symbol from plugin)
                                                  obj/main/NAZE/telemetry/smartport.o (symbol from plugin)
                                                  obj/main/NAZE/telemetry/frsky.o (symbol from plugin)
                                                  obj/main/NAZE/drivers/accgyro_mpu.o (symbol from plugin)
sensors                                           obj/main/NAZE/config/runtime_config.o (symbol from plugin)
                                                  obj/main/NAZE/sensors/initialisation.o (symbol from plugin)
                                                  obj/main/NAZE/io/serial_msp.o (symbol from plugin)
                                                  obj/main/NAZE/io/rc_controls.o (symbol from plugin)
                                                  obj/main/NAZE/flight/imu.o (symbol from plugin)
                                                  obj/main/NAZE/mw.o (symbol from plugin)
                                                  obj/main/NAZE/main.o (symbol from plugin)
                                                  obj/main/NAZE/blackbox/blackbox.o (symbol from plugin)
                                                  obj/main/NAZE/telemetry/ltm.o (symbol from plugin)
                                                  obj/main/NAZE/telemetry/smartport.o (symbol from plugin)
                                                  obj/main/NAZE/telemetry/hott.o (symbol from plugin)
                                                  obj/main/NAZE/telemetry/frsky.o (symbol from plugin)
                                                  obj/main/NAZE/io/display.o (symbol from plugin)
sensorsAutodetect                                 obj/main/NAZE/sensors/initialisation.o (symbol from plugin)
                                                  obj/main/NAZE/main.o (symbol from plugin)
sensorsClear                                      obj/main/NAZE/config/runtime_config.o (symbol from plugin)
                                                  obj/main/NAZE/io/gps.o (symbol from plugin)
sensorsMask                                       obj/main/NAZE/config/runtime_config.o (symbol from plugin)
                                                  obj/main/NAZE/io/serial_cli.o (symbol from plugin)
sensorsSet                                        obj/main/NAZE/config/runtime_config.o (symbol from plugin)
                                                  obj/main/NAZE/sensors/initialisation.o (symbol from plugin)
                                                  obj/main/NAZE/sensors/sonar.o (symbol from plugin)
                                                  obj/main/NAZE/io/gps.o (symbol from plugin)
serialBeginWrite                                  obj/main/NAZE/drivers/serial.o (symbol from plugin)
                                                  obj/main/NAZE/io/serial_msp.o (symbol from plugin)
serialConfig.lto_priv.221                         /tmp/cc8DLllS.ltrans18.ltrans.o
                                                  /tmp/cc8DLllS.ltrans16.ltrans.o
                                                  /tmp/cc8DLllS.ltrans2.ltrans.o
                                                  /tmp/cc8DLllS.ltrans0.ltrans.o
serialEndWrite                                    obj/main/NAZE/drivers/serial.o (symbol from plugin)
                                                  obj/main/NAZE/io/serial_msp.o (symbol from plugin)
serialFindPortConfiguration                       /tmp/cc8DLllS.ltrans16.ltrans.o
                                                  obj/main/NAZE/io/serial.o (symbol from plugin)
                                                  /tmp/cc8DLllS.ltrans10.ltrans.o
                                                  /tmp/cc8DLllS.ltrans2.ltrans.o
                                                  obj/main/NAZE/io/serial_msp.o (symbol from plugin)
                                                  obj/main/NAZE/io/serial_cli.o (symbol from plugin)
serialGetAvailablePortCount                       obj/main/NAZE/io/serial.o (symbol from plugin)
                                                  obj/main/NAZE/io/serial_msp.o (symbol from plugin)
serialGetBaudRate                                 obj/main/NAZE/drivers/serial.o (symbol from plugin)
                                                  obj/main/NAZE/io/gps.o (symbol from plugin)
serialICConfig.lto_priv.562                       /tmp/cc8DLllS.ltrans7.ltrans.o
                                                  /tmp/cc8DLllS.ltrans15.ltrans.o
serialInit                                        obj/main/NAZE/io/serial.o (symbol from plugin)
                                                  obj/main/NAZE/main.o (symbol from plugin)
serialInputPortConfig                             obj/main/NAZE/drivers/serial_softserial.o (symbol from plugin)
serialIsPortAvailable                             obj/main/NAZE/io/serial.o (symbol from plugin)
                                                  obj/main/NAZE/io/serial_msp.o (symbol from plugin)
                                                  obj/main/NAZE/io/serial_cli.o (symbol from plugin)
serialPortCount.lto_priv.324                      /tmp/cc8DLllS.ltrans10.ltrans.o
                                                  /tmp/cc8DLllS.ltrans2.ltrans.o
                                                  /tmp/cc8DLllS.ltrans0.ltrans.o
serialPortIdentifiers                             /tmp/cc8DLllS.ltrans24.ltrans.o
                                                  obj/main/NAZE/io/serial.o (symbol from plugin)
                                                  /tmp/cc8DLllS.ltrans0.ltrans.o
                                                  obj/main/NAZE/config/config.o (symbol from plugin)
serialPortUsageList.lto_priv.220                  /tmp/cc8DLllS.ltrans18.ltrans.o
                                                  /tmp/cc8DLllS.ltrans16.ltrans.o
                                                  /tmp/cc8DLllS.ltrans10.ltrans.o
                                                  /tmp/cc8DLllS.ltrans2.ltrans.o
                                                  /tmp/cc8DLllS.ltrans0.ltrans.o
serialPrint                                       obj/main/NAZE/drivers/serial.o (symbol from plugin)
                                                  obj/main/NAZE/io/gps.o (symbol from plugin)
serialRead                                        /tmp/cc8DLllS.ltrans16.ltrans.o
                                                  obj/main/NAZE/drivers/serial.o (symbol from plugin)
                                                  /tmp/cc8DLllS.ltrans27.ltrans.o
                                                  /tmp/cc8DLllS.ltrans19.ltrans.o
                                                  /tmp/cc8DLllS.ltrans14.ltrans.o
                                                  /tmp/cc8DLllS.ltrans5.ltrans.o
                                                  /tmp/cc8DLllS.ltrans2.ltrans.o
                                                  obj/main/NAZE/io/serial_msp.o (symbol from plugin)
                                                  obj/main/NAZE/io/serial_cli.o (symbol from plugin)
                                                  obj/main/NAZE/telemetry/smartport.o (symbol from plugin)
                                                  obj/main/NAZE/telemetry/hott.o (symbol from plugin)
                                                  obj/main/NAZE/io/gps.o (symbol from plugin)
serialRemovePort                                  /tmp/cc8DLllS.ltrans10.ltrans.o
                                                  obj/main/NAZE/io/serial.o (symbol from plugin)
                                                  /tmp/cc8DLllS.ltrans0.ltrans.o
                                                  obj/main/NAZE/main.o (symbol from plugin)
serialRxBytesWaiting                              /tmp/cc8DLllS.ltrans16.ltrans.o
                                                  obj/main/NAZE/drivers/serial.o (symbol from plugin)
                                                  /tmp/cc8DLllS.ltrans27.ltrans.o
                                                  /tmp/cc8DLllS.ltrans19.ltrans.o
                                                  /tmp/cc8DLllS.ltrans14.ltrans.o
                                                  /tmp/cc8DLllS.ltrans5.ltrans.o
                                                  /tmp/cc8DLllS.ltrans2.ltrans.o
                                                  obj/main/NAZE/io/serial_msp.o (symbol from plugin)
                                                  obj/main/NAZE/io/serial_cli.o (symbol from plugin)
                                                  obj/main/NAZE/telemetry/smartport.o (symbol from plugin)
                                                  obj/main/NAZE/telemetry/hott.o (symbol from plugin)
                                                  obj/main/NAZE/io/gps.o (symbol from plugin)
serialRxFrameStatus                               obj/main/NAZE/rx/rx.o (symbol from plugin)
serialRxInit                                      obj/main/NAZE/rx/rx.o (symbol from plugin)
serialSetBaudRate                                 /tmp/cc8DLllS.ltrans16.ltrans.o
                                                  obj/main/NAZE/drivers/serial.o (symbol from plugin)
                                                  /tmp/cc8DLllS.ltrans19.ltrans.o
                                                  obj/main/NAZE/io/gps.o (symbol from plugin)
serialSetMode                                     /tmp/cc8DLllS.ltrans16.ltrans.o
                                                  obj/main/NAZE/drivers/serial.o (symbol from plugin)
                                                  /tmp/cc8DLllS.ltrans14.ltrans.o
                                                  /tmp/cc8DLllS.ltrans5.ltrans.o
                                                  obj/main/NAZE/io/serial.o (symbol from plugin)
                                                  obj/main/NAZE/telemetry/hott.o (symbol from plugin)
                                                  obj/main/NAZE/io/gps.o (symbol from plugin)
serialTxBytesFree                                 obj/main/NAZE/drivers/serial.o (symbol from plugin)
                                                  obj/main/NAZE/blackbox/blackbox_io.o (symbol from plugin)
serialUSART1                                      obj/main/NAZE/drivers/serial_uart_stm32f10x.o (symbol from plugin)
                                                  obj/main/NAZE/drivers/serial_uart.o (symbol from plugin)
serialUSART2                                      obj/main/NAZE/drivers/serial_uart_stm32f10x.o (symbol from plugin)
                                                  obj/main/NAZE/drivers/serial_uart.o (symbol from plugin)
serialUSART3                                      obj/main/NAZE/drivers/serial_uart_stm32f10x.o (symbol from plugin)
                                                  obj/main/NAZE/drivers/serial_uart.o (symbol from plugin)
serialWrite                                       /tmp/cc8DLllS.ltrans16.ltrans.o
                                                  obj/main/NAZE/drivers/serial.o (symbol from plugin)
                                                  /tmp/cc8DLllS.ltrans27.ltrans.o
                                                  /tmp/cc8DLllS.ltrans25.ltrans.o
                                                  /tmp/cc8DLllS.ltrans19.ltrans.o
                                                  /tmp/cc8DLllS.ltrans14.ltrans.o
                                                  /tmp/cc8DLllS.ltrans11.ltrans.o
                                                  /tmp/cc8DLllS.ltrans6.ltrans.o
                                                  /tmp/cc8DLllS.ltrans5.ltrans.o
                                                  obj/main/NAZE/common/printf.o (symbol from plugin)
                                                  obj/main/NAZE/blackbox/blackbox_io.o (symbol from plugin)
                                                  obj/main/NAZE/telemetry/ltm.o (symbol from plugin)
                                                  obj/main/NAZE/telemetry/smartport.o (symbol from plugin)
                                                  obj/main/NAZE/telemetry/hott.o (symbol from plugin)
                                                  obj/main/NAZE/telemetry/frsky.o (symbol from plugin)
                                                  obj/main/NAZE/io/gps.o (symbol from plugin)
serialWriteBuf                                    obj/main/NAZE/drivers/serial.o (symbol from plugin)
serialWriteBufShim                                /tmp/cc8DLllS.ltrans16.ltrans.o
                                                  obj/main/NAZE/drivers/serial.o (symbol from plugin)
                                                  /tmp/cc8DLllS.ltrans2.ltrans.o
                                                  obj/main/NAZE/io/serial_msp.o (symbol from plugin)
                                                  obj/main/NAZE/io/serial_cli.o (symbol from plugin)
serialize16.lto_priv.253                          /tmp/cc8DLllS.ltrans27.ltrans.o
                                                  /tmp/cc8DLllS.ltrans5.ltrans.o
serialize16.lto_priv.352                          /tmp/cc8DLllS.ltrans9.ltrans.o
                                                  /tmp/cc8DLllS.ltrans2.ltrans.o
serialize32.lto_priv.353                          /tmp/cc8DLllS.ltrans9.ltrans.o
                                                  /tmp/cc8DLllS.ltrans2.ltrans.o
serialize8.lto_priv.348                           /tmp/cc8DLllS.ltrans9.ltrans.o
                                                  /tmp/cc8DLllS.ltrans2.ltrans.o
servo                                             /tmp/cc8DLllS.ltrans2.ltrans.o
                                                  obj/main/NAZE/flight/mixer.o (symbol from plugin)
                                                  /tmp/cc8DLllS.ltrans11.ltrans.o
                                                  /tmp/cc8DLllS.ltrans1.ltrans.o
                                                  /tmp/cc8DLllS.ltrans0.ltrans.o
                                                  obj/main/NAZE/io/serial_msp.o (symbol from plugin)
                                                  obj/main/NAZE/blackbox/blackbox.o (symbol from plugin)
servoConf.lto_priv.226                            /tmp/cc8DLllS.ltrans14.ltrans.o
                                                  /tmp/cc8DLllS.ltrans16.ltrans.o
                                                  /tmp/cc8DLllS.ltrans6.ltrans.o
                                                  /tmp/cc8DLllS.ltrans1.ltrans.o
servoDirection                                    obj/main/NAZE/flight/mixer.o (symbol from plugin)
                                                  obj/main/NAZE/io/serial_cli.o (symbol from plugin)
servoFilterState.lto_priv.449                     /tmp/cc8DLllS.ltrans1.ltrans.o
                                                  /tmp/cc8DLllS.ltrans0.ltrans.o
servoMixerAirplane.lto_priv.490                   /tmp/cc8DLllS.ltrans14.ltrans.o
servoMixerBI.lto_priv.487                         /tmp/cc8DLllS.ltrans14.ltrans.o
servoMixerDual.lto_priv.491                       /tmp/cc8DLllS.ltrans14.ltrans.o
servoMixerFlyingWing.lto_priv.489                 /tmp/cc8DLllS.ltrans14.ltrans.o
servoMixerGimbal.lto_priv.488                     /tmp/cc8DLllS.ltrans14.ltrans.o
servoMixerLoadMix                                 obj/main/NAZE/flight/mixer.o (symbol from plugin)
                                                  obj/main/NAZE/io/serial_cli.o (symbol from plugin)
servoMixerSingle.lto_priv.492                     /tmp/cc8DLllS.ltrans14.ltrans.o
servoMixerTri.lto_priv.486                        /tmp/cc8DLllS.ltrans14.ltrans.o
servoMixers                                       /tmp/cc8DLllS.ltrans14.ltrans.o
                                                  obj/main/NAZE/flight/mixer.o (symbol from plugin)
                                                  /tmp/cc8DLllS.ltrans0.ltrans.o
servoRuleCount.lto_priv.362                       /tmp/cc8DLllS.ltrans16.ltrans.o
                                                  /tmp/cc8DLllS.ltrans1.ltrans.o
                                                  /tmp/cc8DLllS.ltrans0.ltrans.o
servos.lto_priv.565                               /tmp/cc8DLllS.ltrans0.ltrans.o
                                                  /tmp/cc8DLllS.ltrans7.ltrans.o
setAccelerationTrims                              obj/main/NAZE/sensors/acceleration.o (symbol from plugin)
                                                  obj/main/NAZE/config/config.o (symbol from plugin)
setAdjustment.constprop.16                        /tmp/cc8DLllS.ltrans18.ltrans.o
                                                  /tmp/cc8DLllS.ltrans3.ltrans.o
setLedHsv                                         obj/main/NAZE/drivers/light_ws2811strip.o (symbol from plugin)
                                                  obj/main/NAZE/io/ledstrip.o (symbol from plugin)
setLedValue                                       obj/main/NAZE/drivers/light_ws2811strip.o (symbol from plugin)
setPrintfSerialPort                               obj/main/NAZE/common/printf.o (symbol from plugin)
                                                  obj/main/NAZE/io/serial_cli.o (symbol from plugin)
setStripColor                                     obj/main/NAZE/drivers/light_ws2811strip.o (symbol from plugin)
                                                  obj/main/NAZE/io/ledstrip.o (symbol from plugin)
                                                  obj/main/NAZE/drivers/light_ws2811strip_stm32f10x.o (symbol from plugin)
setStripColors                                    obj/main/NAZE/drivers/light_ws2811strip.o (symbol from plugin)
setTxSignal                                       obj/main/NAZE/drivers/serial_softserial.o (symbol from plugin)
setVelocity                                       /tmp/cc8DLllS.ltrans19.ltrans.o
                                                  obj/main/NAZE/flight/altitudehold.o (symbol from plugin)
                                                  /tmp/cc8DLllS.ltrans1.ltrans.o
shortGitRevision                                  /tmp/cc8DLllS.ltrans9.ltrans.o
                                                  obj/main/NAZE/version.o (symbol from plugin)
                                                  obj/main/NAZE/io/serial_msp.o (symbol from plugin)
                                                  obj/main/NAZE/io/serial_cli.o (symbol from plugin)
                                                  obj/main/NAZE/blackbox/blackbox.o (symbol from plugin)
                                                  obj/main/NAZE/io/display.o (symbol from plugin)
showArmedPage                                     obj/main/NAZE/io/display.o (symbol from plugin)
showBatteryPage                                   obj/main/NAZE/io/display.o (symbol from plugin)
showGpsPage                                       obj/main/NAZE/io/display.o (symbol from plugin)
showProfilePage                                   obj/main/NAZE/io/display.o (symbol from plugin)
showRxPage                                        obj/main/NAZE/io/display.o (symbol from plugin)
showSensorsPage                                   obj/main/NAZE/io/display.o (symbol from plugin)
showTitle                                         obj/main/NAZE/io/display.o (symbol from plugin)
showWelcomePage                                   obj/main/NAZE/io/display.o (symbol from plugin)
sinf                                              /tmp/cc8DLllS.ltrans6.ltrans.o
                                                  /tmp/cc8DLllS.ltrans13.ltrans.o
                                                  /tmp/cc8DLllS.ltrans1.ltrans.o
                                                  /tmp/cc8DLllS.ltrans0.ltrans.o
skipRxSamples.lto_priv.280                        /tmp/cc8DLllS.ltrans9.ltrans.o
                                                  /tmp/cc8DLllS.ltrans3.ltrans.o
smallAngleCosZ                                    /tmp/cc8DLllS.ltrans1.ltrans.o
                                                  obj/main/NAZE/flight/imu.o (symbol from plugin)
                                                  /tmp/cc8DLllS.ltrans0.ltrans.o
smartPortLastRequestTime.lto_priv.534             /tmp/cc8DLllS.ltrans5.ltrans.o
                                                  /tmp/cc8DLllS.ltrans27.ltrans.o
smartPortPortSharing.lto_priv.532                 /tmp/cc8DLllS.ltrans0.ltrans.o
                                                  /tmp/cc8DLllS.ltrans27.ltrans.o
smartPortSendPackage.lto_priv.258                 /tmp/cc8DLllS.ltrans27.ltrans.o
                                                  /tmp/cc8DLllS.ltrans5.ltrans.o
smartPortSerialPort.lto_priv.528                  /tmp/cc8DLllS.ltrans5.ltrans.o
                                                  /tmp/cc8DLllS.ltrans27.ltrans.o
smartPortState                                    /tmp/cc8DLllS.ltrans5.ltrans.o
                                                  obj/main/NAZE/telemetry/smartport.o (symbol from plugin)
                                                  /tmp/cc8DLllS.ltrans27.ltrans.o
smartPortTelemetryEnabled.lto_priv.533            /tmp/cc8DLllS.ltrans5.ltrans.o
                                                  /tmp/cc8DLllS.ltrans27.ltrans.o
softSerialPorts                                   obj/main/NAZE/drivers/serial_softserial.o (symbol from plugin)
softSerialReadByte                                /tmp/cc8DLllS.ltrans15.ltrans.o
                                                  obj/main/NAZE/drivers/serial_softserial.o (symbol from plugin)
                                                  /tmp/cc8DLllS.ltrans7.ltrans.o
softSerialRxBytesWaiting                          /tmp/cc8DLllS.ltrans15.ltrans.o
                                                  obj/main/NAZE/drivers/serial_softserial.o (symbol from plugin)
                                                  /tmp/cc8DLllS.ltrans7.ltrans.o
softSerialSetBaudRate                             /tmp/cc8DLllS.ltrans15.ltrans.o
                                                  obj/main/NAZE/drivers/serial_softserial.o (symbol from plugin)
                                                  /tmp/cc8DLllS.ltrans7.ltrans.o
softSerialSetMode                                 /tmp/cc8DLllS.ltrans15.ltrans.o
                                                  obj/main/NAZE/drivers/serial_softserial.o (symbol from plugin)
                                                  /tmp/cc8DLllS.ltrans7.ltrans.o
softSerialTxBytesFree                             /tmp/cc8DLllS.ltrans15.ltrans.o
                                                  obj/main/NAZE/drivers/serial_softserial.o (symbol from plugin)
                                                  /tmp/cc8DLllS.ltrans7.ltrans.o
softSerialVTable                                  obj/main/NAZE/drivers/serial_softserial.o (symbol from plugin)
softSerialWriteByte                               /tmp/cc8DLllS.ltrans15.ltrans.o
                                                  obj/main/NAZE/drivers/serial_softserial.o (symbol from plugin)
                                                  /tmp/cc8DLllS.ltrans7.ltrans.o
sonarCalculateAltitude                            obj/main/NAZE/sensors/sonar.o (symbol from plugin)
                                                  obj/main/NAZE/flight/altitudehold.o (symbol from plugin)
sonarCfAltCm                                      /tmp/cc8DLllS.ltrans19.ltrans.o
                                                  obj/main/NAZE/sensors/sonar.o (symbol from plugin)
                                                  /tmp/cc8DLllS.ltrans0.ltrans.o
                                                  obj/main/NAZE/flight/altitudehold.o (symbol from plugin)
sonarGetHardwareConfiguration                     obj/main/NAZE/sensors/sonar.o (symbol from plugin)
                                                  obj/main/NAZE/main.o (symbol from plugin)
sonarGetLatestAltitude                            obj/main/NAZE/sensors/sonar.o (symbol from plugin)
                                                  obj/main/NAZE/io/serial_msp.o (symbol from plugin)
                                                  obj/main/NAZE/io/display.o (symbol from plugin)
sonarHardware.lto_priv.420                        /tmp/cc8DLllS.ltrans19.ltrans.o
                                                  /tmp/cc8DLllS.ltrans7.ltrans.o
                                                  /tmp/cc8DLllS.ltrans0.ltrans.o
sonarInit                                         obj/main/NAZE/sensors/sonar.o (symbol from plugin)
                                                  obj/main/NAZE/main.o (symbol from plugin)
sonarMaxAltWithTiltCm                             /tmp/cc8DLllS.ltrans19.ltrans.o
                                                  obj/main/NAZE/sensors/sonar.o (symbol from plugin)
                                                  /tmp/cc8DLllS.ltrans0.ltrans.o
                                                  obj/main/NAZE/flight/altitudehold.o (symbol from plugin)
sonarMaxRangeCm                                   obj/main/NAZE/sensors/sonar.o (symbol from plugin)
sonarMaxTiltCos                                   /tmp/cc8DLllS.ltrans19.ltrans.o
                                                  obj/main/NAZE/sensors/sonar.o (symbol from plugin)
                                                  /tmp/cc8DLllS.ltrans0.ltrans.o
sonarRead                                         /tmp/cc8DLllS.ltrans27.ltrans.o
                                                  obj/main/NAZE/sensors/sonar.o (symbol from plugin)
                                                  /tmp/cc8DLllS.ltrans19.ltrans.o
                                                  /tmp/cc8DLllS.ltrans11.ltrans.o
                                                  obj/main/NAZE/flight/altitudehold.o (symbol from plugin)
                                                  obj/main/NAZE/blackbox/blackbox.o (symbol from plugin)
sonarUpdate                                       obj/main/NAZE/sensors/sonar.o (symbol from plugin)
                                                  obj/main/NAZE/mw.o (symbol from plugin)
spekChannelData.lto_priv.304                      /tmp/cc8DLllS.ltrans9.ltrans.o
                                                  /tmp/cc8DLllS.ltrans3.ltrans.o
spekFrame.lto_priv.300                            /tmp/cc8DLllS.ltrans9.ltrans.o
                                                  /tmp/cc8DLllS.ltrans3.ltrans.o
spekHiRes.lto_priv.192                            /tmp/cc8DLllS.ltrans18.ltrans.o
                                                  /tmp/cc8DLllS.ltrans9.ltrans.o
spekShouldBind                                    obj/main/NAZE/rx/spektrum.o (symbol from plugin)
spek_chan_mask.lto_priv.303                       /tmp/cc8DLllS.ltrans18.ltrans.o
                                                  /tmp/cc8DLllS.ltrans3.ltrans.o
spek_chan_shift.lto_priv.301                      /tmp/cc8DLllS.ltrans18.ltrans.o
                                                  /tmp/cc8DLllS.ltrans3.ltrans.o
spektrumBind                                      obj/main/NAZE/rx/spektrum.o (symbol from plugin)
                                                  obj/main/NAZE/main.o (symbol from plugin)
spektrumDataReceive.lto_priv.188                  /tmp/cc8DLllS.ltrans9.ltrans.o
                                                  /tmp/cc8DLllS.ltrans18.ltrans.o
spektrumFrameStatus                               obj/main/NAZE/rx/spektrum.o (symbol from plugin)
                                                  obj/main/NAZE/rx/rx.o (symbol from plugin)
spektrumInit                                      obj/main/NAZE/rx/spektrum.o (symbol from plugin)
                                                  obj/main/NAZE/rx/rx.o (symbol from plugin)
spektrumInit.constprop.42                         /tmp/cc8DLllS.ltrans18.ltrans.o
                                                  /tmp/cc8DLllS.ltrans0.ltrans.o
spektrumReadRawRC.lto_priv.187                    /tmp/cc8DLllS.ltrans9.ltrans.o
                                                  /tmp/cc8DLllS.ltrans18.ltrans.o
spiInit                                           obj/main/NAZE/drivers/bus_spi.o (symbol from plugin)
                                                  obj/main/NAZE/main.o (symbol from plugin)
spiIsBusBusy                                      obj/main/NAZE/drivers/bus_spi.o (symbol from plugin)
spiSetDivisor                                     obj/main/NAZE/drivers/bus_spi.o (symbol from plugin)
                                                  obj/main/NAZE/drivers/flash_m25p16.o (symbol from plugin)
                                                  obj/main/NAZE/drivers/accgyro_spi_mpu6500.o (symbol from plugin)
spiTransfer                                       obj/main/NAZE/drivers/bus_spi.o (symbol from plugin)
                                                  obj/main/NAZE/hardware_revision.o (symbol from plugin)
                                                  obj/main/NAZE/drivers/flash_m25p16.o (symbol from plugin)
                                                  obj/main/NAZE/drivers/accgyro_spi_mpu6500.o (symbol from plugin)
spiTransfer.constprop.174                         /tmp/cc8DLllS.ltrans24.ltrans.o
                                                  /tmp/cc8DLllS.ltrans22.ltrans.o
                                                  /tmp/cc8DLllS.ltrans17.ltrans.o
                                                  /tmp/cc8DLllS.ltrans4.ltrans.o
                                                  /tmp/cc8DLllS.ltrans0.ltrans.o
spiTransferByte                                   obj/main/NAZE/drivers/bus_spi.o (symbol from plugin)
                                                  obj/main/NAZE/hardware_revision.o (symbol from plugin)
                                                  obj/main/NAZE/drivers/flash_m25p16.o (symbol from plugin)
                                                  obj/main/NAZE/drivers/accgyro_spi_mpu6500.o (symbol from plugin)
spiTransferByte.constprop.173                     /tmp/cc8DLllS.ltrans24.ltrans.o
                                                  /tmp/cc8DLllS.ltrans17.ltrans.o
                                                  /tmp/cc8DLllS.ltrans4.ltrans.o
                                                  /tmp/cc8DLllS.ltrans0.ltrans.o
sqrtf                                             /usr/lib/gcc/arm-none-eabi/4.9.3/../../../arm-none-eabi/lib/armv7-m/libm.a(lib_a-wf_sqrt.o)
                                                  /tmp/cc8DLllS.ltrans13.ltrans.o
                                                  /tmp/cc8DLllS.ltrans6.ltrans.o
                                                  /tmp/cc8DLllS.ltrans1.ltrans.o
standardBoardAlignment.lto_priv.452               /tmp/cc8DLllS.ltrans18.ltrans.o
                                                  /tmp/cc8DLllS.ltrans0.ltrans.o
startBlackbox                                     obj/main/NAZE/blackbox/blackbox.o (symbol from plugin)
                                                  obj/main/NAZE/mw.o (symbol from plugin)
stateFlags                                        /tmp/cc8DLllS.ltrans23.ltrans.o
                                                  obj/main/NAZE/config/runtime_config.o (symbol from plugin)
                                                  /tmp/cc8DLllS.ltrans28.ltrans.o
                                                  /tmp/cc8DLllS.ltrans20.ltrans.o
                                                  /tmp/cc8DLllS.ltrans19.ltrans.o
                                                  /tmp/cc8DLllS.ltrans17.ltrans.o
                                                  /tmp/cc8DLllS.ltrans13.ltrans.o
                                                  /tmp/cc8DLllS.ltrans12.ltrans.o
                                                  /tmp/cc8DLllS.ltrans11.ltrans.o
                                                  /tmp/cc8DLllS.ltrans5.ltrans.o
                                                  /tmp/cc8DLllS.ltrans3.ltrans.o
                                                  /tmp/cc8DLllS.ltrans2.ltrans.o
                                                  /tmp/cc8DLllS.ltrans1.ltrans.o
                                                  /tmp/cc8DLllS.ltrans0.ltrans.o
                                                  obj/main/NAZE/sensors/compass.o (symbol from plugin)
                                                  obj/main/NAZE/io/serial_msp.o (symbol from plugin)
                                                  obj/main/NAZE/io/rc_controls.o (symbol from plugin)
                                                  obj/main/NAZE/io/beeper.o (symbol from plugin)
                                                  obj/main/NAZE/flight/mixer.o (symbol from plugin)
                                                  obj/main/NAZE/flight/imu.o (symbol from plugin)
                                                  obj/main/NAZE/flight/pid.o (symbol from plugin)
                                                  obj/main/NAZE/flight/altitudehold.o (symbol from plugin)
                                                  obj/main/NAZE/mw.o (symbol from plugin)
                                                  obj/main/NAZE/main.o (symbol from plugin)
                                                  obj/main/NAZE/blackbox/blackbox.o (symbol from plugin)
                                                  obj/main/NAZE/telemetry/ltm.o (symbol from plugin)
                                                  obj/main/NAZE/telemetry/smartport.o (symbol from plugin)
                                                  obj/main/NAZE/telemetry/hott.o (symbol from plugin)
                                                  obj/main/NAZE/telemetry/frsky.o (symbol from plugin)
                                                  obj/main/NAZE/io/display.o (symbol from plugin)
                                                  obj/main/NAZE/io/gps.o (symbol from plugin)
                                                  obj/main/NAZE/flight/navigation.o (symbol from plugin)
stopMotors                                        /tmp/cc8DLllS.ltrans16.ltrans.o
                                                  obj/main/NAZE/flight/mixer.o (symbol from plugin)
                                                  /tmp/cc8DLllS.ltrans14.ltrans.o
                                                  /tmp/cc8DLllS.ltrans12.ltrans.o
                                                  /tmp/cc8DLllS.ltrans2.ltrans.o
                                                  obj/main/NAZE/io/serial_msp.o (symbol from plugin)
                                                  obj/main/NAZE/io/serial_cli.o (symbol from plugin)
                                                  obj/main/NAZE/main.o (symbol from plugin)
strcasecmp                                        /usr/lib/gcc/arm-none-eabi/4.9.3/../../../arm-none-eabi/lib/armv7-m/libc_nano.a(lib_a-strcasecmp.o)
                                                  /tmp/cc8DLllS.ltrans14.ltrans.o
                                                  /tmp/cc8DLllS.ltrans10.ltrans.o
                                                  /tmp/cc8DLllS.ltrans9.ltrans.o
strcat                                            /usr/lib/gcc/arm-none-eabi/4.9.3/../../../arm-none-eabi/lib/armv7-m/libc_nano.a(lib_a-strcat.o)
                                                  /tmp/cc8DLllS.ltrans6.ltrans.o
strchr                                            /usr/lib/gcc/arm-none-eabi/4.9.3/../../../arm-none-eabi/lib/armv7-m/libc_nano.a(lib_a-strchr.o)
                                                  /tmp/cc8DLllS.ltrans24.ltrans.o
                                                  /tmp/cc8DLllS.ltrans14.ltrans.o
                                                  /tmp/cc8DLllS.ltrans10.ltrans.o
                                                  /tmp/cc8DLllS.ltrans9.ltrans.o
                                                  /tmp/cc8DLllS.ltrans2.ltrans.o
strcpy                                            /usr/lib/gcc/arm-none-eabi/4.9.3/../../../arm-none-eabi/lib/armv7-m/libc_nano.a(lib_a-strcpy.o)
                                                  /tmp/cc8DLllS.ltrans24.ltrans.o
string.9150.lto_priv.543                          /tmp/cc8DLllS.ltrans24.ltrans.o
                                                  /tmp/cc8DLllS.ltrans13.ltrans.o
strlen                                            /usr/lib/gcc/arm-none-eabi/4.9.3/../../../arm-none-eabi/lib/armv7-m/libc_nano.a(lib_a-strlen.o)
                                                  /tmp/cc8DLllS.ltrans25.ltrans.o
                                                  /tmp/cc8DLllS.ltrans24.ltrans.o
                                                  /tmp/cc8DLllS.ltrans21.ltrans.o
                                                  /tmp/cc8DLllS.ltrans20.ltrans.o
                                                  /tmp/cc8DLllS.ltrans14.ltrans.o
                                                  /tmp/cc8DLllS.ltrans11.ltrans.o
                                                  /tmp/cc8DLllS.ltrans10.ltrans.o
                                                  /tmp/cc8DLllS.ltrans9.ltrans.o
                                                  /tmp/cc8DLllS.ltrans6.ltrans.o
                                                  /tmp/cc8DLllS.ltrans2.ltrans.o
strncasecmp                                       /usr/lib/gcc/arm-none-eabi/4.9.3/../../../arm-none-eabi/lib/armv7-m/libc_nano.a(lib_a-strncasecmp.o)
                                                  /tmp/cc8DLllS.ltrans14.ltrans.o
                                                  /tmp/cc8DLllS.ltrans10.ltrans.o
                                                  /tmp/cc8DLllS.ltrans9.ltrans.o
                                                  /tmp/cc8DLllS.ltrans2.ltrans.o
strncpy                                           /usr/lib/gcc/arm-none-eabi/4.9.3/../../../arm-none-eabi/lib/armv7-m/libc_nano.a(lib_a-strncpy.o)
                                                  /tmp/cc8DLllS.ltrans24.ltrans.o
                                                  /tmp/cc8DLllS.ltrans20.ltrans.o
                                                  /tmp/cc8DLllS.ltrans6.ltrans.o
strstr                                            /usr/lib/gcc/arm-none-eabi/4.9.3/../../../arm-none-eabi/lib/armv7-m/libc_nano.a(lib_a-strstr.o)
                                                  /tmp/cc8DLllS.ltrans9.ltrans.o
strtok                                            /usr/lib/gcc/arm-none-eabi/4.9.3/../../../arm-none-eabi/lib/armv7-m/libc_nano.a(lib_a-strtok.o)
                                                  /tmp/cc8DLllS.ltrans14.ltrans.o
                                                  obj/main/NAZE/io/serial_cli.o (symbol from plugin)
strtok_r                                          /usr/lib/gcc/arm-none-eabi/4.9.3/../../../arm-none-eabi/lib/armv7-m/libc_nano.a(lib_a-strtok_r.o)
                                                  /tmp/cc8DLllS.ltrans14.ltrans.o
                                                  obj/main/NAZE/io/serial_cli.o (symbol from plugin)
strtol                                            /usr/lib/gcc/arm-none-eabi/4.9.3/../../../arm-none-eabi/lib/armv7-m/libc_nano.a(lib_a-strtol.o)
                                                  /usr/lib/gcc/arm-none-eabi/4.9.3/../../../arm-none-eabi/lib/armv7-m/libc_nano.a(lib_a-atoi.o)
sumd.lto_priv.294                                 /tmp/cc8DLllS.ltrans9.ltrans.o
                                                  /tmp/cc8DLllS.ltrans3.ltrans.o
sumdChannelCount.lto_priv.293                     /tmp/cc8DLllS.ltrans9.ltrans.o
                                                  /tmp/cc8DLllS.ltrans3.ltrans.o
sumdChannels.lto_priv.295                         /tmp/cc8DLllS.ltrans9.ltrans.o
                                                  /tmp/cc8DLllS.ltrans3.ltrans.o
sumdDataReceive.lto_priv.429                      /tmp/cc8DLllS.ltrans9.ltrans.o
                                                  /tmp/cc8DLllS.ltrans0.ltrans.o
sumdFrameDone.lto_priv.291                        /tmp/cc8DLllS.ltrans9.ltrans.o
                                                  /tmp/cc8DLllS.ltrans3.ltrans.o
sumdFrameStatus                                   obj/main/NAZE/rx/sumd.o (symbol from plugin)
                                                  obj/main/NAZE/rx/rx.o (symbol from plugin)
sumdInit                                          obj/main/NAZE/rx/sumd.o (symbol from plugin)
                                                  obj/main/NAZE/rx/rx.o (symbol from plugin)
sumdReadRawRC.lto_priv.428                        /tmp/cc8DLllS.ltrans9.ltrans.o
                                                  /tmp/cc8DLllS.ltrans0.ltrans.o
sumhChannels.lto_priv.290                         /tmp/cc8DLllS.ltrans9.ltrans.o
                                                  /tmp/cc8DLllS.ltrans3.ltrans.o
sumhDataReceive.lto_priv.431                      /tmp/cc8DLllS.ltrans9.ltrans.o
                                                  /tmp/cc8DLllS.ltrans0.ltrans.o
sumhFrame.lto_priv.289                            /tmp/cc8DLllS.ltrans9.ltrans.o
                                                  /tmp/cc8DLllS.ltrans3.ltrans.o
sumhFrameDone.lto_priv.288                        /tmp/cc8DLllS.ltrans9.ltrans.o
                                                  /tmp/cc8DLllS.ltrans3.ltrans.o
sumhFrameStatus                                   obj/main/NAZE/rx/sumh.o (symbol from plugin)
                                                  obj/main/NAZE/rx/rx.o (symbol from plugin)
sumhInit                                          obj/main/NAZE/rx/sumh.o (symbol from plugin)
                                                  obj/main/NAZE/rx/rx.o (symbol from plugin)
sumhReadRawRC.lto_priv.430                        /tmp/cc8DLllS.ltrans9.ltrans.o
                                                  /tmp/cc8DLllS.ltrans0.ltrans.o
suspendRxSignal                                   /tmp/cc8DLllS.ltrans9.ltrans.o
                                                  obj/main/NAZE/rx/rx.o (symbol from plugin)
                                                  /tmp/cc8DLllS.ltrans6.ltrans.o
                                                  obj/main/NAZE/config/config.o (symbol from plugin)
suspendRxSignalUntil.lto_priv.281                 /tmp/cc8DLllS.ltrans9.ltrans.o
                                                  /tmp/cc8DLllS.ltrans3.ltrans.o
sysTickUptime.lto_priv.225                        /tmp/cc8DLllS.ltrans9.ltrans.o
                                                  /tmp/cc8DLllS.ltrans30.ltrans.o
                                                  /tmp/cc8DLllS.ltrans28.ltrans.o
                                                  /tmp/cc8DLllS.ltrans27.ltrans.o
                                                  /tmp/cc8DLllS.ltrans22.ltrans.o
                                                  /tmp/cc8DLllS.ltrans19.ltrans.o
                                                  /tmp/cc8DLllS.ltrans16.ltrans.o
                                                  /tmp/cc8DLllS.ltrans13.ltrans.o
                                                  /tmp/cc8DLllS.ltrans12.ltrans.o
                                                  /tmp/cc8DLllS.ltrans5.ltrans.o
                                                  /tmp/cc8DLllS.ltrans3.ltrans.o
                                                  /tmp/cc8DLllS.ltrans1.ltrans.o
                                                  /tmp/cc8DLllS.ltrans0.ltrans.o
systemBeep                                        /tmp/cc8DLllS.ltrans16.ltrans.o
                                                  obj/main/NAZE/drivers/sound_beeper.o (symbol from plugin)
                                                  /tmp/cc8DLllS.ltrans28.ltrans.o
                                                  /tmp/cc8DLllS.ltrans0.ltrans.o
                                                  obj/main/NAZE/io/beeper.o (symbol from plugin)
                                                  obj/main/NAZE/drivers/system.o (symbol from plugin)
                                                  obj/main/NAZE/main.o (symbol from plugin)
systemBeepPtr                                     /tmp/cc8DLllS.ltrans16.ltrans.o
                                                  obj/main/NAZE/drivers/sound_beeper.o (symbol from plugin)
                                                  /tmp/cc8DLllS.ltrans0.ltrans.o
systemInit                                        obj/main/NAZE/drivers/system.o (symbol from plugin)
                                                  obj/main/NAZE/main.o (symbol from plugin)
systemReset                                       obj/main/NAZE/drivers/system_stm32f10x.o (symbol from plugin)
                                                  obj/main/NAZE/io/serial_msp.o (symbol from plugin)
                                                  obj/main/NAZE/io/serial_cli.o (symbol from plugin)
                                                  obj/main/NAZE/drivers/system.o (symbol from plugin)
systemResetToBootloader                           obj/main/NAZE/drivers/system_stm32f10x.o (symbol from plugin)
                                                  obj/main/NAZE/io/serial.o (symbol from plugin)
systemState.lto_priv.402                          /tmp/cc8DLllS.ltrans12.ltrans.o
                                                  /tmp/cc8DLllS.ltrans0.ltrans.o
tailAddress.lto_priv.515                          /tmp/cc8DLllS.ltrans0.ltrans.o
                                                  /tmp/cc8DLllS.ltrans25.ltrans.o
                                                  /tmp/cc8DLllS.ltrans17.ltrans.o
tailSerialReply.lto_priv.346                      /tmp/cc8DLllS.ltrans9.ltrans.o
                                                  /tmp/cc8DLllS.ltrans2.ltrans.o
targetLooptime                                    /tmp/cc8DLllS.ltrans23.ltrans.o
                                                  obj/main/NAZE/drivers/gyro_sync.o (symbol from plugin)
                                                  /tmp/cc8DLllS.ltrans30.ltrans.o
                                                  /tmp/cc8DLllS.ltrans12.ltrans.o
                                                  /tmp/cc8DLllS.ltrans1.ltrans.o
                                                  /tmp/cc8DLllS.ltrans0.ltrans.o
                                                  obj/main/NAZE/sensors/gyro.o (symbol from plugin)
                                                  obj/main/NAZE/flight/pid.o (symbol from plugin)
                                                  obj/main/NAZE/main.o (symbol from plugin)
                                                  obj/main/NAZE/blackbox/blackbox_io.o (symbol from plugin)
targetName                                        /tmp/cc8DLllS.ltrans9.ltrans.o
                                                  obj/main/NAZE/version.o (symbol from plugin)
                                                  obj/main/NAZE/io/serial_cli.o (symbol from plugin)
                                                  obj/main/NAZE/io/display.o (symbol from plugin)
target_bearing.lto_priv.546                       /tmp/cc8DLllS.ltrans13.ltrans.o
                                                  /tmp/cc8DLllS.ltrans17.ltrans.o
taskCalculateAltitude                             /tmp/cc8DLllS.ltrans19.ltrans.o
                                                  obj/main/NAZE/mw.o (symbol from plugin)
                                                  /tmp/cc8DLllS.ltrans9.ltrans.o
                                                  obj/main/NAZE/scheduler_tasks.o (symbol from plugin)
taskHandleSerial                                  /tmp/cc8DLllS.ltrans2.ltrans.o
                                                  obj/main/NAZE/mw.o (symbol from plugin)
                                                  /tmp/cc8DLllS.ltrans9.ltrans.o
                                                  obj/main/NAZE/scheduler_tasks.o (symbol from plugin)
taskLedStrip                                      /tmp/cc8DLllS.ltrans8.ltrans.o
                                                  obj/main/NAZE/mw.o (symbol from plugin)
                                                  /tmp/cc8DLllS.ltrans9.ltrans.o
                                                  obj/main/NAZE/scheduler_tasks.o (symbol from plugin)
taskMainPidLoopChecker                            /tmp/cc8DLllS.ltrans1.ltrans.o
                                                  obj/main/NAZE/mw.o (symbol from plugin)
                                                  /tmp/cc8DLllS.ltrans9.ltrans.o
                                                  obj/main/NAZE/scheduler_tasks.o (symbol from plugin)
taskProcessGPS                                    /tmp/cc8DLllS.ltrans19.ltrans.o
                                                  obj/main/NAZE/mw.o (symbol from plugin)
                                                  /tmp/cc8DLllS.ltrans9.ltrans.o
                                                  obj/main/NAZE/scheduler_tasks.o (symbol from plugin)
taskSystem                                        /tmp/cc8DLllS.ltrans6.ltrans.o
                                                  obj/main/NAZE/scheduler.o (symbol from plugin)
                                                  /tmp/cc8DLllS.ltrans9.ltrans.o
                                                  obj/main/NAZE/scheduler_tasks.o (symbol from plugin)
taskTelemetry                                     /tmp/cc8DLllS.ltrans5.ltrans.o
                                                  obj/main/NAZE/mw.o (symbol from plugin)
                                                  /tmp/cc8DLllS.ltrans9.ltrans.o
                                                  obj/main/NAZE/scheduler_tasks.o (symbol from plugin)
taskUpdateAccelerometer                           /tmp/cc8DLllS.ltrans29.ltrans.o
                                                  obj/main/NAZE/mw.o (symbol from plugin)
                                                  /tmp/cc8DLllS.ltrans9.ltrans.o
                                                  obj/main/NAZE/scheduler_tasks.o (symbol from plugin)
taskUpdateBaro                                    /tmp/cc8DLllS.ltrans19.ltrans.o
                                                  obj/main/NAZE/mw.o (symbol from plugin)
                                                  /tmp/cc8DLllS.ltrans9.ltrans.o
                                                  obj/main/NAZE/scheduler_tasks.o (symbol from plugin)
taskUpdateBattery                                 /tmp/cc8DLllS.ltrans28.ltrans.o
                                                  obj/main/NAZE/mw.o (symbol from plugin)
                                                  /tmp/cc8DLllS.ltrans9.ltrans.o
                                                  obj/main/NAZE/scheduler_tasks.o (symbol from plugin)
taskUpdateBeeper                                  /tmp/cc8DLllS.ltrans28.ltrans.o
                                                  obj/main/NAZE/mw.o (symbol from plugin)
                                                  /tmp/cc8DLllS.ltrans9.ltrans.o
                                                  obj/main/NAZE/scheduler_tasks.o (symbol from plugin)
taskUpdateCompass                                 /tmp/cc8DLllS.ltrans19.ltrans.o
                                                  obj/main/NAZE/mw.o (symbol from plugin)
                                                  /tmp/cc8DLllS.ltrans9.ltrans.o
                                                  obj/main/NAZE/scheduler_tasks.o (symbol from plugin)
taskUpdateDisplay                                 /tmp/cc8DLllS.ltrans19.ltrans.o
                                                  obj/main/NAZE/mw.o (symbol from plugin)
                                                  /tmp/cc8DLllS.ltrans9.ltrans.o
                                                  obj/main/NAZE/scheduler_tasks.o (symbol from plugin)
taskUpdateRxMain                                  /tmp/cc8DLllS.ltrans3.ltrans.o
                                                  obj/main/NAZE/mw.o (symbol from plugin)
                                                  /tmp/cc8DLllS.ltrans9.ltrans.o
                                                  obj/main/NAZE/scheduler_tasks.o (symbol from plugin)
taskUpdateSonar                                   /tmp/cc8DLllS.ltrans19.ltrans.o
                                                  obj/main/NAZE/mw.o (symbol from plugin)
                                                  /tmp/cc8DLllS.ltrans9.ltrans.o
                                                  obj/main/NAZE/scheduler_tasks.o (symbol from plugin)
telemTemperature1                                 obj/main/NAZE/mw.o (symbol from plugin)
telemetryCheckState                               /tmp/cc8DLllS.ltrans27.ltrans.o
                                                  obj/main/NAZE/telemetry/telemetry.o (symbol from plugin)
                                                  /tmp/cc8DLllS.ltrans5.ltrans.o
                                                  /tmp/cc8DLllS.ltrans3.ltrans.o
                                                  /tmp/cc8DLllS.ltrans0.ltrans.o
                                                  obj/main/NAZE/mw.o (symbol from plugin)
telemetryConfig.lto_priv.249                      /tmp/cc8DLllS.ltrans5.ltrans.o
                                                  /tmp/cc8DLllS.ltrans27.ltrans.o
                                                  /tmp/cc8DLllS.ltrans0.ltrans.o
telemetryConfig.lto_priv.250                      /tmp/cc8DLllS.ltrans5.ltrans.o
                                                  /tmp/cc8DLllS.ltrans0.ltrans.o
telemetryConfig.lto_priv.408                      /tmp/cc8DLllS.ltrans0.ltrans.o
                                                  /tmp/cc8DLllS.ltrans27.ltrans.o
                                                  /tmp/cc8DLllS.ltrans6.ltrans.o
telemetryConfig.lto_priv.409                      /tmp/cc8DLllS.ltrans0.ltrans.o
                                                  /tmp/cc8DLllS.ltrans27.ltrans.o
telemetryDetermineEnabledState                    obj/main/NAZE/telemetry/telemetry.o (symbol from plugin)
                                                  obj/main/NAZE/telemetry/ltm.o (symbol from plugin)
                                                  obj/main/NAZE/telemetry/smartport.o (symbol from plugin)
                                                  obj/main/NAZE/telemetry/hott.o (symbol from plugin)
                                                  obj/main/NAZE/telemetry/frsky.o (symbol from plugin)
telemetryInit                                     obj/main/NAZE/telemetry/telemetry.o (symbol from plugin)
                                                  obj/main/NAZE/main.o (symbol from plugin)
telemetryProcess                                  obj/main/NAZE/telemetry/telemetry.o (symbol from plugin)
                                                  obj/main/NAZE/mw.o (symbol from plugin)
telemetryUseConfig                                obj/main/NAZE/telemetry/telemetry.o (symbol from plugin)
                                                  obj/main/NAZE/config/config.o (symbol from plugin)
tfp_format                                        /tmp/cc8DLllS.ltrans6.ltrans.o
                                                  obj/main/NAZE/common/printf.o (symbol from plugin)
                                                  /tmp/cc8DLllS.ltrans25.ltrans.o
                                                  /tmp/cc8DLllS.ltrans9.ltrans.o
                                                  obj/main/NAZE/io/serial_cli.o (symbol from plugin)
                                                  obj/main/NAZE/blackbox/blackbox_io.o (symbol from plugin)
tfp_printf                                        obj/main/NAZE/common/printf.o (symbol from plugin)
tfp_sprintf                                       /tmp/cc8DLllS.ltrans6.ltrans.o
                                                  obj/main/NAZE/common/printf.o (symbol from plugin)
                                                  /tmp/cc8DLllS.ltrans20.ltrans.o
                                                  /tmp/cc8DLllS.ltrans10.ltrans.o
                                                  obj/main/NAZE/io/display.o (symbol from plugin)
                                                  obj/main/NAZE/io/ledstrip.o (symbol from plugin)
throttleAngleScale                                /tmp/cc8DLllS.ltrans1.ltrans.o
                                                  obj/main/NAZE/flight/imu.o (symbol from plugin)
                                                  /tmp/cc8DLllS.ltrans6.ltrans.o
timerChCCHandlerInit                              obj/main/NAZE/drivers/timer.o (symbol from plugin)
                                                  obj/main/NAZE/drivers/serial_softserial.o (symbol from plugin)
                                                  obj/main/NAZE/drivers/pwm_rx.o (symbol from plugin)
timerChCCR                                        obj/main/NAZE/drivers/timer.o (symbol from plugin)
timerChCCRHi                                      obj/main/NAZE/drivers/timer.o (symbol from plugin)
timerChCCRLo                                      obj/main/NAZE/drivers/timer.o (symbol from plugin)
timerChClearCCFlag                                obj/main/NAZE/drivers/timer.o (symbol from plugin)
timerChConfigCallbacks                            /tmp/cc8DLllS.ltrans17.ltrans.o
                                                  obj/main/NAZE/drivers/timer.o (symbol from plugin)
                                                  /tmp/cc8DLllS.ltrans7.ltrans.o
                                                  /tmp/cc8DLllS.ltrans0.ltrans.o
                                                  obj/main/NAZE/drivers/serial_softserial.o (symbol from plugin)
                                                  obj/main/NAZE/drivers/pwm_rx.o (symbol from plugin)
timerChConfigCallbacksDual                        obj/main/NAZE/drivers/timer.o (symbol from plugin)
timerChConfigGPIO                                 obj/main/NAZE/drivers/timer.o (symbol from plugin)
timerChConfigIC                                   obj/main/NAZE/drivers/timer.o (symbol from plugin)
timerChConfigICDual                               obj/main/NAZE/drivers/timer.o (symbol from plugin)
timerChConfigOC                                   obj/main/NAZE/drivers/timer.o (symbol from plugin)
timerChICPolarity                                 obj/main/NAZE/drivers/timer.o (symbol from plugin)
timerChITConfig                                   obj/main/NAZE/drivers/timer.o (symbol from plugin)
timerChITConfigDualLo                             obj/main/NAZE/drivers/timer.o (symbol from plugin)
timerChInit                                       obj/main/NAZE/drivers/timer.o (symbol from plugin)
timerChOvrHandlerInit                             obj/main/NAZE/drivers/timer.o (symbol from plugin)
                                                  obj/main/NAZE/drivers/pwm_rx.o (symbol from plugin)
timerChannelInfo                                  obj/main/NAZE/drivers/timer.o (symbol from plugin)
timerConfig                                       /tmp/cc8DLllS.ltrans16.ltrans.o
                                                  obj/main/NAZE/drivers/timer.o (symbol from plugin)
                                                  /tmp/cc8DLllS.ltrans17.ltrans.o
                                                  /tmp/cc8DLllS.ltrans0.ltrans.o
timerConfigure                                    /tmp/cc8DLllS.ltrans17.ltrans.o
                                                  obj/main/NAZE/drivers/timer.o (symbol from plugin)
                                                  /tmp/cc8DLllS.ltrans7.ltrans.o
                                                  /tmp/cc8DLllS.ltrans0.ltrans.o
                                                  obj/main/NAZE/drivers/serial_softserial.o (symbol from plugin)
                                                  obj/main/NAZE/drivers/pwm_rx.o (symbol from plugin)
timerForceOverflow                                obj/main/NAZE/drivers/timer.o (symbol from plugin)
                                                  obj/main/NAZE/drivers/pwm_output.o (symbol from plugin)
timerHardware                                     /tmp/cc8DLllS.ltrans0.ltrans.o
                                                  obj/main/NAZE/drivers/timer.o (symbol from plugin)
                                                  /tmp/cc8DLllS.ltrans7.ltrans.o
                                                  obj/main/NAZE/drivers/serial_softserial.o (symbol from plugin)
                                                  obj/main/NAZE/drivers/pwm_mapping.o (symbol from plugin)
timerInfo                                         obj/main/NAZE/drivers/timer.o (symbol from plugin)
timerInit                                         obj/main/NAZE/drivers/timer.o (symbol from plugin)
                                                  obj/main/NAZE/main.o (symbol from plugin)
timerNVICConfigure                                obj/main/NAZE/drivers/timer.o (symbol from plugin)
timerStart                                        obj/main/NAZE/drivers/timer.o (symbol from plugin)
                                                  obj/main/NAZE/main.o (symbol from plugin)
type_ch                                           obj/main/NAZE/pif/source/core/pif_log.o (symbol from plugin)
uartOpen                                          /tmp/cc8DLllS.ltrans15.ltrans.o
                                                  obj/main/NAZE/drivers/serial_uart.o (symbol from plugin)
                                                  /tmp/cc8DLllS.ltrans16.ltrans.o
                                                  obj/main/NAZE/io/serial.o (symbol from plugin)
uartPort1.lto_priv.561                            /tmp/cc8DLllS.ltrans17.ltrans.o
                                                  /tmp/cc8DLllS.ltrans15.ltrans.o
uartPort2.lto_priv.560                            /tmp/cc8DLllS.ltrans17.ltrans.o
                                                  /tmp/cc8DLllS.ltrans15.ltrans.o
uartPort3.lto_priv.559                            /tmp/cc8DLllS.ltrans17.ltrans.o
                                                  /tmp/cc8DLllS.ltrans15.ltrans.o
uartRead                                          obj/main/NAZE/drivers/serial_uart.o (symbol from plugin)
uartSetBaudRate                                   obj/main/NAZE/drivers/serial_uart.o (symbol from plugin)
uartSetMode                                       obj/main/NAZE/drivers/serial_uart.o (symbol from plugin)
uartStartTxDMA                                    /tmp/cc8DLllS.ltrans15.ltrans.o
                                                  obj/main/NAZE/drivers/serial_uart.o (symbol from plugin)
                                                  /tmp/cc8DLllS.ltrans17.ltrans.o
                                                  obj/main/NAZE/drivers/serial_uart_stm32f10x.o (symbol from plugin)
uartTotalRxBytesWaiting                           obj/main/NAZE/drivers/serial_uart.o (symbol from plugin)
uartTotalTxBytesFree                              obj/main/NAZE/drivers/serial_uart.o (symbol from plugin)
uartVTable                                        obj/main/NAZE/drivers/serial_uart.o (symbol from plugin)
                                                  obj/main/NAZE/drivers/serial_uart_stm32f10x.o (symbol from plugin)
uartWrite                                         obj/main/NAZE/drivers/serial_uart.o (symbol from plugin)
ubs_nav_fix_type                                  obj/main/NAZE/io/gps.o (symbol from plugin)
ubx_nav_status_bits                               obj/main/NAZE/io/gps.o (symbol from plugin)
ubx_protocol_bytes                                obj/main/NAZE/io/gps.o (symbol from plugin)
ug2864hsweg01InitI2C                              obj/main/NAZE/drivers/display_ug2864hsweg01.o (symbol from plugin)
                                                  obj/main/NAZE/io/display.o (symbol from plugin)
ug2864hsweg01InitI2C.part.0.lto_priv.494          /tmp/cc8DLllS.ltrans22.ltrans.o
                                                  /tmp/cc8DLllS.ltrans20.ltrans.o
                                                  /tmp/cc8DLllS.ltrans0.ltrans.o
ui2a                                              obj/main/NAZE/common/typeconversion.o (symbol from plugin)
                                                  obj/main/NAZE/common/printf.o (symbol from plugin)
uli2a                                             obj/main/NAZE/common/typeconversion.o (symbol from plugin)
                                                  obj/main/NAZE/common/printf.o (symbol from plugin)
unregisterExtiCallbackHandler                     obj/main/NAZE/drivers/system.o (symbol from plugin)
                                                  obj/main/NAZE/drivers/barometer_bmp085.o (symbol from plugin)
updateAccelerationReadings                        obj/main/NAZE/sensors/acceleration.o (symbol from plugin)
                                                  obj/main/NAZE/flight/imu.o (symbol from plugin)
updateActivatedModes                              obj/main/NAZE/io/rc_controls.o (symbol from plugin)
                                                  obj/main/NAZE/mw.o (symbol from plugin)
updateAdjustmentStates                            obj/main/NAZE/io/rc_controls.o (symbol from plugin)
                                                  obj/main/NAZE/mw.o (symbol from plugin)
updateAltHoldState                                obj/main/NAZE/flight/altitudehold.o (symbol from plugin)
                                                  obj/main/NAZE/mw.o (symbol from plugin)
updateBattery                                     obj/main/NAZE/sensors/battery.o (symbol from plugin)
                                                  obj/main/NAZE/mw.o (symbol from plugin)
updateBatteryVoltage.lto_priv.312                 /tmp/cc8DLllS.ltrans18.ltrans.o
                                                  /tmp/cc8DLllS.ltrans28.ltrans.o
updateCompass                                     obj/main/NAZE/sensors/compass.o (symbol from plugin)
                                                  obj/main/NAZE/mw.o (symbol from plugin)
updateCurrentMeter                                obj/main/NAZE/sensors/battery.o (symbol from plugin)
                                                  obj/main/NAZE/mw.o (symbol from plugin)
updateDelayCycles                                 obj/main/NAZE/flight/gtune.o (symbol from plugin)
updateDisplay                                     /tmp/cc8DLllS.ltrans20.ltrans.o
                                                  obj/main/NAZE/io/display.o (symbol from plugin)
                                                  /tmp/cc8DLllS.ltrans19.ltrans.o
                                                  /tmp/cc8DLllS.ltrans14.ltrans.o
                                                  /tmp/cc8DLllS.ltrans0.ltrans.o
                                                  obj/main/NAZE/mw.o (symbol from plugin)
                                                  obj/main/NAZE/io/gps.o (symbol from plugin)
updateFailsafeStatus                              obj/main/NAZE/io/display.o (symbol from plugin)
updateGpsIndicator                                obj/main/NAZE/io/gps.o (symbol from plugin)
                                                  obj/main/NAZE/mw.o (symbol from plugin)
updateGpsStateForHomeAndHoldMode                  obj/main/NAZE/flight/navigation.o (symbol from plugin)
                                                  obj/main/NAZE/mw.o (symbol from plugin)
updateGpsWaypointsAndMode                         obj/main/NAZE/flight/navigation.o (symbol from plugin)
                                                  obj/main/NAZE/mw.o (symbol from plugin)
updateGtuneState                                  obj/main/NAZE/mw.o (symbol from plugin)
updateHardwareRevision                            obj/main/NAZE/hardware_revision.o (symbol from plugin)
                                                  obj/main/NAZE/main.o (symbol from plugin)
updateInflightCalibrationState                    obj/main/NAZE/mw.o (symbol from plugin)
updateLedCount                                    obj/main/NAZE/io/ledstrip.o (symbol from plugin)
updateLedStrip                                    obj/main/NAZE/io/ledstrip.o (symbol from plugin)
                                                  obj/main/NAZE/mw.o (symbol from plugin)
updateMagHold                                     obj/main/NAZE/mw.o (symbol from plugin)
updateRSSI                                        obj/main/NAZE/rx/rx.o (symbol from plugin)
                                                  obj/main/NAZE/mw.o (symbol from plugin)
updateRSSIADC                                     obj/main/NAZE/rx/rx.o (symbol from plugin)
updateRSSIPWM                                     obj/main/NAZE/rx/rx.o (symbol from plugin)
updateRx                                          obj/main/NAZE/rx/rx.o (symbol from plugin)
                                                  obj/main/NAZE/mw.o (symbol from plugin)
updateRxStatus                                    obj/main/NAZE/io/display.o (symbol from plugin)
updateSonarAltHoldState                           obj/main/NAZE/flight/altitudehold.o (symbol from plugin)
                                                  obj/main/NAZE/mw.o (symbol from plugin)
updateTicker                                      obj/main/NAZE/io/display.o (symbol from plugin)
usTicks.lto_priv.468                              /tmp/cc8DLllS.ltrans16.ltrans.o
                                                  /tmp/cc8DLllS.ltrans0.ltrans.o
usartIrqCallback                                  /tmp/cc8DLllS.ltrans15.ltrans.o
                                                  obj/main/NAZE/drivers/serial_uart_stm32f10x.o (symbol from plugin)
                                                  /tmp/cc8DLllS.ltrans17.ltrans.o
usb1WireInitialize                                obj/main/NAZE/io/serial_1wire.o (symbol from plugin)
                                                  obj/main/NAZE/io/serial_msp.o (symbol from plugin)
usb1WirePassthrough                               obj/main/NAZE/io/serial_1wire.o (symbol from plugin)
                                                  obj/main/NAZE/io/serial_msp.o (symbol from plugin)
useBarometerConfig                                obj/main/NAZE/sensors/barometer.o (symbol from plugin)
                                                  obj/main/NAZE/config/config.o (symbol from plugin)
useFailsafeConfig                                 obj/main/NAZE/flight/failsafe.o (symbol from plugin)
                                                  obj/main/NAZE/config/config.o (symbol from plugin)
useGyroConfig                                     obj/main/NAZE/sensors/gyro.o (symbol from plugin)
                                                  obj/main/NAZE/config/config.o (symbol from plugin)
useRcControlsConfig                               obj/main/NAZE/io/rc_controls.o (symbol from plugin)
                                                  obj/main/NAZE/io/serial_msp.o (symbol from plugin)
                                                  obj/main/NAZE/config/config.o (symbol from plugin)
useRxConfig                                       obj/main/NAZE/rx/rx.o (symbol from plugin)
                                                  obj/main/NAZE/config/config.o (symbol from plugin)
usedTimers                                        obj/main/NAZE/drivers/timer.o (symbol from plugin)
validateAndFixConfig                              obj/main/NAZE/config/config.o (symbol from plugin)
valueTable                                        /tmp/cc8DLllS.ltrans9.ltrans.o
                                                  obj/main/NAZE/io/serial_cli.o (symbol from plugin)
                                                  /tmp/cc8DLllS.ltrans14.ltrans.o
vario                                             /tmp/cc8DLllS.ltrans5.ltrans.o
                                                  obj/main/NAZE/flight/altitudehold.o (symbol from plugin)
                                                  /tmp/cc8DLllS.ltrans19.ltrans.o
                                                  /tmp/cc8DLllS.ltrans2.ltrans.o
                                                  obj/main/NAZE/io/serial_msp.o (symbol from plugin)
                                                  obj/main/NAZE/telemetry/smartport.o (symbol from plugin)
                                                  obj/main/NAZE/telemetry/frsky.o (symbol from plugin)
vbat                                              /tmp/cc8DLllS.ltrans18.ltrans.o
                                                  obj/main/NAZE/sensors/battery.o (symbol from plugin)
                                                  /tmp/cc8DLllS.ltrans28.ltrans.o
                                                  /tmp/cc8DLllS.ltrans20.ltrans.o
                                                  /tmp/cc8DLllS.ltrans9.ltrans.o
                                                  /tmp/cc8DLllS.ltrans5.ltrans.o
                                                  /tmp/cc8DLllS.ltrans2.ltrans.o
                                                  obj/main/NAZE/io/serial_msp.o (symbol from plugin)
                                                  obj/main/NAZE/io/serial_cli.o (symbol from plugin)
                                                  obj/main/NAZE/telemetry/ltm.o (symbol from plugin)
                                                  obj/main/NAZE/telemetry/smartport.o (symbol from plugin)
                                                  obj/main/NAZE/telemetry/hott.o (symbol from plugin)
                                                  obj/main/NAZE/telemetry/frsky.o (symbol from plugin)
                                                  obj/main/NAZE/io/display.o (symbol from plugin)
vbatFilterState.lto_priv.407                      /tmp/cc8DLllS.ltrans18.ltrans.o
                                                  /tmp/cc8DLllS.ltrans0.ltrans.o
vbatLatestADC                                     /tmp/cc8DLllS.ltrans18.ltrans.o
                                                  obj/main/NAZE/sensors/battery.o (symbol from plugin)
                                                  /tmp/cc8DLllS.ltrans28.ltrans.o
                                                  /tmp/cc8DLllS.ltrans12.ltrans.o
                                                  /tmp/cc8DLllS.ltrans11.ltrans.o
                                                  obj/main/NAZE/blackbox/blackbox.o (symbol from plugin)
vbatReference.lto_priv.382                        /tmp/cc8DLllS.ltrans1.ltrans.o
                                                  /tmp/cc8DLllS.ltrans12.ltrans.o
                                                  /tmp/cc8DLllS.ltrans11.ltrans.o
velocityControl                                   /tmp/cc8DLllS.ltrans19.ltrans.o
                                                  obj/main/NAZE/flight/altitudehold.o (symbol from plugin)
                                                  /tmp/cc8DLllS.ltrans1.ltrans.o
waitForSerialPortToFinishTransmitting             /tmp/cc8DLllS.ltrans10.ltrans.o
                                                  obj/main/NAZE/io/serial.o (symbol from plugin)
                                                  /tmp/cc8DLllS.ltrans14.ltrans.o
                                                  /tmp/cc8DLllS.ltrans2.ltrans.o
                                                  obj/main/NAZE/io/serial_msp.o (symbol from plugin)
                                                  obj/main/NAZE/io/serial_cli.o (symbol from plugin)
                                                  obj/main/NAZE/io/gps.o (symbol from plugin)
warningLedDisable                                 obj/main/NAZE/io/statusindicator.o (symbol from plugin)
                                                  obj/main/NAZE/io/beeper.o (symbol from plugin)
                                                  obj/main/NAZE/mw.o (symbol from plugin)
warningLedEnable                                  obj/main/NAZE/io/statusindicator.o (symbol from plugin)
                                                  obj/main/NAZE/io/beeper.o (symbol from plugin)
warningLedFlash                                   obj/main/NAZE/io/statusindicator.o (symbol from plugin)
                                                  obj/main/NAZE/mw.o (symbol from plugin)
warningLedRefresh                                 /tmp/cc8DLllS.ltrans9.ltrans.o
                                                  obj/main/NAZE/io/statusindicator.o (symbol from plugin)
                                                  /tmp/cc8DLllS.ltrans28.ltrans.o
                                                  /tmp/cc8DLllS.ltrans16.ltrans.o
                                                  /tmp/cc8DLllS.ltrans1.ltrans.o
                                                  obj/main/NAZE/io/beeper.o (symbol from plugin)
warningLedResetTimer                              obj/main/NAZE/io/statusindicator.o (symbol from plugin)
warningLedState.lto_priv.223                      /tmp/cc8DLllS.ltrans9.ltrans.o
                                                  /tmp/cc8DLllS.ltrans28.ltrans.o
                                                  /tmp/cc8DLllS.ltrans16.ltrans.o
                                                  /tmp/cc8DLllS.ltrans1.ltrans.o
warningLedTimer.lto_priv.368                      /tmp/cc8DLllS.ltrans9.ltrans.o
                                                  /tmp/cc8DLllS.ltrans1.ltrans.o
warningLedUpdate                                  obj/main/NAZE/io/statusindicator.o (symbol from plugin)
                                                  obj/main/NAZE/mw.o (symbol from plugin)
waypoint_speed_gov.lto_priv.549                   /tmp/cc8DLllS.ltrans13.ltrans.o
                                                  /tmp/cc8DLllS.ltrans17.ltrans.o
workAroundForHottTelemetryOnUsart.isra.0.lto_priv.257 /tmp/cc8DLllS.ltrans27.ltrans.o
                                                  /tmp/cc8DLllS.ltrans5.ltrans.o
wp_distance.lto_priv.545                          /tmp/cc8DLllS.ltrans13.ltrans.o
                                                  /tmp/cc8DLllS.ltrans17.ltrans.o
wrap_18000.lto_priv.379                           /tmp/cc8DLllS.ltrans17.ltrans.o
                                                  /tmp/cc8DLllS.ltrans13.ltrans.o
                                                  /tmp/cc8DLllS.ltrans1.ltrans.o
writeAllMotors                                    obj/main/NAZE/flight/mixer.o (symbol from plugin)
writeEEPROM                                       /tmp/cc8DLllS.ltrans6.ltrans.o
                                                  obj/main/NAZE/config/config.o (symbol from plugin)
                                                  /tmp/cc8DLllS.ltrans14.ltrans.o
                                                  /tmp/cc8DLllS.ltrans3.ltrans.o
                                                  /tmp/cc8DLllS.ltrans2.ltrans.o
                                                  /tmp/cc8DLllS.ltrans0.ltrans.o
                                                  obj/main/NAZE/io/serial_msp.o (symbol from plugin)
                                                  obj/main/NAZE/io/serial_cli.o (symbol from plugin)
writeMotors                                       /tmp/cc8DLllS.ltrans16.ltrans.o
                                                  obj/main/NAZE/flight/mixer.o (symbol from plugin)
                                                  /tmp/cc8DLllS.ltrans1.ltrans.o
                                                  obj/main/NAZE/mw.o (symbol from plugin)
writeServos                                       obj/main/NAZE/flight/mixer.o (symbol from plugin)
                                                  obj/main/NAZE/mw.o (symbol from plugin)
writer.lto_priv.314                               /tmp/cc8DLllS.ltrans9.ltrans.o
                                                  /tmp/cc8DLllS.ltrans2.ltrans.o
ws2811DMAHandler                                  /tmp/cc8DLllS.ltrans7.ltrans.o
                                                  obj/main/NAZE/drivers/light_ws2811strip.o (symbol from plugin)
                                                  /tmp/cc8DLllS.ltrans0.ltrans.o
ws2811LedDataTransferInProgress                   /tmp/cc8DLllS.ltrans8.ltrans.o
                                                  obj/main/NAZE/drivers/light_ws2811strip.o (symbol from plugin)
                                                  /tmp/cc8DLllS.ltrans7.ltrans.o
ws2811LedStripDMAEnable                           obj/main/NAZE/drivers/light_ws2811strip_stm32f10x.o (symbol from plugin)
                                                  obj/main/NAZE/drivers/light_ws2811strip.o (symbol from plugin)
ws2811LedStripHardwareInit                        obj/main/NAZE/drivers/light_ws2811strip_stm32f10x.o (symbol from plugin)
                                                  obj/main/NAZE/drivers/light_ws2811strip.o (symbol from plugin)
ws2811LedStripInit                                obj/main/NAZE/drivers/light_ws2811strip.o (symbol from plugin)
                                                  obj/main/NAZE/io/ledstrip.o (symbol from plugin)
ws2811UpdateStrip                                 /tmp/cc8DLllS.ltrans7.ltrans.o
                                                  obj/main/NAZE/drivers/light_ws2811strip.o (symbol from plugin)
                                                  /tmp/cc8DLllS.ltrans8.ltrans.o
                                                  /tmp/cc8DLllS.ltrans0.ltrans.o
                                                  obj/main/NAZE/io/ledstrip.o (symbol from plugin)
                                                  obj/main/NAZE/drivers/light_ws2811strip_stm32f10x.o (symbol from plugin)
xBusChannelCount.lto_priv.435                     /tmp/cc8DLllS.ltrans9.ltrans.o
                                                  /tmp/cc8DLllS.ltrans0.ltrans.o
xBusDataIncoming.lto_priv.432                     /tmp/cc8DLllS.ltrans9.ltrans.o
                                                  /tmp/cc8DLllS.ltrans0.ltrans.o
xBusDataReceive.lto_priv.438                      /tmp/cc8DLllS.ltrans9.ltrans.o
                                                  /tmp/cc8DLllS.ltrans0.ltrans.o
xBusFrameLength.lto_priv.434                      /tmp/cc8DLllS.ltrans9.ltrans.o
                                                  /tmp/cc8DLllS.ltrans0.ltrans.o
xBusFramePosition.lto_priv.433                    /tmp/cc8DLllS.ltrans9.ltrans.o
                                                  /tmp/cc8DLllS.ltrans0.ltrans.o
xBusFrameReceived.lto_priv.287                    /tmp/cc8DLllS.ltrans9.ltrans.o
                                                  /tmp/cc8DLllS.ltrans3.ltrans.o
                                                  /tmp/cc8DLllS.ltrans0.ltrans.o
xBusFrameStatus                                   obj/main/NAZE/rx/xbus.o (symbol from plugin)
                                                  obj/main/NAZE/rx/rx.o (symbol from plugin)
xBusInit                                          obj/main/NAZE/rx/xbus.o (symbol from plugin)
                                                  obj/main/NAZE/rx/rx.o (symbol from plugin)
xBusProvider.lto_priv.436                         /tmp/cc8DLllS.ltrans9.ltrans.o
                                                  /tmp/cc8DLllS.ltrans0.ltrans.o
xBusReadRawRC.lto_priv.437                        /tmp/cc8DLllS.ltrans9.ltrans.o
                                                  /tmp/cc8DLllS.ltrans0.ltrans.o
xBusRj01CRC8                                      obj/main/NAZE/rx/xbus.o (symbol from plugin)
xmitState.lto_priv.389                            /tmp/cc8DLllS.ltrans1.ltrans.o
                                                  /tmp/cc8DLllS.ltrans12.ltrans.o
                                                  /tmp/cc8DLllS.ltrans11.ltrans.o
zigzagEncode                                      obj/main/NAZE/common/encoding.o (symbol from plugin)
                                                  obj/main/NAZE/blackbox/blackbox_io.o (symbol from plugin)
